
main.elf:     file format elf32-littlearm


Disassembly of section .isr_vector:

08000000 <g_pfnVectors>:
 8000000:	20020000 	andcs	r0, r2, r0
 8000004:	08009f51 	stmdaeq	r0, {r0, r4, r6, r8, r9, sl, fp, ip, pc}
 8000008:	08000281 	stmdaeq	r0, {r0, r7, r9}
 800000c:	08000285 	stmdaeq	r0, {r0, r2, r7, r9}
 8000010:	08000289 	stmdaeq	r0, {r0, r3, r7, r9}
 8000014:	0800028d 	stmdaeq	r0, {r0, r2, r3, r7, r9}
 8000018:	08000291 	stmdaeq	r0, {r0, r4, r7, r9}
	...
 800002c:	08005235 	stmdaeq	r0, {r0, r2, r4, r5, r9, ip, lr}
 8000030:	08000295 	stmdaeq	r0, {r0, r2, r4, r7, r9}
 8000034:	00000000 	andeq	r0, r0, r0
 8000038:	08005315 	stmdaeq	r0, {r0, r2, r4, r8, r9, ip, lr}
 800003c:	08005365 	stmdaeq	r0, {r0, r2, r5, r6, r8, r9, ip, lr}
 8000040:	08009fa5 	stmdaeq	r0, {r0, r2, r5, r7, r8, r9, sl, fp, ip, pc}
 8000044:	08009fa5 	stmdaeq	r0, {r0, r2, r5, r7, r8, r9, sl, fp, ip, pc}
 8000048:	08009fa5 	stmdaeq	r0, {r0, r2, r5, r7, r8, r9, sl, fp, ip, pc}
 800004c:	08009fa5 	stmdaeq	r0, {r0, r2, r5, r7, r8, r9, sl, fp, ip, pc}
 8000050:	08009fa5 	stmdaeq	r0, {r0, r2, r5, r7, r8, r9, sl, fp, ip, pc}
 8000054:	08009fa5 	stmdaeq	r0, {r0, r2, r5, r7, r8, r9, sl, fp, ip, pc}
 8000058:	080002d9 	stmdaeq	r0, {r0, r3, r4, r6, r7, r9}
 800005c:	08009fa5 	stmdaeq	r0, {r0, r2, r5, r7, r8, r9, sl, fp, ip, pc}
 8000060:	08009fa5 	stmdaeq	r0, {r0, r2, r5, r7, r8, r9, sl, fp, ip, pc}
 8000064:	08009fa5 	stmdaeq	r0, {r0, r2, r5, r7, r8, r9, sl, fp, ip, pc}
 8000068:	08009fa5 	stmdaeq	r0, {r0, r2, r5, r7, r8, r9, sl, fp, ip, pc}
 800006c:	08009fa5 	stmdaeq	r0, {r0, r2, r5, r7, r8, r9, sl, fp, ip, pc}
 8000070:	08009fa5 	stmdaeq	r0, {r0, r2, r5, r7, r8, r9, sl, fp, ip, pc}
 8000074:	08009fa5 	stmdaeq	r0, {r0, r2, r5, r7, r8, r9, sl, fp, ip, pc}
 8000078:	08009fa5 	stmdaeq	r0, {r0, r2, r5, r7, r8, r9, sl, fp, ip, pc}
 800007c:	08009fa5 	stmdaeq	r0, {r0, r2, r5, r7, r8, r9, sl, fp, ip, pc}
 8000080:	08009fa5 	stmdaeq	r0, {r0, r2, r5, r7, r8, r9, sl, fp, ip, pc}
 8000084:	08009fa5 	stmdaeq	r0, {r0, r2, r5, r7, r8, r9, sl, fp, ip, pc}
 8000088:	08009fa5 	stmdaeq	r0, {r0, r2, r5, r7, r8, r9, sl, fp, ip, pc}
 800008c:	08009fa5 	stmdaeq	r0, {r0, r2, r5, r7, r8, r9, sl, fp, ip, pc}
 8000090:	08009fa5 	stmdaeq	r0, {r0, r2, r5, r7, r8, r9, sl, fp, ip, pc}
 8000094:	08009fa5 	stmdaeq	r0, {r0, r2, r5, r7, r8, r9, sl, fp, ip, pc}
 8000098:	08009fa5 	stmdaeq	r0, {r0, r2, r5, r7, r8, r9, sl, fp, ip, pc}
 800009c:	08009fa5 	stmdaeq	r0, {r0, r2, r5, r7, r8, r9, sl, fp, ip, pc}
 80000a0:	08009fa5 	stmdaeq	r0, {r0, r2, r5, r7, r8, r9, sl, fp, ip, pc}
 80000a4:	08009fa5 	stmdaeq	r0, {r0, r2, r5, r7, r8, r9, sl, fp, ip, pc}
 80000a8:	08009fa5 	stmdaeq	r0, {r0, r2, r5, r7, r8, r9, sl, fp, ip, pc}
 80000ac:	08009fa5 	stmdaeq	r0, {r0, r2, r5, r7, r8, r9, sl, fp, ip, pc}
 80000b0:	08009fa5 	stmdaeq	r0, {r0, r2, r5, r7, r8, r9, sl, fp, ip, pc}
 80000b4:	08009fa5 	stmdaeq	r0, {r0, r2, r5, r7, r8, r9, sl, fp, ip, pc}
 80000b8:	08009fa5 	stmdaeq	r0, {r0, r2, r5, r7, r8, r9, sl, fp, ip, pc}
 80000bc:	08009fa5 	stmdaeq	r0, {r0, r2, r5, r7, r8, r9, sl, fp, ip, pc}
 80000c0:	08009fa5 	stmdaeq	r0, {r0, r2, r5, r7, r8, r9, sl, fp, ip, pc}
 80000c4:	08002621 	stmdaeq	r0, {r0, r5, r9, sl, sp}
 80000c8:	0800262d 	stmdaeq	r0, {r0, r2, r3, r5, r9, sl, sp}
 80000cc:	08009fa5 	stmdaeq	r0, {r0, r2, r5, r7, r8, r9, sl, fp, ip, pc}
 80000d0:	08009fa5 	stmdaeq	r0, {r0, r2, r5, r7, r8, r9, sl, fp, ip, pc}
 80000d4:	08009fa5 	stmdaeq	r0, {r0, r2, r5, r7, r8, r9, sl, fp, ip, pc}
 80000d8:	08009fa5 	stmdaeq	r0, {r0, r2, r5, r7, r8, r9, sl, fp, ip, pc}
 80000dc:	08009fa5 	stmdaeq	r0, {r0, r2, r5, r7, r8, r9, sl, fp, ip, pc}
 80000e0:	08002e31 	stmdaeq	r0, {r0, r4, r5, r9, sl, fp, sp}
 80000e4:	08009fa5 	stmdaeq	r0, {r0, r2, r5, r7, r8, r9, sl, fp, ip, pc}
 80000e8:	08000299 	stmdaeq	r0, {r0, r3, r4, r7, r9}
 80000ec:	08009fa5 	stmdaeq	r0, {r0, r2, r5, r7, r8, r9, sl, fp, ip, pc}
 80000f0:	08009fa5 	stmdaeq	r0, {r0, r2, r5, r7, r8, r9, sl, fp, ip, pc}
 80000f4:	08009fa5 	stmdaeq	r0, {r0, r2, r5, r7, r8, r9, sl, fp, ip, pc}
 80000f8:	08009fa5 	stmdaeq	r0, {r0, r2, r5, r7, r8, r9, sl, fp, ip, pc}
 80000fc:	08009fa5 	stmdaeq	r0, {r0, r2, r5, r7, r8, r9, sl, fp, ip, pc}
 8000100:	08009fa5 	stmdaeq	r0, {r0, r2, r5, r7, r8, r9, sl, fp, ip, pc}
 8000104:	08009fa5 	stmdaeq	r0, {r0, r2, r5, r7, r8, r9, sl, fp, ip, pc}
 8000108:	08009fa5 	stmdaeq	r0, {r0, r2, r5, r7, r8, r9, sl, fp, ip, pc}
 800010c:	08009fa5 	stmdaeq	r0, {r0, r2, r5, r7, r8, r9, sl, fp, ip, pc}
 8000110:	08009fa5 	stmdaeq	r0, {r0, r2, r5, r7, r8, r9, sl, fp, ip, pc}
 8000114:	08009fa5 	stmdaeq	r0, {r0, r2, r5, r7, r8, r9, sl, fp, ip, pc}
 8000118:	08009fa5 	stmdaeq	r0, {r0, r2, r5, r7, r8, r9, sl, fp, ip, pc}
 800011c:	08009fa5 	stmdaeq	r0, {r0, r2, r5, r7, r8, r9, sl, fp, ip, pc}
 8000120:	08009fa5 	stmdaeq	r0, {r0, r2, r5, r7, r8, r9, sl, fp, ip, pc}
 8000124:	08009fa5 	stmdaeq	r0, {r0, r2, r5, r7, r8, r9, sl, fp, ip, pc}
 8000128:	08009fa5 	stmdaeq	r0, {r0, r2, r5, r7, r8, r9, sl, fp, ip, pc}
 800012c:	08009fa5 	stmdaeq	r0, {r0, r2, r5, r7, r8, r9, sl, fp, ip, pc}
 8000130:	08009fa5 	stmdaeq	r0, {r0, r2, r5, r7, r8, r9, sl, fp, ip, pc}
 8000134:	08009fa5 	stmdaeq	r0, {r0, r2, r5, r7, r8, r9, sl, fp, ip, pc}
 8000138:	08009fa5 	stmdaeq	r0, {r0, r2, r5, r7, r8, r9, sl, fp, ip, pc}
 800013c:	08009fa5 	stmdaeq	r0, {r0, r2, r5, r7, r8, r9, sl, fp, ip, pc}
 8000140:	08009fa5 	stmdaeq	r0, {r0, r2, r5, r7, r8, r9, sl, fp, ip, pc}
 8000144:	08009fa5 	stmdaeq	r0, {r0, r2, r5, r7, r8, r9, sl, fp, ip, pc}
 8000148:	08009fa5 	stmdaeq	r0, {r0, r2, r5, r7, r8, r9, sl, fp, ip, pc}
 800014c:	080002cd 	stmdaeq	r0, {r0, r2, r3, r6, r7, r9}
 8000150:	08009fa5 	stmdaeq	r0, {r0, r2, r5, r7, r8, r9, sl, fp, ip, pc}
 8000154:	08009fa5 	stmdaeq	r0, {r0, r2, r5, r7, r8, r9, sl, fp, ip, pc}
 8000158:	08009fa5 	stmdaeq	r0, {r0, r2, r5, r7, r8, r9, sl, fp, ip, pc}
 800015c:	08009fa5 	stmdaeq	r0, {r0, r2, r5, r7, r8, r9, sl, fp, ip, pc}
 8000160:	08009fa5 	stmdaeq	r0, {r0, r2, r5, r7, r8, r9, sl, fp, ip, pc}
 8000164:	08009fa5 	stmdaeq	r0, {r0, r2, r5, r7, r8, r9, sl, fp, ip, pc}
 8000168:	08009fa5 	stmdaeq	r0, {r0, r2, r5, r7, r8, r9, sl, fp, ip, pc}
 800016c:	08009fa5 	stmdaeq	r0, {r0, r2, r5, r7, r8, r9, sl, fp, ip, pc}
 8000170:	08009fa5 	stmdaeq	r0, {r0, r2, r5, r7, r8, r9, sl, fp, ip, pc}
 8000174:	08009fa5 	stmdaeq	r0, {r0, r2, r5, r7, r8, r9, sl, fp, ip, pc}
 8000178:	08009fa5 	stmdaeq	r0, {r0, r2, r5, r7, r8, r9, sl, fp, ip, pc}
 800017c:	08009fa5 	stmdaeq	r0, {r0, r2, r5, r7, r8, r9, sl, fp, ip, pc}
 8000180:	08009fa5 	stmdaeq	r0, {r0, r2, r5, r7, r8, r9, sl, fp, ip, pc}
 8000184:	08009fa5 	stmdaeq	r0, {r0, r2, r5, r7, r8, r9, sl, fp, ip, pc}

Disassembly of section .sw_version:

08000188 <build_version>:
 8000188:	796c464b 	stmdbvc	ip!, {r0, r1, r3, r6, r9, sl, lr}^
 800018c:	2e307620 	cfmsuba32cs	mvax1, mvax7, mvfx0, mvfx0
 8000190:	2031302e 	eorscs	r3, r1, lr, lsr #32
 8000194:	68706c61 	ldmdavs	r0!, {r0, r5, r6, sl, fp, sp, lr}^
 8000198:	32282061 	eorcc	r2, r8, #97	; 0x61
 800019c:	30333130 	eorscc	r3, r3, r0, lsr r1
 80001a0:	2d373032 	ldccs	0, cr3, [r7, #-200]!	; 0xffffff38
 80001a4:	35333231 	ldrcc	r3, [r3, #-561]!	; 0x231
 80001a8:	00000029 	andeq	r0, r0, r9, lsr #32

Disassembly of section .text:

080001b0 <__do_global_dtors_aux>:
 80001b0:	b510      	push	{r4, lr}
 80001b2:	4c05      	ldr	r4, [pc, #20]	; (80001c8 <__do_global_dtors_aux+0x18>)
 80001b4:	7823      	ldrb	r3, [r4, #0]
 80001b6:	b933      	cbnz	r3, 80001c6 <__do_global_dtors_aux+0x16>
 80001b8:	4804      	ldr	r0, [pc, #16]	; (80001cc <__do_global_dtors_aux+0x1c>)
 80001ba:	b110      	cbz	r0, 80001c2 <__do_global_dtors_aux+0x12>
 80001bc:	4804      	ldr	r0, [pc, #16]	; (80001d0 <__do_global_dtors_aux+0x20>)
 80001be:	f3af 8000 	nop.w
 80001c2:	2101      	movs	r1, #1
 80001c4:	7021      	strb	r1, [r4, #0]
 80001c6:	bd10      	pop	{r4, pc}
 80001c8:	20000590 	mulcs	r0, r0, r5
 80001cc:	00000000 	andeq	r0, r0, r0
 80001d0:	0800ad78 	stmdaeq	r0, {r3, r4, r5, r6, r8, sl, fp, sp, pc}

080001d4 <frame_dummy>:
 80001d4:	b508      	push	{r3, lr}
 80001d6:	4b06      	ldr	r3, [pc, #24]	; (80001f0 <frame_dummy+0x1c>)
 80001d8:	b11b      	cbz	r3, 80001e2 <frame_dummy+0xe>
 80001da:	4806      	ldr	r0, [pc, #24]	; (80001f4 <frame_dummy+0x20>)
 80001dc:	4906      	ldr	r1, [pc, #24]	; (80001f8 <frame_dummy+0x24>)
 80001de:	f3af 8000 	nop.w
 80001e2:	4806      	ldr	r0, [pc, #24]	; (80001fc <frame_dummy+0x28>)
 80001e4:	6801      	ldr	r1, [r0, #0]
 80001e6:	b111      	cbz	r1, 80001ee <frame_dummy+0x1a>
 80001e8:	4b05      	ldr	r3, [pc, #20]	; (8000200 <frame_dummy+0x2c>)
 80001ea:	b103      	cbz	r3, 80001ee <frame_dummy+0x1a>
 80001ec:	4798      	blx	r3
 80001ee:	bd08      	pop	{r3, pc}
 80001f0:	00000000 	andeq	r0, r0, r0
 80001f4:	0800ad78 	stmdaeq	r0, {r3, r4, r5, r6, r8, sl, fp, sp, pc}
 80001f8:	20000594 	mulcs	r0, r4, r5
 80001fc:	2000058c 	andcs	r0, r0, ip, lsl #11
 8000200:	00000000 	andeq	r0, r0, r0

08000204 <_mainCRTStartup>:
 8000204:	4b13      	ldr	r3, [pc, #76]	; (8000254 <_mainCRTStartup+0x50>)
 8000206:	2b00      	cmp	r3, #0
 8000208:	bf08      	it	eq
 800020a:	4b11      	ldreq	r3, [pc, #68]	; (8000250 <_mainCRTStartup+0x4c>)
 800020c:	469d      	mov	sp, r3
 800020e:	f5a3 3a80 	sub.w	sl, r3, #65536	; 0x10000
 8000212:	2100      	movs	r1, #0
 8000214:	468b      	mov	fp, r1
 8000216:	460f      	mov	r7, r1
 8000218:	4811      	ldr	r0, [pc, #68]	; (8000260 <_mainCRTStartup+0x5c>)
 800021a:	4a12      	ldr	r2, [pc, #72]	; (8000264 <_mainCRTStartup+0x60>)
 800021c:	1a12      	subs	r2, r2, r0
 800021e:	f00a fa31 	bl	800a684 <memset>
 8000222:	4b0d      	ldr	r3, [pc, #52]	; (8000258 <_mainCRTStartup+0x54>)
 8000224:	2b00      	cmp	r3, #0
 8000226:	d000      	beq.n	800022a <_mainCRTStartup+0x26>
 8000228:	4798      	blx	r3
 800022a:	4b0c      	ldr	r3, [pc, #48]	; (800025c <_mainCRTStartup+0x58>)
 800022c:	2b00      	cmp	r3, #0
 800022e:	d000      	beq.n	8000232 <_mainCRTStartup+0x2e>
 8000230:	4798      	blx	r3
 8000232:	2000      	movs	r0, #0
 8000234:	2100      	movs	r1, #0
 8000236:	4604      	mov	r4, r0
 8000238:	460d      	mov	r5, r1
 800023a:	480b      	ldr	r0, [pc, #44]	; (8000268 <_mainCRTStartup+0x64>)
 800023c:	f00a f98a 	bl	800a554 <atexit>
 8000240:	f00a f9ba 	bl	800a5b8 <__libc_init_array>
 8000244:	4620      	mov	r0, r4
 8000246:	4629      	mov	r1, r5
 8000248:	f009 feae 	bl	8009fa8 <main>
 800024c:	f00a f98e 	bl	800a56c <exit>
 8000250:	00080000 	andeq	r0, r8, r0
	...
 8000260:	20000590 	mulcs	r0, r0, r5
 8000264:	20001678 	andcs	r1, r0, r8, ror r6
 8000268:	0800a58d 	stmdaeq	r0, {r0, r2, r3, r7, r8, sl, sp, pc}
 800026c:	0800ada8 	stmdaeq	r0, {r3, r5, r7, r8, sl, fp, sp, pc}
 8000270:	20000000 	andcs	r0, r0, r0
 8000274:	2000058c 	andcs	r0, r0, ip, lsl #11
 8000278:	20000590 	mulcs	r0, r0, r5
 800027c:	20001678 	andcs	r1, r0, r8, ror r6

08000280 <NMI_Handler>:
 8000280:	4770      	bx	lr
 8000282:	bf00      	nop

08000284 <HardFault_Handler>:
 8000284:	e7fe      	b.n	8000284 <HardFault_Handler>
 8000286:	bf00      	nop

08000288 <MemManage_Handler>:
 8000288:	e7fe      	b.n	8000288 <MemManage_Handler>
 800028a:	bf00      	nop

0800028c <BusFault_Handler>:
 800028c:	e7fe      	b.n	800028c <BusFault_Handler>
 800028e:	bf00      	nop

08000290 <UsageFault_Handler>:
 8000290:	e7fe      	b.n	8000290 <UsageFault_Handler>
 8000292:	bf00      	nop

08000294 <DebugMon_Handler>:
 8000294:	4770      	bx	lr
 8000296:	bf00      	nop

08000298 <OTG_FS_WKUP_IRQHandler>:
 8000298:	b510      	push	{r4, lr}
 800029a:	4c0b      	ldr	r4, [pc, #44]	; (80002c8 <OTG_FS_WKUP_IRQHandler+0x30>)
 800029c:	7aa3      	ldrb	r3, [r4, #10]
 800029e:	b163      	cbz	r3, 80002ba <OTG_FS_WKUP_IRQHandler+0x22>
 80002a0:	f64e 5010 	movw	r0, #60688	; 0xed10
 80002a4:	f2ce 0000 	movt	r0, #57344	; 0xe000
 80002a8:	6801      	ldr	r1, [r0, #0]
 80002aa:	f021 0206 	bic.w	r2, r1, #6
 80002ae:	6002      	str	r2, [r0, #0]
 80002b0:	f000 f85c 	bl	800036c <SystemInit>
 80002b4:	4620      	mov	r0, r4
 80002b6:	f008 fd1f 	bl	8008cf8 <USB_OTG_UngateClock>
 80002ba:	f44f 2080 	mov.w	r0, #262144	; 0x40000
 80002be:	e8bd 4010 	ldmia.w	sp!, {r4, lr}
 80002c2:	f005 bacb 	b.w	800585c <EXTI_ClearITPendingBit>
 80002c6:	bf00      	nop
 80002c8:	20000730 	andcs	r0, r0, r0, lsr r7

080002cc <OTG_FS_IRQHandler>:
 80002cc:	f240 7030 	movw	r0, #1840	; 0x730
 80002d0:	f2c2 0000 	movt	r0, #8192	; 0x2000
 80002d4:	f008 bf0a 	b.w	80090ec <USBD_OTG_ISR_Handler>

080002d8 <EXTI0_IRQHandler>:
 80002d8:	4770      	bx	lr
 80002da:	bf00      	nop

080002dc <SystemCoreClockUpdate>:
 80002dc:	f44f 5360 	mov.w	r3, #14336	; 0x3800
 80002e0:	f2c4 0302 	movt	r3, #16386	; 0x4002
 80002e4:	689a      	ldr	r2, [r3, #8]
 80002e6:	f002 020c 	and.w	r2, r2, #12
 80002ea:	2a04      	cmp	r2, #4
 80002ec:	d013      	beq.n	8000316 <SystemCoreClockUpdate+0x3a>
 80002ee:	2a08      	cmp	r2, #8
 80002f0:	d016      	beq.n	8000320 <SystemCoreClockUpdate+0x44>
 80002f2:	f44f 5110 	mov.w	r1, #9216	; 0x2400
 80002f6:	f2c0 01f4 	movt	r1, #244	; 0xf4
 80002fa:	f44f 5060 	mov.w	r0, #14336	; 0x3800
 80002fe:	f2c4 0002 	movt	r0, #16386	; 0x4002
 8000302:	4b19      	ldr	r3, [pc, #100]	; (8000368 <SystemCoreClockUpdate+0x8c>)
 8000304:	6882      	ldr	r2, [r0, #8]
 8000306:	f3c2 1c03 	ubfx	ip, r2, #4, #4
 800030a:	f813 000c 	ldrb.w	r0, [r3, ip]
 800030e:	fa21 f100 	lsr.w	r1, r1, r0
 8000312:	6119      	str	r1, [r3, #16]
 8000314:	4770      	bx	lr
 8000316:	f44f 51d8 	mov.w	r1, #6912	; 0x1b00
 800031a:	f2c0 01b7 	movt	r1, #183	; 0xb7
 800031e:	e7ec      	b.n	80002fa <SystemCoreClockUpdate+0x1e>
 8000320:	6858      	ldr	r0, [r3, #4]
 8000322:	685a      	ldr	r2, [r3, #4]
 8000324:	6859      	ldr	r1, [r3, #4]
 8000326:	f410 0f80 	tst.w	r0, #4194304	; 0x400000
 800032a:	f44f 5c60 	mov.w	ip, #14336	; 0x3800
 800032e:	bf14      	ite	ne
 8000330:	f44f 53d8 	movne.w	r3, #6912	; 0x1b00
 8000334:	f44f 5310 	moveq.w	r3, #9216	; 0x2400
 8000338:	f2c4 0c02 	movt	ip, #16386	; 0x4002
 800033c:	bf14      	ite	ne
 800033e:	f2c0 03b7 	movtne	r3, #183	; 0xb7
 8000342:	f2c0 03f4 	movteq	r3, #244	; 0xf4
 8000346:	f002 023f 	and.w	r2, r2, #63	; 0x3f
 800034a:	f3c1 1088 	ubfx	r0, r1, #6, #9
 800034e:	fbb3 f1f2 	udiv	r1, r3, r2
 8000352:	f8dc 3004 	ldr.w	r3, [ip, #4]
 8000356:	f3c3 4201 	ubfx	r2, r3, #16, #2
 800035a:	fb01 f100 	mul.w	r1, r1, r0
 800035e:	1c50      	adds	r0, r2, #1
 8000360:	0043      	lsls	r3, r0, #1
 8000362:	fbb1 f1f3 	udiv	r1, r1, r3
 8000366:	e7c8      	b.n	80002fa <SystemCoreClockUpdate+0x1e>
 8000368:	20000004 	andcs	r0, r0, r4

0800036c <SystemInit>:
 800036c:	f44f 426d 	mov.w	r2, #60672	; 0xed00
 8000370:	f2ce 0200 	movt	r2, #57344	; 0xe000
 8000374:	f44f 5360 	mov.w	r3, #14336	; 0x3800
 8000378:	f8d2 0088 	ldr.w	r0, [r2, #136]	; 0x88
 800037c:	f2c4 0302 	movt	r3, #16386	; 0x4002
 8000380:	f440 0170 	orr.w	r1, r0, #15728640	; 0xf00000
 8000384:	f8c2 1088 	str.w	r1, [r2, #136]	; 0x88
 8000388:	6818      	ldr	r0, [r3, #0]
 800038a:	2200      	movs	r2, #0
 800038c:	f040 0101 	orr.w	r1, r0, #1
 8000390:	6019      	str	r1, [r3, #0]
 8000392:	609a      	str	r2, [r3, #8]
 8000394:	6818      	ldr	r0, [r3, #0]
 8000396:	f243 0110 	movw	r1, #12304	; 0x3010
 800039a:	f020 7c84 	bic.w	ip, r0, #17301504	; 0x1080000
 800039e:	f42c 3080 	bic.w	r0, ip, #65536	; 0x10000
 80003a2:	f2c2 4100 	movt	r1, #9216	; 0x2400
 80003a6:	6018      	str	r0, [r3, #0]
 80003a8:	6059      	str	r1, [r3, #4]
 80003aa:	6818      	ldr	r0, [r3, #0]
 80003ac:	b084      	sub	sp, #16
 80003ae:	f420 2180 	bic.w	r1, r0, #262144	; 0x40000
 80003b2:	6019      	str	r1, [r3, #0]
 80003b4:	60da      	str	r2, [r3, #12]
 80003b6:	9201      	str	r2, [sp, #4]
 80003b8:	9202      	str	r2, [sp, #8]
 80003ba:	6818      	ldr	r0, [r3, #0]
 80003bc:	f440 3280 	orr.w	r2, r0, #65536	; 0x10000
 80003c0:	601a      	str	r2, [r3, #0]
 80003c2:	681a      	ldr	r2, [r3, #0]
 80003c4:	f402 3100 	and.w	r1, r2, #131072	; 0x20000
 80003c8:	9102      	str	r1, [sp, #8]
 80003ca:	9801      	ldr	r0, [sp, #4]
 80003cc:	1c42      	adds	r2, r0, #1
 80003ce:	9201      	str	r2, [sp, #4]
 80003d0:	9902      	ldr	r1, [sp, #8]
 80003d2:	b919      	cbnz	r1, 80003dc <SystemInit+0x70>
 80003d4:	9801      	ldr	r0, [sp, #4]
 80003d6:	f5b0 4fa0 	cmp.w	r0, #20480	; 0x5000
 80003da:	d1f2      	bne.n	80003c2 <SystemInit+0x56>
 80003dc:	f44f 5c60 	mov.w	ip, #14336	; 0x3800
 80003e0:	f2c4 0c02 	movt	ip, #16386	; 0x4002
 80003e4:	f8dc 3000 	ldr.w	r3, [ip]
 80003e8:	f413 3300 	ands.w	r3, r3, #131072	; 0x20000
 80003ec:	d01a      	beq.n	8000424 <SystemInit+0xb8>
 80003ee:	2101      	movs	r1, #1
 80003f0:	9102      	str	r1, [sp, #8]
 80003f2:	9a02      	ldr	r2, [sp, #8]
 80003f4:	2a01      	cmp	r2, #1
 80003f6:	d019      	beq.n	800042c <SystemInit+0xc0>
 80003f8:	f64f 72fe 	movw	r2, #65534	; 0xfffe
 80003fc:	2100      	movs	r1, #0
 80003fe:	f2c0 020f 	movt	r2, #15
 8000402:	9103      	str	r1, [sp, #12]
 8000404:	9803      	ldr	r0, [sp, #12]
 8000406:	4290      	cmp	r0, r2
 8000408:	d8fb      	bhi.n	8000402 <SystemInit+0x96>
 800040a:	9b03      	ldr	r3, [sp, #12]
 800040c:	1c58      	adds	r0, r3, #1
 800040e:	9003      	str	r0, [sp, #12]
 8000410:	9b03      	ldr	r3, [sp, #12]
 8000412:	4293      	cmp	r3, r2
 8000414:	d8f5      	bhi.n	8000402 <SystemInit+0x96>
 8000416:	9b03      	ldr	r3, [sp, #12]
 8000418:	1c58      	adds	r0, r3, #1
 800041a:	9003      	str	r0, [sp, #12]
 800041c:	9b03      	ldr	r3, [sp, #12]
 800041e:	4293      	cmp	r3, r2
 8000420:	d8ef      	bhi.n	8000402 <SystemInit+0x96>
 8000422:	e7f2      	b.n	800040a <SystemInit+0x9e>
 8000424:	9302      	str	r3, [sp, #8]
 8000426:	9a02      	ldr	r2, [sp, #8]
 8000428:	2a01      	cmp	r2, #1
 800042a:	d1e5      	bne.n	80003f8 <SystemInit+0x8c>
 800042c:	f44f 5360 	mov.w	r3, #14336	; 0x3800
 8000430:	f2c4 0302 	movt	r3, #16386	; 0x4002
 8000434:	f44f 4ce0 	mov.w	ip, #28672	; 0x7000
 8000438:	6c18      	ldr	r0, [r3, #64]	; 0x40
 800043a:	f2c4 0c00 	movt	ip, #16384	; 0x4000
 800043e:	f040 5180 	orr.w	r1, r0, #268435456	; 0x10000000
 8000442:	6419      	str	r1, [r3, #64]	; 0x40
 8000444:	f8dc 2000 	ldr.w	r2, [ip]
 8000448:	f442 4080 	orr.w	r0, r2, #16384	; 0x4000
 800044c:	f8cc 0000 	str.w	r0, [ip]
 8000450:	6899      	ldr	r1, [r3, #8]
 8000452:	6099      	str	r1, [r3, #8]
 8000454:	6898      	ldr	r0, [r3, #8]
 8000456:	f440 4200 	orr.w	r2, r0, #32768	; 0x8000
 800045a:	609a      	str	r2, [r3, #8]
 800045c:	6899      	ldr	r1, [r3, #8]
 800045e:	f245 420c 	movw	r2, #21516	; 0x540c
 8000462:	f441 50a0 	orr.w	r0, r1, #5120	; 0x1400
 8000466:	f2c0 7240 	movt	r2, #1856	; 0x740
 800046a:	6098      	str	r0, [r3, #8]
 800046c:	605a      	str	r2, [r3, #4]
 800046e:	6819      	ldr	r1, [r3, #0]
 8000470:	f041 7080 	orr.w	r0, r1, #16777216	; 0x1000000
 8000474:	6018      	str	r0, [r3, #0]
 8000476:	6819      	ldr	r1, [r3, #0]
 8000478:	f44f 5260 	mov.w	r2, #14336	; 0x3800
 800047c:	0189      	lsls	r1, r1, #6
 800047e:	f2c4 0202 	movt	r2, #16386	; 0x4002
 8000482:	d5f8      	bpl.n	8000476 <SystemInit+0x10a>
 8000484:	f44f 5c70 	mov.w	ip, #15360	; 0x3c00
 8000488:	f2c4 0c02 	movt	ip, #16386	; 0x4002
 800048c:	f240 6005 	movw	r0, #1541	; 0x605
 8000490:	f8cc 0000 	str.w	r0, [ip]
 8000494:	6893      	ldr	r3, [r2, #8]
 8000496:	f023 0103 	bic.w	r1, r3, #3
 800049a:	6091      	str	r1, [r2, #8]
 800049c:	6890      	ldr	r0, [r2, #8]
 800049e:	f040 0302 	orr.w	r3, r0, #2
 80004a2:	6093      	str	r3, [r2, #8]
 80004a4:	6893      	ldr	r3, [r2, #8]
 80004a6:	f003 010c 	and.w	r1, r3, #12
 80004aa:	2908      	cmp	r1, #8
 80004ac:	d1fa      	bne.n	80004a4 <SystemInit+0x138>
 80004ae:	f44f 4c6d 	mov.w	ip, #60672	; 0xed00
 80004b2:	f2ce 0c00 	movt	ip, #57344	; 0xe000
 80004b6:	f04f 6200 	mov.w	r2, #134217728	; 0x8000000
 80004ba:	f8cc 2008 	str.w	r2, [ip, #8]
 80004be:	b004      	add	sp, #16
 80004c0:	e70c      	b.n	80002dc <SystemCoreClockUpdate>
 80004c2:	bf00      	nop

080004c4 <ControlInit>:
 80004c4:	f240 63e8 	movw	r3, #1768	; 0x6e8
 80004c8:	f2c2 0300 	movt	r3, #8192	; 0x2000
 80004cc:	2200      	movs	r2, #0
 80004ce:	2000      	movs	r0, #0
 80004d0:	f04f 517e 	mov.w	r1, #1065353216	; 0x3f800000
 80004d4:	7018      	strb	r0, [r3, #0]
 80004d6:	6059      	str	r1, [r3, #4]
 80004d8:	609a      	str	r2, [r3, #8]
 80004da:	60da      	str	r2, [r3, #12]
 80004dc:	611a      	str	r2, [r3, #16]
 80004de:	615a      	str	r2, [r3, #20]
 80004e0:	619a      	str	r2, [r3, #24]
 80004e2:	61da      	str	r2, [r3, #28]
 80004e4:	4770      	bx	lr
 80004e6:	bf00      	nop

080004e8 <vTaskRunControl>:
 80004e8:	b508      	push	{r3, lr}
 80004ea:	2000      	movs	r0, #0
 80004ec:	f004 fa92 	bl	8004a14 <vTaskSuspend>
 80004f0:	e7fb      	b.n	80004ea <vTaskRunControl+0x2>
 80004f2:	bf00      	nop

080004f4 <CalcControl>:
 80004f4:	f240 7208 	movw	r2, #1800	; 0x708
 80004f8:	f240 63e8 	movw	r3, #1768	; 0x6e8
 80004fc:	f2c2 0200 	movt	r2, #8192	; 0x2000
 8000500:	f2c2 0300 	movt	r3, #8192	; 0x2000
 8000504:	6912      	ldr	r2, [r2, #16]
 8000506:	695b      	ldr	r3, [r3, #20]
 8000508:	4770      	bx	lr
 800050a:	bf00      	nop

0800050c <vTaskRunEstimation>:
 800050c:	e92d 4ff0 	stmdb	sp!, {r4, r5, r6, r7, r8, r9, sl, fp, lr}
 8000510:	ed2d 8b02 	vpush	{d8}
 8000514:	b0b3      	sub	sp, #204	; 0xcc
 8000516:	a829      	add	r0, sp, #164	; 0xa4
 8000518:	ed9f 0ad9 	vldr	s0, [pc, #868]	; 8000880 <vTaskRunEstimation+0x374>
 800051c:	eddf 0ad9 	vldr	s1, [pc, #868]	; 8000884 <vTaskRunEstimation+0x378>
 8000520:	f000 fa2a 	bl	8000978 <IIR_LP_Filter_Init>
 8000524:	a82c      	add	r0, sp, #176	; 0xb0
 8000526:	ed9f 0ad6 	vldr	s0, [pc, #856]	; 8000880 <vTaskRunEstimation+0x374>
 800052a:	eddf 0ad6 	vldr	s1, [pc, #856]	; 8000884 <vTaskRunEstimation+0x378>
 800052e:	f000 fa23 	bl	8000978 <IIR_LP_Filter_Init>
 8000532:	f10d 087d 	add.w	r8, sp, #125	; 0x7d
 8000536:	a82f      	add	r0, sp, #188	; 0xbc
 8000538:	ed9f 0ad1 	vldr	s0, [pc, #836]	; 8000880 <vTaskRunEstimation+0x374>
 800053c:	eddf 0ad1 	vldr	s1, [pc, #836]	; 8000884 <vTaskRunEstimation+0x378>
 8000540:	ed9f 8ad1 	vldr	s16, [pc, #836]	; 8000888 <vTaskRunEstimation+0x37c>
 8000544:	f000 fa18 	bl	8000978 <IIR_LP_Filter_Init>
 8000548:	2400      	movs	r4, #0
 800054a:	f8cd 8004 	str.w	r8, [sp, #4]
 800054e:	f241 1e38 	movw	lr, #4408	; 0x1138
 8000552:	f2c2 0e00 	movt	lr, #8192	; 0x2000
 8000556:	2100      	movs	r1, #0
 8000558:	460b      	mov	r3, r1
 800055a:	f8de 0000 	ldr.w	r0, [lr]
 800055e:	f04f 32ff 	mov.w	r2, #4294967295
 8000562:	f004 fcbb 	bl	8004edc <xQueueGenericReceive>
 8000566:	f241 1254 	movw	r2, #4436	; 0x1154
 800056a:	f2c2 0200 	movt	r2, #8192	; 0x2000
 800056e:	f240 7908 	movw	r9, #1800	; 0x708
 8000572:	88d5      	ldrh	r5, [r2, #6]
 8000574:	b228      	sxth	r0, r5
 8000576:	ee02 0a90 	vmov	s5, r0
 800057a:	eeb8 3ae2 	vcvt.f32.s32	s6, s5
 800057e:	f2c2 0900 	movt	r9, #8192	; 0x2000
 8000582:	ee63 7a08 	vmul.f32	s15, s6, s16
 8000586:	4690      	mov	r8, r2
 8000588:	edc9 7a04 	vstr	s15, [r9, #16]
 800058c:	8911      	ldrh	r1, [r2, #8]
 800058e:	b20f      	sxth	r7, r1
 8000590:	ee04 7a10 	vmov	s8, r7
 8000594:	eef8 8ac4 	vcvt.f32.s32	s17, s8
 8000598:	ee68 6a88 	vmul.f32	s13, s17, s16
 800059c:	edc9 6a05 	vstr	s13, [r9, #20]
 80005a0:	8956      	ldrh	r6, [r2, #10]
 80005a2:	b233      	sxth	r3, r6
 80005a4:	ee06 3a10 	vmov	s12, r3
 80005a8:	eef8 5ac6 	vcvt.f32.s32	s11, s12
 80005ac:	ee65 0a88 	vmul.f32	s1, s11, s16
 80005b0:	edc9 0a06 	vstr	s1, [r9, #24]
 80005b4:	f8d9 a010 	ldr.w	sl, [r9, #16]
 80005b8:	f8d9 e014 	ldr.w	lr, [r9, #20]
 80005bc:	f8d9 7018 	ldr.w	r7, [r9, #24]
 80005c0:	8815      	ldrh	r5, [r2, #0]
 80005c2:	8852      	ldrh	r2, [r2, #2]
 80005c4:	f8b8 0004 	ldrh.w	r0, [r8, #4]
 80005c8:	f8b8 b00c 	ldrh.w	fp, [r8, #12]
 80005cc:	f8b8 300e 	ldrh.w	r3, [r8, #14]
 80005d0:	f8b8 1010 	ldrh.w	r1, [r8, #16]
 80005d4:	b22e      	sxth	r6, r5
 80005d6:	fa0f f98b 	sxth.w	r9, fp
 80005da:	b205      	sxth	r5, r0
 80005dc:	fa0f f881 	sxth.w	r8, r1
 80005e0:	ee05 6a10 	vmov	s10, r6
 80005e4:	ee04 5a90 	vmov	s9, r5
 80005e8:	ee03 9a90 	vmov	s7, r9
 80005ec:	ee02 8a10 	vmov	s4, r8
 80005f0:	b210      	sxth	r0, r2
 80005f2:	fa0f fc83 	sxth.w	ip, r3
 80005f6:	ee07 0a10 	vmov	s14, r0
 80005fa:	ee00 aa10 	vmov	s0, sl
 80005fe:	ee01 7a10 	vmov	s2, r7
 8000602:	eef8 1ac5 	vcvt.f32.s32	s3, s10
 8000606:	eef8 2ae4 	vcvt.f32.s32	s5, s9
 800060a:	eeb8 3ae3 	vcvt.f32.s32	s6, s7
 800060e:	eeb8 4ac2 	vcvt.f32.s32	s8, s4
 8000612:	ee07 ca90 	vmov	s15, ip
 8000616:	f240 0b18 	movw	fp, #24
 800061a:	f2c2 0b00 	movt	fp, #8192	; 0x2000
 800061e:	ee00 ea90 	vmov	s1, lr
 8000622:	eeb1 0a40 	vneg.f32	s0, s0
 8000626:	eeb1 1a41 	vneg.f32	s2, s2
 800062a:	eef1 1a61 	vneg.f32	s3, s3
 800062e:	eeb8 2ac7 	vcvt.f32.s32	s4, s14
 8000632:	eef1 2a62 	vneg.f32	s5, s5
 8000636:	eeb1 3a43 	vneg.f32	s6, s6
 800063a:	eef8 3ae7 	vcvt.f32.s32	s7, s15
 800063e:	eeb1 4a44 	vneg.f32	s8, s8
 8000642:	f240 7508 	movw	r5, #1800	; 0x708
 8000646:	f000 fb15 	bl	8000c74 <MadgwickAHRSupdate>
 800064a:	f2c2 0500 	movt	r5, #8192	; 0x2000
 800064e:	f8db a000 	ldr.w	sl, [fp]
 8000652:	f240 59ac 	movw	r9, #1452	; 0x5ac
 8000656:	f2c2 0900 	movt	r9, #8192	; 0x2000
 800065a:	f8c5 a000 	str.w	sl, [r5]
 800065e:	f8d9 7000 	ldr.w	r7, [r9]
 8000662:	f240 56b0 	movw	r6, #1456	; 0x5b0
 8000666:	f2c2 0600 	movt	r6, #8192	; 0x2000
 800066a:	606f      	str	r7, [r5, #4]
 800066c:	6831      	ldr	r1, [r6, #0]
 800066e:	f240 52b4 	movw	r2, #1460	; 0x5b4
 8000672:	f2c2 0200 	movt	r2, #8192	; 0x2000
 8000676:	60a9      	str	r1, [r5, #8]
 8000678:	f240 7008 	movw	r0, #1800	; 0x708
 800067c:	6813      	ldr	r3, [r2, #0]
 800067e:	f2c2 0000 	movt	r0, #8192	; 0x2000
 8000682:	2c04      	cmp	r4, #4
 8000684:	60c3      	str	r3, [r0, #12]
 8000686:	dc01      	bgt.n	800068c <vTaskRunEstimation+0x180>
 8000688:	3401      	adds	r4, #1
 800068a:	e760      	b.n	800054e <vTaskRunEstimation+0x42>
 800068c:	f240 0718 	movw	r7, #24
 8000690:	f2c2 0700 	movt	r7, #8192	; 0x2000
 8000694:	f241 1254 	movw	r2, #4436	; 0x1154
 8000698:	683d      	ldr	r5, [r7, #0]
 800069a:	4e7c      	ldr	r6, [pc, #496]	; (800088c <vTaskRunEstimation+0x380>)
 800069c:	4c7c      	ldr	r4, [pc, #496]	; (8000890 <vTaskRunEstimation+0x384>)
 800069e:	487d      	ldr	r0, [pc, #500]	; (8000894 <vTaskRunEstimation+0x388>)
 80006a0:	9525      	str	r5, [sp, #148]	; 0x94
 80006a2:	f2c2 0200 	movt	r2, #8192	; 0x2000
 80006a6:	f8d6 b000 	ldr.w	fp, [r6]
 80006aa:	f8d4 9000 	ldr.w	r9, [r4]
 80006ae:	f8d0 8000 	ldr.w	r8, [r0]
 80006b2:	f8b2 c000 	ldrh.w	ip, [r2]
 80006b6:	f8b2 e002 	ldrh.w	lr, [r2, #2]
 80006ba:	8897      	ldrh	r7, [r2, #4]
 80006bc:	88d6      	ldrh	r6, [r2, #6]
 80006be:	8915      	ldrh	r5, [r2, #8]
 80006c0:	8954      	ldrh	r4, [r2, #10]
 80006c2:	8991      	ldrh	r1, [r2, #12]
 80006c4:	f89d 0094 	ldrb.w	r0, [sp, #148]	; 0x94
 80006c8:	f8ad 108c 	strh.w	r1, [sp, #140]	; 0x8c
 80006cc:	89d3      	ldrh	r3, [r2, #14]
 80006ce:	f89d 1095 	ldrb.w	r1, [sp, #149]	; 0x95
 80006d2:	f8ad 308e 	strh.w	r3, [sp, #142]	; 0x8e
 80006d6:	f8b2 a010 	ldrh.w	sl, [r2, #16]
 80006da:	f89d 3097 	ldrb.w	r3, [sp, #151]	; 0x97
 80006de:	f89d 2096 	ldrb.w	r2, [sp, #150]	; 0x96
 80006e2:	f8cd b098 	str.w	fp, [sp, #152]	; 0x98
 80006e6:	fa1f fa8a 	uxth.w	sl, sl
 80006ea:	f8cd a008 	str.w	sl, [sp, #8]
 80006ee:	f8cd 909c 	str.w	r9, [sp, #156]	; 0x9c
 80006f2:	f8cd 80a0 	str.w	r8, [sp, #160]	; 0xa0
 80006f6:	f8ad c080 	strh.w	ip, [sp, #128]	; 0x80
 80006fa:	f8ad e082 	strh.w	lr, [sp, #130]	; 0x82
 80006fe:	f8ad 7084 	strh.w	r7, [sp, #132]	; 0x84
 8000702:	f8ad 6086 	strh.w	r6, [sp, #134]	; 0x86
 8000706:	f8ad 5088 	strh.w	r5, [sp, #136]	; 0x88
 800070a:	f8ad 408a 	strh.w	r4, [sp, #138]	; 0x8a
 800070e:	f8ad a090 	strh.w	sl, [sp, #144]	; 0x90
 8000712:	f88d 005c 	strb.w	r0, [sp, #92]	; 0x5c
 8000716:	f88d 105d 	strb.w	r1, [sp, #93]	; 0x5d
 800071a:	f88d 205e 	strb.w	r2, [sp, #94]	; 0x5e
 800071e:	f88d 305f 	strb.w	r3, [sp, #95]	; 0x5f
 8000722:	f89d 3081 	ldrb.w	r3, [sp, #129]	; 0x81
 8000726:	f89d b098 	ldrb.w	fp, [sp, #152]	; 0x98
 800072a:	9300      	str	r3, [sp, #0]
 800072c:	f89d 3082 	ldrb.w	r3, [sp, #130]	; 0x82
 8000730:	f89d a099 	ldrb.w	sl, [sp, #153]	; 0x99
 8000734:	f89d 909a 	ldrb.w	r9, [sp, #154]	; 0x9a
 8000738:	f89d 809b 	ldrb.w	r8, [sp, #155]	; 0x9b
 800073c:	f89d c09c 	ldrb.w	ip, [sp, #156]	; 0x9c
 8000740:	f89d e09d 	ldrb.w	lr, [sp, #157]	; 0x9d
 8000744:	f89d 709e 	ldrb.w	r7, [sp, #158]	; 0x9e
 8000748:	f89d 609f 	ldrb.w	r6, [sp, #159]	; 0x9f
 800074c:	f89d 50a0 	ldrb.w	r5, [sp, #160]	; 0xa0
 8000750:	f89d 40a1 	ldrb.w	r4, [sp, #161]	; 0xa1
 8000754:	f89d 00a2 	ldrb.w	r0, [sp, #162]	; 0xa2
 8000758:	f89d 10a3 	ldrb.w	r1, [sp, #163]	; 0xa3
 800075c:	f89d 2080 	ldrb.w	r2, [sp, #128]	; 0x80
 8000760:	9303      	str	r3, [sp, #12]
 8000762:	f89d 3083 	ldrb.w	r3, [sp, #131]	; 0x83
 8000766:	f88d b060 	strb.w	fp, [sp, #96]	; 0x60
 800076a:	9304      	str	r3, [sp, #16]
 800076c:	f88d a061 	strb.w	sl, [sp, #97]	; 0x61
 8000770:	f89d 3084 	ldrb.w	r3, [sp, #132]	; 0x84
 8000774:	f88d 9062 	strb.w	r9, [sp, #98]	; 0x62
 8000778:	f88d 8063 	strb.w	r8, [sp, #99]	; 0x63
 800077c:	f88d c064 	strb.w	ip, [sp, #100]	; 0x64
 8000780:	f88d e065 	strb.w	lr, [sp, #101]	; 0x65
 8000784:	f88d 7066 	strb.w	r7, [sp, #102]	; 0x66
 8000788:	f88d 6067 	strb.w	r6, [sp, #103]	; 0x67
 800078c:	f88d 5068 	strb.w	r5, [sp, #104]	; 0x68
 8000790:	f88d 4069 	strb.w	r4, [sp, #105]	; 0x69
 8000794:	f88d 006a 	strb.w	r0, [sp, #106]	; 0x6a
 8000798:	f88d 106b 	strb.w	r1, [sp, #107]	; 0x6b
 800079c:	f88d 206c 	strb.w	r2, [sp, #108]	; 0x6c
 80007a0:	9c04      	ldr	r4, [sp, #16]
 80007a2:	9d00      	ldr	r5, [sp, #0]
 80007a4:	f89d 6089 	ldrb.w	r6, [sp, #137]	; 0x89
 80007a8:	9902      	ldr	r1, [sp, #8]
 80007aa:	f89d 0085 	ldrb.w	r0, [sp, #133]	; 0x85
 80007ae:	f89d 208b 	ldrb.w	r2, [sp, #139]	; 0x8b
 80007b2:	f88d 406f 	strb.w	r4, [sp, #111]	; 0x6f
 80007b6:	f89d 408d 	ldrb.w	r4, [sp, #141]	; 0x8d
 80007ba:	f8dd e00c 	ldr.w	lr, [sp, #12]
 80007be:	f89d c088 	ldrb.w	ip, [sp, #136]	; 0x88
 80007c2:	f88d 506d 	strb.w	r5, [sp, #109]	; 0x6d
 80007c6:	f88d 3070 	strb.w	r3, [sp, #112]	; 0x70
 80007ca:	f89d 9086 	ldrb.w	r9, [sp, #134]	; 0x86
 80007ce:	f89d 8087 	ldrb.w	r8, [sp, #135]	; 0x87
 80007d2:	f89d 708a 	ldrb.w	r7, [sp, #138]	; 0x8a
 80007d6:	f89d 508c 	ldrb.w	r5, [sp, #140]	; 0x8c
 80007da:	f89d b08e 	ldrb.w	fp, [sp, #142]	; 0x8e
 80007de:	f89d a08f 	ldrb.w	sl, [sp, #143]	; 0x8f
 80007e2:	f88d 6075 	strb.w	r6, [sp, #117]	; 0x75
 80007e6:	0a0b      	lsrs	r3, r1, #8
 80007e8:	9e02      	ldr	r6, [sp, #8]
 80007ea:	f88d 0071 	strb.w	r0, [sp, #113]	; 0x71
 80007ee:	f88d 2077 	strb.w	r2, [sp, #119]	; 0x77
 80007f2:	f88d 4079 	strb.w	r4, [sp, #121]	; 0x79
 80007f6:	2219      	movs	r2, #25
 80007f8:	f88d 307d 	strb.w	r3, [sp, #125]	; 0x7d
 80007fc:	a807      	add	r0, sp, #28
 80007fe:	23a6      	movs	r3, #166	; 0xa6
 8000800:	2103      	movs	r1, #3
 8000802:	2422      	movs	r4, #34	; 0x22
 8000804:	f88d e06e 	strb.w	lr, [sp, #110]	; 0x6e
 8000808:	f88d c074 	strb.w	ip, [sp, #116]	; 0x74
 800080c:	f88d 9072 	strb.w	r9, [sp, #114]	; 0x72
 8000810:	f88d 8073 	strb.w	r8, [sp, #115]	; 0x73
 8000814:	f88d 7076 	strb.w	r7, [sp, #118]	; 0x76
 8000818:	f88d 5078 	strb.w	r5, [sp, #120]	; 0x78
 800081c:	f88d b07a 	strb.w	fp, [sp, #122]	; 0x7a
 8000820:	f88d a07b 	strb.w	sl, [sp, #123]	; 0x7b
 8000824:	f88d 607c 	strb.w	r6, [sp, #124]	; 0x7c
 8000828:	f88d 301c 	strb.w	r3, [sp, #28]
 800082c:	f88d 201d 	strb.w	r2, [sp, #29]
 8000830:	f88d 401e 	strb.w	r4, [sp, #30]
 8000834:	f000 fe1c 	bl	8001470 <CRC8>
 8000838:	f10d 035b 	add.w	r3, sp, #91	; 0x5b
 800083c:	f88d 001f 	strb.w	r0, [sp, #31]
 8000840:	f10d 021f 	add.w	r2, sp, #31
 8000844:	1c58      	adds	r0, r3, #1
 8000846:	785b      	ldrb	r3, [r3, #1]
 8000848:	7844      	ldrb	r4, [r0, #1]
 800084a:	9901      	ldr	r1, [sp, #4]
 800084c:	7053      	strb	r3, [r2, #1]
 800084e:	1c43      	adds	r3, r0, #1
 8000850:	7094      	strb	r4, [r2, #2]
 8000852:	3202      	adds	r2, #2
 8000854:	428b      	cmp	r3, r1
 8000856:	d1f5      	bne.n	8000844 <vTaskRunEstimation+0x338>
 8000858:	2126      	movs	r1, #38	; 0x26
 800085a:	a807      	add	r0, sp, #28
 800085c:	f000 fe34 	bl	80014c8 <CRC16>
 8000860:	2126      	movs	r1, #38	; 0x26
 8000862:	0a02      	lsrs	r2, r0, #8
 8000864:	a807      	add	r0, sp, #28
 8000866:	f88d 2042 	strb.w	r2, [sp, #66]	; 0x42
 800086a:	f000 fe2d 	bl	80014c8 <CRC16>
 800086e:	2101      	movs	r1, #1
 8000870:	4684      	mov	ip, r0
 8000872:	a807      	add	r0, sp, #28
 8000874:	f88d c043 	strb.w	ip, [sp, #67]	; 0x43
 8000878:	2401      	movs	r4, #1
 800087a:	f000 fde5 	bl	8001448 <xUSBSendData>
 800087e:	e027      	b.n	80008d0 <vTaskRunEstimation+0x3c4>
 8000880:	43480000 	movtmi	r0, #32768	; 0x8000
 8000884:	42480000 	submi	r0, r8, #0
 8000888:	3a8b7d79 	bcc	62dfe74 <_Min_Stack_Size+0x62dfa74>
 800088c:	200005ac 	andcs	r0, r0, ip, lsr #11
 8000890:	200005b0 			; <UNDEFINED> instruction: 0x200005b0
 8000894:	200005b4 			; <UNDEFINED> instruction: 0x200005b4
 8000898:	f10d 091c 	add.w	r9, sp, #28
 800089c:	2101      	movs	r1, #1
 800089e:	4630      	mov	r0, r6
 80008a0:	f000 fdd2 	bl	8001448 <xUSBSendData>
 80008a4:	f819 7005 	ldrb.w	r7, [r9, r5]
 80008a8:	2fa6      	cmp	r7, #166	; 0xa6
 80008aa:	d030      	beq.n	800090e <vTaskRunEstimation+0x402>
 80008ac:	1c6c      	adds	r4, r5, #1
 80008ae:	f10d 0b1c 	add.w	fp, sp, #28
 80008b2:	eb0b 0604 	add.w	r6, fp, r4
 80008b6:	f10d 0a1c 	add.w	sl, sp, #28
 80008ba:	2101      	movs	r1, #1
 80008bc:	4630      	mov	r0, r6
 80008be:	f000 fdc3 	bl	8001448 <xUSBSendData>
 80008c2:	f81a 0004 	ldrb.w	r0, [sl, r4]
 80008c6:	1cac      	adds	r4, r5, #2
 80008c8:	28a6      	cmp	r0, #166	; 0xa6
 80008ca:	d025      	beq.n	8000918 <vTaskRunEstimation+0x40c>
 80008cc:	2c28      	cmp	r4, #40	; 0x28
 80008ce:	d029      	beq.n	8000924 <vTaskRunEstimation+0x418>
 80008d0:	f10d 0e1c 	add.w	lr, sp, #28
 80008d4:	eb0e 0704 	add.w	r7, lr, r4
 80008d8:	f10d 081c 	add.w	r8, sp, #28
 80008dc:	2101      	movs	r1, #1
 80008de:	1c65      	adds	r5, r4, #1
 80008e0:	4638      	mov	r0, r7
 80008e2:	eb0e 0605 	add.w	r6, lr, r5
 80008e6:	f000 fdaf 	bl	8001448 <xUSBSendData>
 80008ea:	f818 1004 	ldrb.w	r1, [r8, r4]
 80008ee:	29a6      	cmp	r1, #166	; 0xa6
 80008f0:	d1d2      	bne.n	8000898 <vTaskRunEstimation+0x38c>
 80008f2:	2101      	movs	r1, #1
 80008f4:	4638      	mov	r0, r7
 80008f6:	f10d 091c 	add.w	r9, sp, #28
 80008fa:	f000 fda5 	bl	8001448 <xUSBSendData>
 80008fe:	2101      	movs	r1, #1
 8000900:	4630      	mov	r0, r6
 8000902:	f000 fda1 	bl	8001448 <xUSBSendData>
 8000906:	f819 7005 	ldrb.w	r7, [r9, r5]
 800090a:	2fa6      	cmp	r7, #166	; 0xa6
 800090c:	d1ce      	bne.n	80008ac <vTaskRunEstimation+0x3a0>
 800090e:	4630      	mov	r0, r6
 8000910:	2101      	movs	r1, #1
 8000912:	f000 fd99 	bl	8001448 <xUSBSendData>
 8000916:	e7c9      	b.n	80008ac <vTaskRunEstimation+0x3a0>
 8000918:	2101      	movs	r1, #1
 800091a:	4630      	mov	r0, r6
 800091c:	f000 fd94 	bl	8001448 <xUSBSendData>
 8000920:	2c28      	cmp	r4, #40	; 0x28
 8000922:	d1d5      	bne.n	80008d0 <vTaskRunEstimation+0x3c4>
 8000924:	2400      	movs	r4, #0
 8000926:	e612      	b.n	800054e <vTaskRunEstimation+0x42>

08000928 <EstimationInit>:
 8000928:	b530      	push	{r4, r5, lr}
 800092a:	f240 7208 	movw	r2, #1800	; 0x708
 800092e:	f2c2 0200 	movt	r2, #8192	; 0x2000
 8000932:	b085      	sub	sp, #20
 8000934:	f04f 557e 	mov.w	r5, #1065353216	; 0x3f800000
 8000938:	6015      	str	r5, [r2, #0]
 800093a:	2400      	movs	r4, #0
 800093c:	2300      	movs	r3, #0
 800093e:	2504      	movs	r5, #4
 8000940:	f240 500d 	movw	r0, #1293	; 0x50d
 8000944:	f64a 4148 	movw	r1, #44104	; 0xac48
 8000948:	9500      	str	r5, [sp, #0]
 800094a:	f6c0 0100 	movt	r1, #2048	; 0x800
 800094e:	6054      	str	r4, [r2, #4]
 8000950:	f6c0 0000 	movt	r0, #2048	; 0x800
 8000954:	9301      	str	r3, [sp, #4]
 8000956:	6094      	str	r4, [r2, #8]
 8000958:	9302      	str	r3, [sp, #8]
 800095a:	60d4      	str	r4, [r2, #12]
 800095c:	9303      	str	r3, [sp, #12]
 800095e:	6114      	str	r4, [r2, #16]
 8000960:	6154      	str	r4, [r2, #20]
 8000962:	6194      	str	r4, [r2, #24]
 8000964:	61d4      	str	r4, [r2, #28]
 8000966:	6214      	str	r4, [r2, #32]
 8000968:	6254      	str	r4, [r2, #36]	; 0x24
 800096a:	f44f 5280 	mov.w	r2, #4096	; 0x1000
 800096e:	f003 fcef 	bl	8004350 <xTaskGenericCreate>
 8000972:	b005      	add	sp, #20
 8000974:	bd30      	pop	{r4, r5, pc}
 8000976:	bf00      	nop

08000978 <IIR_LP_Filter_Init>:
 8000978:	eef7 1a00 	vmov.f32	s3, #112	; 0x70
 800097c:	ee81 1a80 	vdiv.f32	s2, s3, s0
 8000980:	2300      	movs	r3, #0
 8000982:	6083      	str	r3, [r0, #8]
 8000984:	eec1 0aa0 	vdiv.f32	s1, s3, s1
 8000988:	ee31 7a20 	vadd.f32	s14, s2, s1
 800098c:	ee81 0a07 	vdiv.f32	s0, s2, s14
 8000990:	eec0 7a87 	vdiv.f32	s15, s1, s14
 8000994:	ed80 0a01 	vstr	s0, [r0, #4]
 8000998:	edc0 7a00 	vstr	s15, [r0]
 800099c:	4770      	bx	lr
 800099e:	bf00      	nop

080009a0 <IIR_LP_Filter>:
 80009a0:	edd0 0a02 	vldr	s1, [r0, #8]
 80009a4:	edd0 6a00 	vldr	s13, [r0]
 80009a8:	ed90 7a01 	vldr	s14, [r0, #4]
 80009ac:	ee66 7aa0 	vmul.f32	s15, s13, s1
 80009b0:	ee40 7a07 	vmla.f32	s15, s0, s14
 80009b4:	edc0 7a02 	vstr	s15, [r0, #8]
 80009b8:	eeb0 0a67 	vmov.f32	s0, s15
 80009bc:	4770      	bx	lr
 80009be:	bf00      	nop

080009c0 <MadgwickAHRSupdateIMU>:
 80009c0:	b538      	push	{r3, r4, r5, lr}
 80009c2:	4ca9      	ldr	r4, [pc, #676]	; (8000c68 <MadgwickAHRSupdateIMU+0x2a8>)
 80009c4:	4da9      	ldr	r5, [pc, #676]	; (8000c6c <MadgwickAHRSupdateIMU+0x2ac>)
 80009c6:	ed94 3a00 	vldr	s6, [r4]
 80009ca:	ed2d 8b0c 	vpush	{d8-d13}
 80009ce:	edd4 aa01 	vldr	s21, [r4, #4]
 80009d2:	ed94 6a02 	vldr	s12, [r4, #8]
 80009d6:	edd5 4a00 	vldr	s9, [r5]
 80009da:	edd4 7a02 	vldr	s15, [r4, #8]
 80009de:	edd4 6a01 	vldr	s13, [r4, #4]
 80009e2:	ed94 5a02 	vldr	s10, [r4, #8]
 80009e6:	ed95 4a00 	vldr	s8, [r5]
 80009ea:	ed94 7a00 	vldr	s14, [r4]
 80009ee:	edd4 5a01 	vldr	s11, [r4, #4]
 80009f2:	edd4 3a00 	vldr	s7, [r4]
 80009f6:	ee27 baa0 	vmul.f32	s22, s15, s1
 80009fa:	ee6a aaa0 	vmul.f32	s21, s21, s1
 80009fe:	ee64 ba20 	vmul.f32	s23, s8, s1
 8000a02:	ee23 caa0 	vmul.f32	s24, s7, s1
 8000a06:	ee53 aa40 	vnmla.f32	s21, s6, s0
 8000a0a:	ee04 ba80 	vmla.f32	s22, s9, s0
 8000a0e:	ee45 ba40 	vmls.f32	s23, s10, s0
 8000a12:	ee15 ca80 	vnmls.f32	s24, s11, s0
 8000a16:	ed95 0a00 	vldr	s0, [r5]
 8000a1a:	ee46 aa41 	vmls.f32	s21, s12, s2
 8000a1e:	ee06 bac1 	vmls.f32	s22, s13, s2
 8000a22:	ee47 ba01 	vmla.f32	s23, s14, s2
 8000a26:	ee00 ca01 	vmla.f32	s24, s0, s2
 8000a2a:	eef5 1a40 	vcmp.f32	s3, #0.0
 8000a2e:	eefe 7a00 	vmov.f32	s15, #224	; 0xe0
 8000a32:	eef1 fa10 	vmrs	APSR_nzcv, fpscr
 8000a36:	eef0 9a61 	vmov.f32	s19, s3
 8000a3a:	eeb0 8a42 	vmov.f32	s16, s4
 8000a3e:	eeb0 aa62 	vmov.f32	s20, s5
 8000a42:	ee6a aaa7 	vmul.f32	s21, s21, s15
 8000a46:	ee2b ba27 	vmul.f32	s22, s22, s15
 8000a4a:	ee6b baa7 	vmul.f32	s23, s23, s15
 8000a4e:	ee2c ca27 	vmul.f32	s24, s24, s15
 8000a52:	d105      	bne.n	8000a60 <MadgwickAHRSupdateIMU+0xa0>
 8000a54:	eeb5 2a40 	vcmp.f32	s4, #0.0
 8000a58:	eef1 fa10 	vmrs	APSR_nzcv, fpscr
 8000a5c:	f000 80fd 	beq.w	8000c5a <MadgwickAHRSupdateIMU+0x29a>
 8000a60:	ee28 0a08 	vmul.f32	s0, s16, s16
 8000a64:	ee09 0aa9 	vmla.f32	s0, s19, s19
 8000a68:	ee0a 0a0a 	vmla.f32	s0, s20, s20
 8000a6c:	f003 fbea 	bl	8004244 <invSqrt>
 8000a70:	ed95 1a00 	vldr	s2, [r5]
 8000a74:	edd4 3a00 	vldr	s7, [r4]
 8000a78:	edd4 4a01 	vldr	s9, [r4, #4]
 8000a7c:	ed94 2a02 	vldr	s4, [r4, #8]
 8000a80:	ed95 3a00 	vldr	s6, [r5]
 8000a84:	ed94 5a00 	vldr	s10, [r4]
 8000a88:	edd4 5a01 	vldr	s11, [r4, #4]
 8000a8c:	edd4 2a00 	vldr	s5, [r4]
 8000a90:	edd4 ca01 	vldr	s25, [r4, #4]
 8000a94:	edd5 8a00 	vldr	s17, [r5]
 8000a98:	edd5 0a00 	vldr	s1, [r5]
 8000a9c:	edd4 da00 	vldr	s27, [r4]
 8000aa0:	ed94 6a00 	vldr	s12, [r4]
 8000aa4:	ed94 da01 	vldr	s26, [r4, #4]
 8000aa8:	edd4 6a01 	vldr	s13, [r4, #4]
 8000aac:	edd4 1a02 	vldr	s3, [r4, #8]
 8000ab0:	ed94 4a02 	vldr	s8, [r4, #8]
 8000ab4:	eef1 7a00 	vmov.f32	s15, #16
 8000ab8:	ee69 9a80 	vmul.f32	s19, s19, s0
 8000abc:	ee32 2a02 	vadd.f32	s4, s4, s4
 8000ac0:	ee25 5a27 	vmul.f32	s10, s10, s15
 8000ac4:	ee61 1a84 	vmul.f32	s3, s3, s8
 8000ac8:	ee28 9aa0 	vmul.f32	s18, s17, s1
 8000acc:	ee62 8a29 	vmul.f32	s17, s4, s19
 8000ad0:	ee55 8a21 	vnmls.f32	s17, s10, s3
 8000ad4:	ed94 7a00 	vldr	s14, [r4]
 8000ad8:	ee69 0a27 	vmul.f32	s1, s18, s15
 8000adc:	ee31 1a01 	vadd.f32	s2, s2, s2
 8000ae0:	ed94 4a01 	vldr	s8, [r4, #4]
 8000ae4:	ee40 8a87 	vmla.f32	s17, s1, s14
 8000ae8:	ee21 9a29 	vmul.f32	s18, s2, s19
 8000aec:	ee28 7a00 	vmul.f32	s14, s16, s0
 8000af0:	ee00 9a84 	vmla.f32	s18, s1, s8
 8000af4:	ee65 5aa7 	vmul.f32	s11, s11, s15
 8000af8:	ee41 8a47 	vmls.f32	s17, s2, s14
 8000afc:	ee05 9aa1 	vmla.f32	s18, s11, s3
 8000b00:	eeb2 4a00 	vmov.f32	s8, #32
 8000b04:	ee6d 0a86 	vmul.f32	s1, s27, s12
 8000b08:	ee62 1a84 	vmul.f32	s3, s5, s8
 8000b0c:	ee74 4aa4 	vadd.f32	s9, s9, s9
 8000b10:	ee6d 6a26 	vmul.f32	s13, s26, s13
 8000b14:	ee23 1a27 	vmul.f32	s2, s6, s15
 8000b18:	ee02 9a47 	vmls.f32	s18, s4, s14
 8000b1c:	ee78 8ac5 	vsub.f32	s17, s17, s10
 8000b20:	ee41 8aa0 	vmla.f32	s17, s3, s1
 8000b24:	ee24 8aa9 	vmul.f32	s16, s9, s19
 8000b28:	ee01 8a26 	vmla.f32	s16, s2, s13
 8000b2c:	ee2c 4a84 	vmul.f32	s8, s25, s8
 8000b30:	ee41 8aa6 	vmla.f32	s17, s3, s13
 8000b34:	ee39 9a65 	vsub.f32	s18, s18, s11
 8000b38:	ee01 8a20 	vmla.f32	s16, s2, s1
 8000b3c:	ee2a aa00 	vmul.f32	s20, s20, s0
 8000b40:	ee73 3aa3 	vadd.f32	s7, s7, s7
 8000b44:	ee04 9a20 	vmla.f32	s18, s8, s1
 8000b48:	ed94 3a02 	vldr	s6, [r4, #8]
 8000b4c:	ee20 6aa7 	vmul.f32	s12, s1, s15
 8000b50:	ee45 8a0a 	vmla.f32	s17, s10, s20
 8000b54:	ee63 9aa9 	vmul.f32	s19, s7, s19
 8000b58:	ee03 8ac7 	vmls.f32	s16, s7, s14
 8000b5c:	ee04 9a26 	vmla.f32	s18, s8, s13
 8000b60:	ee56 9a03 	vnmls.f32	s19, s12, s6
 8000b64:	ee26 0aa7 	vmul.f32	s0, s13, s15
 8000b68:	edd4 2a02 	vldr	s5, [r4, #8]
 8000b6c:	ee05 9a8a 	vmla.f32	s18, s11, s20
 8000b70:	ee40 9a22 	vmla.f32	s19, s0, s5
 8000b74:	ee28 0aa8 	vmul.f32	s0, s17, s17
 8000b78:	ee08 0a08 	vmla.f32	s0, s16, s16
 8000b7c:	ee44 9ac7 	vmls.f32	s19, s9, s14
 8000b80:	ee09 0a09 	vmla.f32	s0, s18, s18
 8000b84:	ee09 0aa9 	vmla.f32	s0, s19, s19
 8000b88:	f003 fb5c 	bl	8004244 <invSqrt>
 8000b8c:	ed95 2a01 	vldr	s4, [r5, #4]
 8000b90:	ee28 8a00 	vmul.f32	s16, s16, s0
 8000b94:	edd5 1a01 	vldr	s3, [r5, #4]
 8000b98:	ee68 8a80 	vmul.f32	s17, s17, s0
 8000b9c:	ed95 1a01 	vldr	s2, [r5, #4]
 8000ba0:	ee29 9a00 	vmul.f32	s18, s18, s0
 8000ba4:	edd5 0a01 	vldr	s1, [r5, #4]
 8000ba8:	ee69 9a80 	vmul.f32	s19, s19, s0
 8000bac:	ee42 aa48 	vmls.f32	s21, s4, s16
 8000bb0:	ee01 bae8 	vmls.f32	s22, s3, s17
 8000bb4:	ee41 ba49 	vmls.f32	s23, s2, s18
 8000bb8:	ee00 cae9 	vmls.f32	s24, s1, s19
 8000bbc:	edd5 6a00 	vldr	s13, [r5]
 8000bc0:	eddf 7a2b 	vldr	s15, [pc, #172]	; 8000c70 <MadgwickAHRSupdateIMU+0x2b0>
 8000bc4:	ee4a 6aa7 	vmla.f32	s13, s21, s15
 8000bc8:	edc5 6a00 	vstr	s13, [r5]
 8000bcc:	ed94 3a00 	vldr	s6, [r4]
 8000bd0:	ee0b 3a27 	vmla.f32	s6, s22, s15
 8000bd4:	ed84 3a00 	vstr	s6, [r4]
 8000bd8:	edd4 3a01 	vldr	s7, [r4, #4]
 8000bdc:	ee4b 3aa7 	vmla.f32	s7, s23, s15
 8000be0:	edc4 3a01 	vstr	s7, [r4, #4]
 8000be4:	ed94 0a02 	vldr	s0, [r4, #8]
 8000be8:	ee0c 0a27 	vmla.f32	s0, s24, s15
 8000bec:	ed84 0a02 	vstr	s0, [r4, #8]
 8000bf0:	edd5 1a00 	vldr	s3, [r5]
 8000bf4:	ed95 4a00 	vldr	s8, [r5]
 8000bf8:	ed94 5a00 	vldr	s10, [r4]
 8000bfc:	ed94 2a00 	vldr	s4, [r4]
 8000c00:	ee25 0a02 	vmul.f32	s0, s10, s4
 8000c04:	ee01 0a84 	vmla.f32	s0, s3, s8
 8000c08:	ed94 1a01 	vldr	s2, [r4, #4]
 8000c0c:	edd4 0a01 	vldr	s1, [r4, #4]
 8000c10:	ee01 0a20 	vmla.f32	s0, s2, s1
 8000c14:	edd4 5a02 	vldr	s11, [r4, #8]
 8000c18:	ed94 7a02 	vldr	s14, [r4, #8]
 8000c1c:	ee05 0a87 	vmla.f32	s0, s11, s14
 8000c20:	f003 fb10 	bl	8004244 <invSqrt>
 8000c24:	ed95 6a00 	vldr	s12, [r5]
 8000c28:	ee66 4a00 	vmul.f32	s9, s12, s0
 8000c2c:	edc5 4a00 	vstr	s9, [r5]
 8000c30:	edd4 2a00 	vldr	s5, [r4]
 8000c34:	ee62 6a80 	vmul.f32	s13, s5, s0
 8000c38:	edc4 6a00 	vstr	s13, [r4]
 8000c3c:	ed94 3a01 	vldr	s6, [r4, #4]
 8000c40:	ee63 3a00 	vmul.f32	s7, s6, s0
 8000c44:	edc4 3a01 	vstr	s7, [r4, #4]
 8000c48:	edd4 7a02 	vldr	s15, [r4, #8]
 8000c4c:	ee27 0a80 	vmul.f32	s0, s15, s0
 8000c50:	ed84 0a02 	vstr	s0, [r4, #8]
 8000c54:	ecbd 8b0c 	vpop	{d8-d13}
 8000c58:	bd38      	pop	{r3, r4, r5, pc}
 8000c5a:	eef5 2a40 	vcmp.f32	s5, #0.0
 8000c5e:	eef1 fa10 	vmrs	APSR_nzcv, fpscr
 8000c62:	f47f aefd 	bne.w	8000a60 <MadgwickAHRSupdateIMU+0xa0>
 8000c66:	e7a9      	b.n	8000bbc <MadgwickAHRSupdateIMU+0x1fc>
 8000c68:	200005ac 	andcs	r0, r0, ip, lsr #11
 8000c6c:	20000018 	andcs	r0, r0, r8, lsl r0
 8000c70:	3ba3d70a 	blcc	68f68a0 <_Min_Stack_Size+0x68f64a0>

08000c74 <MadgwickAHRSupdate>:
 8000c74:	b530      	push	{r4, r5, lr}
 8000c76:	ed2d 8b10 	vpush	{d8-d15}
 8000c7a:	eeb5 3a40 	vcmp.f32	s6, #0.0
 8000c7e:	eef1 fa10 	vmrs	APSR_nzcv, fpscr
 8000c82:	b093      	sub	sp, #76	; 0x4c
 8000c84:	eeb0 ba43 	vmov.f32	s22, s6
 8000c88:	eeb0 7a40 	vmov.f32	s14, s0
 8000c8c:	eef0 6a60 	vmov.f32	s13, s1
 8000c90:	eef0 7a41 	vmov.f32	s15, s2
 8000c94:	eeb0 8a61 	vmov.f32	s16, s3
 8000c98:	eef0 9a42 	vmov.f32	s19, s4
 8000c9c:	eef0 8a62 	vmov.f32	s17, s5
 8000ca0:	eeb0 aa63 	vmov.f32	s20, s7
 8000ca4:	eef0 aa44 	vmov.f32	s21, s8
 8000ca8:	d105      	bne.n	8000cb6 <MadgwickAHRSupdate+0x42>
 8000caa:	eef5 3a40 	vcmp.f32	s7, #0.0
 8000cae:	eef1 fa10 	vmrs	APSR_nzcv, fpscr
 8000cb2:	f000 82df 	beq.w	8001274 <MadgwickAHRSupdate+0x600>
 8000cb6:	4c25      	ldr	r4, [pc, #148]	; (8000d4c <MadgwickAHRSupdate+0xd8>)
 8000cb8:	4d25      	ldr	r5, [pc, #148]	; (8000d50 <MadgwickAHRSupdate+0xdc>)
 8000cba:	ed94 3a00 	vldr	s6, [r4]
 8000cbe:	edd4 1a01 	vldr	s3, [r4, #4]
 8000cc2:	ed94 5a02 	vldr	s10, [r4, #8]
 8000cc6:	edd5 3a00 	vldr	s7, [r5]
 8000cca:	ed94 1a02 	vldr	s2, [r4, #8]
 8000cce:	edd4 5a01 	vldr	s11, [r4, #4]
 8000cd2:	ed94 4a02 	vldr	s8, [r4, #8]
 8000cd6:	edd5 0a00 	vldr	s1, [r5]
 8000cda:	ed94 6a00 	vldr	s12, [r4]
 8000cde:	edd4 4a01 	vldr	s9, [r4, #4]
 8000ce2:	edd4 2a00 	vldr	s5, [r4]
 8000ce6:	ee22 0aa6 	vmul.f32	s0, s5, s13
 8000cea:	ee61 eaa6 	vmul.f32	s29, s3, s13
 8000cee:	ee21 fa26 	vmul.f32	s30, s2, s13
 8000cf2:	ee60 faa6 	vmul.f32	s31, s1, s13
 8000cf6:	ee14 0a87 	vnmls.f32	s0, s9, s14
 8000cfa:	ee53 ea47 	vnmla.f32	s29, s6, s14
 8000cfe:	ee03 fa87 	vmla.f32	s30, s7, s14
 8000d02:	ee44 fa47 	vmls.f32	s31, s8, s14
 8000d06:	ed95 7a00 	vldr	s14, [r5]
 8000d0a:	ee07 0a27 	vmla.f32	s0, s14, s15
 8000d0e:	ee45 ea67 	vmls.f32	s29, s10, s15
 8000d12:	ee05 fae7 	vmls.f32	s30, s11, s15
 8000d16:	ee46 fa27 	vmla.f32	s31, s12, s15
 8000d1a:	eefe 7a00 	vmov.f32	s15, #224	; 0xe0
 8000d1e:	ee60 6a27 	vmul.f32	s13, s0, s15
 8000d22:	eeb5 8a40 	vcmp.f32	s16, #0.0
 8000d26:	eef1 fa10 	vmrs	APSR_nzcv, fpscr
 8000d2a:	ee6e eaa7 	vmul.f32	s29, s29, s15
 8000d2e:	ee2f fa27 	vmul.f32	s30, s30, s15
 8000d32:	ee6f faa7 	vmul.f32	s31, s31, s15
 8000d36:	edcd 6a04 	vstr	s13, [sp, #16]
 8000d3a:	d10b      	bne.n	8000d54 <MadgwickAHRSupdate+0xe0>
 8000d3c:	eef5 9a40 	vcmp.f32	s19, #0.0
 8000d40:	eef1 fa10 	vmrs	APSR_nzcv, fpscr
 8000d44:	f000 8290 	beq.w	8001268 <MadgwickAHRSupdate+0x5f4>
 8000d48:	e004      	b.n	8000d54 <MadgwickAHRSupdate+0xe0>
 8000d4a:	bf00      	nop
 8000d4c:	200005ac 	andcs	r0, r0, ip, lsr #11
 8000d50:	20000018 	andcs	r0, r0, r8, lsl r0
 8000d54:	ee29 0aa9 	vmul.f32	s0, s19, s19
 8000d58:	ee08 0a08 	vmla.f32	s0, s16, s16
 8000d5c:	ee08 0aa8 	vmla.f32	s0, s17, s17
 8000d60:	f003 fa70 	bl	8004244 <invSqrt>
 8000d64:	eef0 5a40 	vmov.f32	s11, s0
 8000d68:	ee2a 0a0a 	vmul.f32	s0, s20, s20
 8000d6c:	ee0b 0a0b 	vmla.f32	s0, s22, s22
 8000d70:	ee28 8a25 	vmul.f32	s16, s16, s11
 8000d74:	ee69 9aa5 	vmul.f32	s19, s19, s11
 8000d78:	ee68 8aa5 	vmul.f32	s17, s17, s11
 8000d7c:	ee0a 0aaa 	vmla.f32	s0, s21, s21
 8000d80:	ed8d 8a07 	vstr	s16, [sp, #28]
 8000d84:	edcd 9a08 	vstr	s19, [sp, #32]
 8000d88:	edcd 8a09 	vstr	s17, [sp, #36]	; 0x24
 8000d8c:	f003 fa5a 	bl	8004244 <invSqrt>
 8000d90:	edd5 7a00 	vldr	s15, [r5]
 8000d94:	edd5 9a00 	vldr	s19, [r5]
 8000d98:	ed95 7a00 	vldr	s14, [r5]
 8000d9c:	edd4 8a00 	vldr	s17, [r4]
 8000da0:	ed95 6a00 	vldr	s12, [r5]
 8000da4:	edd4 da00 	vldr	s27, [r4]
 8000da8:	ed94 da01 	vldr	s26, [r4, #4]
 8000dac:	edd4 6a02 	vldr	s13, [r4, #8]
 8000db0:	ed95 ea00 	vldr	s28, [r5]
 8000db4:	ed8d ea01 	vstr	s28, [sp, #4]
 8000db8:	ed94 ea01 	vldr	s28, [r4, #4]
 8000dbc:	ed8d ea0a 	vstr	s28, [sp, #40]	; 0x28
 8000dc0:	ed94 ea01 	vldr	s28, [r4, #4]
 8000dc4:	ed8d ea02 	vstr	s28, [sp, #8]
 8000dc8:	ed94 ea02 	vldr	s28, [r4, #8]
 8000dcc:	ee2b ba00 	vmul.f32	s22, s22, s0
 8000dd0:	ed95 8a00 	vldr	s16, [r5]
 8000dd4:	ed8d ea0b 	vstr	s28, [sp, #44]	; 0x2c
 8000dd8:	edd5 5a00 	vldr	s11, [r5]
 8000ddc:	ee77 7aa7 	vadd.f32	s15, s15, s15
 8000de0:	ed95 ea00 	vldr	s28, [r5]
 8000de4:	ed94 1a00 	vldr	s2, [r4]
 8000de8:	edd5 0a00 	vldr	s1, [r5]
 8000dec:	edd4 2a01 	vldr	s5, [r4, #4]
 8000df0:	ed95 3a00 	vldr	s6, [r5]
 8000df4:	ee67 7a8b 	vmul.f32	s15, s15, s22
 8000df8:	ed94 4a02 	vldr	s8, [r4, #8]
 8000dfc:	ed8d 3a0c 	vstr	s6, [sp, #48]	; 0x30
 8000e00:	edd4 ba00 	vldr	s23, [r4]
 8000e04:	ed94 3a00 	vldr	s6, [r4]
 8000e08:	edd4 4a00 	vldr	s9, [r4]
 8000e0c:	ed94 5a01 	vldr	s10, [r4, #4]
 8000e10:	ee2a aa00 	vmul.f32	s20, s20, s0
 8000e14:	ee28 8a25 	vmul.f32	s16, s16, s11
 8000e18:	edcd 7a00 	vstr	s15, [sp]
 8000e1c:	edcd 2a03 	vstr	s5, [sp, #12]
 8000e20:	ed8d 4a0d 	vstr	s8, [sp, #52]	; 0x34
 8000e24:	edcd 4a0e 	vstr	s9, [sp, #56]	; 0x38
 8000e28:	ee79 9aa9 	vadd.f32	s19, s19, s19
 8000e2c:	ed8d 5a0f 	vstr	s10, [sp, #60]	; 0x3c
 8000e30:	edd4 ca00 	vldr	s25, [r4]
 8000e34:	edd4 5a02 	vldr	s11, [r4, #8]
 8000e38:	ed94 9a01 	vldr	s18, [r4, #4]
 8000e3c:	edd4 3a01 	vldr	s7, [r4, #4]
 8000e40:	edd4 7a01 	vldr	s15, [r4, #4]
 8000e44:	edd4 2a02 	vldr	s5, [r4, #8]
 8000e48:	ee6a aa80 	vmul.f32	s21, s21, s0
 8000e4c:	ed94 ca02 	vldr	s24, [r4, #8]
 8000e50:	ee69 9a8a 	vmul.f32	s19, s19, s20
 8000e54:	ed94 5a02 	vldr	s10, [r4, #8]
 8000e58:	ed9d 0a00 	vldr	s0, [sp]
 8000e5c:	edcd 7a10 	vstr	s15, [sp, #64]	; 0x40
 8000e60:	edcd 2a11 	vstr	s5, [sp, #68]	; 0x44
 8000e64:	edd4 7a02 	vldr	s15, [r4, #8]
 8000e68:	edd4 2a01 	vldr	s5, [r4, #4]
 8000e6c:	ed94 4a01 	vldr	s8, [r4, #4]
 8000e70:	edd4 4a02 	vldr	s9, [r4, #8]
 8000e74:	ed94 2a02 	vldr	s4, [r4, #8]
 8000e78:	ee77 1a07 	vadd.f32	s3, s14, s14
 8000e7c:	ee2a 7a08 	vmul.f32	s14, s20, s16
 8000e80:	ee00 7a02 	vmla.f32	s14, s0, s4
 8000e84:	ee69 7aa7 	vmul.f32	s15, s19, s15
 8000e88:	ee61 1aaa 	vmul.f32	s3, s3, s21
 8000e8c:	ed94 2a00 	vldr	s4, [r4]
 8000e90:	ee5b 7a08 	vnmls.f32	s15, s22, s16
 8000e94:	ee78 8aa8 	vadd.f32	s17, s17, s17
 8000e98:	ee01 7ac2 	vmls.f32	s14, s3, s4
 8000e9c:	ee41 7aa2 	vmla.f32	s15, s3, s5
 8000ea0:	ed94 2a01 	vldr	s4, [r4, #4]
 8000ea4:	ee68 8a8b 	vmul.f32	s17, s17, s22
 8000ea8:	ee6b ba83 	vmul.f32	s23, s23, s6
 8000eac:	ee08 7a82 	vmla.f32	s14, s17, s4
 8000eb0:	ee7d daad 	vadd.f32	s27, s27, s27
 8000eb4:	ee4b 7a2b 	vmla.f32	s15, s22, s23
 8000eb8:	ee2d 3a8a 	vmul.f32	s6, s27, s20
 8000ebc:	ee0a 7a6b 	vmls.f32	s14, s20, s23
 8000ec0:	ee29 9a23 	vmul.f32	s18, s18, s7
 8000ec4:	ee43 7a04 	vmla.f32	s15, s6, s8
 8000ec8:	ee3d da0d 	vadd.f32	s26, s26, s26
 8000ecc:	ee2d 4aaa 	vmul.f32	s8, s27, s21
 8000ed0:	ee0a 7a09 	vmla.f32	s14, s20, s18
 8000ed4:	ee44 7a24 	vmla.f32	s15, s8, s9
 8000ed8:	edd4 4a02 	vldr	s9, [r4, #8]
 8000edc:	ee2d 4a2a 	vmul.f32	s8, s26, s21
 8000ee0:	ee2c ca05 	vmul.f32	s24, s24, s10
 8000ee4:	ee04 7a24 	vmla.f32	s14, s8, s9
 8000ee8:	ee4b 7a49 	vmls.f32	s15, s22, s18
 8000eec:	ee0a 7a4c 	vmls.f32	s14, s20, s24
 8000ef0:	ee4b 7a4c 	vmls.f32	s15, s22, s24
 8000ef4:	ee27 7a07 	vmul.f32	s14, s14, s14
 8000ef8:	ee07 7aa7 	vmla.f32	s14, s15, s15
 8000efc:	eddd 2a03 	vldr	s5, [sp, #12]
 8000f00:	ee36 6a06 	vadd.f32	s12, s12, s12
 8000f04:	ee60 0aa2 	vmul.f32	s1, s1, s5
 8000f08:	ee76 6aa6 	vadd.f32	s13, s13, s13
 8000f0c:	ee17 0a10 	vmov	r0, s14
 8000f10:	ee6c caa5 	vmul.f32	s25, s25, s11
 8000f14:	ee2e ea01 	vmul.f32	s28, s28, s2
 8000f18:	ed8d 6a05 	vstr	s12, [sp, #20]
 8000f1c:	edcd 6a06 	vstr	s13, [sp, #24]
 8000f20:	edcd 0a03 	vstr	s1, [sp, #12]
 8000f24:	f008 fcd6 	bl	80098d4 <__aeabi_f2d>
 8000f28:	ec41 0b10 	vmov	d0, r0, r1
 8000f2c:	f009 f8c2 	bl	800a0b4 <sqrt>
 8000f30:	ec51 0b10 	vmov	r0, r1, d0
 8000f34:	f008 ffbc 	bl	8009eb0 <__aeabi_d2f>
 8000f38:	edd4 6a01 	vldr	s13, [r4, #4]
 8000f3c:	edd4 7a00 	vldr	s15, [r4]
 8000f40:	ed9d 3a00 	vldr	s6, [sp]
 8000f44:	ee69 7aa7 	vmul.f32	s15, s19, s15
 8000f48:	ee43 7a66 	vmls.f32	s15, s6, s13
 8000f4c:	ee4a 7a88 	vmla.f32	s15, s21, s16
 8000f50:	edd4 6a02 	vldr	s13, [r4, #8]
 8000f54:	ee48 7aa6 	vmla.f32	s15, s17, s13
 8000f58:	ed9d 4a02 	vldr	s8, [sp, #8]
 8000f5c:	ee4a 7aeb 	vmls.f32	s15, s21, s23
 8000f60:	ed94 6a02 	vldr	s12, [r4, #8]
 8000f64:	eddd 4a01 	vldr	s9, [sp, #4]
 8000f68:	ee6d 5a0a 	vmul.f32	s11, s26, s20
 8000f6c:	ee74 6a04 	vadd.f32	s13, s8, s8
 8000f70:	ed9d 5a0b 	vldr	s10, [sp, #44]	; 0x2c
 8000f74:	ee7e 9a0e 	vadd.f32	s19, s28, s28
 8000f78:	ee45 7a86 	vmla.f32	s15, s11, s12
 8000f7c:	ee46 9a85 	vmla.f32	s19, s13, s10
 8000f80:	ee34 6aa4 	vadd.f32	s12, s9, s9
 8000f84:	eddd 5a0a 	vldr	s11, [sp, #40]	; 0x28
 8000f88:	ee7c 6aac 	vadd.f32	s13, s25, s25
 8000f8c:	ee46 6a65 	vmls.f32	s13, s12, s11
 8000f90:	ed9d 0a08 	vldr	s0, [sp, #32]
 8000f94:	ee3b 6aab 	vadd.f32	s12, s23, s23
 8000f98:	eddd 2a03 	vldr	s5, [sp, #12]
 8000f9c:	eef7 5a00 	vmov.f32	s11, #112	; 0x70
 8000fa0:	ee79 9ac0 	vsub.f32	s19, s19, s0
 8000fa4:	ed9d 3a07 	vldr	s6, [sp, #28]
 8000fa8:	ed9d 0a0c 	vldr	s0, [sp, #48]	; 0x30
 8000fac:	ee75 5ac6 	vsub.f32	s11, s11, s12
 8000fb0:	ee3c 6ae2 	vsub.f32	s12, s25, s5
 8000fb4:	eddd 2a0d 	vldr	s5, [sp, #52]	; 0x34
 8000fb8:	ee4a 7ac9 	vmls.f32	s15, s21, s18
 8000fbc:	ee76 6ac3 	vsub.f32	s13, s13, s6
 8000fc0:	ee20 4a22 	vmul.f32	s8, s0, s5
 8000fc4:	ed9d 3a10 	vldr	s6, [sp, #64]	; 0x40
 8000fc8:	ed9d 0a11 	vldr	s0, [sp, #68]	; 0x44
 8000fcc:	ee4a 7a8c 	vmla.f32	s15, s21, s24
 8000fd0:	eef6 3a00 	vmov.f32	s7, #96	; 0x60
 8000fd4:	ee03 ea00 	vmla.f32	s28, s6, s0
 8000fd8:	eddd 2a0e 	vldr	s5, [sp, #56]	; 0x38
 8000fdc:	ed9d 3a0f 	vldr	s6, [sp, #60]	; 0x3c
 8000fe0:	ee33 5ac9 	vsub.f32	s10, s7, s18
 8000fe4:	ee12 4a83 	vnmls.f32	s8, s5, s6
 8000fe8:	ee79 4a09 	vadd.f32	s9, s18, s18
 8000fec:	ed9d 0a05 	vldr	s0, [sp, #20]
 8000ff0:	ee07 0a10 	vmov	s14, r0
 8000ff4:	ee35 5a4c 	vsub.f32	s10, s10, s24
 8000ff8:	ed94 2a01 	vldr	s4, [r4, #4]
 8000ffc:	ee20 8a29 	vmul.f32	s16, s0, s19
 8001000:	ed94 ca02 	vldr	s24, [r4, #8]
 8001004:	ed9d 3a06 	vldr	s6, [sp, #24]
 8001008:	edd4 2a00 	vldr	s5, [r4]
 800100c:	ed9d 0a09 	vldr	s0, [sp, #36]	; 0x24
 8001010:	ee26 6a27 	vmul.f32	s12, s12, s15
 8001014:	ee75 5ae4 	vsub.f32	s11, s11, s9
 8001018:	edd4 4a01 	vldr	s9, [r4, #4]
 800101c:	ee05 6a07 	vmla.f32	s12, s10, s14
 8001020:	ee2e ea27 	vmul.f32	s28, s28, s15
 8001024:	ee75 5ac0 	vsub.f32	s11, s11, s0
 8001028:	ee04 ea07 	vmla.f32	s28, s8, s14
 800102c:	ee03 8a26 	vmla.f32	s16, s6, s13
 8001030:	edcd 4a00 	vstr	s9, [sp]
 8001034:	edd4 4a00 	vldr	s9, [r4]
 8001038:	ed94 1a02 	vldr	s2, [r4, #8]
 800103c:	ed94 3a01 	vldr	s6, [r4, #4]
 8001040:	edd5 1a00 	vldr	s3, [r5]
 8001044:	ed94 4a02 	vldr	s8, [r4, #8]
 8001048:	ed94 0a00 	vldr	s0, [r4]
 800104c:	eeb1 5a00 	vmov.f32	s10, #16
 8001050:	ed8d 4a01 	vstr	s8, [sp, #4]
 8001054:	ed8d 0a02 	vstr	s0, [sp, #8]
 8001058:	ed9d 0a06 	vldr	s0, [sp, #24]
 800105c:	ee36 ba4b 	vsub.f32	s22, s12, s22
 8001060:	ee64 4a85 	vmul.f32	s9, s9, s10
 8001064:	ed9d 6a05 	vldr	s12, [sp, #20]
 8001068:	ee73 baeb 	vsub.f32	s23, s7, s23
 800106c:	ee60 8a29 	vmul.f32	s17, s0, s19
 8001070:	edd4 3a01 	vldr	s7, [r4, #4]
 8001074:	ed9d 0a03 	vldr	s0, [sp, #12]
 8001078:	ee04 8ae5 	vmls.f32	s16, s9, s11
 800107c:	ee46 8a66 	vmls.f32	s17, s12, s13
 8001080:	edd4 4a01 	vldr	s9, [r4, #4]
 8001084:	ee7b bac9 	vsub.f32	s23, s23, s18
 8001088:	ed95 4a00 	vldr	s8, [r5]
 800108c:	ee29 9aad 	vmul.f32	s18, s19, s27
 8001090:	ee77 0a07 	vadd.f32	s1, s14, s14
 8001094:	ee27 1a81 	vmul.f32	s2, s15, s2
 8001098:	ee70 ca2c 	vadd.f32	s25, s0, s25
 800109c:	ee23 5a85 	vmul.f32	s10, s7, s10
 80010a0:	ee0d 9a66 	vmls.f32	s18, s26, s13
 80010a4:	ee67 1aa1 	vmul.f32	s3, s15, s3
 80010a8:	eeb1 6a47 	vneg.f32	s12, s14
 80010ac:	ee3e aa4a 	vsub.f32	s20, s28, s20
 80010b0:	ee47 1a03 	vmla.f32	s3, s14, s6
 80010b4:	ee37 0aa7 	vadd.f32	s0, s15, s15
 80010b8:	eef1 0a60 	vneg.f32	s1, s1
 80010bc:	ee27 2a82 	vmul.f32	s4, s15, s4
 80010c0:	ed9d ea02 	vldr	s28, [sp, #8]
 80010c4:	ee6b baa7 	vmul.f32	s23, s23, s15
 80010c8:	ee67 2aa2 	vmul.f32	s5, s15, s5
 80010cc:	ee27 4a84 	vmul.f32	s8, s15, s8
 80010d0:	edd4 3a00 	vldr	s7, [r4]
 80010d4:	ee46 2a0c 	vmla.f32	s5, s12, s24
 80010d8:	ee4c ba87 	vmla.f32	s23, s25, s14
 80010dc:	ee10 4aa4 	vnmls.f32	s8, s1, s9
 80010e0:	edd4 ca02 	vldr	s25, [r4, #8]
 80010e4:	ee45 8ac5 	vmls.f32	s17, s11, s10
 80010e8:	ed95 3a00 	vldr	s6, [r5]
 80010ec:	ed9d 5a01 	vldr	s10, [sp, #4]
 80010f0:	ee0b 8a01 	vmla.f32	s16, s22, s2
 80010f4:	ed94 1a01 	vldr	s2, [r4, #4]
 80010f8:	edd4 4a02 	vldr	s9, [r4, #8]
 80010fc:	ed94 ca00 	vldr	s24, [r4]
 8001100:	ee02 9a4b 	vmls.f32	s18, s4, s22
 8001104:	ee20 2a0e 	vmul.f32	s4, s0, s28
 8001108:	ee17 2a05 	vnmls.f32	s4, s14, s10
 800110c:	ee67 caac 	vmul.f32	s25, s15, s25
 8001110:	ee27 ca8c 	vmul.f32	s24, s15, s24
 8001114:	edd5 5a00 	vldr	s11, [r5]
 8001118:	ee47 ca23 	vmla.f32	s25, s14, s7
 800111c:	ed94 5a01 	vldr	s10, [r4, #4]
 8001120:	ed9d ea00 	vldr	s28, [sp]
 8001124:	ee0a 8a21 	vmla.f32	s16, s20, s3
 8001128:	ee00 caa4 	vmla.f32	s24, s1, s9
 800112c:	ee6d 9a29 	vmul.f32	s19, s26, s19
 8001130:	ee7b baea 	vsub.f32	s23, s23, s21
 8001134:	ee02 9a8a 	vmla.f32	s18, s5, s20
 8001138:	ee4b 8a04 	vmla.f32	s17, s22, s8
 800113c:	ee4d 9aa6 	vmla.f32	s19, s27, s13
 8001140:	ee20 0a01 	vmul.f32	s0, s0, s2
 8001144:	ee67 6a0e 	vmul.f32	s13, s14, s28
 8001148:	ee67 7a85 	vmul.f32	s15, s15, s10
 800114c:	ee17 0a03 	vnmls.f32	s0, s14, s6
 8001150:	ee46 7a25 	vmla.f32	s15, s12, s11
 8001154:	ee0b 8a82 	vmla.f32	s16, s23, s4
 8001158:	ee06 9aab 	vmla.f32	s18, s13, s23
 800115c:	ee4a 8a2c 	vmla.f32	s17, s20, s25
 8001160:	ee4b 9a0c 	vmla.f32	s19, s22, s24
 8001164:	edd4 6a00 	vldr	s13, [r4]
 8001168:	ee4b 8a80 	vmla.f32	s17, s23, s0
 800116c:	ee4a 9a27 	vmla.f32	s19, s20, s15
 8001170:	ee28 0a08 	vmul.f32	s0, s16, s16
 8001174:	ee27 7a26 	vmul.f32	s14, s14, s13
 8001178:	ee09 0a09 	vmla.f32	s0, s18, s18
 800117c:	ee4b 9a87 	vmla.f32	s19, s23, s14
 8001180:	ee08 0aa8 	vmla.f32	s0, s17, s17
 8001184:	ee09 0aa9 	vmla.f32	s0, s19, s19
 8001188:	f003 f85c 	bl	8004244 <invSqrt>
 800118c:	ed95 6a01 	vldr	s12, [r5, #4]
 8001190:	ed9d ea04 	vldr	s28, [sp, #16]
 8001194:	edd5 6a01 	vldr	s13, [r5, #4]
 8001198:	ee69 9a80 	vmul.f32	s19, s19, s0
 800119c:	ed95 7a01 	vldr	s14, [r5, #4]
 80011a0:	edd5 7a01 	vldr	s15, [r5, #4]
 80011a4:	ee29 9a00 	vmul.f32	s18, s18, s0
 80011a8:	ee28 8a00 	vmul.f32	s16, s16, s0
 80011ac:	ee68 8a80 	vmul.f32	s17, s17, s0
 80011b0:	ee07 eae9 	vmls.f32	s28, s15, s19
 80011b4:	ee46 ea49 	vmls.f32	s29, s12, s18
 80011b8:	ee06 fac8 	vmls.f32	s30, s13, s16
 80011bc:	ee47 fa68 	vmls.f32	s31, s14, s17
 80011c0:	ed8d ea04 	vstr	s28, [sp, #16]
 80011c4:	ed95 7a00 	vldr	s14, [r5]
 80011c8:	eddf 6a31 	vldr	s13, [pc, #196]	; 8001290 <MadgwickAHRSupdate+0x61c>
 80011cc:	ee0e 7aa6 	vmla.f32	s14, s29, s13
 80011d0:	ed85 7a00 	vstr	s14, [r5]
 80011d4:	edd4 7a00 	vldr	s15, [r4]
 80011d8:	ee4f 7a26 	vmla.f32	s15, s30, s13
 80011dc:	edc4 7a00 	vstr	s15, [r4]
 80011e0:	ed94 ea01 	vldr	s28, [r4, #4]
 80011e4:	ee0f eaa6 	vmla.f32	s28, s31, s13
 80011e8:	ed84 ea01 	vstr	s28, [r4, #4]
 80011ec:	ed9d ea04 	vldr	s28, [sp, #16]
 80011f0:	ed94 2a02 	vldr	s4, [r4, #8]
 80011f4:	ee0e 2a26 	vmla.f32	s4, s28, s13
 80011f8:	ed84 2a02 	vstr	s4, [r4, #8]
 80011fc:	edd5 0a00 	vldr	s1, [r5]
 8001200:	ed95 1a00 	vldr	s2, [r5]
 8001204:	ed94 0a00 	vldr	s0, [r4]
 8001208:	edd4 1a00 	vldr	s3, [r4]
 800120c:	ee20 0a21 	vmul.f32	s0, s0, s3
 8001210:	ee00 0a81 	vmla.f32	s0, s1, s2
 8001214:	ed94 3a01 	vldr	s6, [r4, #4]
 8001218:	edd4 2a01 	vldr	s5, [r4, #4]
 800121c:	ee03 0a22 	vmla.f32	s0, s6, s5
 8001220:	ed94 4a02 	vldr	s8, [r4, #8]
 8001224:	edd4 3a02 	vldr	s7, [r4, #8]
 8001228:	ee04 0a23 	vmla.f32	s0, s8, s7
 800122c:	f003 f80a 	bl	8004244 <invSqrt>
 8001230:	edd5 4a00 	vldr	s9, [r5]
 8001234:	ee24 5a80 	vmul.f32	s10, s9, s0
 8001238:	ed85 5a00 	vstr	s10, [r5]
 800123c:	edd4 5a00 	vldr	s11, [r4]
 8001240:	ee25 6a80 	vmul.f32	s12, s11, s0
 8001244:	ed84 6a00 	vstr	s12, [r4]
 8001248:	ed94 7a01 	vldr	s14, [r4, #4]
 800124c:	ee67 7a00 	vmul.f32	s15, s14, s0
 8001250:	edc4 7a01 	vstr	s15, [r4, #4]
 8001254:	edd4 6a02 	vldr	s13, [r4, #8]
 8001258:	ee26 2a80 	vmul.f32	s4, s13, s0
 800125c:	ed84 2a02 	vstr	s4, [r4, #8]
 8001260:	b013      	add	sp, #76	; 0x4c
 8001262:	ecbd 8b10 	vpop	{d8-d15}
 8001266:	bd30      	pop	{r4, r5, pc}
 8001268:	eef5 8a40 	vcmp.f32	s17, #0.0
 800126c:	eef1 fa10 	vmrs	APSR_nzcv, fpscr
 8001270:	d0a8      	beq.n	80011c4 <MadgwickAHRSupdate+0x550>
 8001272:	e56f      	b.n	8000d54 <MadgwickAHRSupdate+0xe0>
 8001274:	eeb5 4a40 	vcmp.f32	s8, #0.0
 8001278:	eef1 fa10 	vmrs	APSR_nzcv, fpscr
 800127c:	f47f ad1b 	bne.w	8000cb6 <MadgwickAHRSupdate+0x42>
 8001280:	b013      	add	sp, #76	; 0x4c
 8001282:	ecbd 8b10 	vpop	{d8-d15}
 8001286:	e8bd 4030 	ldmia.w	sp!, {r4, r5, lr}
 800128a:	f7ff bb99 	b.w	80009c0 <MadgwickAHRSupdateIMU>
 800128e:	bf00      	nop
 8001290:	3ba3d70a 	blcc	68f6ec0 <_Min_Stack_Size+0x68f6ac0>

08001294 <vTaskPrintTimer>:
 8001294:	b508      	push	{r3, lr}
 8001296:	f44f 60fa 	mov.w	r0, #2000	; 0x7d0
 800129a:	f003 fb25 	bl	80048e8 <vTaskDelay>
 800129e:	2100      	movs	r1, #0
 80012a0:	2001      	movs	r0, #1
 80012a2:	f001 fbd3 	bl	8002a4c <vSetRCOutput>
 80012a6:	f44f 60fa 	mov.w	r0, #2000	; 0x7d0
 80012aa:	f003 fb1d 	bl	80048e8 <vTaskDelay>
 80012ae:	2001      	movs	r0, #1
 80012b0:	f240 31e7 	movw	r1, #999	; 0x3e7
 80012b4:	f001 fbca 	bl	8002a4c <vSetRCOutput>
 80012b8:	e7ed      	b.n	8001296 <vTaskPrintTimer+0x2>
 80012ba:	bf00      	nop

080012bc <itoa>:
 80012bc:	b430      	push	{r4, r5}
 80012be:	b920      	cbnz	r0, 80012ca <itoa+0xe>
 80012c0:	2330      	movs	r3, #48	; 0x30
 80012c2:	728b      	strb	r3, [r1, #10]
 80012c4:	200a      	movs	r0, #10
 80012c6:	bc30      	pop	{r4, r5}
 80012c8:	4770      	bx	lr
 80012ca:	f246 6367 	movw	r3, #26215	; 0x6667
 80012ce:	f2c6 6366 	movt	r3, #26214	; 0x6666
 80012d2:	fb83 2400 	smull	r2, r4, r3, r0
 80012d6:	17c2      	asrs	r2, r0, #31
 80012d8:	ebc2 04a4 	rsb	r4, r2, r4, asr #2
 80012dc:	eb04 0584 	add.w	r5, r4, r4, lsl #2
 80012e0:	4a51      	ldr	r2, [pc, #324]	; (8001428 <itoa+0x16c>)
 80012e2:	eba0 0c45 	sub.w	ip, r0, r5, lsl #1
 80012e6:	f812 000c 	ldrb.w	r0, [r2, ip]
 80012ea:	7288      	strb	r0, [r1, #10]
 80012ec:	2c00      	cmp	r4, #0
 80012ee:	f000 8084 	beq.w	80013fa <itoa+0x13e>
 80012f2:	fb83 0504 	smull	r0, r5, r3, r4
 80012f6:	17e0      	asrs	r0, r4, #31
 80012f8:	ebc0 00a5 	rsb	r0, r0, r5, asr #2
 80012fc:	eb00 0580 	add.w	r5, r0, r0, lsl #2
 8001300:	eba4 0c45 	sub.w	ip, r4, r5, lsl #1
 8001304:	f812 400c 	ldrb.w	r4, [r2, ip]
 8001308:	724c      	strb	r4, [r1, #9]
 800130a:	2800      	cmp	r0, #0
 800130c:	d077      	beq.n	80013fe <itoa+0x142>
 800130e:	fb83 4500 	smull	r4, r5, r3, r0
 8001312:	17c4      	asrs	r4, r0, #31
 8001314:	ebc4 04a5 	rsb	r4, r4, r5, asr #2
 8001318:	eb04 0584 	add.w	r5, r4, r4, lsl #2
 800131c:	eba0 0c45 	sub.w	ip, r0, r5, lsl #1
 8001320:	f812 000c 	ldrb.w	r0, [r2, ip]
 8001324:	7208      	strb	r0, [r1, #8]
 8001326:	2c00      	cmp	r4, #0
 8001328:	d06c      	beq.n	8001404 <itoa+0x148>
 800132a:	fb83 0504 	smull	r0, r5, r3, r4
 800132e:	17e0      	asrs	r0, r4, #31
 8001330:	ebc0 00a5 	rsb	r0, r0, r5, asr #2
 8001334:	eb00 0580 	add.w	r5, r0, r0, lsl #2
 8001338:	eba4 0c45 	sub.w	ip, r4, r5, lsl #1
 800133c:	f812 400c 	ldrb.w	r4, [r2, ip]
 8001340:	71cc      	strb	r4, [r1, #7]
 8001342:	2800      	cmp	r0, #0
 8001344:	d061      	beq.n	800140a <itoa+0x14e>
 8001346:	fb83 4500 	smull	r4, r5, r3, r0
 800134a:	17c4      	asrs	r4, r0, #31
 800134c:	ebc4 04a5 	rsb	r4, r4, r5, asr #2
 8001350:	eb04 0584 	add.w	r5, r4, r4, lsl #2
 8001354:	eba0 0c45 	sub.w	ip, r0, r5, lsl #1
 8001358:	f812 000c 	ldrb.w	r0, [r2, ip]
 800135c:	7188      	strb	r0, [r1, #6]
 800135e:	2c00      	cmp	r4, #0
 8001360:	d056      	beq.n	8001410 <itoa+0x154>
 8001362:	fb83 0504 	smull	r0, r5, r3, r4
 8001366:	17e0      	asrs	r0, r4, #31
 8001368:	ebc0 00a5 	rsb	r0, r0, r5, asr #2
 800136c:	eb00 0580 	add.w	r5, r0, r0, lsl #2
 8001370:	eba4 0c45 	sub.w	ip, r4, r5, lsl #1
 8001374:	f812 400c 	ldrb.w	r4, [r2, ip]
 8001378:	714c      	strb	r4, [r1, #5]
 800137a:	2800      	cmp	r0, #0
 800137c:	d04b      	beq.n	8001416 <itoa+0x15a>
 800137e:	fb83 4500 	smull	r4, r5, r3, r0
 8001382:	17c4      	asrs	r4, r0, #31
 8001384:	ebc4 04a5 	rsb	r4, r4, r5, asr #2
 8001388:	eb04 0584 	add.w	r5, r4, r4, lsl #2
 800138c:	eba0 0c45 	sub.w	ip, r0, r5, lsl #1
 8001390:	f812 000c 	ldrb.w	r0, [r2, ip]
 8001394:	7108      	strb	r0, [r1, #4]
 8001396:	2c00      	cmp	r4, #0
 8001398:	d040      	beq.n	800141c <itoa+0x160>
 800139a:	fb83 0504 	smull	r0, r5, r3, r4
 800139e:	17e0      	asrs	r0, r4, #31
 80013a0:	ebc0 00a5 	rsb	r0, r0, r5, asr #2
 80013a4:	eb00 0580 	add.w	r5, r0, r0, lsl #2
 80013a8:	eba4 0c45 	sub.w	ip, r4, r5, lsl #1
 80013ac:	f812 400c 	ldrb.w	r4, [r2, ip]
 80013b0:	70cc      	strb	r4, [r1, #3]
 80013b2:	b1f8      	cbz	r0, 80013f4 <itoa+0x138>
 80013b4:	fb83 4300 	smull	r4, r3, r3, r0
 80013b8:	17c4      	asrs	r4, r0, #31
 80013ba:	ebc4 03a3 	rsb	r3, r4, r3, asr #2
 80013be:	eb03 0483 	add.w	r4, r3, r3, lsl #2
 80013c2:	eba0 0c44 	sub.w	ip, r0, r4, lsl #1
 80013c6:	f812 000c 	ldrb.w	r0, [r2, ip]
 80013ca:	7088      	strb	r0, [r1, #2]
 80013cc:	b34b      	cbz	r3, 8001422 <itoa+0x166>
 80013ce:	f246 6467 	movw	r4, #26215	; 0x6667
 80013d2:	f2c6 6466 	movt	r4, #26214	; 0x6666
 80013d6:	fb84 4003 	smull	r4, r0, r4, r3
 80013da:	17dc      	asrs	r4, r3, #31
 80013dc:	ebc4 0ca0 	rsb	ip, r4, r0, asr #2
 80013e0:	eb0c 008c 	add.w	r0, ip, ip, lsl #2
 80013e4:	eba3 0c40 	sub.w	ip, r3, r0, lsl #1
 80013e8:	2000      	movs	r0, #0
 80013ea:	f812 200c 	ldrb.w	r2, [r2, ip]
 80013ee:	3001      	adds	r0, #1
 80013f0:	704a      	strb	r2, [r1, #1]
 80013f2:	e768      	b.n	80012c6 <itoa+0xa>
 80013f4:	2002      	movs	r0, #2
 80013f6:	3001      	adds	r0, #1
 80013f8:	e765      	b.n	80012c6 <itoa+0xa>
 80013fa:	200a      	movs	r0, #10
 80013fc:	e763      	b.n	80012c6 <itoa+0xa>
 80013fe:	2008      	movs	r0, #8
 8001400:	3001      	adds	r0, #1
 8001402:	e760      	b.n	80012c6 <itoa+0xa>
 8001404:	2007      	movs	r0, #7
 8001406:	3001      	adds	r0, #1
 8001408:	e75d      	b.n	80012c6 <itoa+0xa>
 800140a:	2006      	movs	r0, #6
 800140c:	3001      	adds	r0, #1
 800140e:	e75a      	b.n	80012c6 <itoa+0xa>
 8001410:	2005      	movs	r0, #5
 8001412:	3001      	adds	r0, #1
 8001414:	e757      	b.n	80012c6 <itoa+0xa>
 8001416:	2004      	movs	r0, #4
 8001418:	3001      	adds	r0, #1
 800141a:	e754      	b.n	80012c6 <itoa+0xa>
 800141c:	2003      	movs	r0, #3
 800141e:	3001      	adds	r0, #1
 8001420:	e751      	b.n	80012c6 <itoa+0xa>
 8001422:	2001      	movs	r0, #1
 8001424:	3001      	adds	r0, #1
 8001426:	e74e      	b.n	80012c6 <itoa+0xa>
 8001428:	0800ac58 	stmdaeq	r0, {r3, r4, r6, sl, fp, sp, pc}

0800142c <vUSBQueueInit>:
 800142c:	b508      	push	{r3, lr}
 800142e:	f44f 7080 	mov.w	r0, #256	; 0x100
 8001432:	2101      	movs	r1, #1
 8001434:	2200      	movs	r2, #0
 8001436:	f003 fc53 	bl	8004ce0 <xQueueGenericCreate>
 800143a:	f240 53b8 	movw	r3, #1464	; 0x5b8
 800143e:	f2c2 0300 	movt	r3, #8192	; 0x2000
 8001442:	6018      	str	r0, [r3, #0]
 8001444:	bd08      	pop	{r3, pc}
 8001446:	bf00      	nop

08001448 <xUSBSendData>:
 8001448:	b538      	push	{r3, r4, r5, lr}
 800144a:	4b08      	ldr	r3, [pc, #32]	; (800146c <xUSBSendData+0x24>)
 800144c:	791b      	ldrb	r3, [r3, #4]
 800144e:	4605      	mov	r5, r0
 8001450:	460c      	mov	r4, r1
 8001452:	b90b      	cbnz	r3, 8001458 <xUSBSendData+0x10>
 8001454:	4618      	mov	r0, r3
 8001456:	bd38      	pop	{r3, r4, r5, pc}
 8001458:	f003 f930 	bl	80046bc <vTaskSuspendAll>
 800145c:	4621      	mov	r1, r4
 800145e:	4628      	mov	r0, r5
 8001460:	f002 f920 	bl	80036a4 <cdc_DataTx>
 8001464:	f003 f9d4 	bl	8004810 <xTaskResumeAll>
 8001468:	2001      	movs	r0, #1
 800146a:	bd38      	pop	{r3, r4, r5, pc}
 800146c:	200005b8 			; <UNDEFINED> instruction: 0x200005b8

08001470 <CRC8>:
 8001470:	b470      	push	{r4, r5, r6}
 8001472:	2900      	cmp	r1, #0
 8001474:	d023      	beq.n	80014be <CRC8+0x4e>
 8001476:	4603      	mov	r3, r0
 8001478:	3901      	subs	r1, #1
 800147a:	4d12      	ldr	r5, [pc, #72]	; (80014c4 <CRC8+0x54>)
 800147c:	f813 0b01 	ldrb.w	r0, [r3], #1
 8001480:	460a      	mov	r2, r1
 8001482:	5c28      	ldrb	r0, [r5, r0]
 8001484:	f001 0101 	and.w	r1, r1, #1
 8001488:	b1ba      	cbz	r2, 80014ba <CRC8+0x4a>
 800148a:	b139      	cbz	r1, 800149c <CRC8+0x2c>
 800148c:	f813 cb01 	ldrb.w	ip, [r3], #1
 8001490:	ea80 010c 	eor.w	r1, r0, ip
 8001494:	b2c8      	uxtb	r0, r1
 8001496:	3a01      	subs	r2, #1
 8001498:	5c28      	ldrb	r0, [r5, r0]
 800149a:	d00e      	beq.n	80014ba <CRC8+0x4a>
 800149c:	461c      	mov	r4, r3
 800149e:	785e      	ldrb	r6, [r3, #1]
 80014a0:	f814 cb01 	ldrb.w	ip, [r4], #1
 80014a4:	ea80 030c 	eor.w	r3, r0, ip
 80014a8:	b2d9      	uxtb	r1, r3
 80014aa:	1c63      	adds	r3, r4, #1
 80014ac:	f815 c001 	ldrb.w	ip, [r5, r1]
 80014b0:	ea8c 0006 	eor.w	r0, ip, r6
 80014b4:	3a02      	subs	r2, #2
 80014b6:	5c28      	ldrb	r0, [r5, r0]
 80014b8:	d1f0      	bne.n	800149c <CRC8+0x2c>
 80014ba:	bc70      	pop	{r4, r5, r6}
 80014bc:	4770      	bx	lr
 80014be:	4608      	mov	r0, r1
 80014c0:	e7fb      	b.n	80014ba <CRC8+0x4a>
 80014c2:	bf00      	nop
 80014c4:	0800a914 	stmdaeq	r0, {r2, r4, r8, fp, sp, pc}

080014c8 <CRC16>:
 80014c8:	b470      	push	{r4, r5, r6}
 80014ca:	2900      	cmp	r1, #0
 80014cc:	d03a      	beq.n	8001544 <CRC16+0x7c>
 80014ce:	4603      	mov	r3, r0
 80014d0:	4c1e      	ldr	r4, [pc, #120]	; (800154c <CRC16+0x84>)
 80014d2:	f813 cb01 	ldrb.w	ip, [r3], #1
 80014d6:	f08c 00ff 	eor.w	r0, ip, #255	; 0xff
 80014da:	eb04 0240 	add.w	r2, r4, r0, lsl #1
 80014de:	3901      	subs	r1, #1
 80014e0:	f8b2 0100 	ldrh.w	r0, [r2, #256]	; 0x100
 80014e4:	460a      	mov	r2, r1
 80014e6:	f480 407f 	eor.w	r0, r0, #65280	; 0xff00
 80014ea:	f001 0101 	and.w	r1, r1, #1
 80014ee:	b33a      	cbz	r2, 8001540 <CRC16+0x78>
 80014f0:	b169      	cbz	r1, 800150e <CRC16+0x46>
 80014f2:	f813 cb01 	ldrb.w	ip, [r3], #1
 80014f6:	ea8c 2110 	eor.w	r1, ip, r0, lsr #8
 80014fa:	eb04 0c41 	add.w	ip, r4, r1, lsl #1
 80014fe:	3a01      	subs	r2, #1
 8001500:	f8bc 1100 	ldrh.w	r1, [ip, #256]	; 0x100
 8001504:	ea81 2c00 	eor.w	ip, r1, r0, lsl #8
 8001508:	fa1f f08c 	uxth.w	r0, ip
 800150c:	d018      	beq.n	8001540 <CRC16+0x78>
 800150e:	4619      	mov	r1, r3
 8001510:	785d      	ldrb	r5, [r3, #1]
 8001512:	f811 3b01 	ldrb.w	r3, [r1], #1
 8001516:	ea83 2610 	eor.w	r6, r3, r0, lsr #8
 800151a:	eb04 0646 	add.w	r6, r4, r6, lsl #1
 800151e:	1c4b      	adds	r3, r1, #1
 8001520:	f8b6 1100 	ldrh.w	r1, [r6, #256]	; 0x100
 8001524:	ea81 2000 	eor.w	r0, r1, r0, lsl #8
 8001528:	b280      	uxth	r0, r0
 800152a:	ea85 2c10 	eor.w	ip, r5, r0, lsr #8
 800152e:	eb04 014c 	add.w	r1, r4, ip, lsl #1
 8001532:	3a02      	subs	r2, #2
 8001534:	f8b1 c100 	ldrh.w	ip, [r1, #256]	; 0x100
 8001538:	ea8c 2100 	eor.w	r1, ip, r0, lsl #8
 800153c:	b288      	uxth	r0, r1
 800153e:	d1e6      	bne.n	800150e <CRC16+0x46>
 8001540:	bc70      	pop	{r4, r5, r6}
 8001542:	4770      	bx	lr
 8001544:	f64f 70ff 	movw	r0, #65535	; 0xffff
 8001548:	e7fa      	b.n	8001540 <CRC16+0x78>
 800154a:	bf00      	nop
 800154c:	0800a914 	stmdaeq	r0, {r2, r4, r8, fp, sp, pc}

08001550 <GetSector>:
 8001550:	f100 4278 	add.w	r2, r0, #4160749568	; 0xf8000000
 8001554:	f643 73ff 	movw	r3, #16383	; 0x3fff
 8001558:	429a      	cmp	r2, r3
 800155a:	d90f      	bls.n	800157c <GetSector+0x2c>
 800155c:	f5a2 4280 	sub.w	r2, r2, #16384	; 0x4000
 8001560:	429a      	cmp	r2, r3
 8001562:	d801      	bhi.n	8001568 <GetSector+0x18>
 8001564:	2008      	movs	r0, #8
 8001566:	4770      	bx	lr
 8001568:	f44f 4c00 	mov.w	ip, #32768	; 0x8000
 800156c:	f2cf 7cff 	movt	ip, #63487	; 0xf7ff
 8001570:	eb00 010c 	add.w	r1, r0, ip
 8001574:	4299      	cmp	r1, r3
 8001576:	d803      	bhi.n	8001580 <GetSector+0x30>
 8001578:	2010      	movs	r0, #16
 800157a:	4770      	bx	lr
 800157c:	2000      	movs	r0, #0
 800157e:	4770      	bx	lr
 8001580:	f44f 4180 	mov.w	r1, #16384	; 0x4000
 8001584:	f2cf 71ff 	movt	r1, #63487	; 0xf7ff
 8001588:	1842      	adds	r2, r0, r1
 800158a:	429a      	cmp	r2, r3
 800158c:	d801      	bhi.n	8001592 <GetSector+0x42>
 800158e:	2018      	movs	r0, #24
 8001590:	4770      	bx	lr
 8001592:	f100 4077 	add.w	r0, r0, #4143972352	; 0xf7000000
 8001596:	f500 037f 	add.w	r3, r0, #16711680	; 0xff0000
 800159a:	f5b3 3f80 	cmp.w	r3, #65536	; 0x10000
 800159e:	d201      	bcs.n	80015a4 <GetSector+0x54>
 80015a0:	2020      	movs	r0, #32
 80015a2:	4770      	bx	lr
 80015a4:	f64f 73ff 	movw	r3, #65535	; 0xffff
 80015a8:	f500 0c7e 	add.w	ip, r0, #16646144	; 0xfe0000
 80015ac:	f2c0 0301 	movt	r3, #1
 80015b0:	459c      	cmp	ip, r3
 80015b2:	d801      	bhi.n	80015b8 <GetSector+0x68>
 80015b4:	2028      	movs	r0, #40	; 0x28
 80015b6:	4770      	bx	lr
 80015b8:	f500 027c 	add.w	r2, r0, #16515072	; 0xfc0000
 80015bc:	429a      	cmp	r2, r3
 80015be:	d801      	bhi.n	80015c4 <GetSector+0x74>
 80015c0:	2030      	movs	r0, #48	; 0x30
 80015c2:	4770      	bx	lr
 80015c4:	f500 017a 	add.w	r1, r0, #16384000	; 0xfa0000
 80015c8:	4299      	cmp	r1, r3
 80015ca:	d801      	bhi.n	80015d0 <GetSector+0x80>
 80015cc:	2038      	movs	r0, #56	; 0x38
 80015ce:	4770      	bx	lr
 80015d0:	f500 0c78 	add.w	ip, r0, #16252928	; 0xf80000
 80015d4:	459c      	cmp	ip, r3
 80015d6:	d801      	bhi.n	80015dc <GetSector+0x8c>
 80015d8:	2040      	movs	r0, #64	; 0x40
 80015da:	4770      	bx	lr
 80015dc:	f500 0276 	add.w	r2, r0, #16121856	; 0xf60000
 80015e0:	429a      	cmp	r2, r3
 80015e2:	d801      	bhi.n	80015e8 <GetSector+0x98>
 80015e4:	2048      	movs	r0, #72	; 0x48
 80015e6:	4770      	bx	lr
 80015e8:	f500 0074 	add.w	r0, r0, #15990784	; 0xf40000
 80015ec:	f5b0 3f00 	cmp.w	r0, #131072	; 0x20000
 80015f0:	bf2c      	ite	cs
 80015f2:	2058      	movcs	r0, #88	; 0x58
 80015f4:	2050      	movcc	r0, #80	; 0x50
 80015f6:	4770      	bx	lr

080015f8 <FLASH_If_Init>:
 80015f8:	b508      	push	{r3, lr}
 80015fa:	f005 fe1f 	bl	800723c <FLASH_Unlock>
 80015fe:	20f3      	movs	r0, #243	; 0xf3
 8001600:	e8bd 4008 	ldmia.w	sp!, {r3, lr}
 8001604:	f005 be9a 	b.w	800733c <FLASH_ClearFlag>

08001608 <FLASH_If_Erase>:
 8001608:	b538      	push	{r3, r4, r5, lr}
 800160a:	f7ff ffa1 	bl	8001550 <GetSector>
 800160e:	2858      	cmp	r0, #88	; 0x58
 8001610:	4604      	mov	r4, r0
 8001612:	d82a      	bhi.n	800166a <FLASH_If_Erase+0x62>
 8001614:	2102      	movs	r1, #2
 8001616:	f1c0 0558 	rsb	r5, r0, #88	; 0x58
 800161a:	f005 ffb5 	bl	8007588 <FLASH_EraseSector>
 800161e:	2808      	cmp	r0, #8
 8001620:	f3c5 05c0 	ubfx	r5, r5, #3, #1
 8001624:	d11f      	bne.n	8001666 <FLASH_If_Erase+0x5e>
 8001626:	3408      	adds	r4, #8
 8001628:	2c58      	cmp	r4, #88	; 0x58
 800162a:	d81e      	bhi.n	800166a <FLASH_If_Erase+0x62>
 800162c:	b17d      	cbz	r5, 800164e <FLASH_If_Erase+0x46>
 800162e:	2102      	movs	r1, #2
 8001630:	4620      	mov	r0, r4
 8001632:	f005 ffa9 	bl	8007588 <FLASH_EraseSector>
 8001636:	2808      	cmp	r0, #8
 8001638:	d115      	bne.n	8001666 <FLASH_If_Erase+0x5e>
 800163a:	3408      	adds	r4, #8
 800163c:	2c58      	cmp	r4, #88	; 0x58
 800163e:	d906      	bls.n	800164e <FLASH_If_Erase+0x46>
 8001640:	e013      	b.n	800166a <FLASH_If_Erase+0x62>
 8001642:	f005 ffa1 	bl	8007588 <FLASH_EraseSector>
 8001646:	2808      	cmp	r0, #8
 8001648:	d10d      	bne.n	8001666 <FLASH_If_Erase+0x5e>
 800164a:	2c58      	cmp	r4, #88	; 0x58
 800164c:	d80d      	bhi.n	800166a <FLASH_If_Erase+0x62>
 800164e:	2102      	movs	r1, #2
 8001650:	4620      	mov	r0, r4
 8001652:	f005 ff99 	bl	8007588 <FLASH_EraseSector>
 8001656:	4603      	mov	r3, r0
 8001658:	f104 0508 	add.w	r5, r4, #8
 800165c:	2102      	movs	r1, #2
 800165e:	3410      	adds	r4, #16
 8001660:	2b08      	cmp	r3, #8
 8001662:	4628      	mov	r0, r5
 8001664:	d0ed      	beq.n	8001642 <FLASH_If_Erase+0x3a>
 8001666:	2001      	movs	r0, #1
 8001668:	bd38      	pop	{r3, r4, r5, pc}
 800166a:	2000      	movs	r0, #0
 800166c:	bd38      	pop	{r3, r4, r5, pc}
 800166e:	bf00      	nop

08001670 <FLASH_If_Write>:
 8001670:	e92d 43f8 	stmdb	sp!, {r3, r4, r5, r6, r7, r8, r9, lr}
 8001674:	4691      	mov	r9, r2
 8001676:	4604      	mov	r4, r0
 8001678:	2a00      	cmp	r2, #0
 800167a:	d058      	beq.n	800172e <FLASH_If_Write+0xbe>
 800167c:	6803      	ldr	r3, [r0, #0]
 800167e:	f64f 78fb 	movw	r8, #65531	; 0xfffb
 8001682:	f6c0 080f 	movt	r8, #2063	; 0x80f
 8001686:	4543      	cmp	r3, r8
 8001688:	d818      	bhi.n	80016bc <FLASH_If_Write+0x4c>
 800168a:	2700      	movs	r7, #0
 800168c:	f012 0f01 	tst.w	r2, #1
 8001690:	460d      	mov	r5, r1
 8001692:	d137      	bne.n	8001704 <FLASH_If_Write+0x94>
 8001694:	6800      	ldr	r0, [r0, #0]
 8001696:	f855 1b04 	ldr.w	r1, [r5], #4
 800169a:	f005 ff03 	bl	80074a4 <FLASH_ProgramWord>
 800169e:	2808      	cmp	r0, #8
 80016a0:	d13c      	bne.n	800171c <FLASH_If_Write+0xac>
 80016a2:	6822      	ldr	r2, [r4, #0]
 80016a4:	f855 1c04 	ldr.w	r1, [r5, #-4]
 80016a8:	6810      	ldr	r0, [r2, #0]
 80016aa:	4288      	cmp	r0, r1
 80016ac:	d139      	bne.n	8001722 <FLASH_If_Write+0xb2>
 80016ae:	6820      	ldr	r0, [r4, #0]
 80016b0:	1d07      	adds	r7, r0, #4
 80016b2:	6027      	str	r7, [r4, #0]
 80016b4:	6823      	ldr	r3, [r4, #0]
 80016b6:	2701      	movs	r7, #1
 80016b8:	4543      	cmp	r3, r8
 80016ba:	d923      	bls.n	8001704 <FLASH_If_Write+0x94>
 80016bc:	2000      	movs	r0, #0
 80016be:	e8bd 83f8 	ldmia.w	sp!, {r3, r4, r5, r6, r7, r8, r9, pc}
 80016c2:	6820      	ldr	r0, [r4, #0]
 80016c4:	f856 2c04 	ldr.w	r2, [r6, #-4]
 80016c8:	6801      	ldr	r1, [r0, #0]
 80016ca:	4291      	cmp	r1, r2
 80016cc:	d129      	bne.n	8001722 <FLASH_If_Write+0xb2>
 80016ce:	6822      	ldr	r2, [r4, #0]
 80016d0:	1d11      	adds	r1, r2, #4
 80016d2:	454b      	cmp	r3, r9
 80016d4:	6021      	str	r1, [r4, #0]
 80016d6:	d027      	beq.n	8001728 <FLASH_If_Write+0xb8>
 80016d8:	6823      	ldr	r3, [r4, #0]
 80016da:	4543      	cmp	r3, r8
 80016dc:	d8ee      	bhi.n	80016bc <FLASH_If_Write+0x4c>
 80016de:	f855 1b04 	ldr.w	r1, [r5], #4
 80016e2:	6820      	ldr	r0, [r4, #0]
 80016e4:	f005 fede 	bl	80074a4 <FLASH_ProgramWord>
 80016e8:	2808      	cmp	r0, #8
 80016ea:	d117      	bne.n	800171c <FLASH_If_Write+0xac>
 80016ec:	6822      	ldr	r2, [r4, #0]
 80016ee:	f855 3c04 	ldr.w	r3, [r5, #-4]
 80016f2:	6811      	ldr	r1, [r2, #0]
 80016f4:	4299      	cmp	r1, r3
 80016f6:	d114      	bne.n	8001722 <FLASH_If_Write+0xb2>
 80016f8:	6823      	ldr	r3, [r4, #0]
 80016fa:	1d19      	adds	r1, r3, #4
 80016fc:	6021      	str	r1, [r4, #0]
 80016fe:	6820      	ldr	r0, [r4, #0]
 8001700:	4540      	cmp	r0, r8
 8001702:	d8db      	bhi.n	80016bc <FLASH_If_Write+0x4c>
 8001704:	462e      	mov	r6, r5
 8001706:	6820      	ldr	r0, [r4, #0]
 8001708:	f856 1b04 	ldr.w	r1, [r6], #4
 800170c:	f005 feca 	bl	80074a4 <FLASH_ProgramWord>
 8001710:	1c7b      	adds	r3, r7, #1
 8001712:	2808      	cmp	r0, #8
 8001714:	4635      	mov	r5, r6
 8001716:	f107 0702 	add.w	r7, r7, #2
 800171a:	d0d2      	beq.n	80016c2 <FLASH_If_Write+0x52>
 800171c:	2001      	movs	r0, #1
 800171e:	e8bd 83f8 	ldmia.w	sp!, {r3, r4, r5, r6, r7, r8, r9, pc}
 8001722:	2002      	movs	r0, #2
 8001724:	e8bd 83f8 	ldmia.w	sp!, {r3, r4, r5, r6, r7, r8, r9, pc}
 8001728:	2000      	movs	r0, #0
 800172a:	e8bd 83f8 	ldmia.w	sp!, {r3, r4, r5, r6, r7, r8, r9, pc}
 800172e:	4610      	mov	r0, r2
 8001730:	e8bd 83f8 	ldmia.w	sp!, {r3, r4, r5, r6, r7, r8, r9, pc}

08001734 <FLASH_If_GetWriteProtectionStatus>:
 8001734:	b510      	push	{r4, lr}
 8001736:	f7ff ff0b 	bl	8001550 <GetSector>
 800173a:	4604      	mov	r4, r0
 800173c:	f005 fdcc 	bl	80072d8 <FLASH_OB_GetWRP>
 8001740:	08e4      	lsrs	r4, r4, #3
 8001742:	f640 72ff 	movw	r2, #4095	; 0xfff
 8001746:	fa40 f104 	asr.w	r1, r0, r4
 800174a:	fa42 f404 	asr.w	r4, r2, r4
 800174e:	1b0b      	subs	r3, r1, r4
 8001750:	4258      	negs	r0, r3
 8001752:	eb40 0003 	adc.w	r0, r0, r3
 8001756:	bd10      	pop	{r4, pc}

08001758 <FLASH_If_DisableWriteProtection>:
 8001758:	b500      	push	{lr}
 800175a:	b083      	sub	sp, #12
 800175c:	2208      	movs	r2, #8
 800175e:	2102      	movs	r1, #2
 8001760:	9200      	str	r2, [sp, #0]
 8001762:	9101      	str	r1, [sp, #4]
 8001764:	f7ff fef4 	bl	8001550 <GetSector>
 8001768:	9000      	str	r0, [sp, #0]
 800176a:	9b00      	ldr	r3, [sp, #0]
 800176c:	2201      	movs	r2, #1
 800176e:	08d9      	lsrs	r1, r3, #3
 8001770:	fa02 f001 	lsl.w	r0, r2, r1
 8001774:	f5c0 5380 	rsb	r3, r0, #4096	; 0x1000
 8001778:	9301      	str	r3, [sp, #4]
 800177a:	f005 fd7b 	bl	8007274 <FLASH_OB_Unlock>
 800177e:	9801      	ldr	r0, [sp, #4]
 8001780:	2100      	movs	r1, #0
 8001782:	f005 fe39 	bl	80073f8 <FLASH_OB_WRPConfig>
 8001786:	f005 fe0d 	bl	80073a4 <FLASH_OB_Launch>
 800178a:	2808      	cmp	r0, #8
 800178c:	bf0c      	ite	eq
 800178e:	2001      	moveq	r0, #1
 8001790:	2002      	movne	r0, #2
 8001792:	b003      	add	sp, #12
 8001794:	bd00      	pop	{pc}
 8001796:	bf00      	nop

08001798 <HMC5883LInit>:
 8001798:	b570      	push	{r4, r5, r6, lr}
 800179a:	b088      	sub	sp, #32
 800179c:	231e      	movs	r3, #30
 800179e:	f88d 3000 	strb.w	r3, [sp]
 80017a2:	ab07      	add	r3, sp, #28
 80017a4:	9301      	str	r3, [sp, #4]
 80017a6:	f44f 45b0 	mov.w	r5, #22528	; 0x5800
 80017aa:	f10d 031f 	add.w	r3, sp, #31
 80017ae:	2400      	movs	r4, #0
 80017b0:	f2c4 0500 	movt	r5, #16384	; 0x4000
 80017b4:	9303      	str	r3, [sp, #12]
 80017b6:	2305      	movs	r3, #5
 80017b8:	2602      	movs	r6, #2
 80017ba:	4669      	mov	r1, sp
 80017bc:	4622      	mov	r2, r4
 80017be:	f88d 3012 	strb.w	r3, [sp, #18]
 80017c2:	4628      	mov	r0, r5
 80017c4:	2378      	movs	r3, #120	; 0x78
 80017c6:	f88d 301d 	strb.w	r3, [sp, #29]
 80017ca:	9406      	str	r4, [sp, #24]
 80017cc:	f88d 6008 	strb.w	r6, [sp, #8]
 80017d0:	f88d 4010 	strb.w	r4, [sp, #16]
 80017d4:	f88d 401c 	strb.w	r4, [sp, #28]
 80017d8:	f000 f8c0 	bl	800195c <I2C_MasterTransferData>
 80017dc:	2301      	movs	r3, #1
 80017de:	4669      	mov	r1, sp
 80017e0:	4622      	mov	r2, r4
 80017e2:	f88d 301c 	strb.w	r3, [sp, #28]
 80017e6:	4628      	mov	r0, r5
 80017e8:	2320      	movs	r3, #32
 80017ea:	f88d 301d 	strb.w	r3, [sp, #29]
 80017ee:	f000 f8b5 	bl	800195c <I2C_MasterTransferData>
 80017f2:	4628      	mov	r0, r5
 80017f4:	4669      	mov	r1, sp
 80017f6:	4622      	mov	r2, r4
 80017f8:	f88d 601c 	strb.w	r6, [sp, #28]
 80017fc:	f88d 401d 	strb.w	r4, [sp, #29]
 8001800:	f000 f8ac 	bl	800195c <I2C_MasterTransferData>
 8001804:	b008      	add	sp, #32
 8001806:	bd70      	pop	{r4, r5, r6, pc}

08001808 <GetHMC5883LID>:
 8001808:	b530      	push	{r4, r5, lr}
 800180a:	b089      	sub	sp, #36	; 0x24
 800180c:	251e      	movs	r5, #30
 800180e:	f88d 5004 	strb.w	r5, [sp, #4]
 8001812:	f44f 42b0 	mov.w	r2, #22528	; 0x5800
 8001816:	f240 0520 	movw	r5, #32
 800181a:	2300      	movs	r3, #0
 800181c:	4604      	mov	r4, r0
 800181e:	f2c4 0200 	movt	r2, #16384	; 0x4000
 8001822:	f2c2 0500 	movt	r5, #8192	; 0x2000
 8001826:	9502      	str	r5, [sp, #8]
 8001828:	9404      	str	r4, [sp, #16]
 800182a:	2501      	movs	r5, #1
 800182c:	2403      	movs	r4, #3
 800182e:	4610      	mov	r0, r2
 8001830:	a901      	add	r1, sp, #4
 8001832:	461a      	mov	r2, r3
 8001834:	f88d 500c 	strb.w	r5, [sp, #12]
 8001838:	f88d 4014 	strb.w	r4, [sp, #20]
 800183c:	f88d 3016 	strb.w	r3, [sp, #22]
 8001840:	9307      	str	r3, [sp, #28]
 8001842:	f000 f88b 	bl	800195c <I2C_MasterTransferData>
 8001846:	b009      	add	sp, #36	; 0x24
 8001848:	bd30      	pop	{r4, r5, pc}
 800184a:	bf00      	nop

0800184c <SensorBusInit>:
 800184c:	b570      	push	{r4, r5, r6, lr}
 800184e:	2101      	movs	r1, #1
 8001850:	b088      	sub	sp, #32
 8001852:	f44f 0080 	mov.w	r0, #4194304	; 0x400000
 8001856:	f004 f9a7 	bl	8005ba8 <RCC_APB1PeriphClockCmd>
 800185a:	2101      	movs	r1, #1
 800185c:	f44f 0080 	mov.w	r0, #4194304	; 0x400000
 8001860:	f004 f9e8 	bl	8005c34 <RCC_APB1PeriphResetCmd>
 8001864:	f44f 6480 	mov.w	r4, #1024	; 0x400
 8001868:	2100      	movs	r1, #0
 800186a:	f44f 0080 	mov.w	r0, #4194304	; 0x400000
 800186e:	f004 f9e1 	bl	8005c34 <RCC_APB1PeriphResetCmd>
 8001872:	f2c4 0402 	movt	r4, #16386	; 0x4002
 8001876:	2002      	movs	r0, #2
 8001878:	2101      	movs	r1, #1
 800187a:	f004 f96b 	bl	8005b54 <RCC_AHB1PeriphClockCmd>
 800187e:	2501      	movs	r5, #1
 8001880:	2203      	movs	r2, #3
 8001882:	2302      	movs	r3, #2
 8001884:	f44f 6680 	mov.w	r6, #1024	; 0x400
 8001888:	4620      	mov	r0, r4
 800188a:	a905      	add	r1, sp, #20
 800188c:	f88d 2019 	strb.w	r2, [sp, #25]
 8001890:	f88d 3018 	strb.w	r3, [sp, #24]
 8001894:	9605      	str	r6, [sp, #20]
 8001896:	f88d 501a 	strb.w	r5, [sp, #26]
 800189a:	f88d 501b 	strb.w	r5, [sp, #27]
 800189e:	f003 fe41 	bl	8005524 <GPIO_Init>
 80018a2:	f44f 6300 	mov.w	r3, #2048	; 0x800
 80018a6:	a905      	add	r1, sp, #20
 80018a8:	4620      	mov	r0, r4
 80018aa:	9305      	str	r3, [sp, #20]
 80018ac:	f003 fe3a 	bl	8005524 <GPIO_Init>
 80018b0:	4620      	mov	r0, r4
 80018b2:	210a      	movs	r1, #10
 80018b4:	2204      	movs	r2, #4
 80018b6:	f003 ff33 	bl	8005720 <GPIO_PinAFConfig>
 80018ba:	4620      	mov	r0, r4
 80018bc:	2204      	movs	r2, #4
 80018be:	210b      	movs	r1, #11
 80018c0:	f003 ff2e 	bl	8005720 <GPIO_PinAFConfig>
 80018c4:	a908      	add	r1, sp, #32
 80018c6:	f44f 50d4 	mov.w	r0, #6784	; 0x1a80
 80018ca:	f2c0 0006 	movt	r0, #6
 80018ce:	f44f 4480 	mov.w	r4, #16384	; 0x4000
 80018d2:	f841 0d1c 	str.w	r0, [r1, #-28]!
 80018d6:	f44f 40b0 	mov.w	r0, #22528	; 0x5800
 80018da:	2300      	movs	r3, #0
 80018dc:	f64b 72ff 	movw	r2, #49151	; 0xbfff
 80018e0:	f364 401f 	bfi	r0, r4, #16, #16
 80018e4:	f8ad 3008 	strh.w	r3, [sp, #8]
 80018e8:	f8ad 200a 	strh.w	r2, [sp, #10]
 80018ec:	f8ad 300c 	strh.w	r3, [sp, #12]
 80018f0:	f8ad 600e 	strh.w	r6, [sp, #14]
 80018f4:	f8ad 4010 	strh.w	r4, [sp, #16]
 80018f8:	f005 fa58 	bl	8006dac <I2C_Init>
 80018fc:	2121      	movs	r1, #33	; 0x21
 80018fe:	a807      	add	r0, sp, #28
 8001900:	2305      	movs	r3, #5
 8001902:	f88d 101c 	strb.w	r1, [sp, #28]
 8001906:	f88d 301d 	strb.w	r3, [sp, #29]
 800190a:	f88d 501f 	strb.w	r5, [sp, #31]
 800190e:	f005 fe81 	bl	8007614 <NVIC_Init>
 8001912:	f44f 40b0 	mov.w	r0, #22528	; 0x5800
 8001916:	f364 401f 	bfi	r0, r4, #16, #16
 800191a:	4629      	mov	r1, r5
 800191c:	f005 fad2 	bl	8006ec4 <I2C_Cmd>
 8001920:	b008      	add	sp, #32
 8001922:	bd70      	pop	{r4, r5, r6, pc}

08001924 <I2C_getNum>:
 8001924:	f44f 43a8 	mov.w	r3, #21504	; 0x5400
 8001928:	f2c4 0300 	movt	r3, #16384	; 0x4000
 800192c:	4298      	cmp	r0, r3
 800192e:	d00f      	beq.n	8001950 <I2C_getNum+0x2c>
 8001930:	f44f 41b0 	mov.w	r1, #22528	; 0x5800
 8001934:	f2c4 0100 	movt	r1, #16384	; 0x4000
 8001938:	4288      	cmp	r0, r1
 800193a:	d00c      	beq.n	8001956 <I2C_getNum+0x32>
 800193c:	f44f 42b8 	mov.w	r2, #23552	; 0x5c00
 8001940:	f2c4 0200 	movt	r2, #16384	; 0x4000
 8001944:	4290      	cmp	r0, r2
 8001946:	bf14      	ite	ne
 8001948:	20ff      	movne	r0, #255	; 0xff
 800194a:	2002      	moveq	r0, #2
 800194c:	b240      	sxtb	r0, r0
 800194e:	4770      	bx	lr
 8001950:	2000      	movs	r0, #0
 8001952:	b240      	sxtb	r0, r0
 8001954:	4770      	bx	lr
 8001956:	2001      	movs	r0, #1
 8001958:	e7f8      	b.n	800194c <I2C_getNum+0x28>
 800195a:	bf00      	nop

0800195c <I2C_MasterTransferData>:
 800195c:	e92d 4ff8 	stmdb	sp!, {r3, r4, r5, r6, r7, r8, r9, sl, fp, lr}
 8001960:	8806      	ldrh	r6, [r0, #0]
 8001962:	4b98      	ldr	r3, [pc, #608]	; (8001bc4 <I2C_MasterTransferData+0x268>)
 8001964:	4604      	mov	r4, r0
 8001966:	b2b0      	uxth	r0, r6
 8001968:	f440 6580 	orr.w	r5, r0, #1024	; 0x400
 800196c:	8025      	strh	r5, [r4, #0]
 800196e:	f8b4 c000 	ldrh.w	ip, [r4]
 8001972:	f42c 6600 	bic.w	r6, ip, #2048	; 0x800
 8001976:	0430      	lsls	r0, r6, #16
 8001978:	0c05      	lsrs	r5, r0, #16
 800197a:	2600      	movs	r6, #0
 800197c:	8025      	strh	r5, [r4, #0]
 800197e:	460d      	mov	r5, r1
 8001980:	601e      	str	r6, [r3, #0]
 8001982:	2a00      	cmp	r2, #0
 8001984:	f040 82df 	bne.w	8001f46 <I2C_MasterTransferData+0x5ea>
 8001988:	f44f 5690 	mov.w	r6, #4608	; 0x1200
 800198c:	74ca      	strb	r2, [r1, #19]
 800198e:	4610      	mov	r0, r2
 8001990:	f2c0 067a 	movt	r6, #122	; 0x7a
 8001994:	f04f 090e 	mov.w	r9, #14
 8001998:	f04f 0803 	mov.w	r8, #3
 800199c:	f8b4 c014 	ldrh.w	ip, [r4, #20]
 80019a0:	8aa2      	ldrh	r2, [r4, #20]
 80019a2:	fa1f f18c 	uxth.w	r1, ip
 80019a6:	f402 4c5f 	and.w	ip, r2, #57088	; 0xdf00
 80019aa:	ea21 010c 	bic.w	r1, r1, ip
 80019ae:	82a1      	strh	r1, [r4, #20]
 80019b0:	7ce9      	ldrb	r1, [r5, #19]
 80019b2:	7caa      	ldrb	r2, [r5, #18]
 80019b4:	4291      	cmp	r1, r2
 80019b6:	f200 82f7 	bhi.w	8001fa8 <I2C_MasterTransferData+0x64c>
 80019ba:	2201      	movs	r2, #1
 80019bc:	601a      	str	r2, [r3, #0]
 80019be:	7268      	strb	r0, [r5, #9]
 80019c0:	7468      	strb	r0, [r5, #17]
 80019c2:	82a8      	strh	r0, [r5, #20]
 80019c4:	8827      	ldrh	r7, [r4, #0]
 80019c6:	f8d5 c00c 	ldr.w	ip, [r5, #12]
 80019ca:	686a      	ldr	r2, [r5, #4]
 80019cc:	b2b9      	uxth	r1, r7
 80019ce:	f441 7780 	orr.w	r7, r1, #256	; 0x100
 80019d2:	8027      	strh	r7, [r4, #0]
 80019d4:	4661      	mov	r1, ip
 80019d6:	605e      	str	r6, [r3, #4]
 80019d8:	8aa7      	ldrh	r7, [r4, #20]
 80019da:	07ff      	lsls	r7, r7, #31
 80019dc:	f100 823f 	bmi.w	8001e5e <I2C_MasterTransferData+0x502>
 80019e0:	685f      	ldr	r7, [r3, #4]
 80019e2:	f107 3aff 	add.w	sl, r7, #4294967295
 80019e6:	f8c3 a004 	str.w	sl, [r3, #4]
 80019ea:	2f00      	cmp	r7, #0
 80019ec:	d1f4      	bne.n	80019d8 <I2C_MasterTransferData+0x7c>
 80019ee:	8aa7      	ldrh	r7, [r4, #20]
 80019f0:	f427 5700 	bic.w	r7, r7, #8192	; 0x2000
 80019f4:	f027 0720 	bic.w	r7, r7, #32
 80019f8:	043f      	lsls	r7, r7, #16
 80019fa:	0c3f      	lsrs	r7, r7, #16
 80019fc:	f447 5700 	orr.w	r7, r7, #8192	; 0x2000
 8001a00:	f417 4f7f 	tst.w	r7, #65280	; 0xff00
 8001a04:	82af      	strh	r7, [r5, #20]
 8001a06:	f040 821e 	bne.w	8001e46 <I2C_MasterTransferData+0x4ea>
 8001a0a:	7a2f      	ldrb	r7, [r5, #8]
 8001a0c:	2f00      	cmp	r7, #0
 8001a0e:	f000 8098 	beq.w	8001b42 <I2C_MasterTransferData+0x1e6>
 8001a12:	2a00      	cmp	r2, #0
 8001a14:	f000 8095 	beq.w	8001b42 <I2C_MasterTransferData+0x1e6>
 8001a18:	2702      	movs	r7, #2
 8001a1a:	601f      	str	r7, [r3, #0]
 8001a1c:	782f      	ldrb	r7, [r5, #0]
 8001a1e:	007f      	lsls	r7, r7, #1
 8001a20:	8227      	strh	r7, [r4, #16]
 8001a22:	605e      	str	r6, [r3, #4]
 8001a24:	8aa7      	ldrh	r7, [r4, #20]
 8001a26:	07bf      	lsls	r7, r7, #30
 8001a28:	f100 8233 	bmi.w	8001e92 <I2C_MasterTransferData+0x536>
 8001a2c:	685f      	ldr	r7, [r3, #4]
 8001a2e:	f107 3aff 	add.w	sl, r7, #4294967295
 8001a32:	f8c3 a004 	str.w	sl, [r3, #4]
 8001a36:	2f00      	cmp	r7, #0
 8001a38:	d1f4      	bne.n	8001a24 <I2C_MasterTransferData+0xc8>
 8001a3a:	8aa7      	ldrh	r7, [r4, #20]
 8001a3c:	f427 5700 	bic.w	r7, r7, #8192	; 0x2000
 8001a40:	f027 0720 	bic.w	r7, r7, #32
 8001a44:	043f      	lsls	r7, r7, #16
 8001a46:	0c3f      	lsrs	r7, r7, #16
 8001a48:	f447 5700 	orr.w	r7, r7, #8192	; 0x2000
 8001a4c:	f417 4f7f 	tst.w	r7, #65280	; 0xff00
 8001a50:	82af      	strh	r7, [r5, #20]
 8001a52:	f040 81f8 	bne.w	8001e46 <I2C_MasterTransferData+0x4ea>
 8001a56:	7a2f      	ldrb	r7, [r5, #8]
 8001a58:	f895 a009 	ldrb.w	sl, [r5, #9]
 8001a5c:	f8b4 b018 	ldrh.w	fp, [r4, #24]
 8001a60:	4557      	cmp	r7, sl
 8001a62:	d929      	bls.n	8001ab8 <I2C_MasterTransferData+0x15c>
 8001a64:	f8c3 8000 	str.w	r8, [r3]
 8001a68:	f812 7b01 	ldrb.w	r7, [r2], #1
 8001a6c:	8227      	strh	r7, [r4, #16]
 8001a6e:	605e      	str	r6, [r3, #4]
 8001a70:	8aa7      	ldrh	r7, [r4, #20]
 8001a72:	063f      	lsls	r7, r7, #24
 8001a74:	f100 81eb 	bmi.w	8001e4e <I2C_MasterTransferData+0x4f2>
 8001a78:	685f      	ldr	r7, [r3, #4]
 8001a7a:	f107 3aff 	add.w	sl, r7, #4294967295
 8001a7e:	f8c3 a004 	str.w	sl, [r3, #4]
 8001a82:	2f00      	cmp	r7, #0
 8001a84:	d1f4      	bne.n	8001a70 <I2C_MasterTransferData+0x114>
 8001a86:	8aa7      	ldrh	r7, [r4, #20]
 8001a88:	f427 5700 	bic.w	r7, r7, #8192	; 0x2000
 8001a8c:	f027 0720 	bic.w	r7, r7, #32
 8001a90:	043f      	lsls	r7, r7, #16
 8001a92:	0c3f      	lsrs	r7, r7, #16
 8001a94:	f447 5700 	orr.w	r7, r7, #8192	; 0x2000
 8001a98:	f417 4f7f 	tst.w	r7, #65280	; 0xff00
 8001a9c:	82af      	strh	r7, [r5, #20]
 8001a9e:	f040 81d2 	bne.w	8001e46 <I2C_MasterTransferData+0x4ea>
 8001aa2:	f895 a009 	ldrb.w	sl, [r5, #9]
 8001aa6:	7a2f      	ldrb	r7, [r5, #8]
 8001aa8:	f10a 0a01 	add.w	sl, sl, #1
 8001aac:	fa5f fa8a 	uxtb.w	sl, sl
 8001ab0:	4557      	cmp	r7, sl
 8001ab2:	f885 a009 	strb.w	sl, [r5, #9]
 8001ab6:	d8d5      	bhi.n	8001a64 <I2C_MasterTransferData+0x108>
 8001ab8:	2204      	movs	r2, #4
 8001aba:	601a      	str	r2, [r3, #0]
 8001abc:	605e      	str	r6, [r3, #4]
 8001abe:	8aa2      	ldrh	r2, [r4, #20]
 8001ac0:	0752      	lsls	r2, r2, #29
 8001ac2:	f100 8281 	bmi.w	8001fc8 <I2C_MasterTransferData+0x66c>
 8001ac6:	685a      	ldr	r2, [r3, #4]
 8001ac8:	f102 3aff 	add.w	sl, r2, #4294967295
 8001acc:	f8c3 a004 	str.w	sl, [r3, #4]
 8001ad0:	2a00      	cmp	r2, #0
 8001ad2:	d1f4      	bne.n	8001abe <I2C_MasterTransferData+0x162>
 8001ad4:	8aa2      	ldrh	r2, [r4, #20]
 8001ad6:	f422 5200 	bic.w	r2, r2, #8192	; 0x2000
 8001ada:	f022 0220 	bic.w	r2, r2, #32
 8001ade:	0412      	lsls	r2, r2, #16
 8001ae0:	0c12      	lsrs	r2, r2, #16
 8001ae2:	f442 5200 	orr.w	r2, r2, #8192	; 0x2000
 8001ae6:	f412 4f7f 	tst.w	r2, #65280	; 0xff00
 8001aea:	82aa      	strh	r2, [r5, #20]
 8001aec:	f040 81ab 	bne.w	8001e46 <I2C_MasterTransferData+0x4ea>
 8001af0:	7c2a      	ldrb	r2, [r5, #16]
 8001af2:	2a00      	cmp	r2, #0
 8001af4:	f000 82f4 	beq.w	80020e0 <I2C_MasterTransferData+0x784>
 8001af8:	f1bc 0f00 	cmp.w	ip, #0
 8001afc:	f000 82f0 	beq.w	80020e0 <I2C_MasterTransferData+0x784>
 8001b00:	b31f      	cbz	r7, 8001b4a <I2C_MasterTransferData+0x1ee>
 8001b02:	2206      	movs	r2, #6
 8001b04:	601a      	str	r2, [r3, #0]
 8001b06:	8822      	ldrh	r2, [r4, #0]
 8001b08:	b292      	uxth	r2, r2
 8001b0a:	f442 7280 	orr.w	r2, r2, #256	; 0x100
 8001b0e:	8022      	strh	r2, [r4, #0]
 8001b10:	605e      	str	r6, [r3, #4]
 8001b12:	8aa2      	ldrh	r2, [r4, #20]
 8001b14:	07d2      	lsls	r2, r2, #31
 8001b16:	f100 824f 	bmi.w	8001fb8 <I2C_MasterTransferData+0x65c>
 8001b1a:	685a      	ldr	r2, [r3, #4]
 8001b1c:	1e57      	subs	r7, r2, #1
 8001b1e:	605f      	str	r7, [r3, #4]
 8001b20:	2a00      	cmp	r2, #0
 8001b22:	d1f6      	bne.n	8001b12 <I2C_MasterTransferData+0x1b6>
 8001b24:	8aa2      	ldrh	r2, [r4, #20]
 8001b26:	f422 5200 	bic.w	r2, r2, #8192	; 0x2000
 8001b2a:	f022 0220 	bic.w	r2, r2, #32
 8001b2e:	0412      	lsls	r2, r2, #16
 8001b30:	0c12      	lsrs	r2, r2, #16
 8001b32:	f442 5200 	orr.w	r2, r2, #8192	; 0x2000
 8001b36:	f412 4f7f 	tst.w	r2, #65280	; 0xff00
 8001b3a:	82aa      	strh	r2, [r5, #20]
 8001b3c:	f040 8183 	bne.w	8001e46 <I2C_MasterTransferData+0x4ea>
 8001b40:	8b22      	ldrh	r2, [r4, #24]
 8001b42:	7c2a      	ldrb	r2, [r5, #16]
 8001b44:	2a00      	cmp	r2, #0
 8001b46:	f000 8343 	beq.w	80021d0 <I2C_MasterTransferData+0x874>
 8001b4a:	f1bc 0f00 	cmp.w	ip, #0
 8001b4e:	f000 833c 	beq.w	80021ca <I2C_MasterTransferData+0x86e>
 8001b52:	2207      	movs	r2, #7
 8001b54:	601a      	str	r2, [r3, #0]
 8001b56:	782a      	ldrb	r2, [r5, #0]
 8001b58:	0052      	lsls	r2, r2, #1
 8001b5a:	f042 0201 	orr.w	r2, r2, #1
 8001b5e:	8222      	strh	r2, [r4, #16]
 8001b60:	605e      	str	r6, [r3, #4]
 8001b62:	8aa2      	ldrh	r2, [r4, #20]
 8001b64:	0792      	lsls	r2, r2, #30
 8001b66:	f100 818c 	bmi.w	8001e82 <I2C_MasterTransferData+0x526>
 8001b6a:	685a      	ldr	r2, [r3, #4]
 8001b6c:	1e57      	subs	r7, r2, #1
 8001b6e:	605f      	str	r7, [r3, #4]
 8001b70:	2a00      	cmp	r2, #0
 8001b72:	d1f6      	bne.n	8001b62 <I2C_MasterTransferData+0x206>
 8001b74:	8aa2      	ldrh	r2, [r4, #20]
 8001b76:	f422 5200 	bic.w	r2, r2, #8192	; 0x2000
 8001b7a:	f022 0220 	bic.w	r2, r2, #32
 8001b7e:	0412      	lsls	r2, r2, #16
 8001b80:	0c12      	lsrs	r2, r2, #16
 8001b82:	f442 5200 	orr.w	r2, r2, #8192	; 0x2000
 8001b86:	f412 4f7f 	tst.w	r2, #65280	; 0xff00
 8001b8a:	82aa      	strh	r2, [r5, #20]
 8001b8c:	f040 815b 	bne.w	8001e46 <I2C_MasterTransferData+0x4ea>
 8001b90:	7c2a      	ldrb	r2, [r5, #16]
 8001b92:	2a01      	cmp	r2, #1
 8001b94:	f000 8185 	beq.w	8001ea2 <I2C_MasterTransferData+0x546>
 8001b98:	2a02      	cmp	r2, #2
 8001b9a:	f000 80e1 	beq.w	8001d60 <I2C_MasterTransferData+0x404>
 8001b9e:	7c6f      	ldrb	r7, [r5, #17]
 8001ba0:	f8b4 c018 	ldrh.w	ip, [r4, #24]
 8001ba4:	1bd2      	subs	r2, r2, r7
 8001ba6:	2a03      	cmp	r2, #3
 8001ba8:	dd32      	ble.n	8001c10 <I2C_MasterTransferData+0x2b4>
 8001baa:	f8c3 9000 	str.w	r9, [r3]
 8001bae:	f8b4 c014 	ldrh.w	ip, [r4, #20]
 8001bb2:	ea5f 624c 	movs.w	r2, ip, lsl #25
 8001bb6:	d414      	bmi.n	8001be2 <I2C_MasterTransferData+0x286>
 8001bb8:	f44f 5210 	mov.w	r2, #9216	; 0x2400
 8001bbc:	f2c0 02f4 	movt	r2, #244	; 0xf4
 8001bc0:	e009      	b.n	8001bd6 <I2C_MasterTransferData+0x27a>
 8001bc2:	bf00      	nop
 8001bc4:	200005c0 	andcs	r0, r0, r0, asr #11
 8001bc8:	8aa7      	ldrh	r7, [r4, #20]
 8001bca:	f017 0f40 	tst.w	r7, #64	; 0x40
 8001bce:	d108      	bne.n	8001be2 <I2C_MasterTransferData+0x286>
 8001bd0:	3a01      	subs	r2, #1
 8001bd2:	f000 814c 	beq.w	8001e6e <I2C_MasterTransferData+0x512>
 8001bd6:	8aa7      	ldrh	r7, [r4, #20]
 8001bd8:	f017 0f40 	tst.w	r7, #64	; 0x40
 8001bdc:	f102 32ff 	add.w	r2, r2, #4294967295
 8001be0:	d0f2      	beq.n	8001bc8 <I2C_MasterTransferData+0x26c>
 8001be2:	8a22      	ldrh	r2, [r4, #16]
 8001be4:	700a      	strb	r2, [r1, #0]
 8001be6:	8aa2      	ldrh	r2, [r4, #20]
 8001be8:	f422 5c00 	bic.w	ip, r2, #8192	; 0x2000
 8001bec:	f02c 0220 	bic.w	r2, ip, #32
 8001bf0:	0412      	lsls	r2, r2, #16
 8001bf2:	0c12      	lsrs	r2, r2, #16
 8001bf4:	f412 4f7f 	tst.w	r2, #65280	; 0xff00
 8001bf8:	82aa      	strh	r2, [r5, #20]
 8001bfa:	f040 8124 	bne.w	8001e46 <I2C_MasterTransferData+0x4ea>
 8001bfe:	7c6a      	ldrb	r2, [r5, #17]
 8001c00:	7c2f      	ldrb	r7, [r5, #16]
 8001c02:	3201      	adds	r2, #1
 8001c04:	b2d2      	uxtb	r2, r2
 8001c06:	1abf      	subs	r7, r7, r2
 8001c08:	3101      	adds	r1, #1
 8001c0a:	2f03      	cmp	r7, #3
 8001c0c:	746a      	strb	r2, [r5, #17]
 8001c0e:	dccc      	bgt.n	8001baa <I2C_MasterTransferData+0x24e>
 8001c10:	220f      	movs	r2, #15
 8001c12:	601a      	str	r2, [r3, #0]
 8001c14:	605e      	str	r6, [r3, #4]
 8001c16:	f8b4 c014 	ldrh.w	ip, [r4, #20]
 8001c1a:	ea5f 724c 	movs.w	r2, ip, lsl #29
 8001c1e:	f100 8211 	bmi.w	8002044 <I2C_MasterTransferData+0x6e8>
 8001c22:	685a      	ldr	r2, [r3, #4]
 8001c24:	1e57      	subs	r7, r2, #1
 8001c26:	605f      	str	r7, [r3, #4]
 8001c28:	2a00      	cmp	r2, #0
 8001c2a:	d1f4      	bne.n	8001c16 <I2C_MasterTransferData+0x2ba>
 8001c2c:	8aa2      	ldrh	r2, [r4, #20]
 8001c2e:	f422 5c00 	bic.w	ip, r2, #8192	; 0x2000
 8001c32:	f02c 0220 	bic.w	r2, ip, #32
 8001c36:	0412      	lsls	r2, r2, #16
 8001c38:	0c12      	lsrs	r2, r2, #16
 8001c3a:	f442 5200 	orr.w	r2, r2, #8192	; 0x2000
 8001c3e:	f412 4f7f 	tst.w	r2, #65280	; 0xff00
 8001c42:	82aa      	strh	r2, [r5, #20]
 8001c44:	f040 80ff 	bne.w	8001e46 <I2C_MasterTransferData+0x4ea>
 8001c48:	f8b4 c000 	ldrh.w	ip, [r4]
 8001c4c:	f42c 6280 	bic.w	r2, ip, #1024	; 0x400
 8001c50:	0412      	lsls	r2, r2, #16
 8001c52:	0c12      	lsrs	r2, r2, #16
 8001c54:	8022      	strh	r2, [r4, #0]
 8001c56:	2210      	movs	r2, #16
 8001c58:	601a      	str	r2, [r3, #0]
 8001c5a:	f8b4 c014 	ldrh.w	ip, [r4, #20]
 8001c5e:	ea5f 624c 	movs.w	r2, ip, lsl #25
 8001c62:	d411      	bmi.n	8001c88 <I2C_MasterTransferData+0x32c>
 8001c64:	f44f 5210 	mov.w	r2, #9216	; 0x2400
 8001c68:	f2c0 02f4 	movt	r2, #244	; 0xf4
 8001c6c:	e006      	b.n	8001c7c <I2C_MasterTransferData+0x320>
 8001c6e:	8aa7      	ldrh	r7, [r4, #20]
 8001c70:	f017 0f40 	tst.w	r7, #64	; 0x40
 8001c74:	d108      	bne.n	8001c88 <I2C_MasterTransferData+0x32c>
 8001c76:	3a01      	subs	r2, #1
 8001c78:	f000 821e 	beq.w	80020b8 <I2C_MasterTransferData+0x75c>
 8001c7c:	8aa7      	ldrh	r7, [r4, #20]
 8001c7e:	f017 0f40 	tst.w	r7, #64	; 0x40
 8001c82:	f102 32ff 	add.w	r2, r2, #4294967295
 8001c86:	d0f2      	beq.n	8001c6e <I2C_MasterTransferData+0x312>
 8001c88:	8a22      	ldrh	r2, [r4, #16]
 8001c8a:	700a      	strb	r2, [r1, #0]
 8001c8c:	8aa2      	ldrh	r2, [r4, #20]
 8001c8e:	f422 5c00 	bic.w	ip, r2, #8192	; 0x2000
 8001c92:	f02c 0220 	bic.w	r2, ip, #32
 8001c96:	0412      	lsls	r2, r2, #16
 8001c98:	0c12      	lsrs	r2, r2, #16
 8001c9a:	f412 4f7f 	tst.w	r2, #65280	; 0xff00
 8001c9e:	82aa      	strh	r2, [r5, #20]
 8001ca0:	f040 80d1 	bne.w	8001e46 <I2C_MasterTransferData+0x4ea>
 8001ca4:	7c6f      	ldrb	r7, [r5, #17]
 8001ca6:	1c7a      	adds	r2, r7, #1
 8001ca8:	2711      	movs	r7, #17
 8001caa:	601f      	str	r7, [r3, #0]
 8001cac:	746a      	strb	r2, [r5, #17]
 8001cae:	605e      	str	r6, [r3, #4]
 8001cb0:	f8b4 c014 	ldrh.w	ip, [r4, #20]
 8001cb4:	ea5f 724c 	movs.w	r2, ip, lsl #29
 8001cb8:	f100 81eb 	bmi.w	8002092 <I2C_MasterTransferData+0x736>
 8001cbc:	685a      	ldr	r2, [r3, #4]
 8001cbe:	1e57      	subs	r7, r2, #1
 8001cc0:	605f      	str	r7, [r3, #4]
 8001cc2:	2a00      	cmp	r2, #0
 8001cc4:	d1f4      	bne.n	8001cb0 <I2C_MasterTransferData+0x354>
 8001cc6:	8aa2      	ldrh	r2, [r4, #20]
 8001cc8:	f422 5c00 	bic.w	ip, r2, #8192	; 0x2000
 8001ccc:	f02c 0220 	bic.w	r2, ip, #32
 8001cd0:	0412      	lsls	r2, r2, #16
 8001cd2:	0c12      	lsrs	r2, r2, #16
 8001cd4:	f442 5200 	orr.w	r2, r2, #8192	; 0x2000
 8001cd8:	f412 4f7f 	tst.w	r2, #65280	; 0xff00
 8001cdc:	82aa      	strh	r2, [r5, #20]
 8001cde:	f040 80b2 	bne.w	8001e46 <I2C_MasterTransferData+0x4ea>
 8001ce2:	f8b4 c000 	ldrh.w	ip, [r4]
 8001ce6:	fa1f f28c 	uxth.w	r2, ip
 8001cea:	f442 7c00 	orr.w	ip, r2, #512	; 0x200
 8001cee:	2212      	movs	r2, #18
 8001cf0:	f8a4 c000 	strh.w	ip, [r4]
 8001cf4:	601a      	str	r2, [r3, #0]
 8001cf6:	f8b4 c014 	ldrh.w	ip, [r4, #20]
 8001cfa:	ea5f 624c 	movs.w	r2, ip, lsl #25
 8001cfe:	d411      	bmi.n	8001d24 <I2C_MasterTransferData+0x3c8>
 8001d00:	f44f 5210 	mov.w	r2, #9216	; 0x2400
 8001d04:	f2c0 02f4 	movt	r2, #244	; 0xf4
 8001d08:	e006      	b.n	8001d18 <I2C_MasterTransferData+0x3bc>
 8001d0a:	8aa7      	ldrh	r7, [r4, #20]
 8001d0c:	f017 0f40 	tst.w	r7, #64	; 0x40
 8001d10:	d108      	bne.n	8001d24 <I2C_MasterTransferData+0x3c8>
 8001d12:	3a01      	subs	r2, #1
 8001d14:	f000 81da 	beq.w	80020cc <I2C_MasterTransferData+0x770>
 8001d18:	8aa7      	ldrh	r7, [r4, #20]
 8001d1a:	f017 0f40 	tst.w	r7, #64	; 0x40
 8001d1e:	f102 32ff 	add.w	r2, r2, #4294967295
 8001d22:	d0f2      	beq.n	8001d0a <I2C_MasterTransferData+0x3ae>
 8001d24:	8a22      	ldrh	r2, [r4, #16]
 8001d26:	704a      	strb	r2, [r1, #1]
 8001d28:	8aa2      	ldrh	r2, [r4, #20]
 8001d2a:	f422 5c00 	bic.w	ip, r2, #8192	; 0x2000
 8001d2e:	f02c 0220 	bic.w	r2, ip, #32
 8001d32:	0412      	lsls	r2, r2, #16
 8001d34:	0c12      	lsrs	r2, r2, #16
 8001d36:	f412 4f7f 	tst.w	r2, #65280	; 0xff00
 8001d3a:	82aa      	strh	r2, [r5, #20]
 8001d3c:	f040 8083 	bne.w	8001e46 <I2C_MasterTransferData+0x4ea>
 8001d40:	7c6a      	ldrb	r2, [r5, #17]
 8001d42:	3201      	adds	r2, #1
 8001d44:	746a      	strb	r2, [r5, #17]
 8001d46:	2213      	movs	r2, #19
 8001d48:	601a      	str	r2, [r3, #0]
 8001d4a:	f8b4 c014 	ldrh.w	ip, [r4, #20]
 8001d4e:	ea5f 624c 	movs.w	r2, ip, lsl #25
 8001d52:	f100 814e 	bmi.w	8001ff2 <I2C_MasterTransferData+0x696>
 8001d56:	f44f 5210 	mov.w	r2, #9216	; 0x2400
 8001d5a:	f2c0 02f4 	movt	r2, #244	; 0xf4
 8001d5e:	e142      	b.n	8001fe6 <I2C_MasterTransferData+0x68a>
 8001d60:	8821      	ldrh	r1, [r4, #0]
 8001d62:	f421 6280 	bic.w	r2, r1, #1024	; 0x400
 8001d66:	0411      	lsls	r1, r2, #16
 8001d68:	0c0a      	lsrs	r2, r1, #16
 8001d6a:	8022      	strh	r2, [r4, #0]
 8001d6c:	8821      	ldrh	r1, [r4, #0]
 8001d6e:	b28a      	uxth	r2, r1
 8001d70:	f442 6100 	orr.w	r1, r2, #2048	; 0x800
 8001d74:	8021      	strh	r1, [r4, #0]
 8001d76:	8b22      	ldrh	r2, [r4, #24]
 8001d78:	220a      	movs	r2, #10
 8001d7a:	601a      	str	r2, [r3, #0]
 8001d7c:	605e      	str	r6, [r3, #4]
 8001d7e:	8aa1      	ldrh	r1, [r4, #20]
 8001d80:	0749      	lsls	r1, r1, #29
 8001d82:	f100 8172 	bmi.w	800206a <I2C_MasterTransferData+0x70e>
 8001d86:	685a      	ldr	r2, [r3, #4]
 8001d88:	1e51      	subs	r1, r2, #1
 8001d8a:	6059      	str	r1, [r3, #4]
 8001d8c:	2a00      	cmp	r2, #0
 8001d8e:	d1f6      	bne.n	8001d7e <I2C_MasterTransferData+0x422>
 8001d90:	8aa2      	ldrh	r2, [r4, #20]
 8001d92:	f422 5100 	bic.w	r1, r2, #8192	; 0x2000
 8001d96:	f021 0220 	bic.w	r2, r1, #32
 8001d9a:	0411      	lsls	r1, r2, #16
 8001d9c:	0c0a      	lsrs	r2, r1, #16
 8001d9e:	f442 5200 	orr.w	r2, r2, #8192	; 0x2000
 8001da2:	82aa      	strh	r2, [r5, #20]
 8001da4:	8822      	ldrh	r2, [r4, #0]
 8001da6:	b291      	uxth	r1, r2
 8001da8:	f441 7200 	orr.w	r2, r1, #512	; 0x200
 8001dac:	210b      	movs	r1, #11
 8001dae:	8022      	strh	r2, [r4, #0]
 8001db0:	6019      	str	r1, [r3, #0]
 8001db2:	8aa2      	ldrh	r2, [r4, #20]
 8001db4:	0652      	lsls	r2, r2, #25
 8001db6:	d410      	bmi.n	8001dda <I2C_MasterTransferData+0x47e>
 8001db8:	f44f 5210 	mov.w	r2, #9216	; 0x2400
 8001dbc:	f2c0 02f4 	movt	r2, #244	; 0xf4
 8001dc0:	e005      	b.n	8001dce <I2C_MasterTransferData+0x472>
 8001dc2:	8aa1      	ldrh	r1, [r4, #20]
 8001dc4:	0649      	lsls	r1, r1, #25
 8001dc6:	d408      	bmi.n	8001dda <I2C_MasterTransferData+0x47e>
 8001dc8:	3a01      	subs	r2, #1
 8001dca:	f000 8156 	beq.w	800207a <I2C_MasterTransferData+0x71e>
 8001dce:	8aa1      	ldrh	r1, [r4, #20]
 8001dd0:	f011 0f40 	tst.w	r1, #64	; 0x40
 8001dd4:	f102 32ff 	add.w	r2, r2, #4294967295
 8001dd8:	d0f3      	beq.n	8001dc2 <I2C_MasterTransferData+0x466>
 8001dda:	8a22      	ldrh	r2, [r4, #16]
 8001ddc:	f88c 2000 	strb.w	r2, [ip]
 8001de0:	8aa1      	ldrh	r1, [r4, #20]
 8001de2:	f421 5200 	bic.w	r2, r1, #8192	; 0x2000
 8001de6:	f022 0120 	bic.w	r1, r2, #32
 8001dea:	040a      	lsls	r2, r1, #16
 8001dec:	0c12      	lsrs	r2, r2, #16
 8001dee:	f412 4f7f 	tst.w	r2, #65280	; 0xff00
 8001df2:	82aa      	strh	r2, [r5, #20]
 8001df4:	d127      	bne.n	8001e46 <I2C_MasterTransferData+0x4ea>
 8001df6:	7c6a      	ldrb	r2, [r5, #17]
 8001df8:	1c51      	adds	r1, r2, #1
 8001dfa:	220c      	movs	r2, #12
 8001dfc:	601a      	str	r2, [r3, #0]
 8001dfe:	7469      	strb	r1, [r5, #17]
 8001e00:	8aa1      	ldrh	r1, [r4, #20]
 8001e02:	064a      	lsls	r2, r1, #25
 8001e04:	d410      	bmi.n	8001e28 <I2C_MasterTransferData+0x4cc>
 8001e06:	f44f 5210 	mov.w	r2, #9216	; 0x2400
 8001e0a:	f2c0 02f4 	movt	r2, #244	; 0xf4
 8001e0e:	e005      	b.n	8001e1c <I2C_MasterTransferData+0x4c0>
 8001e10:	8aa1      	ldrh	r1, [r4, #20]
 8001e12:	0649      	lsls	r1, r1, #25
 8001e14:	d408      	bmi.n	8001e28 <I2C_MasterTransferData+0x4cc>
 8001e16:	3a01      	subs	r2, #1
 8001e18:	f000 8143 	beq.w	80020a2 <I2C_MasterTransferData+0x746>
 8001e1c:	8aa1      	ldrh	r1, [r4, #20]
 8001e1e:	f011 0f40 	tst.w	r1, #64	; 0x40
 8001e22:	f102 32ff 	add.w	r2, r2, #4294967295
 8001e26:	d0f3      	beq.n	8001e10 <I2C_MasterTransferData+0x4b4>
 8001e28:	8a21      	ldrh	r1, [r4, #16]
 8001e2a:	f88c 1001 	strb.w	r1, [ip, #1]
 8001e2e:	8aa2      	ldrh	r2, [r4, #20]
 8001e30:	f422 5c00 	bic.w	ip, r2, #8192	; 0x2000
 8001e34:	f02c 0120 	bic.w	r1, ip, #32
 8001e38:	040a      	lsls	r2, r1, #16
 8001e3a:	0c12      	lsrs	r2, r2, #16
 8001e3c:	f412 4f7f 	tst.w	r2, #65280	; 0xff00
 8001e40:	82aa      	strh	r2, [r5, #20]
 8001e42:	f000 817f 	beq.w	8002144 <I2C_MasterTransferData+0x7e8>
 8001e46:	7cea      	ldrb	r2, [r5, #19]
 8001e48:	1c51      	adds	r1, r2, #1
 8001e4a:	74e9      	strb	r1, [r5, #19]
 8001e4c:	e5a6      	b.n	800199c <I2C_MasterTransferData+0x40>
 8001e4e:	8aa7      	ldrh	r7, [r4, #20]
 8001e50:	f427 5700 	bic.w	r7, r7, #8192	; 0x2000
 8001e54:	f027 0720 	bic.w	r7, r7, #32
 8001e58:	043f      	lsls	r7, r7, #16
 8001e5a:	0c3f      	lsrs	r7, r7, #16
 8001e5c:	e61c      	b.n	8001a98 <I2C_MasterTransferData+0x13c>
 8001e5e:	8aa7      	ldrh	r7, [r4, #20]
 8001e60:	f427 5700 	bic.w	r7, r7, #8192	; 0x2000
 8001e64:	f027 0720 	bic.w	r7, r7, #32
 8001e68:	043f      	lsls	r7, r7, #16
 8001e6a:	0c3f      	lsrs	r7, r7, #16
 8001e6c:	e5c8      	b.n	8001a00 <I2C_MasterTransferData+0xa4>
 8001e6e:	8aa2      	ldrh	r2, [r4, #20]
 8001e70:	f422 5c00 	bic.w	ip, r2, #8192	; 0x2000
 8001e74:	f02c 0220 	bic.w	r2, ip, #32
 8001e78:	0412      	lsls	r2, r2, #16
 8001e7a:	0c12      	lsrs	r2, r2, #16
 8001e7c:	f442 5200 	orr.w	r2, r2, #8192	; 0x2000
 8001e80:	e6b8      	b.n	8001bf4 <I2C_MasterTransferData+0x298>
 8001e82:	8aa2      	ldrh	r2, [r4, #20]
 8001e84:	f422 5200 	bic.w	r2, r2, #8192	; 0x2000
 8001e88:	f022 0220 	bic.w	r2, r2, #32
 8001e8c:	0412      	lsls	r2, r2, #16
 8001e8e:	0c12      	lsrs	r2, r2, #16
 8001e90:	e679      	b.n	8001b86 <I2C_MasterTransferData+0x22a>
 8001e92:	8aa7      	ldrh	r7, [r4, #20]
 8001e94:	f427 5700 	bic.w	r7, r7, #8192	; 0x2000
 8001e98:	f027 0720 	bic.w	r7, r7, #32
 8001e9c:	043f      	lsls	r7, r7, #16
 8001e9e:	0c3f      	lsrs	r7, r7, #16
 8001ea0:	e5d4      	b.n	8001a4c <I2C_MasterTransferData+0xf0>
 8001ea2:	8821      	ldrh	r1, [r4, #0]
 8001ea4:	f421 6280 	bic.w	r2, r1, #1024	; 0x400
 8001ea8:	0411      	lsls	r1, r2, #16
 8001eaa:	0c0a      	lsrs	r2, r1, #16
 8001eac:	8022      	strh	r2, [r4, #0]
 8001eae:	8b22      	ldrh	r2, [r4, #24]
 8001eb0:	8821      	ldrh	r1, [r4, #0]
 8001eb2:	b28a      	uxth	r2, r1
 8001eb4:	f442 7100 	orr.w	r1, r2, #512	; 0x200
 8001eb8:	2208      	movs	r2, #8
 8001eba:	8021      	strh	r1, [r4, #0]
 8001ebc:	601a      	str	r2, [r3, #0]
 8001ebe:	8aa1      	ldrh	r1, [r4, #20]
 8001ec0:	064a      	lsls	r2, r1, #25
 8001ec2:	d410      	bmi.n	8001ee6 <I2C_MasterTransferData+0x58a>
 8001ec4:	f44f 5210 	mov.w	r2, #9216	; 0x2400
 8001ec8:	f2c0 02f4 	movt	r2, #244	; 0xf4
 8001ecc:	e005      	b.n	8001eda <I2C_MasterTransferData+0x57e>
 8001ece:	8aa1      	ldrh	r1, [r4, #20]
 8001ed0:	0649      	lsls	r1, r1, #25
 8001ed2:	d408      	bmi.n	8001ee6 <I2C_MasterTransferData+0x58a>
 8001ed4:	3a01      	subs	r2, #1
 8001ed6:	f000 80bd 	beq.w	8002054 <I2C_MasterTransferData+0x6f8>
 8001eda:	8aa1      	ldrh	r1, [r4, #20]
 8001edc:	f011 0f40 	tst.w	r1, #64	; 0x40
 8001ee0:	f102 32ff 	add.w	r2, r2, #4294967295
 8001ee4:	d0f3      	beq.n	8001ece <I2C_MasterTransferData+0x572>
 8001ee6:	8a21      	ldrh	r1, [r4, #16]
 8001ee8:	f88c 1000 	strb.w	r1, [ip]
 8001eec:	8aa2      	ldrh	r2, [r4, #20]
 8001eee:	f422 5c00 	bic.w	ip, r2, #8192	; 0x2000
 8001ef2:	f02c 0120 	bic.w	r1, ip, #32
 8001ef6:	040a      	lsls	r2, r1, #16
 8001ef8:	0c12      	lsrs	r2, r2, #16
 8001efa:	f412 4f7f 	tst.w	r2, #65280	; 0xff00
 8001efe:	82aa      	strh	r2, [r5, #20]
 8001f00:	d1a1      	bne.n	8001e46 <I2C_MasterTransferData+0x4ea>
 8001f02:	7c69      	ldrb	r1, [r5, #17]
 8001f04:	2009      	movs	r0, #9
 8001f06:	1c4a      	adds	r2, r1, #1
 8001f08:	746a      	strb	r2, [r5, #17]
 8001f0a:	6018      	str	r0, [r3, #0]
 8001f0c:	8b23      	ldrh	r3, [r4, #24]
 8001f0e:	079b      	lsls	r3, r3, #30
 8001f10:	d511      	bpl.n	8001f36 <I2C_MasterTransferData+0x5da>
 8001f12:	f44f 5310 	mov.w	r3, #9216	; 0x2400
 8001f16:	f2c0 03f4 	movt	r3, #244	; 0xf4
 8001f1a:	e005      	b.n	8001f28 <I2C_MasterTransferData+0x5cc>
 8001f1c:	8b20      	ldrh	r0, [r4, #24]
 8001f1e:	0780      	lsls	r0, r0, #30
 8001f20:	d509      	bpl.n	8001f36 <I2C_MasterTransferData+0x5da>
 8001f22:	3b01      	subs	r3, #1
 8001f24:	f000 8157 	beq.w	80021d6 <I2C_MasterTransferData+0x87a>
 8001f28:	f8b4 c018 	ldrh.w	ip, [r4, #24]
 8001f2c:	f01c 0f02 	tst.w	ip, #2
 8001f30:	f103 33ff 	add.w	r3, r3, #4294967295
 8001f34:	d1f2      	bne.n	8001f1c <I2C_MasterTransferData+0x5c0>
 8001f36:	8aa2      	ldrh	r2, [r4, #20]
 8001f38:	f422 5100 	bic.w	r1, r2, #8192	; 0x2000
 8001f3c:	f021 0020 	bic.w	r0, r1, #32
 8001f40:	0403      	lsls	r3, r0, #16
 8001f42:	0c1b      	lsrs	r3, r3, #16
 8001f44:	e151      	b.n	80021ea <I2C_MasterTransferData+0x88e>
 8001f46:	f44f 41a8 	mov.w	r1, #21504	; 0x5400
 8001f4a:	f2c4 0100 	movt	r1, #16384	; 0x4000
 8001f4e:	428c      	cmp	r4, r1
 8001f50:	d00f      	beq.n	8001f72 <I2C_MasterTransferData+0x616>
 8001f52:	f44f 46b0 	mov.w	r6, #22528	; 0x5800
 8001f56:	f2c4 0600 	movt	r6, #16384	; 0x4000
 8001f5a:	42b4      	cmp	r4, r6
 8001f5c:	f000 8097 	beq.w	800208e <I2C_MasterTransferData+0x732>
 8001f60:	f44f 42b8 	mov.w	r2, #23552	; 0x5c00
 8001f64:	f2c4 0200 	movt	r2, #16384	; 0x4000
 8001f68:	4294      	cmp	r4, r2
 8001f6a:	bf14      	ite	ne
 8001f6c:	f04f 36ff 	movne.w	r6, #4294967295
 8001f70:	2602      	moveq	r6, #2
 8001f72:	4aa3      	ldr	r2, [pc, #652]	; (8002200 <I2C_MasterTransferData+0x8a4>)
 8001f74:	eb02 0ec6 	add.w	lr, r2, r6, lsl #3
 8001f78:	2300      	movs	r3, #0
 8001f7a:	f88e 3004 	strb.w	r3, [lr, #4]
 8001f7e:	4620      	mov	r0, r4
 8001f80:	f842 5036 	str.w	r5, [r2, r6, lsl #3]
 8001f84:	f44f 61e0 	mov.w	r1, #1792	; 0x700
 8001f88:	82ab      	strh	r3, [r5, #20]
 8001f8a:	726b      	strb	r3, [r5, #9]
 8001f8c:	746b      	strb	r3, [r5, #17]
 8001f8e:	74eb      	strb	r3, [r5, #19]
 8001f90:	2201      	movs	r2, #1
 8001f92:	f005 f8b9 	bl	8007108 <I2C_ITConfig>
 8001f96:	8820      	ldrh	r0, [r4, #0]
 8001f98:	b283      	uxth	r3, r0
 8001f9a:	f443 7c80 	orr.w	ip, r3, #256	; 0x100
 8001f9e:	f8a4 c000 	strh.w	ip, [r4]
 8001fa2:	2001      	movs	r0, #1
 8001fa4:	e8bd 8ff8 	ldmia.w	sp!, {r3, r4, r5, r6, r7, r8, r9, sl, fp, pc}
 8001fa8:	8821      	ldrh	r1, [r4, #0]
 8001faa:	b288      	uxth	r0, r1
 8001fac:	f440 7300 	orr.w	r3, r0, #512	; 0x200
 8001fb0:	8023      	strh	r3, [r4, #0]
 8001fb2:	2000      	movs	r0, #0
 8001fb4:	e8bd 8ff8 	ldmia.w	sp!, {r3, r4, r5, r6, r7, r8, r9, sl, fp, pc}
 8001fb8:	8aa2      	ldrh	r2, [r4, #20]
 8001fba:	f422 5200 	bic.w	r2, r2, #8192	; 0x2000
 8001fbe:	f022 0220 	bic.w	r2, r2, #32
 8001fc2:	0412      	lsls	r2, r2, #16
 8001fc4:	0c12      	lsrs	r2, r2, #16
 8001fc6:	e5b6      	b.n	8001b36 <I2C_MasterTransferData+0x1da>
 8001fc8:	8aa2      	ldrh	r2, [r4, #20]
 8001fca:	f422 5200 	bic.w	r2, r2, #8192	; 0x2000
 8001fce:	f022 0220 	bic.w	r2, r2, #32
 8001fd2:	0412      	lsls	r2, r2, #16
 8001fd4:	0c12      	lsrs	r2, r2, #16
 8001fd6:	e586      	b.n	8001ae6 <I2C_MasterTransferData+0x18a>
 8001fd8:	8aa7      	ldrh	r7, [r4, #20]
 8001fda:	f017 0f40 	tst.w	r7, #64	; 0x40
 8001fde:	d108      	bne.n	8001ff2 <I2C_MasterTransferData+0x696>
 8001fe0:	3a01      	subs	r2, #1
 8001fe2:	f000 80e0 	beq.w	80021a6 <I2C_MasterTransferData+0x84a>
 8001fe6:	8aa7      	ldrh	r7, [r4, #20]
 8001fe8:	f017 0f40 	tst.w	r7, #64	; 0x40
 8001fec:	f102 32ff 	add.w	r2, r2, #4294967295
 8001ff0:	d0f2      	beq.n	8001fd8 <I2C_MasterTransferData+0x67c>
 8001ff2:	8a22      	ldrh	r2, [r4, #16]
 8001ff4:	708a      	strb	r2, [r1, #2]
 8001ff6:	f8b4 c014 	ldrh.w	ip, [r4, #20]
 8001ffa:	f42c 5100 	bic.w	r1, ip, #8192	; 0x2000
 8001ffe:	f021 0220 	bic.w	r2, r1, #32
 8002002:	0411      	lsls	r1, r2, #16
 8002004:	0c0a      	lsrs	r2, r1, #16
 8002006:	f412 4f7f 	tst.w	r2, #65280	; 0xff00
 800200a:	82aa      	strh	r2, [r5, #20]
 800200c:	f47f af1b 	bne.w	8001e46 <I2C_MasterTransferData+0x4ea>
 8002010:	7c68      	ldrb	r0, [r5, #17]
 8002012:	2114      	movs	r1, #20
 8002014:	1c42      	adds	r2, r0, #1
 8002016:	6019      	str	r1, [r3, #0]
 8002018:	746a      	strb	r2, [r5, #17]
 800201a:	8b20      	ldrh	r0, [r4, #24]
 800201c:	0781      	lsls	r1, r0, #30
 800201e:	d58a      	bpl.n	8001f36 <I2C_MasterTransferData+0x5da>
 8002020:	f44f 5310 	mov.w	r3, #9216	; 0x2400
 8002024:	f2c0 03f4 	movt	r3, #244	; 0xf4
 8002028:	e005      	b.n	8002036 <I2C_MasterTransferData+0x6da>
 800202a:	8b21      	ldrh	r1, [r4, #24]
 800202c:	078a      	lsls	r2, r1, #30
 800202e:	d582      	bpl.n	8001f36 <I2C_MasterTransferData+0x5da>
 8002030:	3b01      	subs	r3, #1
 8002032:	f000 80d0 	beq.w	80021d6 <I2C_MasterTransferData+0x87a>
 8002036:	8b22      	ldrh	r2, [r4, #24]
 8002038:	f012 0f02 	tst.w	r2, #2
 800203c:	f103 33ff 	add.w	r3, r3, #4294967295
 8002040:	d1f3      	bne.n	800202a <I2C_MasterTransferData+0x6ce>
 8002042:	e778      	b.n	8001f36 <I2C_MasterTransferData+0x5da>
 8002044:	8aa2      	ldrh	r2, [r4, #20]
 8002046:	f422 5c00 	bic.w	ip, r2, #8192	; 0x2000
 800204a:	f02c 0220 	bic.w	r2, ip, #32
 800204e:	0412      	lsls	r2, r2, #16
 8002050:	0c12      	lsrs	r2, r2, #16
 8002052:	e5f4      	b.n	8001c3e <I2C_MasterTransferData+0x2e2>
 8002054:	f8b4 c014 	ldrh.w	ip, [r4, #20]
 8002058:	f42c 5100 	bic.w	r1, ip, #8192	; 0x2000
 800205c:	f021 0220 	bic.w	r2, r1, #32
 8002060:	0411      	lsls	r1, r2, #16
 8002062:	0c0a      	lsrs	r2, r1, #16
 8002064:	f442 5200 	orr.w	r2, r2, #8192	; 0x2000
 8002068:	e747      	b.n	8001efa <I2C_MasterTransferData+0x59e>
 800206a:	8aa1      	ldrh	r1, [r4, #20]
 800206c:	f421 5200 	bic.w	r2, r1, #8192	; 0x2000
 8002070:	f022 0120 	bic.w	r1, r2, #32
 8002074:	040a      	lsls	r2, r1, #16
 8002076:	0c12      	lsrs	r2, r2, #16
 8002078:	e693      	b.n	8001da2 <I2C_MasterTransferData+0x446>
 800207a:	8aa2      	ldrh	r2, [r4, #20]
 800207c:	f422 5100 	bic.w	r1, r2, #8192	; 0x2000
 8002080:	f021 0220 	bic.w	r2, r1, #32
 8002084:	0411      	lsls	r1, r2, #16
 8002086:	0c0a      	lsrs	r2, r1, #16
 8002088:	f442 5200 	orr.w	r2, r2, #8192	; 0x2000
 800208c:	e6af      	b.n	8001dee <I2C_MasterTransferData+0x492>
 800208e:	2601      	movs	r6, #1
 8002090:	e76f      	b.n	8001f72 <I2C_MasterTransferData+0x616>
 8002092:	8aa2      	ldrh	r2, [r4, #20]
 8002094:	f422 5c00 	bic.w	ip, r2, #8192	; 0x2000
 8002098:	f02c 0220 	bic.w	r2, ip, #32
 800209c:	0412      	lsls	r2, r2, #16
 800209e:	0c12      	lsrs	r2, r2, #16
 80020a0:	e61a      	b.n	8001cd8 <I2C_MasterTransferData+0x37c>
 80020a2:	f8b4 c014 	ldrh.w	ip, [r4, #20]
 80020a6:	f42c 5100 	bic.w	r1, ip, #8192	; 0x2000
 80020aa:	f021 0220 	bic.w	r2, r1, #32
 80020ae:	0411      	lsls	r1, r2, #16
 80020b0:	0c0a      	lsrs	r2, r1, #16
 80020b2:	f442 5200 	orr.w	r2, r2, #8192	; 0x2000
 80020b6:	e6c1      	b.n	8001e3c <I2C_MasterTransferData+0x4e0>
 80020b8:	8aa2      	ldrh	r2, [r4, #20]
 80020ba:	f422 5c00 	bic.w	ip, r2, #8192	; 0x2000
 80020be:	f02c 0220 	bic.w	r2, ip, #32
 80020c2:	0412      	lsls	r2, r2, #16
 80020c4:	0c12      	lsrs	r2, r2, #16
 80020c6:	f442 5200 	orr.w	r2, r2, #8192	; 0x2000
 80020ca:	e5e6      	b.n	8001c9a <I2C_MasterTransferData+0x33e>
 80020cc:	8aa2      	ldrh	r2, [r4, #20]
 80020ce:	f422 5c00 	bic.w	ip, r2, #8192	; 0x2000
 80020d2:	f02c 0220 	bic.w	r2, ip, #32
 80020d6:	0412      	lsls	r2, r2, #16
 80020d8:	0c12      	lsrs	r2, r2, #16
 80020da:	f442 5200 	orr.w	r2, r2, #8192	; 0x2000
 80020de:	e62a      	b.n	8001d36 <I2C_MasterTransferData+0x3da>
 80020e0:	8820      	ldrh	r0, [r4, #0]
 80020e2:	b282      	uxth	r2, r0
 80020e4:	f442 7100 	orr.w	r1, r2, #512	; 0x200
 80020e8:	2005      	movs	r0, #5
 80020ea:	8021      	strh	r1, [r4, #0]
 80020ec:	6018      	str	r0, [r3, #0]
 80020ee:	f8b4 c018 	ldrh.w	ip, [r4, #24]
 80020f2:	ea5f 708c 	movs.w	r0, ip, lsl #30
 80020f6:	d50f      	bpl.n	8002118 <I2C_MasterTransferData+0x7bc>
 80020f8:	f44f 5310 	mov.w	r3, #9216	; 0x2400
 80020fc:	f2c0 03f4 	movt	r3, #244	; 0xf4
 8002100:	e004      	b.n	800210c <I2C_MasterTransferData+0x7b0>
 8002102:	8b21      	ldrh	r1, [r4, #24]
 8002104:	0789      	lsls	r1, r1, #30
 8002106:	d507      	bpl.n	8002118 <I2C_MasterTransferData+0x7bc>
 8002108:	3b01      	subs	r3, #1
 800210a:	d010      	beq.n	800212e <I2C_MasterTransferData+0x7d2>
 800210c:	8b22      	ldrh	r2, [r4, #24]
 800210e:	f012 0f02 	tst.w	r2, #2
 8002112:	f103 33ff 	add.w	r3, r3, #4294967295
 8002116:	d1f4      	bne.n	8002102 <I2C_MasterTransferData+0x7a6>
 8002118:	8aa2      	ldrh	r2, [r4, #20]
 800211a:	f422 5100 	bic.w	r1, r2, #8192	; 0x2000
 800211e:	f021 0020 	bic.w	r0, r1, #32
 8002122:	0403      	lsls	r3, r0, #16
 8002124:	0c1b      	lsrs	r3, r3, #16
 8002126:	82ab      	strh	r3, [r5, #20]
 8002128:	2001      	movs	r0, #1
 800212a:	e8bd 8ff8 	ldmia.w	sp!, {r3, r4, r5, r6, r7, r8, r9, sl, fp, pc}
 800212e:	f8b4 c014 	ldrh.w	ip, [r4, #20]
 8002132:	f42c 5100 	bic.w	r1, ip, #8192	; 0x2000
 8002136:	f021 0020 	bic.w	r0, r1, #32
 800213a:	0402      	lsls	r2, r0, #16
 800213c:	0c13      	lsrs	r3, r2, #16
 800213e:	f443 5300 	orr.w	r3, r3, #8192	; 0x2000
 8002142:	e7f0      	b.n	8002126 <I2C_MasterTransferData+0x7ca>
 8002144:	7c69      	ldrb	r1, [r5, #17]
 8002146:	200d      	movs	r0, #13
 8002148:	1c4a      	adds	r2, r1, #1
 800214a:	6018      	str	r0, [r3, #0]
 800214c:	746a      	strb	r2, [r5, #17]
 800214e:	8b23      	ldrh	r3, [r4, #24]
 8002150:	0798      	lsls	r0, r3, #30
 8002152:	d532      	bpl.n	80021ba <I2C_MasterTransferData+0x85e>
 8002154:	f44f 5310 	mov.w	r3, #9216	; 0x2400
 8002158:	f2c0 03f4 	movt	r3, #244	; 0xf4
 800215c:	8b22      	ldrh	r2, [r4, #24]
 800215e:	f012 0f02 	tst.w	r2, #2
 8002162:	f103 33ff 	add.w	r3, r3, #4294967295
 8002166:	d028      	beq.n	80021ba <I2C_MasterTransferData+0x85e>
 8002168:	8b20      	ldrh	r0, [r4, #24]
 800216a:	0781      	lsls	r1, r0, #30
 800216c:	d525      	bpl.n	80021ba <I2C_MasterTransferData+0x85e>
 800216e:	3b01      	subs	r3, #1
 8002170:	d1f4      	bne.n	800215c <I2C_MasterTransferData+0x800>
 8002172:	f8b4 c014 	ldrh.w	ip, [r4, #20]
 8002176:	f42c 5000 	bic.w	r0, ip, #8192	; 0x2000
 800217a:	f020 0120 	bic.w	r1, r0, #32
 800217e:	040a      	lsls	r2, r1, #16
 8002180:	0c13      	lsrs	r3, r2, #16
 8002182:	f443 5300 	orr.w	r3, r3, #8192	; 0x2000
 8002186:	82ab      	strh	r3, [r5, #20]
 8002188:	8821      	ldrh	r1, [r4, #0]
 800218a:	b28b      	uxth	r3, r1
 800218c:	f443 6c80 	orr.w	ip, r3, #1024	; 0x400
 8002190:	f8a4 c000 	strh.w	ip, [r4]
 8002194:	8822      	ldrh	r2, [r4, #0]
 8002196:	f422 6000 	bic.w	r0, r2, #2048	; 0x800
 800219a:	0401      	lsls	r1, r0, #16
 800219c:	0c0b      	lsrs	r3, r1, #16
 800219e:	8023      	strh	r3, [r4, #0]
 80021a0:	2001      	movs	r0, #1
 80021a2:	e8bd 8ff8 	ldmia.w	sp!, {r3, r4, r5, r6, r7, r8, r9, sl, fp, pc}
 80021a6:	8aa2      	ldrh	r2, [r4, #20]
 80021a8:	f422 5c00 	bic.w	ip, r2, #8192	; 0x2000
 80021ac:	f02c 0120 	bic.w	r1, ip, #32
 80021b0:	040a      	lsls	r2, r1, #16
 80021b2:	0c11      	lsrs	r1, r2, #16
 80021b4:	f441 5200 	orr.w	r2, r1, #8192	; 0x2000
 80021b8:	e725      	b.n	8002006 <I2C_MasterTransferData+0x6aa>
 80021ba:	8aa2      	ldrh	r2, [r4, #20]
 80021bc:	f422 5000 	bic.w	r0, r2, #8192	; 0x2000
 80021c0:	f020 0120 	bic.w	r1, r0, #32
 80021c4:	040b      	lsls	r3, r1, #16
 80021c6:	0c1b      	lsrs	r3, r3, #16
 80021c8:	e7dd      	b.n	8002186 <I2C_MasterTransferData+0x82a>
 80021ca:	2001      	movs	r0, #1
 80021cc:	e8bd 8ff8 	ldmia.w	sp!, {r3, r4, r5, r6, r7, r8, r9, sl, fp, pc}
 80021d0:	2001      	movs	r0, #1
 80021d2:	e8bd 8ff8 	ldmia.w	sp!, {r3, r4, r5, r6, r7, r8, r9, sl, fp, pc}
 80021d6:	f8b4 c014 	ldrh.w	ip, [r4, #20]
 80021da:	f42c 5100 	bic.w	r1, ip, #8192	; 0x2000
 80021de:	f021 0020 	bic.w	r0, r1, #32
 80021e2:	0402      	lsls	r2, r0, #16
 80021e4:	0c13      	lsrs	r3, r2, #16
 80021e6:	f443 5300 	orr.w	r3, r3, #8192	; 0x2000
 80021ea:	82ab      	strh	r3, [r5, #20]
 80021ec:	8820      	ldrh	r0, [r4, #0]
 80021ee:	b283      	uxth	r3, r0
 80021f0:	f443 6c80 	orr.w	ip, r3, #1024	; 0x400
 80021f4:	f8a4 c000 	strh.w	ip, [r4]
 80021f8:	2001      	movs	r0, #1
 80021fa:	e8bd 8ff8 	ldmia.w	sp!, {r3, r4, r5, r6, r7, r8, r9, sl, fp, pc}
 80021fe:	bf00      	nop
 8002200:	20001120 	andcs	r1, r0, r0, lsr #2

08002204 <I2C_MasterHandler>:
 8002204:	b5f8      	push	{r3, r4, r5, r6, r7, lr}
 8002206:	8a81      	ldrh	r1, [r0, #20]
 8002208:	4aa6      	ldr	r2, [pc, #664]	; (80024a4 <I2C_MasterHandler+0x2a0>)
 800220a:	f421 5600 	bic.w	r6, r1, #8192	; 0x2000
 800220e:	f026 0520 	bic.w	r5, r6, #32
 8002212:	f44f 41a8 	mov.w	r1, #21504	; 0x5400
 8002216:	4604      	mov	r4, r0
 8002218:	f2c4 0100 	movt	r1, #16384	; 0x4000
 800221c:	0428      	lsls	r0, r5, #16
 800221e:	0c03      	lsrs	r3, r0, #16
 8002220:	428c      	cmp	r4, r1
 8002222:	8113      	strh	r3, [r2, #8]
 8002224:	f000 8139 	beq.w	800249a <I2C_MasterHandler+0x296>
 8002228:	f44f 4cb0 	mov.w	ip, #22528	; 0x5800
 800222c:	f2c4 0c00 	movt	ip, #16384	; 0x4000
 8002230:	4564      	cmp	r4, ip
 8002232:	f000 8134 	beq.w	800249e <I2C_MasterHandler+0x29a>
 8002236:	f44f 43b8 	mov.w	r3, #23552	; 0x5c00
 800223a:	f2c4 0300 	movt	r3, #16384	; 0x4000
 800223e:	429c      	cmp	r4, r3
 8002240:	bf14      	ite	ne
 8002242:	f04f 35ff 	movne.w	r5, #4294967295
 8002246:	2502      	moveq	r5, #2
 8002248:	4e97      	ldr	r6, [pc, #604]	; (80024a8 <I2C_MasterHandler+0x2a4>)
 800224a:	4896      	ldr	r0, [pc, #600]	; (80024a4 <I2C_MasterHandler+0x2a0>)
 800224c:	f856 3035 	ldr.w	r3, [r6, r5, lsl #3]
 8002250:	8911      	ldrh	r1, [r2, #8]
 8002252:	8912      	ldrh	r2, [r2, #8]
 8002254:	8299      	strh	r1, [r3, #20]
 8002256:	f412 425f 	ands.w	r2, r2, #57088	; 0xdf00
 800225a:	d027      	beq.n	80022ac <I2C_MasterHandler+0xa8>
 800225c:	8aa1      	ldrh	r1, [r4, #20]
 800225e:	8aa3      	ldrh	r3, [r4, #20]
 8002260:	b288      	uxth	r0, r1
 8002262:	f403 4c5f 	and.w	ip, r3, #57088	; 0xdf00
 8002266:	ea20 0e0c 	bic.w	lr, r0, ip
 800226a:	f8a4 e014 	strh.w	lr, [r4, #20]
 800226e:	f856 1035 	ldr.w	r1, [r6, r5, lsl #3]
 8002272:	7cca      	ldrb	r2, [r1, #19]
 8002274:	1c50      	adds	r0, r2, #1
 8002276:	74c8      	strb	r0, [r1, #19]
 8002278:	f856 3035 	ldr.w	r3, [r6, r5, lsl #3]
 800227c:	f856 1035 	ldr.w	r1, [r6, r5, lsl #3]
 8002280:	7cd8      	ldrb	r0, [r3, #19]
 8002282:	7c8a      	ldrb	r2, [r1, #18]
 8002284:	4290      	cmp	r0, r2
 8002286:	d941      	bls.n	800230c <I2C_MasterHandler+0x108>
 8002288:	4620      	mov	r0, r4
 800228a:	f44f 61e0 	mov.w	r1, #1792	; 0x700
 800228e:	2200      	movs	r2, #0
 8002290:	f004 ff3a 	bl	8007108 <I2C_ITConfig>
 8002294:	8820      	ldrh	r0, [r4, #0]
 8002296:	b282      	uxth	r2, r0
 8002298:	f442 7100 	orr.w	r1, r2, #512	; 0x200
 800229c:	8021      	strh	r1, [r4, #0]
 800229e:	f856 0035 	ldr.w	r0, [r6, r5, lsl #3]
 80022a2:	8a83      	ldrh	r3, [r0, #20]
 80022a4:	f443 5200 	orr.w	r2, r3, #8192	; 0x2000
 80022a8:	8282      	strh	r2, [r0, #20]
 80022aa:	bdf8      	pop	{r3, r4, r5, r6, r7, pc}
 80022ac:	00e9      	lsls	r1, r5, #3
 80022ae:	eb06 0c01 	add.w	ip, r6, r1
 80022b2:	f89c 3004 	ldrb.w	r3, [ip, #4]
 80022b6:	b963      	cbnz	r3, 80022d2 <I2C_MasterHandler+0xce>
 80022b8:	8902      	ldrh	r2, [r0, #8]
 80022ba:	f002 02df 	and.w	r2, r2, #223	; 0xdf
 80022be:	2a04      	cmp	r2, #4
 80022c0:	d040      	beq.n	8002344 <I2C_MasterHandler+0x140>
 80022c2:	dc3a      	bgt.n	800233a <I2C_MasterHandler+0x136>
 80022c4:	2a01      	cmp	r2, #1
 80022c6:	f000 80bd 	beq.w	8002444 <I2C_MasterHandler+0x240>
 80022ca:	2a02      	cmp	r2, #2
 80022cc:	f000 80ac 	beq.w	8002428 <I2C_MasterHandler+0x224>
 80022d0:	bdf8      	pop	{r3, r4, r5, r6, r7, pc}
 80022d2:	8903      	ldrh	r3, [r0, #8]
 80022d4:	f003 03df 	and.w	r3, r3, #223	; 0xdf
 80022d8:	2b04      	cmp	r3, #4
 80022da:	d056      	beq.n	800238a <I2C_MasterHandler+0x186>
 80022dc:	dc50      	bgt.n	8002380 <I2C_MasterHandler+0x17c>
 80022de:	2b01      	cmp	r3, #1
 80022e0:	f000 80ba 	beq.w	8002458 <I2C_MasterHandler+0x254>
 80022e4:	2b02      	cmp	r3, #2
 80022e6:	d1f3      	bne.n	80022d0 <I2C_MasterHandler+0xcc>
 80022e8:	f856 3035 	ldr.w	r3, [r6, r5, lsl #3]
 80022ec:	f893 c010 	ldrb.w	ip, [r3, #16]
 80022f0:	f1bc 0f01 	cmp.w	ip, #1
 80022f4:	f000 8132 	beq.w	800255c <I2C_MasterHandler+0x358>
 80022f8:	f856 3035 	ldr.w	r3, [r6, r5, lsl #3]
 80022fc:	f893 c010 	ldrb.w	ip, [r3, #16]
 8002300:	f1bc 0f02 	cmp.w	ip, #2
 8002304:	f000 8172 	beq.w	80025ec <I2C_MasterHandler+0x3e8>
 8002308:	8b23      	ldrh	r3, [r4, #24]
 800230a:	bdf8      	pop	{r3, r4, r5, r6, r7, pc}
 800230c:	f856 1035 	ldr.w	r1, [r6, r5, lsl #3]
 8002310:	2300      	movs	r3, #0
 8002312:	724b      	strb	r3, [r1, #9]
 8002314:	f856 0035 	ldr.w	r0, [r6, r5, lsl #3]
 8002318:	7443      	strb	r3, [r0, #17]
 800231a:	f856 2035 	ldr.w	r2, [r6, r5, lsl #3]
 800231e:	f44f 61e0 	mov.w	r1, #1792	; 0x700
 8002322:	8293      	strh	r3, [r2, #20]
 8002324:	4620      	mov	r0, r4
 8002326:	2201      	movs	r2, #1
 8002328:	f004 feee 	bl	8007108 <I2C_ITConfig>
 800232c:	8821      	ldrh	r1, [r4, #0]
 800232e:	b28b      	uxth	r3, r1
 8002330:	f443 7c80 	orr.w	ip, r3, #256	; 0x100
 8002334:	f8a4 c000 	strh.w	ip, [r4]
 8002338:	bdf8      	pop	{r3, r4, r5, r6, r7, pc}
 800233a:	2a82      	cmp	r2, #130	; 0x82
 800233c:	d074      	beq.n	8002428 <I2C_MasterHandler+0x224>
 800233e:	2a84      	cmp	r2, #132	; 0x84
 8002340:	f040 80ec 	bne.w	800251c <I2C_MasterHandler+0x318>
 8002344:	f856 0035 	ldr.w	r0, [r6, r5, lsl #3]
 8002348:	4b57      	ldr	r3, [pc, #348]	; (80024a8 <I2C_MasterHandler+0x2a4>)
 800234a:	7c02      	ldrb	r2, [r0, #16]
 800234c:	2a00      	cmp	r2, #0
 800234e:	f000 808d 	beq.w	800246c <I2C_MasterHandler+0x268>
 8002352:	f853 0035 	ldr.w	r0, [r3, r5, lsl #3]
 8002356:	68c2      	ldr	r2, [r0, #12]
 8002358:	2a00      	cmp	r2, #0
 800235a:	f000 8087 	beq.w	800246c <I2C_MasterHandler+0x268>
 800235e:	eb03 0c01 	add.w	ip, r3, r1
 8002362:	2201      	movs	r2, #1
 8002364:	f88c 2004 	strb.w	r2, [ip, #4]
 8002368:	8820      	ldrh	r0, [r4, #0]
 800236a:	b281      	uxth	r1, r0
 800236c:	f441 7380 	orr.w	r3, r1, #256	; 0x100
 8002370:	4620      	mov	r0, r4
 8002372:	f44f 6180 	mov.w	r1, #1024	; 0x400
 8002376:	8023      	strh	r3, [r4, #0]
 8002378:	e8bd 40f8 	ldmia.w	sp!, {r3, r4, r5, r6, r7, lr}
 800237c:	f004 bec4 	b.w	8007108 <I2C_ITConfig>
 8002380:	2b40      	cmp	r3, #64	; 0x40
 8002382:	f000 8093 	beq.w	80024ac <I2C_MasterHandler+0x2a8>
 8002386:	2b44      	cmp	r3, #68	; 0x44
 8002388:	d1a2      	bne.n	80022d0 <I2C_MasterHandler+0xcc>
 800238a:	f856 0035 	ldr.w	r0, [r6, r5, lsl #3]
 800238e:	4e46      	ldr	r6, [pc, #280]	; (80024a8 <I2C_MasterHandler+0x2a4>)
 8002390:	7c01      	ldrb	r1, [r0, #16]
 8002392:	2902      	cmp	r1, #2
 8002394:	f000 80ef 	beq.w	8002576 <I2C_MasterHandler+0x372>
 8002398:	f856 3035 	ldr.w	r3, [r6, r5, lsl #3]
 800239c:	f893 c010 	ldrb.w	ip, [r3, #16]
 80023a0:	f1bc 0f02 	cmp.w	ip, #2
 80023a4:	d994      	bls.n	80022d0 <I2C_MasterHandler+0xcc>
 80023a6:	f856 0035 	ldr.w	r0, [r6, r5, lsl #3]
 80023aa:	f856 3035 	ldr.w	r3, [r6, r5, lsl #3]
 80023ae:	7c02      	ldrb	r2, [r0, #16]
 80023b0:	7c59      	ldrb	r1, [r3, #17]
 80023b2:	1a50      	subs	r0, r2, r1
 80023b4:	2803      	cmp	r0, #3
 80023b6:	f000 812b 	beq.w	8002610 <I2C_MasterHandler+0x40c>
 80023ba:	f856 2035 	ldr.w	r2, [r6, r5, lsl #3]
 80023be:	f856 1035 	ldr.w	r1, [r6, r5, lsl #3]
 80023c2:	7c10      	ldrb	r0, [r2, #16]
 80023c4:	7c4b      	ldrb	r3, [r1, #17]
 80023c6:	ebc3 0c00 	rsb	ip, r3, r0
 80023ca:	f1bc 0f02 	cmp.w	ip, #2
 80023ce:	f47f af7f 	bne.w	80022d0 <I2C_MasterHandler+0xcc>
 80023d2:	4620      	mov	r0, r4
 80023d4:	f44f 61e0 	mov.w	r1, #1792	; 0x700
 80023d8:	2200      	movs	r2, #0
 80023da:	f004 fe95 	bl	8007108 <I2C_ITConfig>
 80023de:	8820      	ldrh	r0, [r4, #0]
 80023e0:	b283      	uxth	r3, r0
 80023e2:	f443 7c00 	orr.w	ip, r3, #512	; 0x200
 80023e6:	f8a4 c000 	strh.w	ip, [r4]
 80023ea:	f856 2035 	ldr.w	r2, [r6, r5, lsl #3]
 80023ee:	f856 3035 	ldr.w	r3, [r6, r5, lsl #3]
 80023f2:	68d1      	ldr	r1, [r2, #12]
 80023f4:	8a20      	ldrh	r0, [r4, #16]
 80023f6:	7c5a      	ldrb	r2, [r3, #17]
 80023f8:	5488      	strb	r0, [r1, r2]
 80023fa:	1c50      	adds	r0, r2, #1
 80023fc:	7458      	strb	r0, [r3, #17]
 80023fe:	f856 1035 	ldr.w	r1, [r6, r5, lsl #3]
 8002402:	f856 3035 	ldr.w	r3, [r6, r5, lsl #3]
 8002406:	68c8      	ldr	r0, [r1, #12]
 8002408:	7c5a      	ldrb	r2, [r3, #17]
 800240a:	8a24      	ldrh	r4, [r4, #16]
 800240c:	1c51      	adds	r1, r2, #1
 800240e:	5484      	strb	r4, [r0, r2]
 8002410:	7459      	strb	r1, [r3, #17]
 8002412:	f856 0035 	ldr.w	r0, [r6, r5, lsl #3]
 8002416:	6983      	ldr	r3, [r0, #24]
 8002418:	2b00      	cmp	r3, #0
 800241a:	f43f af59 	beq.w	80022d0 <I2C_MasterHandler+0xcc>
 800241e:	f856 2035 	ldr.w	r2, [r6, r5, lsl #3]
 8002422:	6991      	ldr	r1, [r2, #24]
 8002424:	4788      	blx	r1
 8002426:	e753      	b.n	80022d0 <I2C_MasterHandler+0xcc>
 8002428:	8b23      	ldrh	r3, [r4, #24]
 800242a:	f856 0035 	ldr.w	r0, [r6, r5, lsl #3]
 800242e:	f856 3035 	ldr.w	r3, [r6, r5, lsl #3]
 8002432:	6841      	ldr	r1, [r0, #4]
 8002434:	7a5a      	ldrb	r2, [r3, #9]
 8002436:	f811 c002 	ldrb.w	ip, [r1, r2]
 800243a:	1c50      	adds	r0, r2, #1
 800243c:	f8a4 c010 	strh.w	ip, [r4, #16]
 8002440:	7258      	strb	r0, [r3, #9]
 8002442:	bdf8      	pop	{r3, r4, r5, r6, r7, pc}
 8002444:	f856 0035 	ldr.w	r0, [r6, r5, lsl #3]
 8002448:	7a03      	ldrb	r3, [r0, #8]
 800244a:	2b00      	cmp	r3, #0
 800244c:	d17a      	bne.n	8002544 <I2C_MasterHandler+0x340>
 800244e:	eb06 0c01 	add.w	ip, r6, r1
 8002452:	2301      	movs	r3, #1
 8002454:	f88c 3004 	strb.w	r3, [ip, #4]
 8002458:	f856 1035 	ldr.w	r1, [r6, r5, lsl #3]
 800245c:	4b12      	ldr	r3, [pc, #72]	; (80024a8 <I2C_MasterHandler+0x2a4>)
 800245e:	7c0a      	ldrb	r2, [r1, #16]
 8002460:	b122      	cbz	r2, 800246c <I2C_MasterHandler+0x268>
 8002462:	f853 2035 	ldr.w	r2, [r3, r5, lsl #3]
 8002466:	68d0      	ldr	r0, [r2, #12]
 8002468:	2800      	cmp	r0, #0
 800246a:	d14e      	bne.n	800250a <I2C_MasterHandler+0x306>
 800246c:	4620      	mov	r0, r4
 800246e:	f44f 61e0 	mov.w	r1, #1792	; 0x700
 8002472:	2200      	movs	r2, #0
 8002474:	f004 fe48 	bl	8007108 <I2C_ITConfig>
 8002478:	8822      	ldrh	r2, [r4, #0]
 800247a:	b290      	uxth	r0, r2
 800247c:	f440 7100 	orr.w	r1, r0, #512	; 0x200
 8002480:	8021      	strh	r1, [r4, #0]
 8002482:	f856 3035 	ldr.w	r3, [r6, r5, lsl #3]
 8002486:	699a      	ldr	r2, [r3, #24]
 8002488:	2a00      	cmp	r2, #0
 800248a:	f43f af21 	beq.w	80022d0 <I2C_MasterHandler+0xcc>
 800248e:	4806      	ldr	r0, [pc, #24]	; (80024a8 <I2C_MasterHandler+0x2a4>)
 8002490:	f850 1035 	ldr.w	r1, [r0, r5, lsl #3]
 8002494:	698b      	ldr	r3, [r1, #24]
 8002496:	4798      	blx	r3
 8002498:	bdf8      	pop	{r3, r4, r5, r6, r7, pc}
 800249a:	2500      	movs	r5, #0
 800249c:	e6d4      	b.n	8002248 <I2C_MasterHandler+0x44>
 800249e:	2501      	movs	r5, #1
 80024a0:	e6d2      	b.n	8002248 <I2C_MasterHandler+0x44>
 80024a2:	bf00      	nop
 80024a4:	200005c0 	andcs	r0, r0, r0, asr #11
 80024a8:	20001120 	andcs	r1, r0, r0, lsr #2
 80024ac:	f856 3035 	ldr.w	r3, [r6, r5, lsl #3]
 80024b0:	f893 c010 	ldrb.w	ip, [r3, #16]
 80024b4:	f1bc 0f01 	cmp.w	ip, #1
 80024b8:	f000 8088 	beq.w	80025cc <I2C_MasterHandler+0x3c8>
 80024bc:	f856 2035 	ldr.w	r2, [r6, r5, lsl #3]
 80024c0:	f856 3035 	ldr.w	r3, [r6, r5, lsl #3]
 80024c4:	7c10      	ldrb	r0, [r2, #16]
 80024c6:	7c59      	ldrb	r1, [r3, #17]
 80024c8:	1a42      	subs	r2, r0, r1
 80024ca:	2a03      	cmp	r2, #3
 80024cc:	dd09      	ble.n	80024e2 <I2C_MasterHandler+0x2de>
 80024ce:	f856 7035 	ldr.w	r7, [r6, r5, lsl #3]
 80024d2:	f856 3035 	ldr.w	r3, [r6, r5, lsl #3]
 80024d6:	68f8      	ldr	r0, [r7, #12]
 80024d8:	7c5a      	ldrb	r2, [r3, #17]
 80024da:	8a27      	ldrh	r7, [r4, #16]
 80024dc:	1c51      	adds	r1, r2, #1
 80024de:	5487      	strb	r7, [r0, r2]
 80024e0:	7459      	strb	r1, [r3, #17]
 80024e2:	f856 2035 	ldr.w	r2, [r6, r5, lsl #3]
 80024e6:	f856 3035 	ldr.w	r3, [r6, r5, lsl #3]
 80024ea:	7c10      	ldrb	r0, [r2, #16]
 80024ec:	f893 c011 	ldrb.w	ip, [r3, #17]
 80024f0:	ebcc 0100 	rsb	r1, ip, r0
 80024f4:	2903      	cmp	r1, #3
 80024f6:	f47f aeeb 	bne.w	80022d0 <I2C_MasterHandler+0xcc>
 80024fa:	4620      	mov	r0, r4
 80024fc:	f44f 6180 	mov.w	r1, #1024	; 0x400
 8002500:	2200      	movs	r2, #0
 8002502:	e8bd 40f8 	ldmia.w	sp!, {r3, r4, r5, r6, r7, lr}
 8002506:	f004 bdff 	b.w	8007108 <I2C_ITConfig>
 800250a:	f853 0035 	ldr.w	r0, [r3, r5, lsl #3]
 800250e:	7801      	ldrb	r1, [r0, #0]
 8002510:	004b      	lsls	r3, r1, #1
 8002512:	f043 0c01 	orr.w	ip, r3, #1
 8002516:	f8a4 c010 	strh.w	ip, [r4, #16]
 800251a:	bdf8      	pop	{r3, r4, r5, r6, r7, pc}
 800251c:	2a80      	cmp	r2, #128	; 0x80
 800251e:	f47f aed7 	bne.w	80022d0 <I2C_MasterHandler+0xcc>
 8002522:	f856 1035 	ldr.w	r1, [r6, r5, lsl #3]
 8002526:	f856 2035 	ldr.w	r2, [r6, r5, lsl #3]
 800252a:	7a49      	ldrb	r1, [r1, #9]
 800252c:	7a10      	ldrb	r0, [r2, #8]
 800252e:	4281      	cmp	r1, r0
 8002530:	f47f af7b 	bne.w	800242a <I2C_MasterHandler+0x226>
 8002534:	4620      	mov	r0, r4
 8002536:	f44f 6180 	mov.w	r1, #1024	; 0x400
 800253a:	461a      	mov	r2, r3
 800253c:	e8bd 40f8 	ldmia.w	sp!, {r3, r4, r5, r6, r7, lr}
 8002540:	f004 bde2 	b.w	8007108 <I2C_ITConfig>
 8002544:	f856 3035 	ldr.w	r3, [r6, r5, lsl #3]
 8002548:	685a      	ldr	r2, [r3, #4]
 800254a:	2a00      	cmp	r2, #0
 800254c:	f43f af7f 	beq.w	800244e <I2C_MasterHandler+0x24a>
 8002550:	f856 2035 	ldr.w	r2, [r6, r5, lsl #3]
 8002554:	7810      	ldrb	r0, [r2, #0]
 8002556:	0041      	lsls	r1, r0, #1
 8002558:	8221      	strh	r1, [r4, #16]
 800255a:	bdf8      	pop	{r3, r4, r5, r6, r7, pc}
 800255c:	8820      	ldrh	r0, [r4, #0]
 800255e:	f420 6180 	bic.w	r1, r0, #1024	; 0x400
 8002562:	040a      	lsls	r2, r1, #16
 8002564:	0c13      	lsrs	r3, r2, #16
 8002566:	8023      	strh	r3, [r4, #0]
 8002568:	8b23      	ldrh	r3, [r4, #24]
 800256a:	8820      	ldrh	r0, [r4, #0]
 800256c:	b281      	uxth	r1, r0
 800256e:	f441 7200 	orr.w	r2, r1, #512	; 0x200
 8002572:	8022      	strh	r2, [r4, #0]
 8002574:	bdf8      	pop	{r3, r4, r5, r6, r7, pc}
 8002576:	4620      	mov	r0, r4
 8002578:	f44f 61e0 	mov.w	r1, #1792	; 0x700
 800257c:	2200      	movs	r2, #0
 800257e:	f004 fdc3 	bl	8007108 <I2C_ITConfig>
 8002582:	8820      	ldrh	r0, [r4, #0]
 8002584:	b283      	uxth	r3, r0
 8002586:	f443 7c00 	orr.w	ip, r3, #512	; 0x200
 800258a:	f8a4 c000 	strh.w	ip, [r4]
 800258e:	f856 2035 	ldr.w	r2, [r6, r5, lsl #3]
 8002592:	f856 3035 	ldr.w	r3, [r6, r5, lsl #3]
 8002596:	68d1      	ldr	r1, [r2, #12]
 8002598:	8a20      	ldrh	r0, [r4, #16]
 800259a:	7c5a      	ldrb	r2, [r3, #17]
 800259c:	5488      	strb	r0, [r1, r2]
 800259e:	1c50      	adds	r0, r2, #1
 80025a0:	7458      	strb	r0, [r3, #17]
 80025a2:	f856 1035 	ldr.w	r1, [r6, r5, lsl #3]
 80025a6:	f856 3035 	ldr.w	r3, [r6, r5, lsl #3]
 80025aa:	68c8      	ldr	r0, [r1, #12]
 80025ac:	7c5a      	ldrb	r2, [r3, #17]
 80025ae:	8a24      	ldrh	r4, [r4, #16]
 80025b0:	1c51      	adds	r1, r2, #1
 80025b2:	5484      	strb	r4, [r0, r2]
 80025b4:	7459      	strb	r1, [r3, #17]
 80025b6:	f856 2035 	ldr.w	r2, [r6, r5, lsl #3]
 80025ba:	6993      	ldr	r3, [r2, #24]
 80025bc:	2b00      	cmp	r3, #0
 80025be:	f43f ae87 	beq.w	80022d0 <I2C_MasterHandler+0xcc>
 80025c2:	f856 2035 	ldr.w	r2, [r6, r5, lsl #3]
 80025c6:	6991      	ldr	r1, [r2, #24]
 80025c8:	4788      	blx	r1
 80025ca:	bdf8      	pop	{r3, r4, r5, r6, r7, pc}
 80025cc:	4620      	mov	r0, r4
 80025ce:	f44f 61e0 	mov.w	r1, #1792	; 0x700
 80025d2:	f004 fd99 	bl	8007108 <I2C_ITConfig>
 80025d6:	f856 1035 	ldr.w	r1, [r6, r5, lsl #3]
 80025da:	f856 3035 	ldr.w	r3, [r6, r5, lsl #3]
 80025de:	68c8      	ldr	r0, [r1, #12]
 80025e0:	7c5a      	ldrb	r2, [r3, #17]
 80025e2:	8a24      	ldrh	r4, [r4, #16]
 80025e4:	1c51      	adds	r1, r2, #1
 80025e6:	5484      	strb	r4, [r0, r2]
 80025e8:	7459      	strb	r1, [r3, #17]
 80025ea:	bdf8      	pop	{r3, r4, r5, r6, r7, pc}
 80025ec:	4620      	mov	r0, r4
 80025ee:	f44f 6180 	mov.w	r1, #1024	; 0x400
 80025f2:	f004 fd89 	bl	8007108 <I2C_ITConfig>
 80025f6:	8820      	ldrh	r0, [r4, #0]
 80025f8:	f420 6180 	bic.w	r1, r0, #1024	; 0x400
 80025fc:	040a      	lsls	r2, r1, #16
 80025fe:	0c13      	lsrs	r3, r2, #16
 8002600:	8023      	strh	r3, [r4, #0]
 8002602:	8820      	ldrh	r0, [r4, #0]
 8002604:	b281      	uxth	r1, r0
 8002606:	f441 6200 	orr.w	r2, r1, #2048	; 0x800
 800260a:	8022      	strh	r2, [r4, #0]
 800260c:	8b23      	ldrh	r3, [r4, #24]
 800260e:	bdf8      	pop	{r3, r4, r5, r6, r7, pc}
 8002610:	8820      	ldrh	r0, [r4, #0]
 8002612:	f420 6380 	bic.w	r3, r0, #1024	; 0x400
 8002616:	041a      	lsls	r2, r3, #16
 8002618:	0c11      	lsrs	r1, r2, #16
 800261a:	8021      	strh	r1, [r4, #0]
 800261c:	e7db      	b.n	80025d6 <I2C_MasterHandler+0x3d2>
 800261e:	bf00      	nop

08002620 <I2C2_EV_IRQHandler>:
 8002620:	f44f 40b0 	mov.w	r0, #22528	; 0x5800
 8002624:	f2c4 0000 	movt	r0, #16384	; 0x4000
 8002628:	e5ec      	b.n	8002204 <I2C_MasterHandler>
 800262a:	bf00      	nop

0800262c <I2C2_ER_IRQHandler>:
 800262c:	f44f 40b0 	mov.w	r0, #22528	; 0x5800
 8002630:	f2c4 0000 	movt	r0, #16384	; 0x4000
 8002634:	e5e6      	b.n	8002204 <I2C_MasterHandler>
 8002636:	bf00      	nop

08002638 <LEDInit>:
 8002638:	b500      	push	{lr}
 800263a:	2002      	movs	r0, #2
 800263c:	b083      	sub	sp, #12
 800263e:	2101      	movs	r1, #1
 8002640:	f003 fa88 	bl	8005b54 <RCC_AHB1PeriphClockCmd>
 8002644:	2101      	movs	r1, #1
 8002646:	2002      	movs	r0, #2
 8002648:	f003 fa84 	bl	8005b54 <RCC_AHB1PeriphClockCmd>
 800264c:	a902      	add	r1, sp, #8
 800264e:	2003      	movs	r0, #3
 8002650:	f841 0d08 	str.w	r0, [r1, #-8]!
 8002654:	f44f 6080 	mov.w	r0, #1024	; 0x400
 8002658:	2300      	movs	r3, #0
 800265a:	2201      	movs	r2, #1
 800265c:	f2c4 0002 	movt	r0, #16386	; 0x4002
 8002660:	4669      	mov	r1, sp
 8002662:	f88d 2004 	strb.w	r2, [sp, #4]
 8002666:	f88d 3006 	strb.w	r3, [sp, #6]
 800266a:	f88d 3007 	strb.w	r3, [sp, #7]
 800266e:	f88d 3005 	strb.w	r3, [sp, #5]
 8002672:	f002 ff57 	bl	8005524 <GPIO_Init>
 8002676:	b003      	add	sp, #12
 8002678:	bd00      	pop	{pc}
 800267a:	bf00      	nop

0800267c <LEDToggle>:
 800267c:	f240 0224 	movw	r2, #36	; 0x24
 8002680:	f2c2 0200 	movt	r2, #8192	; 0x2000
 8002684:	f64a 4c14 	movw	ip, #44052	; 0xac14
 8002688:	f852 3020 	ldr.w	r3, [r2, r0, lsl #2]
 800268c:	f6c0 0c00 	movt	ip, #2048	; 0x800
 8002690:	6959      	ldr	r1, [r3, #20]
 8002692:	f83c 0010 	ldrh.w	r0, [ip, r0, lsl #1]
 8002696:	ea80 0201 	eor.w	r2, r0, r1
 800269a:	615a      	str	r2, [r3, #20]
 800269c:	4770      	bx	lr
 800269e:	bf00      	nop

080026a0 <LEDOn>:
 80026a0:	f240 0c24 	movw	ip, #36	; 0x24
 80026a4:	f64a 4114 	movw	r1, #44052	; 0xac14
 80026a8:	f2c2 0c00 	movt	ip, #8192	; 0x2000
 80026ac:	f6c0 0100 	movt	r1, #2048	; 0x800
 80026b0:	f85c 2020 	ldr.w	r2, [ip, r0, lsl #2]
 80026b4:	f831 3010 	ldrh.w	r3, [r1, r0, lsl #1]
 80026b8:	8313      	strh	r3, [r2, #24]
 80026ba:	4770      	bx	lr

080026bc <LEDOff>:
 80026bc:	f240 0c24 	movw	ip, #36	; 0x24
 80026c0:	f64a 4114 	movw	r1, #44052	; 0xac14
 80026c4:	f2c2 0c00 	movt	ip, #8192	; 0x2000
 80026c8:	f6c0 0100 	movt	r1, #2048	; 0x800
 80026cc:	f85c 2020 	ldr.w	r2, [ip, r0, lsl #2]
 80026d0:	f831 3010 	ldrh.w	r3, [r1, r0, lsl #1]
 80026d4:	8353      	strh	r3, [r2, #26]
 80026d6:	4770      	bx	lr

080026d8 <MPU6050Init>:
 80026d8:	e92d 41f0 	stmdb	sp!, {r4, r5, r6, r7, r8, lr}
 80026dc:	b088      	sub	sp, #32
 80026de:	2369      	movs	r3, #105	; 0x69
 80026e0:	f88d 3000 	strb.w	r3, [sp]
 80026e4:	ab07      	add	r3, sp, #28
 80026e6:	9301      	str	r3, [sp, #4]
 80026e8:	f44f 45b0 	mov.w	r5, #22528	; 0x5800
 80026ec:	f10d 031f 	add.w	r3, sp, #31
 80026f0:	2400      	movs	r4, #0
 80026f2:	f2c4 0500 	movt	r5, #16384	; 0x4000
 80026f6:	9303      	str	r3, [sp, #12]
 80026f8:	2305      	movs	r3, #5
 80026fa:	2702      	movs	r7, #2
 80026fc:	2601      	movs	r6, #1
 80026fe:	4669      	mov	r1, sp
 8002700:	4622      	mov	r2, r4
 8002702:	f88d 3012 	strb.w	r3, [sp, #18]
 8002706:	4628      	mov	r0, r5
 8002708:	236b      	movs	r3, #107	; 0x6b
 800270a:	f04f 0818 	mov.w	r8, #24
 800270e:	f88d 301c 	strb.w	r3, [sp, #28]
 8002712:	9406      	str	r4, [sp, #24]
 8002714:	f88d 7008 	strb.w	r7, [sp, #8]
 8002718:	f88d 4010 	strb.w	r4, [sp, #16]
 800271c:	f88d 601d 	strb.w	r6, [sp, #29]
 8002720:	f7ff f91c 	bl	800195c <I2C_MasterTransferData>
 8002724:	231b      	movs	r3, #27
 8002726:	4669      	mov	r1, sp
 8002728:	4622      	mov	r2, r4
 800272a:	4628      	mov	r0, r5
 800272c:	f88d 301c 	strb.w	r3, [sp, #28]
 8002730:	f88d 801d 	strb.w	r8, [sp, #29]
 8002734:	f7ff f912 	bl	800195c <I2C_MasterTransferData>
 8002738:	231c      	movs	r3, #28
 800273a:	4669      	mov	r1, sp
 800273c:	4622      	mov	r2, r4
 800273e:	4628      	mov	r0, r5
 8002740:	f88d 301c 	strb.w	r3, [sp, #28]
 8002744:	f88d 801d 	strb.w	r8, [sp, #29]
 8002748:	f7ff f908 	bl	800195c <I2C_MasterTransferData>
 800274c:	231a      	movs	r3, #26
 800274e:	4669      	mov	r1, sp
 8002750:	4622      	mov	r2, r4
 8002752:	4628      	mov	r0, r5
 8002754:	f88d 301c 	strb.w	r3, [sp, #28]
 8002758:	f88d 701d 	strb.w	r7, [sp, #29]
 800275c:	f7ff f8fe 	bl	800195c <I2C_MasterTransferData>
 8002760:	2319      	movs	r3, #25
 8002762:	4669      	mov	r1, sp
 8002764:	4622      	mov	r2, r4
 8002766:	f88d 301c 	strb.w	r3, [sp, #28]
 800276a:	4628      	mov	r0, r5
 800276c:	2304      	movs	r3, #4
 800276e:	f88d 301d 	strb.w	r3, [sp, #29]
 8002772:	f7ff f8f3 	bl	800195c <I2C_MasterTransferData>
 8002776:	2337      	movs	r3, #55	; 0x37
 8002778:	4669      	mov	r1, sp
 800277a:	4622      	mov	r2, r4
 800277c:	f88d 301c 	strb.w	r3, [sp, #28]
 8002780:	4628      	mov	r0, r5
 8002782:	2310      	movs	r3, #16
 8002784:	f88d 301d 	strb.w	r3, [sp, #29]
 8002788:	f7ff f8e8 	bl	800195c <I2C_MasterTransferData>
 800278c:	2338      	movs	r3, #56	; 0x38
 800278e:	4628      	mov	r0, r5
 8002790:	4669      	mov	r1, sp
 8002792:	4622      	mov	r2, r4
 8002794:	f88d 301c 	strb.w	r3, [sp, #28]
 8002798:	f88d 601d 	strb.w	r6, [sp, #29]
 800279c:	f7ff f8de 	bl	800195c <I2C_MasterTransferData>
 80027a0:	b008      	add	sp, #32
 80027a2:	e8bd 81f0 	ldmia.w	sp!, {r4, r5, r6, r7, r8, pc}
 80027a6:	bf00      	nop

080027a8 <GetMPP6050ID>:
 80027a8:	b570      	push	{r4, r5, r6, lr}
 80027aa:	b088      	sub	sp, #32
 80027ac:	2669      	movs	r6, #105	; 0x69
 80027ae:	f44f 42b0 	mov.w	r2, #22528	; 0x5800
 80027b2:	2300      	movs	r3, #0
 80027b4:	f2c4 0200 	movt	r2, #16384	; 0x4000
 80027b8:	f88d 6004 	strb.w	r6, [sp, #4]
 80027bc:	f240 062c 	movw	r6, #44	; 0x2c
 80027c0:	4605      	mov	r5, r0
 80027c2:	2401      	movs	r4, #1
 80027c4:	f2c2 0600 	movt	r6, #8192	; 0x2000
 80027c8:	4610      	mov	r0, r2
 80027ca:	a901      	add	r1, sp, #4
 80027cc:	461a      	mov	r2, r3
 80027ce:	9602      	str	r6, [sp, #8]
 80027d0:	f88d 400c 	strb.w	r4, [sp, #12]
 80027d4:	9504      	str	r5, [sp, #16]
 80027d6:	f88d 4014 	strb.w	r4, [sp, #20]
 80027da:	f88d 3016 	strb.w	r3, [sp, #22]
 80027de:	9307      	str	r3, [sp, #28]
 80027e0:	f7ff f8bc 	bl	800195c <I2C_MasterTransferData>
 80027e4:	b008      	add	sp, #32
 80027e6:	bd70      	pop	{r4, r5, r6, pc}

080027e8 <GetMPU6050Rates>:
 80027e8:	b530      	push	{r4, r5, lr}
 80027ea:	b089      	sub	sp, #36	; 0x24
 80027ec:	2569      	movs	r5, #105	; 0x69
 80027ee:	f88d 5004 	strb.w	r5, [sp, #4]
 80027f2:	f44f 42b0 	mov.w	r2, #22528	; 0x5800
 80027f6:	4d0b      	ldr	r5, [pc, #44]	; (8002824 <GetMPU6050Rates+0x3c>)
 80027f8:	2300      	movs	r3, #0
 80027fa:	4604      	mov	r4, r0
 80027fc:	f2c4 0200 	movt	r2, #16384	; 0x4000
 8002800:	9502      	str	r5, [sp, #8]
 8002802:	9404      	str	r4, [sp, #16]
 8002804:	2501      	movs	r5, #1
 8002806:	240e      	movs	r4, #14
 8002808:	4610      	mov	r0, r2
 800280a:	a901      	add	r1, sp, #4
 800280c:	461a      	mov	r2, r3
 800280e:	f88d 3016 	strb.w	r3, [sp, #22]
 8002812:	f88d 500c 	strb.w	r5, [sp, #12]
 8002816:	f88d 4014 	strb.w	r4, [sp, #20]
 800281a:	9307      	str	r3, [sp, #28]
 800281c:	f7ff f89e 	bl	800195c <I2C_MasterTransferData>
 8002820:	b009      	add	sp, #36	; 0x24
 8002822:	bd30      	pop	{r4, r5, pc}
 8002824:	2000002d 	andcs	r0, r0, sp, lsr #32

08002828 <PWMInit>:
 8002828:	e92d 4ff0 	stmdb	sp!, {r4, r5, r6, r7, r8, r9, sl, fp, lr}
 800282c:	f240 0a14 	movw	sl, #20
 8002830:	f2c2 0a00 	movt	sl, #8192	; 0x2000
 8002834:	f64d 6983 	movw	r9, #56963	; 0xde83
 8002838:	f8da 0000 	ldr.w	r0, [sl]
 800283c:	f2c4 391b 	movt	r9, #17179	; 0x431b
 8002840:	b08b      	sub	sp, #44	; 0x2c
 8002842:	fba9 2700 	umull	r2, r7, r9, r0
 8002846:	2101      	movs	r1, #1
 8002848:	2002      	movs	r0, #2
 800284a:	f003 f9ad 	bl	8005ba8 <RCC_APB1PeriphClockCmd>
 800284e:	2004      	movs	r0, #4
 8002850:	2101      	movs	r1, #1
 8002852:	f003 f9a9 	bl	8005ba8 <RCC_APB1PeriphClockCmd>
 8002856:	2002      	movs	r0, #2
 8002858:	2101      	movs	r1, #1
 800285a:	f003 f9b3 	bl	8005bc4 <RCC_APB2PeriphClockCmd>
 800285e:	ea4f 4bd7 	mov.w	fp, r7, lsr #19
 8002862:	2002      	movs	r0, #2
 8002864:	2101      	movs	r1, #1
 8002866:	f44f 6580 	mov.w	r5, #1024	; 0x400
 800286a:	f003 f973 	bl	8005b54 <RCC_AHB1PeriphClockCmd>
 800286e:	f2c4 0502 	movt	r5, #16386	; 0x4002
 8002872:	2004      	movs	r0, #4
 8002874:	2101      	movs	r1, #1
 8002876:	f10b 36ff 	add.w	r6, fp, #4294967295
 800287a:	f44f 6400 	mov.w	r4, #2048	; 0x800
 800287e:	f003 f969 	bl	8005b54 <RCC_AHB1PeriphClockCmd>
 8002882:	2702      	movs	r7, #2
 8002884:	f04f 0800 	mov.w	r8, #0
 8002888:	f2c4 0402 	movt	r4, #16386	; 0x4002
 800288c:	f44f 7270 	mov.w	r2, #960	; 0x3c0
 8002890:	4628      	mov	r0, r5
 8002892:	fa1f fb86 	uxth.w	fp, r6
 8002896:	a908      	add	r1, sp, #32
 8002898:	2601      	movs	r6, #1
 800289a:	9208      	str	r2, [sp, #32]
 800289c:	f88d 7024 	strb.w	r7, [sp, #36]	; 0x24
 80028a0:	f88d 8025 	strb.w	r8, [sp, #37]	; 0x25
 80028a4:	f88d 8026 	strb.w	r8, [sp, #38]	; 0x26
 80028a8:	f88d 6027 	strb.w	r6, [sp, #39]	; 0x27
 80028ac:	f002 fe3a 	bl	8005524 <GPIO_Init>
 80028b0:	4620      	mov	r0, r4
 80028b2:	a908      	add	r1, sp, #32
 80028b4:	f002 fe36 	bl	8005524 <GPIO_Init>
 80028b8:	4628      	mov	r0, r5
 80028ba:	2106      	movs	r1, #6
 80028bc:	463a      	mov	r2, r7
 80028be:	f002 ff2f 	bl	8005720 <GPIO_PinAFConfig>
 80028c2:	4628      	mov	r0, r5
 80028c4:	2107      	movs	r1, #7
 80028c6:	463a      	mov	r2, r7
 80028c8:	f002 ff2a 	bl	8005720 <GPIO_PinAFConfig>
 80028cc:	4628      	mov	r0, r5
 80028ce:	2108      	movs	r1, #8
 80028d0:	463a      	mov	r2, r7
 80028d2:	f002 ff25 	bl	8005720 <GPIO_PinAFConfig>
 80028d6:	4628      	mov	r0, r5
 80028d8:	2109      	movs	r1, #9
 80028da:	463a      	mov	r2, r7
 80028dc:	f002 ff20 	bl	8005720 <GPIO_PinAFConfig>
 80028e0:	4620      	mov	r0, r4
 80028e2:	2106      	movs	r1, #6
 80028e4:	463a      	mov	r2, r7
 80028e6:	f002 ff1b 	bl	8005720 <GPIO_PinAFConfig>
 80028ea:	4620      	mov	r0, r4
 80028ec:	2107      	movs	r1, #7
 80028ee:	463a      	mov	r2, r7
 80028f0:	f002 ff16 	bl	8005720 <GPIO_PinAFConfig>
 80028f4:	f44f 6580 	mov.w	r5, #1024	; 0x400
 80028f8:	4620      	mov	r0, r4
 80028fa:	2108      	movs	r1, #8
 80028fc:	2203      	movs	r2, #3
 80028fe:	f002 ff0f 	bl	8005720 <GPIO_PinAFConfig>
 8002902:	f2c4 0500 	movt	r5, #16384	; 0x4000
 8002906:	2203      	movs	r2, #3
 8002908:	4620      	mov	r0, r4
 800290a:	2109      	movs	r1, #9
 800290c:	f44f 6400 	mov.w	r4, #2048	; 0x800
 8002910:	f002 ff06 	bl	8005720 <GPIO_PinAFConfig>
 8002914:	f2c4 0400 	movt	r4, #16384	; 0x4000
 8002918:	f640 13c3 	movw	r3, #2499	; 0x9c3
 800291c:	4628      	mov	r0, r5
 800291e:	a905      	add	r1, sp, #20
 8002920:	9306      	str	r3, [sp, #24]
 8002922:	f8ad b014 	strh.w	fp, [sp, #20]
 8002926:	f8ad 801c 	strh.w	r8, [sp, #28]
 800292a:	f8ad 8016 	strh.w	r8, [sp, #22]
 800292e:	f88d 801e 	strb.w	r8, [sp, #30]
 8002932:	f003 fb57 	bl	8005fe4 <TIM_TimeBaseInit>
 8002936:	4620      	mov	r0, r4
 8002938:	a905      	add	r1, sp, #20
 800293a:	f003 fb53 	bl	8005fe4 <TIM_TimeBaseInit>
 800293e:	f8da 1000 	ldr.w	r1, [sl]
 8002942:	f44f 6a80 	mov.w	sl, #1024	; 0x400
 8002946:	fba9 2001 	umull	r2, r0, r9, r1
 800294a:	f2c4 0a01 	movt	sl, #16385	; 0x4001
 800294e:	ea4f 4990 	mov.w	r9, r0, lsr #18
 8002952:	a905      	add	r1, sp, #20
 8002954:	4650      	mov	r0, sl
 8002956:	f109 39ff 	add.w	r9, r9, #4294967295
 800295a:	f8ad 9014 	strh.w	r9, [sp, #20]
 800295e:	f003 fb41 	bl	8005fe4 <TIM_TimeBaseInit>
 8002962:	2260      	movs	r2, #96	; 0x60
 8002964:	4669      	mov	r1, sp
 8002966:	4620      	mov	r0, r4
 8002968:	f8ad 2000 	strh.w	r2, [sp]
 800296c:	f8ad 6002 	strh.w	r6, [sp, #2]
 8002970:	f8cd 8008 	str.w	r8, [sp, #8]
 8002974:	f8ad 700c 	strh.w	r7, [sp, #12]
 8002978:	f003 fc02 	bl	8006180 <TIM_OC1Init>
 800297c:	2108      	movs	r1, #8
 800297e:	4620      	mov	r0, r4
 8002980:	f003 fd8e 	bl	80064a0 <TIM_OC1PreloadConfig>
 8002984:	4628      	mov	r0, r5
 8002986:	4669      	mov	r1, sp
 8002988:	f003 fbfa 	bl	8006180 <TIM_OC1Init>
 800298c:	2108      	movs	r1, #8
 800298e:	4628      	mov	r0, r5
 8002990:	f003 fd86 	bl	80064a0 <TIM_OC1PreloadConfig>
 8002994:	4620      	mov	r0, r4
 8002996:	4669      	mov	r1, sp
 8002998:	f003 fc3e 	bl	8006218 <TIM_OC2Init>
 800299c:	2108      	movs	r1, #8
 800299e:	4620      	mov	r0, r4
 80029a0:	f003 fd88 	bl	80064b4 <TIM_OC2PreloadConfig>
 80029a4:	4628      	mov	r0, r5
 80029a6:	4669      	mov	r1, sp
 80029a8:	f003 fc36 	bl	8006218 <TIM_OC2Init>
 80029ac:	2108      	movs	r1, #8
 80029ae:	4628      	mov	r0, r5
 80029b0:	f003 fd80 	bl	80064b4 <TIM_OC2PreloadConfig>
 80029b4:	4620      	mov	r0, r4
 80029b6:	4669      	mov	r1, sp
 80029b8:	f003 fc7e 	bl	80062b8 <TIM_OC3Init>
 80029bc:	2108      	movs	r1, #8
 80029be:	4620      	mov	r0, r4
 80029c0:	f003 fd84 	bl	80064cc <TIM_OC3PreloadConfig>
 80029c4:	4650      	mov	r0, sl
 80029c6:	4669      	mov	r1, sp
 80029c8:	f003 fc76 	bl	80062b8 <TIM_OC3Init>
 80029cc:	2108      	movs	r1, #8
 80029ce:	4650      	mov	r0, sl
 80029d0:	f003 fd7c 	bl	80064cc <TIM_OC3PreloadConfig>
 80029d4:	4620      	mov	r0, r4
 80029d6:	4669      	mov	r1, sp
 80029d8:	f003 fcbe 	bl	8006358 <TIM_OC4Init>
 80029dc:	2108      	movs	r1, #8
 80029de:	4620      	mov	r0, r4
 80029e0:	f003 fd7e 	bl	80064e0 <TIM_OC4PreloadConfig>
 80029e4:	4650      	mov	r0, sl
 80029e6:	4669      	mov	r1, sp
 80029e8:	f003 fcb6 	bl	8006358 <TIM_OC4Init>
 80029ec:	2108      	movs	r1, #8
 80029ee:	4650      	mov	r0, sl
 80029f0:	f003 fd76 	bl	80064e0 <TIM_OC4PreloadConfig>
 80029f4:	4628      	mov	r0, r5
 80029f6:	4631      	mov	r1, r6
 80029f8:	f003 fb8e 	bl	8006118 <TIM_ARRPreloadConfig>
 80029fc:	4620      	mov	r0, r4
 80029fe:	4631      	mov	r1, r6
 8002a00:	f003 fb8a 	bl	8006118 <TIM_ARRPreloadConfig>
 8002a04:	4650      	mov	r0, sl
 8002a06:	4631      	mov	r1, r6
 8002a08:	f003 fb86 	bl	8006118 <TIM_ARRPreloadConfig>
 8002a0c:	4650      	mov	r0, sl
 8002a0e:	4631      	mov	r1, r6
 8002a10:	f004 f824 	bl	8006a5c <TIM_CtrlPWMOutputs>
 8002a14:	4628      	mov	r0, r5
 8002a16:	4631      	mov	r1, r6
 8002a18:	f003 fba4 	bl	8006164 <TIM_Cmd>
 8002a1c:	4620      	mov	r0, r4
 8002a1e:	4631      	mov	r1, r6
 8002a20:	f003 fba0 	bl	8006164 <TIM_Cmd>
 8002a24:	4650      	mov	r0, sl
 8002a26:	4631      	mov	r1, r6
 8002a28:	f003 fb9c 	bl	8006164 <TIM_Cmd>
 8002a2c:	f44f 737a 	mov.w	r3, #1000	; 0x3e8
 8002a30:	6363      	str	r3, [r4, #52]	; 0x34
 8002a32:	63a3      	str	r3, [r4, #56]	; 0x38
 8002a34:	63e3      	str	r3, [r4, #60]	; 0x3c
 8002a36:	6423      	str	r3, [r4, #64]	; 0x40
 8002a38:	636b      	str	r3, [r5, #52]	; 0x34
 8002a3a:	63ab      	str	r3, [r5, #56]	; 0x38
 8002a3c:	f8ca 303c 	str.w	r3, [sl, #60]	; 0x3c
 8002a40:	f8ca 3040 	str.w	r3, [sl, #64]	; 0x40
 8002a44:	b00b      	add	sp, #44	; 0x2c
 8002a46:	e8bd 8ff0 	ldmia.w	sp!, {r4, r5, r6, r7, r8, r9, sl, fp, pc}
 8002a4a:	bf00      	nop

08002a4c <vSetRCOutput>:
 8002a4c:	f64a 4c20 	movw	ip, #44064	; 0xac20
 8002a50:	f6c0 0c00 	movt	ip, #2048	; 0x800
 8002a54:	f240 32e7 	movw	r2, #999	; 0x3e7
 8002a58:	f85c 3020 	ldr.w	r3, [ip, r0, lsl #2]
 8002a5c:	4291      	cmp	r1, r2
 8002a5e:	bf28      	it	cs
 8002a60:	4611      	movcs	r1, r2
 8002a62:	f501 6196 	add.w	r1, r1, #1200	; 0x4b0
 8002a66:	6019      	str	r1, [r3, #0]
 8002a68:	4770      	bx	lr
 8002a6a:	bf00      	nop

08002a6c <vSetOutputRate>:
 8002a6c:	b148      	cbz	r0, 8002a82 <vSetOutputRate+0x16>
 8002a6e:	2801      	cmp	r0, #1
 8002a70:	d00d      	beq.n	8002a8e <vSetOutputRate+0x22>
 8002a72:	2802      	cmp	r0, #2
 8002a74:	d104      	bne.n	8002a80 <vSetOutputRate+0x14>
 8002a76:	f44f 6280 	mov.w	r2, #1024	; 0x400
 8002a7a:	f2c4 0200 	movt	r2, #16384	; 0x4000
 8002a7e:	62d1      	str	r1, [r2, #44]	; 0x2c
 8002a80:	4770      	bx	lr
 8002a82:	f44f 6300 	mov.w	r3, #2048	; 0x800
 8002a86:	f2c4 0300 	movt	r3, #16384	; 0x4000
 8002a8a:	62d9      	str	r1, [r3, #44]	; 0x2c
 8002a8c:	4770      	bx	lr
 8002a8e:	f44f 6080 	mov.w	r0, #1024	; 0x400
 8002a92:	f2c4 0001 	movt	r0, #16385	; 0x4001
 8002a96:	62c1      	str	r1, [r0, #44]	; 0x2c
 8002a98:	4770      	bx	lr
 8002a9a:	bf00      	nop

08002a9c <vTaskGetHMC5883LData>:
 8002a9c:	b510      	push	{r4, lr}
 8002a9e:	b088      	sub	sp, #32
 8002aa0:	4a14      	ldr	r2, [pc, #80]	; (8002af4 <vTaskGetHMC5883LData+0x58>)
 8002aa2:	4c15      	ldr	r4, [pc, #84]	; (8002af8 <vTaskGetHMC5883LData+0x5c>)
 8002aa4:	9203      	str	r2, [sp, #12]
 8002aa6:	f10d 031f 	add.w	r3, sp, #31
 8002aaa:	2103      	movs	r1, #3
 8002aac:	201e      	movs	r0, #30
 8002aae:	9301      	str	r3, [sp, #4]
 8002ab0:	4b12      	ldr	r3, [pc, #72]	; (8002afc <vTaskGetHMC5883LData+0x60>)
 8002ab2:	f88d 101f 	strb.w	r1, [sp, #31]
 8002ab6:	f88d 0000 	strb.w	r0, [sp]
 8002aba:	2201      	movs	r2, #1
 8002abc:	2106      	movs	r1, #6
 8002abe:	2005      	movs	r0, #5
 8002ac0:	f88d 2008 	strb.w	r2, [sp, #8]
 8002ac4:	f88d 1010 	strb.w	r1, [sp, #16]
 8002ac8:	f88d 0012 	strb.w	r0, [sp, #18]
 8002acc:	9306      	str	r3, [sp, #24]
 8002ace:	2000      	movs	r0, #0
 8002ad0:	f001 ffa0 	bl	8004a14 <vTaskSuspend>
 8002ad4:	2100      	movs	r1, #0
 8002ad6:	460b      	mov	r3, r1
 8002ad8:	6820      	ldr	r0, [r4, #0]
 8002ada:	f04f 32ff 	mov.w	r2, #4294967295
 8002ade:	f002 f9fd 	bl	8004edc <xQueueGenericReceive>
 8002ae2:	f44f 40b0 	mov.w	r0, #22528	; 0x5800
 8002ae6:	4669      	mov	r1, sp
 8002ae8:	2201      	movs	r2, #1
 8002aea:	f2c4 0000 	movt	r0, #16384	; 0x4000
 8002aee:	f7fe ff35 	bl	800195c <I2C_MasterTransferData>
 8002af2:	e7ec      	b.n	8002ace <vTaskGetHMC5883LData+0x32>
 8002af4:	2000116c 	andcs	r1, r0, ip, ror #2
 8002af8:	20001150 	andcs	r1, r0, r0, asr r1
 8002afc:	08002b65 	stmdaeq	r0, {r0, r2, r5, r6, r8, r9, fp, sp}

08002b00 <vTaskGetMPU6050Data>:
 8002b00:	b510      	push	{r4, lr}
 8002b02:	b088      	sub	sp, #32
 8002b04:	4a14      	ldr	r2, [pc, #80]	; (8002b58 <vTaskGetMPU6050Data+0x58>)
 8002b06:	4c15      	ldr	r4, [pc, #84]	; (8002b5c <vTaskGetMPU6050Data+0x5c>)
 8002b08:	9203      	str	r2, [sp, #12]
 8002b0a:	f10d 031f 	add.w	r3, sp, #31
 8002b0e:	213b      	movs	r1, #59	; 0x3b
 8002b10:	2069      	movs	r0, #105	; 0x69
 8002b12:	9301      	str	r3, [sp, #4]
 8002b14:	4b12      	ldr	r3, [pc, #72]	; (8002b60 <vTaskGetMPU6050Data+0x60>)
 8002b16:	f88d 101f 	strb.w	r1, [sp, #31]
 8002b1a:	f88d 0000 	strb.w	r0, [sp]
 8002b1e:	2201      	movs	r2, #1
 8002b20:	210e      	movs	r1, #14
 8002b22:	2005      	movs	r0, #5
 8002b24:	f88d 2008 	strb.w	r2, [sp, #8]
 8002b28:	f88d 1010 	strb.w	r1, [sp, #16]
 8002b2c:	f88d 0012 	strb.w	r0, [sp, #18]
 8002b30:	9306      	str	r3, [sp, #24]
 8002b32:	2000      	movs	r0, #0
 8002b34:	f001 ff6e 	bl	8004a14 <vTaskSuspend>
 8002b38:	2100      	movs	r1, #0
 8002b3a:	460b      	mov	r3, r1
 8002b3c:	6820      	ldr	r0, [r4, #0]
 8002b3e:	f04f 32ff 	mov.w	r2, #4294967295
 8002b42:	f002 f9cb 	bl	8004edc <xQueueGenericReceive>
 8002b46:	f44f 40b0 	mov.w	r0, #22528	; 0x5800
 8002b4a:	4669      	mov	r1, sp
 8002b4c:	2201      	movs	r2, #1
 8002b4e:	f2c4 0000 	movt	r0, #16384	; 0x4000
 8002b52:	f7fe ff03 	bl	800195c <I2C_MasterTransferData>
 8002b56:	e7ec      	b.n	8002b32 <vTaskGetMPU6050Data+0x32>
 8002b58:	20001140 	andcs	r1, r0, r0, asr #2
 8002b5c:	20001150 	andcs	r1, r0, r0, asr r1
 8002b60:	08002bcd 	stmdaeq	r0, {r0, r2, r3, r6, r7, r8, r9, fp, sp}

08002b64 <HMC5883LParseData>:
 8002b64:	e92d 41f0 	stmdb	sp!, {r4, r5, r6, r7, r8, lr}
 8002b68:	4d15      	ldr	r5, [pc, #84]	; (8002bc0 <HMC5883LParseData+0x5c>)
 8002b6a:	786f      	ldrb	r7, [r5, #1]
 8002b6c:	782e      	ldrb	r6, [r5, #0]
 8002b6e:	78a9      	ldrb	r1, [r5, #2]
 8002b70:	78ec      	ldrb	r4, [r5, #3]
 8002b72:	792b      	ldrb	r3, [r5, #4]
 8002b74:	796a      	ldrb	r2, [r5, #5]
 8002b76:	702f      	strb	r7, [r5, #0]
 8002b78:	b082      	sub	sp, #8
 8002b7a:	af02      	add	r7, sp, #8
 8002b7c:	f04f 0800 	mov.w	r8, #0
 8002b80:	706e      	strb	r6, [r5, #1]
 8002b82:	70ac      	strb	r4, [r5, #2]
 8002b84:	70e9      	strb	r1, [r5, #3]
 8002b86:	712a      	strb	r2, [r5, #4]
 8002b88:	716b      	strb	r3, [r5, #5]
 8002b8a:	4640      	mov	r0, r8
 8002b8c:	f847 8d04 	str.w	r8, [r7, #-4]!
 8002b90:	f7ff fd74 	bl	800267c <LEDToggle>
 8002b94:	4c0b      	ldr	r4, [pc, #44]	; (8002bc4 <HMC5883LParseData+0x60>)
 8002b96:	8829      	ldrh	r1, [r5, #0]
 8002b98:	88ae      	ldrh	r6, [r5, #4]
 8002b9a:	480b      	ldr	r0, [pc, #44]	; (8002bc8 <HMC5883LParseData+0x64>)
 8002b9c:	886d      	ldrh	r5, [r5, #2]
 8002b9e:	81a1      	strh	r1, [r4, #12]
 8002ba0:	4643      	mov	r3, r8
 8002ba2:	81e6      	strh	r6, [r4, #14]
 8002ba4:	6800      	ldr	r0, [r0, #0]
 8002ba6:	8225      	strh	r5, [r4, #16]
 8002ba8:	4641      	mov	r1, r8
 8002baa:	463a      	mov	r2, r7
 8002bac:	f002 f946 	bl	8004e3c <xQueueGenericSendFromISR>
 8002bb0:	9b01      	ldr	r3, [sp, #4]
 8002bb2:	b10b      	cbz	r3, 8002bb8 <HMC5883LParseData+0x54>
 8002bb4:	f002 fb8e 	bl	80052d4 <vPortYieldFromISR>
 8002bb8:	b002      	add	sp, #8
 8002bba:	e8bd 81f0 	ldmia.w	sp!, {r4, r5, r6, r7, r8, pc}
 8002bbe:	bf00      	nop
 8002bc0:	2000116c 	andcs	r1, r0, ip, ror #2
 8002bc4:	20001154 	andcs	r1, r0, r4, asr r1
 8002bc8:	20001150 	andcs	r1, r0, r0, asr r1

08002bcc <MPU6050ParseData>:
 8002bcc:	e92d 4ff0 	stmdb	sp!, {r4, r5, r6, r7, r8, r9, sl, fp, lr}
 8002bd0:	4b2b      	ldr	r3, [pc, #172]	; (8002c80 <MPU6050ParseData+0xb4>)
 8002bd2:	4d2c      	ldr	r5, [pc, #176]	; (8002c84 <MPU6050ParseData+0xb8>)
 8002bd4:	791a      	ldrb	r2, [r3, #4]
 8002bd6:	795f      	ldrb	r7, [r3, #5]
 8002bd8:	781c      	ldrb	r4, [r3, #0]
 8002bda:	785e      	ldrb	r6, [r3, #1]
 8002bdc:	7899      	ldrb	r1, [r3, #2]
 8002bde:	78d8      	ldrb	r0, [r3, #3]
 8002be0:	711f      	strb	r7, [r3, #4]
 8002be2:	715a      	strb	r2, [r3, #5]
 8002be4:	701e      	strb	r6, [r3, #0]
 8002be6:	705c      	strb	r4, [r3, #1]
 8002be8:	889a      	ldrh	r2, [r3, #4]
 8002bea:	70d9      	strb	r1, [r3, #3]
 8002bec:	b083      	sub	sp, #12
 8002bee:	8819      	ldrh	r1, [r3, #0]
 8002bf0:	7098      	strb	r0, [r3, #2]
 8002bf2:	f893 e00a 	ldrb.w	lr, [r3, #10]
 8002bf6:	f893 c00b 	ldrb.w	ip, [r3, #11]
 8002bfa:	f893 a006 	ldrb.w	sl, [r3, #6]
 8002bfe:	f893 b007 	ldrb.w	fp, [r3, #7]
 8002c02:	f893 8008 	ldrb.w	r8, [r3, #8]
 8002c06:	f893 9009 	ldrb.w	r9, [r3, #9]
 8002c0a:	7b1e      	ldrb	r6, [r3, #12]
 8002c0c:	7b5f      	ldrb	r7, [r3, #13]
 8002c0e:	8858      	ldrh	r0, [r3, #2]
 8002c10:	8029      	strh	r1, [r5, #0]
 8002c12:	ac02      	add	r4, sp, #8
 8002c14:	4252      	negs	r2, r2
 8002c16:	2100      	movs	r1, #0
 8002c18:	b292      	uxth	r2, r2
 8002c1a:	f844 1d04 	str.w	r1, [r4, #-4]!
 8002c1e:	f883 c00a 	strb.w	ip, [r3, #10]
 8002c22:	f883 e00b 	strb.w	lr, [r3, #11]
 8002c26:	731f      	strb	r7, [r3, #12]
 8002c28:	f883 b006 	strb.w	fp, [r3, #6]
 8002c2c:	f883 a007 	strb.w	sl, [r3, #7]
 8002c30:	f883 9008 	strb.w	r9, [r3, #8]
 8002c34:	f883 8009 	strb.w	r8, [r3, #9]
 8002c38:	735e      	strb	r6, [r3, #13]
 8002c3a:	8068      	strh	r0, [r5, #2]
 8002c3c:	80aa      	strh	r2, [r5, #4]
 8002c3e:	4812      	ldr	r0, [pc, #72]	; (8002c88 <MPU6050ParseData+0xbc>)
 8002c40:	891a      	ldrh	r2, [r3, #8]
 8002c42:	895f      	ldrh	r7, [r3, #10]
 8002c44:	899e      	ldrh	r6, [r3, #12]
 8002c46:	80ea      	strh	r2, [r5, #6]
 8002c48:	460b      	mov	r3, r1
 8002c4a:	6800      	ldr	r0, [r0, #0]
 8002c4c:	812f      	strh	r7, [r5, #8]
 8002c4e:	4622      	mov	r2, r4
 8002c50:	816e      	strh	r6, [r5, #10]
 8002c52:	f002 f8f3 	bl	8004e3c <xQueueGenericSendFromISR>
 8002c56:	9b01      	ldr	r3, [sp, #4]
 8002c58:	b973      	cbnz	r3, 8002c78 <MPU6050ParseData+0xac>
 8002c5a:	480c      	ldr	r0, [pc, #48]	; (8002c8c <MPU6050ParseData+0xc0>)
 8002c5c:	2100      	movs	r1, #0
 8002c5e:	460b      	mov	r3, r1
 8002c60:	6800      	ldr	r0, [r0, #0]
 8002c62:	9101      	str	r1, [sp, #4]
 8002c64:	4622      	mov	r2, r4
 8002c66:	f002 f8e9 	bl	8004e3c <xQueueGenericSendFromISR>
 8002c6a:	9b01      	ldr	r3, [sp, #4]
 8002c6c:	b10b      	cbz	r3, 8002c72 <MPU6050ParseData+0xa6>
 8002c6e:	f002 fb31 	bl	80052d4 <vPortYieldFromISR>
 8002c72:	b003      	add	sp, #12
 8002c74:	e8bd 8ff0 	ldmia.w	sp!, {r4, r5, r6, r7, r8, r9, sl, fp, pc}
 8002c78:	f002 fb2c 	bl	80052d4 <vPortYieldFromISR>
 8002c7c:	e7ed      	b.n	8002c5a <MPU6050ParseData+0x8e>
 8002c7e:	bf00      	nop
 8002c80:	20001140 	andcs	r1, r0, r0, asr #2
 8002c84:	20001154 	andcs	r1, r0, r4, asr r1
 8002c88:	20001138 	andcs	r1, r0, r8, lsr r1
 8002c8c:	20001150 	andcs	r1, r0, r0, asr r1

08002c90 <SensorsInterruptReadInit>:
 8002c90:	e92d 47f0 	stmdb	sp!, {r4, r5, r6, r7, r8, r9, sl, lr}
 8002c94:	2001      	movs	r0, #1
 8002c96:	b08a      	sub	sp, #40	; 0x28
 8002c98:	2100      	movs	r1, #0
 8002c9a:	2203      	movs	r2, #3
 8002c9c:	f002 f820 	bl	8004ce0 <xQueueGenericCreate>
 8002ca0:	4d5a      	ldr	r5, [pc, #360]	; (8002e0c <SensorsInterruptReadInit+0x17c>)
 8002ca2:	6028      	str	r0, [r5, #0]
 8002ca4:	b120      	cbz	r0, 8002cb0 <SensorsInterruptReadInit+0x20>
 8002ca6:	2100      	movs	r1, #0
 8002ca8:	460a      	mov	r2, r1
 8002caa:	460b      	mov	r3, r1
 8002cac:	f002 f838 	bl	8004d20 <xQueueGenericSend>
 8002cb0:	2001      	movs	r0, #1
 8002cb2:	2100      	movs	r1, #0
 8002cb4:	2203      	movs	r2, #3
 8002cb6:	f002 f813 	bl	8004ce0 <xQueueGenericCreate>
 8002cba:	4c55      	ldr	r4, [pc, #340]	; (8002e10 <SensorsInterruptReadInit+0x180>)
 8002cbc:	6020      	str	r0, [r4, #0]
 8002cbe:	b120      	cbz	r0, 8002cca <SensorsInterruptReadInit+0x3a>
 8002cc0:	2100      	movs	r1, #0
 8002cc2:	460a      	mov	r2, r1
 8002cc4:	460b      	mov	r3, r1
 8002cc6:	f002 f82b 	bl	8004d20 <xQueueGenericSend>
 8002cca:	6828      	ldr	r0, [r5, #0]
 8002ccc:	2800      	cmp	r0, #0
 8002cce:	f000 809b 	beq.w	8002e08 <SensorsInterruptReadInit+0x178>
 8002cd2:	6823      	ldr	r3, [r4, #0]
 8002cd4:	2b00      	cmp	r3, #0
 8002cd6:	f000 8096 	beq.w	8002e06 <SensorsInterruptReadInit+0x176>
 8002cda:	2200      	movs	r2, #0
 8002cdc:	4613      	mov	r3, r2
 8002cde:	4611      	mov	r1, r2
 8002ce0:	f002 f81e 	bl	8004d20 <xQueueGenericSend>
 8002ce4:	ae0a      	add	r6, sp, #40	; 0x28
 8002ce6:	f44f 4880 	mov.w	r8, #16384	; 0x4000
 8002cea:	2004      	movs	r0, #4
 8002cec:	2101      	movs	r1, #1
 8002cee:	f002 ff31 	bl	8005b54 <RCC_AHB1PeriphClockCmd>
 8002cf2:	4640      	mov	r0, r8
 8002cf4:	2101      	movs	r1, #1
 8002cf6:	f002 ff65 	bl	8005bc4 <RCC_APB2PeriphClockCmd>
 8002cfa:	f846 8d0c 	str.w	r8, [r6, #-12]!
 8002cfe:	f44f 6000 	mov.w	r0, #2048	; 0x800
 8002d02:	2400      	movs	r4, #0
 8002d04:	2702      	movs	r7, #2
 8002d06:	4631      	mov	r1, r6
 8002d08:	f2c4 0002 	movt	r0, #16386	; 0x4002
 8002d0c:	f88d 7023 	strb.w	r7, [sp, #35]	; 0x23
 8002d10:	f88d 4020 	strb.w	r4, [sp, #32]
 8002d14:	f002 fc06 	bl	8005524 <GPIO_Init>
 8002d18:	210e      	movs	r1, #14
 8002d1a:	4638      	mov	r0, r7
 8002d1c:	f003 f846 	bl	8005dac <SYSCFG_EXTILineConfig>
 8002d20:	2501      	movs	r5, #1
 8002d22:	2208      	movs	r2, #8
 8002d24:	a805      	add	r0, sp, #20
 8002d26:	f88d 2019 	strb.w	r2, [sp, #25]
 8002d2a:	f04f 0a28 	mov.w	sl, #40	; 0x28
 8002d2e:	f04f 0907 	mov.w	r9, #7
 8002d32:	f8cd 8014 	str.w	r8, [sp, #20]
 8002d36:	f88d 501a 	strb.w	r5, [sp, #26]
 8002d3a:	f88d 4018 	strb.w	r4, [sp, #24]
 8002d3e:	f002 fd19 	bl	8005774 <EXTI_Init>
 8002d42:	a809      	add	r0, sp, #36	; 0x24
 8002d44:	f88d 5027 	strb.w	r5, [sp, #39]	; 0x27
 8002d48:	f88d a024 	strb.w	sl, [sp, #36]	; 0x24
 8002d4c:	f88d 9025 	strb.w	r9, [sp, #37]	; 0x25
 8002d50:	f88d 4026 	strb.w	r4, [sp, #38]	; 0x26
 8002d54:	f004 fc5e 	bl	8007614 <NVIC_Init>
 8002d58:	2004      	movs	r0, #4
 8002d5a:	4629      	mov	r1, r5
 8002d5c:	f002 fefa 	bl	8005b54 <RCC_AHB1PeriphClockCmd>
 8002d60:	4640      	mov	r0, r8
 8002d62:	4629      	mov	r1, r5
 8002d64:	f002 ff2e 	bl	8005bc4 <RCC_APB2PeriphClockCmd>
 8002d68:	f44f 6000 	mov.w	r0, #2048	; 0x800
 8002d6c:	f44f 5800 	mov.w	r8, #8192	; 0x2000
 8002d70:	4631      	mov	r1, r6
 8002d72:	f2c4 0002 	movt	r0, #16386	; 0x4002
 8002d76:	f88d 5023 	strb.w	r5, [sp, #35]	; 0x23
 8002d7a:	f88d 4020 	strb.w	r4, [sp, #32]
 8002d7e:	f8cd 801c 	str.w	r8, [sp, #28]
 8002d82:	f002 fbcf 	bl	8005524 <GPIO_Init>
 8002d86:	4638      	mov	r0, r7
 8002d88:	210d      	movs	r1, #13
 8002d8a:	4e22      	ldr	r6, [pc, #136]	; (8002e14 <SensorsInterruptReadInit+0x184>)
 8002d8c:	4f22      	ldr	r7, [pc, #136]	; (8002e18 <SensorsInterruptReadInit+0x188>)
 8002d8e:	f003 f80d 	bl	8005dac <SYSCFG_EXTILineConfig>
 8002d92:	210c      	movs	r1, #12
 8002d94:	a805      	add	r0, sp, #20
 8002d96:	f88d 1019 	strb.w	r1, [sp, #25]
 8002d9a:	f88d 501a 	strb.w	r5, [sp, #26]
 8002d9e:	f8cd 8014 	str.w	r8, [sp, #20]
 8002da2:	f88d 4018 	strb.w	r4, [sp, #24]
 8002da6:	f002 fce5 	bl	8005774 <EXTI_Init>
 8002daa:	a809      	add	r0, sp, #36	; 0x24
 8002dac:	f88d 5027 	strb.w	r5, [sp, #39]	; 0x27
 8002db0:	2504      	movs	r5, #4
 8002db2:	f88d a024 	strb.w	sl, [sp, #36]	; 0x24
 8002db6:	f88d 9025 	strb.w	r9, [sp, #37]	; 0x25
 8002dba:	f88d 4026 	strb.w	r4, [sp, #38]	; 0x26
 8002dbe:	f004 fc29 	bl	8007614 <NVIC_Init>
 8002dc2:	8034      	strh	r4, [r6, #0]
 8002dc4:	2280      	movs	r2, #128	; 0x80
 8002dc6:	8074      	strh	r4, [r6, #2]
 8002dc8:	4623      	mov	r3, r4
 8002dca:	9500      	str	r5, [sp, #0]
 8002dcc:	4913      	ldr	r1, [pc, #76]	; (8002e1c <SensorsInterruptReadInit+0x18c>)
 8002dce:	80b4      	strh	r4, [r6, #4]
 8002dd0:	4813      	ldr	r0, [pc, #76]	; (8002e20 <SensorsInterruptReadInit+0x190>)
 8002dd2:	9701      	str	r7, [sp, #4]
 8002dd4:	80f4      	strh	r4, [r6, #6]
 8002dd6:	9402      	str	r4, [sp, #8]
 8002dd8:	8134      	strh	r4, [r6, #8]
 8002dda:	9403      	str	r4, [sp, #12]
 8002ddc:	8174      	strh	r4, [r6, #10]
 8002dde:	81b4      	strh	r4, [r6, #12]
 8002de0:	81f4      	strh	r4, [r6, #14]
 8002de2:	8234      	strh	r4, [r6, #16]
 8002de4:	6174      	str	r4, [r6, #20]
 8002de6:	f001 fab3 	bl	8004350 <xTaskGenericCreate>
 8002dea:	480e      	ldr	r0, [pc, #56]	; (8002e24 <SensorsInterruptReadInit+0x194>)
 8002dec:	490e      	ldr	r1, [pc, #56]	; (8002e28 <SensorsInterruptReadInit+0x198>)
 8002dee:	9001      	str	r0, [sp, #4]
 8002df0:	2280      	movs	r2, #128	; 0x80
 8002df2:	4623      	mov	r3, r4
 8002df4:	480d      	ldr	r0, [pc, #52]	; (8002e2c <SensorsInterruptReadInit+0x19c>)
 8002df6:	9500      	str	r5, [sp, #0]
 8002df8:	9402      	str	r4, [sp, #8]
 8002dfa:	9403      	str	r4, [sp, #12]
 8002dfc:	f001 faa8 	bl	8004350 <xTaskGenericCreate>
 8002e00:	b00a      	add	sp, #40	; 0x28
 8002e02:	e8bd 87f0 	ldmia.w	sp!, {r4, r5, r6, r7, r8, r9, sl, pc}
 8002e06:	e7fe      	b.n	8002e06 <SensorsInterruptReadInit+0x176>
 8002e08:	e7fe      	b.n	8002e08 <SensorsInterruptReadInit+0x178>
 8002e0a:	bf00      	nop
 8002e0c:	20001150 	andcs	r1, r0, r0, asr r1
 8002e10:	20001138 	andcs	r1, r0, r8, lsr r1
 8002e14:	20001154 	andcs	r1, r0, r4, asr r1
 8002e18:	2000113c 	andcs	r1, r0, ip, lsr r1
 8002e1c:	0800ac64 	stmdaeq	r0, {r2, r5, r6, sl, fp, sp, pc}
 8002e20:	08002b01 	stmdaeq	r0, {r0, r8, r9, fp, sp}
 8002e24:	20001174 	andcs	r1, r0, r4, ror r1
 8002e28:	0800ac78 	stmdaeq	r0, {r3, r4, r5, r6, sl, fp, sp, pc}
 8002e2c:	08002a9d 	stmdaeq	r0, {r0, r2, r3, r4, r7, r9, fp, sp}

08002e30 <EXTI15_10_IRQHandler>:
 8002e30:	b508      	push	{r3, lr}
 8002e32:	f44f 5000 	mov.w	r0, #8192	; 0x2000
 8002e36:	f002 fd01 	bl	800583c <EXTI_GetITStatus>
 8002e3a:	b980      	cbnz	r0, 8002e5e <EXTI15_10_IRQHandler+0x2e>
 8002e3c:	f44f 4080 	mov.w	r0, #16384	; 0x4000
 8002e40:	f002 fcfc 	bl	800583c <EXTI_GetITStatus>
 8002e44:	b900      	cbnz	r0, 8002e48 <EXTI15_10_IRQHandler+0x18>
 8002e46:	bd08      	pop	{r3, pc}
 8002e48:	480d      	ldr	r0, [pc, #52]	; (8002e80 <EXTI15_10_IRQHandler+0x50>)
 8002e4a:	6800      	ldr	r0, [r0, #0]
 8002e4c:	f001 fbb0 	bl	80045b0 <xTaskResumeFromISR>
 8002e50:	b978      	cbnz	r0, 8002e72 <EXTI15_10_IRQHandler+0x42>
 8002e52:	f44f 4080 	mov.w	r0, #16384	; 0x4000
 8002e56:	e8bd 4008 	ldmia.w	sp!, {r3, lr}
 8002e5a:	f002 bcff 	b.w	800585c <EXTI_ClearITPendingBit>
 8002e5e:	4b09      	ldr	r3, [pc, #36]	; (8002e84 <EXTI15_10_IRQHandler+0x54>)
 8002e60:	6818      	ldr	r0, [r3, #0]
 8002e62:	f001 fba5 	bl	80045b0 <xTaskResumeFromISR>
 8002e66:	b938      	cbnz	r0, 8002e78 <EXTI15_10_IRQHandler+0x48>
 8002e68:	f44f 5000 	mov.w	r0, #8192	; 0x2000
 8002e6c:	f002 fcf6 	bl	800585c <EXTI_ClearITPendingBit>
 8002e70:	e7e4      	b.n	8002e3c <EXTI15_10_IRQHandler+0xc>
 8002e72:	f002 fa2f 	bl	80052d4 <vPortYieldFromISR>
 8002e76:	e7ec      	b.n	8002e52 <EXTI15_10_IRQHandler+0x22>
 8002e78:	f002 fa2c 	bl	80052d4 <vPortYieldFromISR>
 8002e7c:	e7f4      	b.n	8002e68 <EXTI15_10_IRQHandler+0x38>
 8002e7e:	bf00      	nop
 8002e80:	2000113c 	andcs	r1, r0, ip, lsr r1
 8002e84:	20001174 	andcs	r1, r0, r4, ror r1

08002e88 <vRxData>:
 8002e88:	b570      	push	{r4, r5, r6, lr}
 8002e8a:	460c      	mov	r4, r1
 8002e8c:	4605      	mov	r5, r0
 8002e8e:	2101      	movs	r1, #1
 8002e90:	480c      	ldr	r0, [pc, #48]	; (8002ec4 <vRxData+0x3c>)
 8002e92:	f7fe fad9 	bl	8001448 <xUSBSendData>
 8002e96:	f8d4 0104 	ldr.w	r0, [r4, #260]	; 0x104
 8002e9a:	7866      	ldrb	r6, [r4, #1]
 8002e9c:	f243 2269 	movw	r2, #12905	; 0x3269
 8002ea0:	f642 6389 	movw	r3, #11913	; 0x2e89
 8002ea4:	1c41      	adds	r1, r0, #1
 8002ea6:	3604      	adds	r6, #4
 8002ea8:	1820      	adds	r0, r4, r0
 8002eaa:	f6c0 0200 	movt	r2, #2048	; 0x800
 8002eae:	f6c0 0300 	movt	r3, #2048	; 0x800
 8002eb2:	42b1      	cmp	r1, r6
 8002eb4:	bf28      	it	cs
 8002eb6:	4613      	movcs	r3, r2
 8002eb8:	7085      	strb	r5, [r0, #2]
 8002eba:	f8c4 1104 	str.w	r1, [r4, #260]	; 0x104
 8002ebe:	f8c4 3110 	str.w	r3, [r4, #272]	; 0x110
 8002ec2:	bd70      	pop	{r4, r5, r6, pc}
 8002ec4:	0800ac8c 	stmdaeq	r0, {r2, r3, r7, sl, fp, sp, pc}

08002ec8 <vRxCmd>:
 8002ec8:	b570      	push	{r4, r5, r6, lr}
 8002eca:	460c      	mov	r4, r1
 8002ecc:	4605      	mov	r5, r0
 8002ece:	2101      	movs	r1, #1
 8002ed0:	487e      	ldr	r0, [pc, #504]	; (80030cc <vRxCmd+0x204>)
 8002ed2:	f7fe fab9 	bl	8001448 <xUSBSendData>
 8002ed6:	f8d4 3104 	ldr.w	r3, [r4, #260]	; 0x104
 8002eda:	f025 0640 	bic.w	r6, r5, #64	; 0x40
 8002ede:	18e0      	adds	r0, r4, r3
 8002ee0:	1eb2      	subs	r2, r6, #2
 8002ee2:	4e7b      	ldr	r6, [pc, #492]	; (80030d0 <vRxCmd+0x208>)
 8002ee4:	7085      	strb	r5, [r0, #2]
 8002ee6:	1c59      	adds	r1, r3, #1
 8002ee8:	f8c4 6110 	str.w	r6, [r4, #272]	; 0x110
 8002eec:	f8c4 1104 	str.w	r1, [r4, #260]	; 0x104
 8002ef0:	2aa4      	cmp	r2, #164	; 0xa4
 8002ef2:	f200 80db 	bhi.w	80030ac <vRxCmd+0x1e4>
 8002ef6:	e8df f012 	tbh	[pc, r2, lsl #1]
 8002efa:	00b000a5 	adcseq	r0, r0, r5, lsr #1
 8002efe:	00aa00a5 	adceq	r0, sl, r5, lsr #1
 8002f02:	00b000b6 	ldrhteq	r0, [r0], r6
 8002f06:	00b000b6 	ldrhteq	r0, [r0], r6
 8002f0a:	00a500a5 	adceq	r0, r5, r5, lsr #1
 8002f0e:	00bc00e2 	adcseq	r0, ip, r2, ror #1
 8002f12:	00a500a5 	adceq	r0, r5, r5, lsr #1
 8002f16:	00a500aa 	adceq	r0, r5, sl, lsr #1
 8002f1a:	00a500aa 	adceq	r0, r5, sl, lsr #1
 8002f1e:	00a500a5 	adceq	r0, r5, r5, lsr #1
 8002f22:	00aa00a5 	adceq	r0, sl, r5, lsr #1
 8002f26:	00c800c2 	sbceq	r0, r8, r2, asr #1
 8002f2a:	00d900d9 	ldrsbeq	r0, [r9], #9
 8002f2e:	00d900d9 	ldrsbeq	r0, [r9], #9
 8002f32:	00d900d9 	ldrsbeq	r0, [r9], #9
 8002f36:	00d900d9 	ldrsbeq	r0, [r9], #9
 8002f3a:	00d900d9 	ldrsbeq	r0, [r9], #9
 8002f3e:	00d900d9 	ldrsbeq	r0, [r9], #9
 8002f42:	00d900d9 	ldrsbeq	r0, [r9], #9
 8002f46:	00d900d9 	ldrsbeq	r0, [r9], #9
 8002f4a:	00d900d9 	ldrsbeq	r0, [r9], #9
 8002f4e:	00d900d9 	ldrsbeq	r0, [r9], #9
 8002f52:	00d900d9 	ldrsbeq	r0, [r9], #9
 8002f56:	00d900d9 	ldrsbeq	r0, [r9], #9
 8002f5a:	00d900d9 	ldrsbeq	r0, [r9], #9
 8002f5e:	00d900d9 	ldrsbeq	r0, [r9], #9
 8002f62:	00d900d9 	ldrsbeq	r0, [r9], #9
 8002f66:	00d900d9 	ldrsbeq	r0, [r9], #9
 8002f6a:	00d900d9 	ldrsbeq	r0, [r9], #9
 8002f6e:	00d900d9 	ldrsbeq	r0, [r9], #9
 8002f72:	00d900d9 	ldrsbeq	r0, [r9], #9
 8002f76:	00d900d9 	ldrsbeq	r0, [r9], #9
 8002f7a:	00d900d9 	ldrsbeq	r0, [r9], #9
 8002f7e:	00d900d9 	ldrsbeq	r0, [r9], #9
 8002f82:	00d900d9 	ldrsbeq	r0, [r9], #9
 8002f86:	00d900d9 	ldrsbeq	r0, [r9], #9
 8002f8a:	00d900d9 	ldrsbeq	r0, [r9], #9
 8002f8e:	00d900d9 	ldrsbeq	r0, [r9], #9
 8002f92:	00d900d9 	ldrsbeq	r0, [r9], #9
 8002f96:	00d900d9 	ldrsbeq	r0, [r9], #9
 8002f9a:	00d900d9 	ldrsbeq	r0, [r9], #9
 8002f9e:	00d900d9 	ldrsbeq	r0, [r9], #9
 8002fa2:	00d900d9 	ldrsbeq	r0, [r9], #9
 8002fa6:	00d900d9 	ldrsbeq	r0, [r9], #9
 8002faa:	00d900d9 	ldrsbeq	r0, [r9], #9
 8002fae:	00d900d9 	ldrsbeq	r0, [r9], #9
 8002fb2:	00d900d9 	ldrsbeq	r0, [r9], #9
 8002fb6:	00d900d9 	ldrsbeq	r0, [r9], #9
 8002fba:	00d900d9 	ldrsbeq	r0, [r9], #9
 8002fbe:	00d900d9 	ldrsbeq	r0, [r9], #9
 8002fc2:	00d900d9 	ldrsbeq	r0, [r9], #9
 8002fc6:	00d900d9 	ldrsbeq	r0, [r9], #9
 8002fca:	00d900d9 	ldrsbeq	r0, [r9], #9
 8002fce:	00d900d9 	ldrsbeq	r0, [r9], #9
 8002fd2:	00d900d9 	ldrsbeq	r0, [r9], #9
 8002fd6:	00d900d9 	ldrsbeq	r0, [r9], #9
 8002fda:	00d900d9 	ldrsbeq	r0, [r9], #9
 8002fde:	00d900d9 	ldrsbeq	r0, [r9], #9
 8002fe2:	00d900d9 	ldrsbeq	r0, [r9], #9
 8002fe6:	00d900d9 	ldrsbeq	r0, [r9], #9
 8002fea:	00d900d9 	ldrsbeq	r0, [r9], #9
 8002fee:	00d900d9 	ldrsbeq	r0, [r9], #9
 8002ff2:	00d900d9 	ldrsbeq	r0, [r9], #9
 8002ff6:	00d900d9 	ldrsbeq	r0, [r9], #9
 8002ffa:	00d900d9 	ldrsbeq	r0, [r9], #9
 8002ffe:	00d900d9 	ldrsbeq	r0, [r9], #9
 8003002:	00d900d9 	ldrsbeq	r0, [r9], #9
 8003006:	00d900d9 	ldrsbeq	r0, [r9], #9
 800300a:	00d900d9 	ldrsbeq	r0, [r9], #9
 800300e:	00d900d9 	ldrsbeq	r0, [r9], #9
 8003012:	00d900d9 	ldrsbeq	r0, [r9], #9
 8003016:	00d900d9 	ldrsbeq	r0, [r9], #9
 800301a:	00d900d9 	ldrsbeq	r0, [r9], #9
 800301e:	00d900d9 	ldrsbeq	r0, [r9], #9
 8003022:	00d900d9 	ldrsbeq	r0, [r9], #9
 8003026:	00d900d9 	ldrsbeq	r0, [r9], #9
 800302a:	00d900d9 	ldrsbeq	r0, [r9], #9
 800302e:	00d900d9 	ldrsbeq	r0, [r9], #9
 8003032:	00d900d9 	ldrsbeq	r0, [r9], #9
 8003036:	00d900d9 	ldrsbeq	r0, [r9], #9
 800303a:	00d900d9 	ldrsbeq	r0, [r9], #9
 800303e:	00d900d9 	ldrsbeq	r0, [r9], #9
 8003042:	200000ce 	andcs	r0, r0, lr, asr #1
 8003046:	f8c4 0114 	str.w	r0, [r4, #276]	; 0x114
 800304a:	7060      	strb	r0, [r4, #1]
 800304c:	bd70      	pop	{r4, r5, r6, pc}
 800304e:	2200      	movs	r2, #0
 8003050:	2301      	movs	r3, #1
 8003052:	f8c4 2114 	str.w	r2, [r4, #276]	; 0x114
 8003056:	7063      	strb	r3, [r4, #1]
 8003058:	bd70      	pop	{r4, r5, r6, pc}
 800305a:	2100      	movs	r1, #0
 800305c:	22ff      	movs	r2, #255	; 0xff
 800305e:	f8c4 1114 	str.w	r1, [r4, #276]	; 0x114
 8003062:	7062      	strb	r2, [r4, #1]
 8003064:	bd70      	pop	{r4, r5, r6, pc}
 8003066:	2300      	movs	r3, #0
 8003068:	2042      	movs	r0, #66	; 0x42
 800306a:	f8c4 3114 	str.w	r3, [r4, #276]	; 0x114
 800306e:	7060      	strb	r0, [r4, #1]
 8003070:	bd70      	pop	{r4, r5, r6, pc}
 8003072:	4918      	ldr	r1, [pc, #96]	; (80030d4 <vRxCmd+0x20c>)
 8003074:	2200      	movs	r2, #0
 8003076:	f8c4 1114 	str.w	r1, [r4, #276]	; 0x114
 800307a:	7062      	strb	r2, [r4, #1]
 800307c:	bd70      	pop	{r4, r5, r6, pc}
 800307e:	2000      	movs	r0, #0
 8003080:	2102      	movs	r1, #2
 8003082:	f8c4 0114 	str.w	r0, [r4, #276]	; 0x114
 8003086:	7061      	strb	r1, [r4, #1]
 8003088:	bd70      	pop	{r4, r5, r6, pc}
 800308a:	2200      	movs	r2, #0
 800308c:	2303      	movs	r3, #3
 800308e:	f8c4 2114 	str.w	r2, [r4, #276]	; 0x114
 8003092:	7063      	strb	r3, [r4, #1]
 8003094:	bd70      	pop	{r4, r5, r6, pc}
 8003096:	f8d4 1108 	ldr.w	r1, [r4, #264]	; 0x108
 800309a:	4a0f      	ldr	r2, [pc, #60]	; (80030d8 <vRxCmd+0x210>)
 800309c:	f8c4 3104 	str.w	r3, [r4, #260]	; 0x104
 80030a0:	1c4b      	adds	r3, r1, #1
 80030a2:	f8c4 2110 	str.w	r2, [r4, #272]	; 0x110
 80030a6:	f8c4 3108 	str.w	r3, [r4, #264]	; 0x108
 80030aa:	bd70      	pop	{r4, r5, r6, pc}
 80030ac:	f8d4 3108 	ldr.w	r3, [r4, #264]	; 0x108
 80030b0:	480a      	ldr	r0, [pc, #40]	; (80030dc <vRxCmd+0x214>)
 80030b2:	1c59      	adds	r1, r3, #1
 80030b4:	f8c4 0110 	str.w	r0, [r4, #272]	; 0x110
 80030b8:	f8c4 1108 	str.w	r1, [r4, #264]	; 0x108
 80030bc:	bd70      	pop	{r4, r5, r6, pc}
 80030be:	4b08      	ldr	r3, [pc, #32]	; (80030e0 <vRxCmd+0x218>)
 80030c0:	2000      	movs	r0, #0
 80030c2:	f8c4 3114 	str.w	r3, [r4, #276]	; 0x114
 80030c6:	7060      	strb	r0, [r4, #1]
 80030c8:	bd70      	pop	{r4, r5, r6, pc}
 80030ca:	bf00      	nop
 80030cc:	0800ac90 	stmdaeq	r0, {r4, r7, sl, fp, sp, pc}
 80030d0:	08003189 	stmdaeq	r0, {r0, r3, r7, r8, ip, sp}
 80030d4:	08003425 	stmdaeq	r0, {r0, r2, r5, sl, ip, sp}
 80030d8:	08002ec9 	stmdaeq	r0, {r0, r3, r6, r7, r9, sl, fp, sp}
 80030dc:	080031d9 	stmdaeq	r0, {r0, r3, r4, r6, r7, r8, ip, sp}
 80030e0:	08003379 	stmdaeq	r0, {r0, r3, r4, r5, r6, r8, r9, ip, sp}

080030e4 <vWaitingForSYNCorCMD>:
 80030e4:	b538      	push	{r3, r4, r5, lr}
 80030e6:	4605      	mov	r5, r0
 80030e8:	460c      	mov	r4, r1
 80030ea:	480b      	ldr	r0, [pc, #44]	; (8003118 <vWaitingForSYNCorCMD+0x34>)
 80030ec:	2101      	movs	r1, #1
 80030ee:	f7fe f9ab 	bl	8001448 <xUSBSendData>
 80030f2:	2da6      	cmp	r5, #166	; 0xa6
 80030f4:	d009      	beq.n	800310a <vWaitingForSYNCorCMD+0x26>
 80030f6:	21a6      	movs	r1, #166	; 0xa6
 80030f8:	2001      	movs	r0, #1
 80030fa:	70a1      	strb	r1, [r4, #2]
 80030fc:	f8c4 0104 	str.w	r0, [r4, #260]	; 0x104
 8003100:	4621      	mov	r1, r4
 8003102:	4628      	mov	r0, r5
 8003104:	e8bd 4038 	ldmia.w	sp!, {r3, r4, r5, lr}
 8003108:	e6de      	b.n	8002ec8 <vRxCmd>
 800310a:	f8d4 310c 	ldr.w	r3, [r4, #268]	; 0x10c
 800310e:	4628      	mov	r0, r5
 8003110:	4621      	mov	r1, r4
 8003112:	4798      	blx	r3
 8003114:	bd38      	pop	{r3, r4, r5, pc}
 8003116:	bf00      	nop
 8003118:	0800ac94 	stmdaeq	r0, {r2, r4, r7, sl, fp, sp, pc}

0800311c <vTaskUSBSerialManager>:
 800311c:	e92d 41f0 	stmdb	sp!, {r4, r5, r6, r7, r8, lr}
 8003120:	4d15      	ldr	r5, [pc, #84]	; (8003178 <vTaskUSBSerialManager+0x5c>)
 8003122:	4e16      	ldr	r6, [pc, #88]	; (800317c <vTaskUSBSerialManager+0x60>)
 8003124:	4c16      	ldr	r4, [pc, #88]	; (8003180 <vTaskUSBSerialManager+0x64>)
 8003126:	4f17      	ldr	r7, [pc, #92]	; (8003184 <vTaskUSBSerialManager+0x68>)
 8003128:	b0c8      	sub	sp, #288	; 0x120
 800312a:	2300      	movs	r3, #0
 800312c:	9545      	str	r5, [sp, #276]	; 0x114
 800312e:	f88d 3004 	strb.w	r3, [sp, #4]
 8003132:	9344      	str	r3, [sp, #272]	; 0x110
 8003134:	9346      	str	r3, [sp, #280]	; 0x118
 8003136:	9343      	str	r3, [sp, #268]	; 0x10c
 8003138:	46b0      	mov	r8, r6
 800313a:	a947      	add	r1, sp, #284	; 0x11c
 800313c:	2300      	movs	r3, #0
 800313e:	3103      	adds	r1, #3
 8003140:	6820      	ldr	r0, [r4, #0]
 8003142:	f04f 32ff 	mov.w	r2, #4294967295
 8003146:	f001 fec9 	bl	8004edc <xQueueGenericReceive>
 800314a:	f89d 011f 	ldrb.w	r0, [sp, #287]	; 0x11f
 800314e:	9b45      	ldr	r3, [sp, #276]	; 0x114
 8003150:	28a6      	cmp	r0, #166	; 0xa6
 8003152:	d002      	beq.n	800315a <vTaskUSBSerialManager+0x3e>
 8003154:	a901      	add	r1, sp, #4
 8003156:	4798      	blx	r3
 8003158:	e7ef      	b.n	800313a <vTaskUSBSerialManager+0x1e>
 800315a:	42ab      	cmp	r3, r5
 800315c:	d007      	beq.n	800316e <vTaskUSBSerialManager+0x52>
 800315e:	42b3      	cmp	r3, r6
 8003160:	d005      	beq.n	800316e <vTaskUSBSerialManager+0x52>
 8003162:	42bb      	cmp	r3, r7
 8003164:	d003      	beq.n	800316e <vTaskUSBSerialManager+0x52>
 8003166:	9344      	str	r3, [sp, #272]	; 0x110
 8003168:	f8cd 8114 	str.w	r8, [sp, #276]	; 0x114
 800316c:	e7e5      	b.n	800313a <vTaskUSBSerialManager+0x1e>
 800316e:	20a6      	movs	r0, #166	; 0xa6
 8003170:	a901      	add	r1, sp, #4
 8003172:	4798      	blx	r3
 8003174:	e7e1      	b.n	800313a <vTaskUSBSerialManager+0x1e>
 8003176:	bf00      	nop
 8003178:	080031d9 	stmdaeq	r0, {r0, r3, r4, r6, r7, r8, ip, sp}
 800317c:	080030e5 	stmdaeq	r0, {r0, r2, r5, r6, r7, ip, sp}
 8003180:	200005b8 			; <UNDEFINED> instruction: 0x200005b8
 8003184:	08002ec9 	stmdaeq	r0, {r0, r3, r6, r7, r9, sl, fp, sp}

08003188 <vRxSize>:
 8003188:	b538      	push	{r3, r4, r5, lr}
 800318a:	460c      	mov	r4, r1
 800318c:	4605      	mov	r5, r0
 800318e:	2101      	movs	r1, #1
 8003190:	480e      	ldr	r0, [pc, #56]	; (80031cc <vRxSize+0x44>)
 8003192:	f7fe f959 	bl	8001448 <xUSBSendData>
 8003196:	7863      	ldrb	r3, [r4, #1]
 8003198:	42ab      	cmp	r3, r5
 800319a:	d00a      	beq.n	80031b2 <vRxSize+0x2a>
 800319c:	2bff      	cmp	r3, #255	; 0xff
 800319e:	d008      	beq.n	80031b2 <vRxSize+0x2a>
 80031a0:	f8d4 1108 	ldr.w	r1, [r4, #264]	; 0x108
 80031a4:	4a0a      	ldr	r2, [pc, #40]	; (80031d0 <vRxSize+0x48>)
 80031a6:	1c4b      	adds	r3, r1, #1
 80031a8:	f8c4 2110 	str.w	r2, [r4, #272]	; 0x110
 80031ac:	f8c4 3108 	str.w	r3, [r4, #264]	; 0x108
 80031b0:	bd38      	pop	{r3, r4, r5, pc}
 80031b2:	f8d4 0104 	ldr.w	r0, [r4, #260]	; 0x104
 80031b6:	4907      	ldr	r1, [pc, #28]	; (80031d4 <vRxSize+0x4c>)
 80031b8:	7065      	strb	r5, [r4, #1]
 80031ba:	1822      	adds	r2, r4, r0
 80031bc:	1c43      	adds	r3, r0, #1
 80031be:	f8c4 1110 	str.w	r1, [r4, #272]	; 0x110
 80031c2:	7095      	strb	r5, [r2, #2]
 80031c4:	f8c4 3104 	str.w	r3, [r4, #260]	; 0x104
 80031c8:	bd38      	pop	{r3, r4, r5, pc}
 80031ca:	bf00      	nop
 80031cc:	0800ac98 	stmdaeq	r0, {r3, r4, r7, sl, fp, sp, pc}
 80031d0:	080031d9 	stmdaeq	r0, {r0, r3, r4, r6, r7, r8, ip, sp}
 80031d4:	080032f5 	stmdaeq	r0, {r0, r2, r4, r5, r6, r7, r9, ip, sp}

080031d8 <vWaitingForSYNC>:
 80031d8:	b538      	push	{r3, r4, r5, lr}
 80031da:	4604      	mov	r4, r0
 80031dc:	460d      	mov	r5, r1
 80031de:	4807      	ldr	r0, [pc, #28]	; (80031fc <vWaitingForSYNC+0x24>)
 80031e0:	2101      	movs	r1, #1
 80031e2:	f7fe f931 	bl	8001448 <xUSBSendData>
 80031e6:	2ca6      	cmp	r4, #166	; 0xa6
 80031e8:	d106      	bne.n	80031f8 <vWaitingForSYNC+0x20>
 80031ea:	4b05      	ldr	r3, [pc, #20]	; (8003200 <vWaitingForSYNC+0x28>)
 80031ec:	70ac      	strb	r4, [r5, #2]
 80031ee:	2001      	movs	r0, #1
 80031f0:	f8c5 0104 	str.w	r0, [r5, #260]	; 0x104
 80031f4:	f8c5 3110 	str.w	r3, [r5, #272]	; 0x110
 80031f8:	bd38      	pop	{r3, r4, r5, pc}
 80031fa:	bf00      	nop
 80031fc:	0800ac9c 	stmdaeq	r0, {r2, r3, r4, r7, sl, fp, sp, pc}
 8003200:	08002ec9 	stmdaeq	r0, {r0, r3, r6, r7, r9, sl, fp, sp}

08003204 <vSerialManagerInit>:
 8003204:	b500      	push	{lr}
 8003206:	b085      	sub	sp, #20
 8003208:	f7fe f910 	bl	800142c <vUSBQueueInit>
 800320c:	2300      	movs	r3, #0
 800320e:	2201      	movs	r2, #1
 8003210:	f243 101d 	movw	r0, #12573	; 0x311d
 8003214:	f64a 41a0 	movw	r1, #44192	; 0xaca0
 8003218:	e88d 000c 	stmia.w	sp, {r2, r3}
 800321c:	f6c0 0100 	movt	r1, #2048	; 0x800
 8003220:	f44f 7200 	mov.w	r2, #512	; 0x200
 8003224:	f6c0 0000 	movt	r0, #2048	; 0x800
 8003228:	9302      	str	r3, [sp, #8]
 800322a:	9303      	str	r3, [sp, #12]
 800322c:	f001 f890 	bl	8004350 <xTaskGenericCreate>
 8003230:	b005      	add	sp, #20
 8003232:	bd00      	pop	{pc}

08003234 <vReturnACK>:
 8003234:	b510      	push	{r4, lr}
 8003236:	b082      	sub	sp, #8
 8003238:	22a6      	movs	r2, #166	; 0xa6
 800323a:	2301      	movs	r3, #1
 800323c:	4604      	mov	r4, r0
 800323e:	f88d 2004 	strb.w	r2, [sp, #4]
 8003242:	a801      	add	r0, sp, #4
 8003244:	2200      	movs	r2, #0
 8003246:	2103      	movs	r1, #3
 8003248:	f88d 3005 	strb.w	r3, [sp, #5]
 800324c:	f88d 2006 	strb.w	r2, [sp, #6]
 8003250:	f7fe f90e 	bl	8001470 <CRC8>
 8003254:	7823      	ldrb	r3, [r4, #0]
 8003256:	f88d 0007 	strb.w	r0, [sp, #7]
 800325a:	b91b      	cbnz	r3, 8003264 <vReturnACK+0x30>
 800325c:	a801      	add	r0, sp, #4
 800325e:	2104      	movs	r1, #4
 8003260:	f7fe f8f2 	bl	8001448 <xUSBSendData>
 8003264:	b002      	add	sp, #8
 8003266:	bd10      	pop	{r4, pc}

08003268 <vRxCRC16>:
 8003268:	b538      	push	{r3, r4, r5, lr}
 800326a:	460c      	mov	r4, r1
 800326c:	4605      	mov	r5, r0
 800326e:	2101      	movs	r1, #1
 8003270:	481c      	ldr	r0, [pc, #112]	; (80032e4 <vRxCRC16+0x7c>)
 8003272:	f7fe f8e9 	bl	8001448 <xUSBSendData>
 8003276:	f8d4 1104 	ldr.w	r1, [r4, #260]	; 0x104
 800327a:	7862      	ldrb	r2, [r4, #1]
 800327c:	1c4b      	adds	r3, r1, #1
 800327e:	1860      	adds	r0, r4, r1
 8003280:	3206      	adds	r2, #6
 8003282:	4293      	cmp	r3, r2
 8003284:	7085      	strb	r5, [r0, #2]
 8003286:	f8c4 3104 	str.w	r3, [r4, #260]	; 0x104
 800328a:	d203      	bcs.n	8003294 <vRxCRC16+0x2c>
 800328c:	4916      	ldr	r1, [pc, #88]	; (80032e8 <vRxCRC16+0x80>)
 800328e:	f8c4 1110 	str.w	r1, [r4, #272]	; 0x110
 8003292:	bd38      	pop	{r3, r4, r5, pc}
 8003294:	3901      	subs	r1, #1
 8003296:	eb04 0e01 	add.w	lr, r4, r1
 800329a:	4b14      	ldr	r3, [pc, #80]	; (80032ec <vRxCRC16+0x84>)
 800329c:	f89e c002 	ldrb.w	ip, [lr, #2]
 80032a0:	f8c4 3110 	str.w	r3, [r4, #272]	; 0x110
 80032a4:	1ca0      	adds	r0, r4, #2
 80032a6:	ea45 250c 	orr.w	r5, r5, ip, lsl #8
 80032aa:	f7fe f90d 	bl	80014c8 <CRC16>
 80032ae:	42a8      	cmp	r0, r5
 80032b0:	d005      	beq.n	80032be <vRxCRC16+0x56>
 80032b2:	f8d4 1108 	ldr.w	r1, [r4, #264]	; 0x108
 80032b6:	1c4a      	adds	r2, r1, #1
 80032b8:	f8c4 2108 	str.w	r2, [r4, #264]	; 0x108
 80032bc:	bd38      	pop	{r3, r4, r5, pc}
 80032be:	78e0      	ldrb	r0, [r4, #3]
 80032c0:	0643      	lsls	r3, r0, #25
 80032c2:	d40a      	bmi.n	80032da <vRxCRC16+0x72>
 80032c4:	f8d4 3114 	ldr.w	r3, [r4, #276]	; 0x114
 80032c8:	b10b      	cbz	r3, 80032ce <vRxCRC16+0x66>
 80032ca:	4620      	mov	r0, r4
 80032cc:	4798      	blx	r3
 80032ce:	4808      	ldr	r0, [pc, #32]	; (80032f0 <vRxCRC16+0x88>)
 80032d0:	2102      	movs	r1, #2
 80032d2:	e8bd 4038 	ldmia.w	sp!, {r3, r4, r5, lr}
 80032d6:	f7fe b8b7 	b.w	8001448 <xUSBSendData>
 80032da:	4620      	mov	r0, r4
 80032dc:	f7ff ffaa 	bl	8003234 <vReturnACK>
 80032e0:	e7f0      	b.n	80032c4 <vRxCRC16+0x5c>
 80032e2:	bf00      	nop
 80032e4:	0800acb4 	stmdaeq	r0, {r2, r4, r5, r7, sl, fp, sp, pc}
 80032e8:	08003269 	stmdaeq	r0, {r0, r3, r5, r6, r9, ip, sp}
 80032ec:	080031d9 	stmdaeq	r0, {r0, r3, r4, r6, r7, r8, ip, sp}
 80032f0:	0800acb8 	stmdaeq	r0, {r3, r4, r5, r7, sl, fp, sp, pc}

080032f4 <vRxCRC8>:
 80032f4:	b538      	push	{r3, r4, r5, lr}
 80032f6:	460c      	mov	r4, r1
 80032f8:	4605      	mov	r5, r0
 80032fa:	2101      	movs	r1, #1
 80032fc:	481a      	ldr	r0, [pc, #104]	; (8003368 <vRxCRC8+0x74>)
 80032fe:	f7fe f8a3 	bl	8001448 <xUSBSendData>
 8003302:	f8d4 0104 	ldr.w	r0, [r4, #260]	; 0x104
 8003306:	1822      	adds	r2, r4, r0
 8003308:	1c43      	adds	r3, r0, #1
 800330a:	2103      	movs	r1, #3
 800330c:	1ca0      	adds	r0, r4, #2
 800330e:	7095      	strb	r5, [r2, #2]
 8003310:	f8c4 3104 	str.w	r3, [r4, #260]	; 0x104
 8003314:	f7fe f8ac 	bl	8001470 <CRC8>
 8003318:	42a8      	cmp	r0, r5
 800331a:	d008      	beq.n	800332e <vRxCRC8+0x3a>
 800331c:	f8d4 3108 	ldr.w	r3, [r4, #264]	; 0x108
 8003320:	4912      	ldr	r1, [pc, #72]	; (800336c <vRxCRC8+0x78>)
 8003322:	1c58      	adds	r0, r3, #1
 8003324:	f8c4 1110 	str.w	r1, [r4, #272]	; 0x110
 8003328:	f8c4 0108 	str.w	r0, [r4, #264]	; 0x108
 800332c:	bd38      	pop	{r3, r4, r5, pc}
 800332e:	7861      	ldrb	r1, [r4, #1]
 8003330:	b991      	cbnz	r1, 8003358 <vRxCRC8+0x64>
 8003332:	f894 c003 	ldrb.w	ip, [r4, #3]
 8003336:	4b0d      	ldr	r3, [pc, #52]	; (800336c <vRxCRC8+0x78>)
 8003338:	ea5f 624c 	movs.w	r2, ip, lsl #25
 800333c:	f8c4 3110 	str.w	r3, [r4, #272]	; 0x110
 8003340:	d40e      	bmi.n	8003360 <vRxCRC8+0x6c>
 8003342:	f8d4 3114 	ldr.w	r3, [r4, #276]	; 0x114
 8003346:	b10b      	cbz	r3, 800334c <vRxCRC8+0x58>
 8003348:	4620      	mov	r0, r4
 800334a:	4798      	blx	r3
 800334c:	4808      	ldr	r0, [pc, #32]	; (8003370 <vRxCRC8+0x7c>)
 800334e:	2102      	movs	r1, #2
 8003350:	e8bd 4038 	ldmia.w	sp!, {r3, r4, r5, lr}
 8003354:	f7fe b878 	b.w	8001448 <xUSBSendData>
 8003358:	4a06      	ldr	r2, [pc, #24]	; (8003374 <vRxCRC8+0x80>)
 800335a:	f8c4 2110 	str.w	r2, [r4, #272]	; 0x110
 800335e:	bd38      	pop	{r3, r4, r5, pc}
 8003360:	4620      	mov	r0, r4
 8003362:	f7ff ff67 	bl	8003234 <vReturnACK>
 8003366:	e7ec      	b.n	8003342 <vRxCRC8+0x4e>
 8003368:	0800acbc 	stmdaeq	r0, {r2, r3, r4, r5, r7, sl, fp, sp, pc}
 800336c:	080031d9 	stmdaeq	r0, {r0, r3, r4, r6, r7, r8, ip, sp}
 8003370:	0800acb8 	stmdaeq	r0, {r3, r4, r5, r7, sl, fp, sp, pc}
 8003374:	08002e89 	stmdaeq	r0, {r0, r3, r7, r9, sl, fp, sp}

08003378 <vGetBootloaderVersion>:
 8003378:	e92d 41f0 	stmdb	sp!, {r4, r5, r6, r7, r8, lr}
 800337c:	f44f 74c2 	mov.w	r4, #388	; 0x184
 8003380:	f6c0 0400 	movt	r4, #2048	; 0x800
 8003384:	b0a0      	sub	sp, #128	; 0x80
 8003386:	7823      	ldrb	r3, [r4, #0]
 8003388:	21a6      	movs	r1, #166	; 0xa6
 800338a:	220c      	movs	r2, #12
 800338c:	f88d 1000 	strb.w	r1, [sp]
 8003390:	4607      	mov	r7, r0
 8003392:	f88d 2001 	strb.w	r2, [sp, #1]
 8003396:	2b00      	cmp	r3, #0
 8003398:	d03c      	beq.n	8003414 <vGetBootloaderVersion+0x9c>
 800339a:	f240 1387 	movw	r3, #391	; 0x187
 800339e:	f6c0 0300 	movt	r3, #2048	; 0x800
 80033a2:	2404      	movs	r4, #4
 80033a4:	466d      	mov	r5, sp
 80033a6:	e006      	b.n	80033b6 <vGetBootloaderVersion+0x3e>
 80033a8:	785a      	ldrb	r2, [r3, #1]
 80033aa:	3301      	adds	r3, #1
 80033ac:	552a      	strb	r2, [r5, r4]
 80033ae:	3401      	adds	r4, #1
 80033b0:	b13a      	cbz	r2, 80033c2 <vGetBootloaderVersion+0x4a>
 80033b2:	2c28      	cmp	r4, #40	; 0x28
 80033b4:	d029      	beq.n	800340a <vGetBootloaderVersion+0x92>
 80033b6:	7858      	ldrb	r0, [r3, #1]
 80033b8:	3301      	adds	r3, #1
 80033ba:	5528      	strb	r0, [r5, r4]
 80033bc:	3401      	adds	r4, #1
 80033be:	2800      	cmp	r0, #0
 80033c0:	d1f2      	bne.n	80033a8 <vGetBootloaderVersion+0x30>
 80033c2:	1f66      	subs	r6, r4, #5
 80033c4:	b2f3      	uxtb	r3, r6
 80033c6:	f104 38ff 	add.w	r8, r4, #4294967295
 80033ca:	1c66      	adds	r6, r4, #1
 80033cc:	2103      	movs	r1, #3
 80033ce:	4668      	mov	r0, sp
 80033d0:	f88d 3002 	strb.w	r3, [sp, #2]
 80033d4:	f7fe f84c 	bl	8001470 <CRC8>
 80033d8:	4641      	mov	r1, r8
 80033da:	4603      	mov	r3, r0
 80033dc:	4668      	mov	r0, sp
 80033de:	f88d 3003 	strb.w	r3, [sp, #3]
 80033e2:	f7fe f871 	bl	80014c8 <CRC16>
 80033e6:	aa20      	add	r2, sp, #128	; 0x80
 80033e8:	1914      	adds	r4, r2, r4
 80033ea:	eb02 0c06 	add.w	ip, r2, r6
 80033ee:	783b      	ldrb	r3, [r7, #0]
 80033f0:	0a01      	lsrs	r1, r0, #8
 80033f2:	f804 1c80 	strb.w	r1, [r4, #-128]
 80033f6:	f80c 0c80 	strb.w	r0, [ip, #-128]
 80033fa:	b91b      	cbnz	r3, 8003404 <vGetBootloaderVersion+0x8c>
 80033fc:	4668      	mov	r0, sp
 80033fe:	4631      	mov	r1, r6
 8003400:	f7fe f822 	bl	8001448 <xUSBSendData>
 8003404:	b020      	add	sp, #128	; 0x80
 8003406:	e8bd 81f0 	ldmia.w	sp!, {r4, r5, r6, r7, r8, pc}
 800340a:	2629      	movs	r6, #41	; 0x29
 800340c:	f04f 0827 	mov.w	r8, #39	; 0x27
 8003410:	2323      	movs	r3, #35	; 0x23
 8003412:	e7db      	b.n	80033cc <vGetBootloaderVersion+0x54>
 8003414:	2605      	movs	r6, #5
 8003416:	f04f 0803 	mov.w	r8, #3
 800341a:	23ff      	movs	r3, #255	; 0xff
 800341c:	2404      	movs	r4, #4
 800341e:	466d      	mov	r5, sp
 8003420:	e7d4      	b.n	80033cc <vGetBootloaderVersion+0x54>
 8003422:	bf00      	nop

08003424 <vGetFirmwareVersion>:
 8003424:	e92d 41f0 	stmdb	sp!, {r4, r5, r6, r7, r8, lr}
 8003428:	f44f 74c2 	mov.w	r4, #388	; 0x184
 800342c:	f6c0 0400 	movt	r4, #2048	; 0x800
 8003430:	b0a0      	sub	sp, #128	; 0x80
 8003432:	7823      	ldrb	r3, [r4, #0]
 8003434:	21a6      	movs	r1, #166	; 0xa6
 8003436:	220d      	movs	r2, #13
 8003438:	f88d 1000 	strb.w	r1, [sp]
 800343c:	4607      	mov	r7, r0
 800343e:	f88d 2001 	strb.w	r2, [sp, #1]
 8003442:	2b00      	cmp	r3, #0
 8003444:	d03c      	beq.n	80034c0 <vGetFirmwareVersion+0x9c>
 8003446:	f240 1387 	movw	r3, #391	; 0x187
 800344a:	f6c0 0300 	movt	r3, #2048	; 0x800
 800344e:	2404      	movs	r4, #4
 8003450:	466d      	mov	r5, sp
 8003452:	e006      	b.n	8003462 <vGetFirmwareVersion+0x3e>
 8003454:	785a      	ldrb	r2, [r3, #1]
 8003456:	3301      	adds	r3, #1
 8003458:	552a      	strb	r2, [r5, r4]
 800345a:	3401      	adds	r4, #1
 800345c:	b13a      	cbz	r2, 800346e <vGetFirmwareVersion+0x4a>
 800345e:	2c28      	cmp	r4, #40	; 0x28
 8003460:	d029      	beq.n	80034b6 <vGetFirmwareVersion+0x92>
 8003462:	7858      	ldrb	r0, [r3, #1]
 8003464:	3301      	adds	r3, #1
 8003466:	5528      	strb	r0, [r5, r4]
 8003468:	3401      	adds	r4, #1
 800346a:	2800      	cmp	r0, #0
 800346c:	d1f2      	bne.n	8003454 <vGetFirmwareVersion+0x30>
 800346e:	1f66      	subs	r6, r4, #5
 8003470:	b2f3      	uxtb	r3, r6
 8003472:	f104 38ff 	add.w	r8, r4, #4294967295
 8003476:	1c66      	adds	r6, r4, #1
 8003478:	2103      	movs	r1, #3
 800347a:	4668      	mov	r0, sp
 800347c:	f88d 3002 	strb.w	r3, [sp, #2]
 8003480:	f7fd fff6 	bl	8001470 <CRC8>
 8003484:	4641      	mov	r1, r8
 8003486:	4603      	mov	r3, r0
 8003488:	4668      	mov	r0, sp
 800348a:	f88d 3003 	strb.w	r3, [sp, #3]
 800348e:	f7fe f81b 	bl	80014c8 <CRC16>
 8003492:	aa20      	add	r2, sp, #128	; 0x80
 8003494:	1914      	adds	r4, r2, r4
 8003496:	eb02 0c06 	add.w	ip, r2, r6
 800349a:	783b      	ldrb	r3, [r7, #0]
 800349c:	0a01      	lsrs	r1, r0, #8
 800349e:	f804 1c80 	strb.w	r1, [r4, #-128]
 80034a2:	f80c 0c80 	strb.w	r0, [ip, #-128]
 80034a6:	b91b      	cbnz	r3, 80034b0 <vGetFirmwareVersion+0x8c>
 80034a8:	4668      	mov	r0, sp
 80034aa:	4631      	mov	r1, r6
 80034ac:	f7fd ffcc 	bl	8001448 <xUSBSendData>
 80034b0:	b020      	add	sp, #128	; 0x80
 80034b2:	e8bd 81f0 	ldmia.w	sp!, {r4, r5, r6, r7, r8, pc}
 80034b6:	2629      	movs	r6, #41	; 0x29
 80034b8:	f04f 0827 	mov.w	r8, #39	; 0x27
 80034bc:	2323      	movs	r3, #35	; 0x23
 80034be:	e7db      	b.n	8003478 <vGetFirmwareVersion+0x54>
 80034c0:	2605      	movs	r6, #5
 80034c2:	f04f 0803 	mov.w	r8, #3
 80034c6:	23ff      	movs	r3, #255	; 0xff
 80034c8:	2404      	movs	r4, #4
 80034ca:	466d      	mov	r5, sp
 80034cc:	e7d4      	b.n	8003478 <vGetFirmwareVersion+0x54>
 80034ce:	bf00      	nop

080034d0 <_kill>:
 80034d0:	f04f 30ff 	mov.w	r0, #4294967295
 80034d4:	4770      	bx	lr
 80034d6:	bf00      	nop

080034d8 <_getpid>:
 80034d8:	2001      	movs	r0, #1
 80034da:	4770      	bx	lr

080034dc <_sbrk>:
 80034dc:	4a06      	ldr	r2, [pc, #24]	; (80034f8 <_sbrk+0x1c>)
 80034de:	f241 6378 	movw	r3, #5752	; 0x1678
 80034e2:	6811      	ldr	r1, [r2, #0]
 80034e4:	f2c2 0300 	movt	r3, #8192	; 0x2000
 80034e8:	2900      	cmp	r1, #0
 80034ea:	bf08      	it	eq
 80034ec:	4619      	moveq	r1, r3
 80034ee:	1808      	adds	r0, r1, r0
 80034f0:	6010      	str	r0, [r2, #0]
 80034f2:	4608      	mov	r0, r1
 80034f4:	4770      	bx	lr
 80034f6:	bf00      	nop
 80034f8:	200005cc 	andcs	r0, r0, ip, asr #11

080034fc <_exit>:
 80034fc:	e7fe      	b.n	80034fc <_exit>
 80034fe:	bf00      	nop

08003500 <FastCounterInit>:
 8003500:	b510      	push	{r4, lr}
 8003502:	f240 0e14 	movw	lr, #20
 8003506:	f2c2 0e00 	movt	lr, #8192	; 0x2000
 800350a:	f64d 6c83 	movw	ip, #56963	; 0xde83
 800350e:	f8de 3000 	ldr.w	r3, [lr]
 8003512:	f2c4 3c1b 	movt	ip, #17179	; 0x431b
 8003516:	fbac 3103 	umull	r3, r1, ip, r3
 800351a:	0cc8      	lsrs	r0, r1, #19
 800351c:	2101      	movs	r1, #1
 800351e:	b084      	sub	sp, #16
 8003520:	1e44      	subs	r4, r0, #1
 8003522:	4608      	mov	r0, r1
 8003524:	f002 fb40 	bl	8005ba8 <RCC_APB1PeriphClockCmd>
 8003528:	b2a4      	uxth	r4, r4
 800352a:	2300      	movs	r3, #0
 800352c:	f04f 32ff 	mov.w	r2, #4294967295
 8003530:	a901      	add	r1, sp, #4
 8003532:	f04f 4080 	mov.w	r0, #1073741824	; 0x40000000
 8003536:	9202      	str	r2, [sp, #8]
 8003538:	f8ad 4004 	strh.w	r4, [sp, #4]
 800353c:	f8ad 300c 	strh.w	r3, [sp, #12]
 8003540:	f8ad 3006 	strh.w	r3, [sp, #6]
 8003544:	f002 fd4e 	bl	8005fe4 <TIM_TimeBaseInit>
 8003548:	f04f 4080 	mov.w	r0, #1073741824	; 0x40000000
 800354c:	2101      	movs	r1, #1
 800354e:	f002 fe09 	bl	8006164 <TIM_Cmd>
 8003552:	b004      	add	sp, #16
 8003554:	bd10      	pop	{r4, pc}
 8003556:	bf00      	nop

08003558 <GetFastCounterValue>:
 8003558:	f04f 4080 	mov.w	r0, #1073741824	; 0x40000000
 800355c:	f002 bdba 	b.w	80060d4 <TIM_GetCounter>

08003560 <USB_OTG_BSP_Init>:
 8003560:	b570      	push	{r4, r5, r6, lr}
 8003562:	2001      	movs	r0, #1
 8003564:	2400      	movs	r4, #0
 8003566:	b082      	sub	sp, #8
 8003568:	f2c4 0402 	movt	r4, #16386	; 0x4002
 800356c:	4601      	mov	r1, r0
 800356e:	f002 faf1 	bl	8005b54 <RCC_AHB1PeriphClockCmd>
 8003572:	2500      	movs	r5, #0
 8003574:	f44f 53d8 	mov.w	r3, #6912	; 0x1b00
 8003578:	2202      	movs	r2, #2
 800357a:	2603      	movs	r6, #3
 800357c:	4669      	mov	r1, sp
 800357e:	4620      	mov	r0, r4
 8003580:	9300      	str	r3, [sp, #0]
 8003582:	f88d 2004 	strb.w	r2, [sp, #4]
 8003586:	f88d 5006 	strb.w	r5, [sp, #6]
 800358a:	f88d 5007 	strb.w	r5, [sp, #7]
 800358e:	f88d 6005 	strb.w	r6, [sp, #5]
 8003592:	f001 ffc7 	bl	8005524 <GPIO_Init>
 8003596:	4620      	mov	r0, r4
 8003598:	2108      	movs	r1, #8
 800359a:	220a      	movs	r2, #10
 800359c:	f002 f8c0 	bl	8005720 <GPIO_PinAFConfig>
 80035a0:	4620      	mov	r0, r4
 80035a2:	2109      	movs	r1, #9
 80035a4:	220a      	movs	r2, #10
 80035a6:	f002 f8bb 	bl	8005720 <GPIO_PinAFConfig>
 80035aa:	4620      	mov	r0, r4
 80035ac:	210b      	movs	r1, #11
 80035ae:	220a      	movs	r2, #10
 80035b0:	f002 f8b6 	bl	8005720 <GPIO_PinAFConfig>
 80035b4:	220a      	movs	r2, #10
 80035b6:	4620      	mov	r0, r4
 80035b8:	210c      	movs	r1, #12
 80035ba:	f002 f8b1 	bl	8005720 <GPIO_PinAFConfig>
 80035be:	2501      	movs	r5, #1
 80035c0:	f44f 6380 	mov.w	r3, #1024	; 0x400
 80035c4:	4620      	mov	r0, r4
 80035c6:	4669      	mov	r1, sp
 80035c8:	9300      	str	r3, [sp, #0]
 80035ca:	f88d 5006 	strb.w	r5, [sp, #6]
 80035ce:	f88d 5007 	strb.w	r5, [sp, #7]
 80035d2:	f88d 6005 	strb.w	r6, [sp, #5]
 80035d6:	f001 ffa5 	bl	8005524 <GPIO_Init>
 80035da:	210a      	movs	r1, #10
 80035dc:	460a      	mov	r2, r1
 80035de:	4620      	mov	r0, r4
 80035e0:	f002 f89e 	bl	8005720 <GPIO_PinAFConfig>
 80035e4:	4629      	mov	r1, r5
 80035e6:	f44f 4080 	mov.w	r0, #16384	; 0x4000
 80035ea:	f002 faeb 	bl	8005bc4 <RCC_APB2PeriphClockCmd>
 80035ee:	2080      	movs	r0, #128	; 0x80
 80035f0:	4629      	mov	r1, r5
 80035f2:	f002 fabd 	bl	8005b70 <RCC_AHB2PeriphClockCmd>
 80035f6:	f04f 5080 	mov.w	r0, #268435456	; 0x10000000
 80035fa:	4629      	mov	r1, r5
 80035fc:	f002 fb1a 	bl	8005c34 <RCC_APB1PeriphResetCmd>
 8003600:	b002      	add	sp, #8
 8003602:	bd70      	pop	{r4, r5, r6, pc}

08003604 <USB_OTG_BSP_EnableInterrupt>:
 8003604:	b500      	push	{lr}
 8003606:	b083      	sub	sp, #12
 8003608:	2006      	movs	r0, #6
 800360a:	2143      	movs	r1, #67	; 0x43
 800360c:	f88d 0005 	strb.w	r0, [sp, #5]
 8003610:	2301      	movs	r3, #1
 8003612:	a801      	add	r0, sp, #4
 8003614:	f88d 1004 	strb.w	r1, [sp, #4]
 8003618:	f88d 3007 	strb.w	r3, [sp, #7]
 800361c:	f003 fffa 	bl	8007614 <NVIC_Init>
 8003620:	b003      	add	sp, #12
 8003622:	bd00      	pop	{pc}

08003624 <USB_OTG_BSP_uDelay>:
 8003624:	ebc0 1000 	rsb	r0, r0, r0, lsl #4
 8003628:	f644 1225 	movw	r2, #18725	; 0x4925
 800362c:	00c1      	lsls	r1, r0, #3
 800362e:	f2c2 4292 	movt	r2, #9362	; 0x2492
 8003632:	fba2 2301 	umull	r2, r3, r2, r1
 8003636:	1ac8      	subs	r0, r1, r3
 8003638:	eb03 0250 	add.w	r2, r3, r0, lsr #1
 800363c:	0892      	lsrs	r2, r2, #2
 800363e:	f002 0101 	and.w	r1, r2, #1
 8003642:	2301      	movs	r3, #1
 8003644:	b13a      	cbz	r2, 8003656 <USB_OTG_BSP_uDelay+0x32>
 8003646:	b111      	cbz	r1, 800364e <USB_OTG_BSP_uDelay+0x2a>
 8003648:	2302      	movs	r3, #2
 800364a:	429a      	cmp	r2, r3
 800364c:	d304      	bcc.n	8003658 <USB_OTG_BSP_uDelay+0x34>
 800364e:	3302      	adds	r3, #2
 8003650:	429a      	cmp	r2, r3
 8003652:	d2fc      	bcs.n	800364e <USB_OTG_BSP_uDelay+0x2a>
 8003654:	4770      	bx	lr
 8003656:	4770      	bx	lr
 8003658:	4770      	bx	lr
 800365a:	bf00      	nop

0800365c <USB_OTG_BSP_mDelay>:
 800365c:	f24d 41c0 	movw	r1, #54464	; 0xd4c0
 8003660:	f2c0 0101 	movt	r1, #1
 8003664:	f644 1225 	movw	r2, #18725	; 0x4925
 8003668:	fb01 f000 	mul.w	r0, r1, r0
 800366c:	f2c2 4292 	movt	r2, #9362	; 0x2492
 8003670:	fba2 2100 	umull	r2, r1, r2, r0
 8003674:	1a43      	subs	r3, r0, r1
 8003676:	eb01 0253 	add.w	r2, r1, r3, lsr #1
 800367a:	0892      	lsrs	r2, r2, #2
 800367c:	f002 0101 	and.w	r1, r2, #1
 8003680:	2301      	movs	r3, #1
 8003682:	b13a      	cbz	r2, 8003694 <USB_OTG_BSP_mDelay+0x38>
 8003684:	b111      	cbz	r1, 800368c <USB_OTG_BSP_mDelay+0x30>
 8003686:	2302      	movs	r3, #2
 8003688:	429a      	cmp	r2, r3
 800368a:	d304      	bcc.n	8003696 <USB_OTG_BSP_mDelay+0x3a>
 800368c:	3302      	adds	r3, #2
 800368e:	429a      	cmp	r2, r3
 8003690:	d2fc      	bcs.n	800368c <USB_OTG_BSP_mDelay+0x30>
 8003692:	4770      	bx	lr
 8003694:	4770      	bx	lr
 8003696:	4770      	bx	lr

08003698 <cdc_Init>:
 8003698:	2000      	movs	r0, #0
 800369a:	4770      	bx	lr

0800369c <cdc_DeInit>:
 800369c:	2000      	movs	r0, #0
 800369e:	4770      	bx	lr

080036a0 <cdc_Ctrl>:
 80036a0:	2000      	movs	r0, #0
 80036a2:	4770      	bx	lr

080036a4 <cdc_DataTx>:
 80036a4:	e92d 03f0 	stmdb	sp!, {r4, r5, r6, r7, r8, r9}
 80036a8:	2900      	cmp	r1, #0
 80036aa:	d046      	beq.n	800373a <cdc_DataTx+0x96>
 80036ac:	4b25      	ldr	r3, [pc, #148]	; (8003744 <cdc_DataTx+0xa0>)
 80036ae:	f890 9000 	ldrb.w	r9, [r0]
 80036b2:	681d      	ldr	r5, [r3, #0]
 80036b4:	4e24      	ldr	r6, [pc, #144]	; (8003748 <cdc_DataTx+0xa4>)
 80036b6:	1c6c      	adds	r4, r5, #1
 80036b8:	2700      	movs	r7, #0
 80036ba:	f5b4 6f80 	cmp.w	r4, #1024	; 0x400
 80036be:	bf14      	ite	ne
 80036c0:	46a4      	movne	ip, r4
 80036c2:	46bc      	moveq	ip, r7
 80036c4:	2201      	movs	r2, #1
 80036c6:	f101 38ff 	add.w	r8, r1, #4294967295
 80036ca:	428a      	cmp	r2, r1
 80036cc:	f8c3 c000 	str.w	ip, [r3]
 80036d0:	f806 9005 	strb.w	r9, [r6, r5]
 80036d4:	469c      	mov	ip, r3
 80036d6:	ea08 0402 	and.w	r4, r8, r2
 80036da:	d02e      	beq.n	800373a <cdc_DataTx+0x96>
 80036dc:	b18c      	cbz	r4, 8003702 <cdc_DataTx+0x5e>
 80036de:	681d      	ldr	r5, [r3, #0]
 80036e0:	f810 8002 	ldrb.w	r8, [r0, r2]
 80036e4:	1c6c      	adds	r4, r5, #1
 80036e6:	f5b4 6f80 	cmp.w	r4, #1024	; 0x400
 80036ea:	601c      	str	r4, [r3, #0]
 80036ec:	bf08      	it	eq
 80036ee:	601f      	streq	r7, [r3, #0]
 80036f0:	3201      	adds	r2, #1
 80036f2:	428a      	cmp	r2, r1
 80036f4:	f806 8005 	strb.w	r8, [r6, r5]
 80036f8:	d103      	bne.n	8003702 <cdc_DataTx+0x5e>
 80036fa:	e01e      	b.n	800373a <cdc_DataTx+0x96>
 80036fc:	1c62      	adds	r2, r4, #1
 80036fe:	428a      	cmp	r2, r1
 8003700:	d01b      	beq.n	800373a <cdc_DataTx+0x96>
 8003702:	681d      	ldr	r5, [r3, #0]
 8003704:	f810 8002 	ldrb.w	r8, [r0, r2]
 8003708:	1c54      	adds	r4, r2, #1
 800370a:	1c6a      	adds	r2, r5, #1
 800370c:	f5b2 6f80 	cmp.w	r2, #1024	; 0x400
 8003710:	601a      	str	r2, [r3, #0]
 8003712:	bf08      	it	eq
 8003714:	f8cc 7000 	streq.w	r7, [ip]
 8003718:	f806 8005 	strb.w	r8, [r6, r5]
 800371c:	681d      	ldr	r5, [r3, #0]
 800371e:	f810 8004 	ldrb.w	r8, [r0, r4]
 8003722:	1c6a      	adds	r2, r5, #1
 8003724:	f5b2 6f80 	cmp.w	r2, #1024	; 0x400
 8003728:	f806 8005 	strb.w	r8, [r6, r5]
 800372c:	601a      	str	r2, [r3, #0]
 800372e:	d1e5      	bne.n	80036fc <cdc_DataTx+0x58>
 8003730:	1c62      	adds	r2, r4, #1
 8003732:	428a      	cmp	r2, r1
 8003734:	f8cc 7000 	str.w	r7, [ip]
 8003738:	d1e3      	bne.n	8003702 <cdc_DataTx+0x5e>
 800373a:	2000      	movs	r0, #0
 800373c:	e8bd 03f0 	ldmia.w	sp!, {r4, r5, r6, r7, r8, r9}
 8003740:	4770      	bx	lr
 8003742:	bf00      	nop
 8003744:	200006c8 	andcs	r0, r0, r8, asr #13
 8003748:	20001244 	andcs	r1, r0, r4, asr #4

0800374c <cdc_DataRx>:
 800374c:	e92d 43f0 	stmdb	sp!, {r4, r5, r6, r7, r8, r9, lr}
 8003750:	b083      	sub	sp, #12
 8003752:	f04f 0900 	mov.w	r9, #0
 8003756:	4688      	mov	r8, r1
 8003758:	4605      	mov	r5, r0
 800375a:	f8cd 9004 	str.w	r9, [sp, #4]
 800375e:	b359      	cbz	r1, 80037b8 <cdc_DataRx+0x6c>
 8003760:	4e17      	ldr	r6, [pc, #92]	; (80037c0 <cdc_DataRx+0x74>)
 8003762:	f101 37ff 	add.w	r7, r1, #4294967295
 8003766:	2401      	movs	r4, #1
 8003768:	6830      	ldr	r0, [r6, #0]
 800376a:	4629      	mov	r1, r5
 800376c:	aa01      	add	r2, sp, #4
 800376e:	464b      	mov	r3, r9
 8003770:	f001 fb64 	bl	8004e3c <xQueueGenericSendFromISR>
 8003774:	4544      	cmp	r4, r8
 8003776:	ea07 0704 	and.w	r7, r7, r4
 800377a:	d019      	beq.n	80037b0 <cdc_DataRx+0x64>
 800377c:	b147      	cbz	r7, 8003790 <cdc_DataRx+0x44>
 800377e:	1c69      	adds	r1, r5, #1
 8003780:	6830      	ldr	r0, [r6, #0]
 8003782:	aa01      	add	r2, sp, #4
 8003784:	464b      	mov	r3, r9
 8003786:	2402      	movs	r4, #2
 8003788:	f001 fb58 	bl	8004e3c <xQueueGenericSendFromISR>
 800378c:	4544      	cmp	r4, r8
 800378e:	d00f      	beq.n	80037b0 <cdc_DataRx+0x64>
 8003790:	1929      	adds	r1, r5, r4
 8003792:	2300      	movs	r3, #0
 8003794:	3401      	adds	r4, #1
 8003796:	aa01      	add	r2, sp, #4
 8003798:	6830      	ldr	r0, [r6, #0]
 800379a:	f001 fb4f 	bl	8004e3c <xQueueGenericSendFromISR>
 800379e:	1929      	adds	r1, r5, r4
 80037a0:	2300      	movs	r3, #0
 80037a2:	6830      	ldr	r0, [r6, #0]
 80037a4:	aa01      	add	r2, sp, #4
 80037a6:	3401      	adds	r4, #1
 80037a8:	f001 fb48 	bl	8004e3c <xQueueGenericSendFromISR>
 80037ac:	4544      	cmp	r4, r8
 80037ae:	d1ef      	bne.n	8003790 <cdc_DataRx+0x44>
 80037b0:	9b01      	ldr	r3, [sp, #4]
 80037b2:	b10b      	cbz	r3, 80037b8 <cdc_DataRx+0x6c>
 80037b4:	f001 fd8e 	bl	80052d4 <vPortYieldFromISR>
 80037b8:	2000      	movs	r0, #0
 80037ba:	b003      	add	sp, #12
 80037bc:	e8bd 83f0 	ldmia.w	sp!, {r4, r5, r6, r7, r8, r9, pc}
 80037c0:	200005b8 			; <UNDEFINED> instruction: 0x200005b8

080037c4 <USBD_USR_DeviceDescriptor>:
 80037c4:	2312      	movs	r3, #18
 80037c6:	f240 0044 	movw	r0, #68	; 0x44
 80037ca:	f2c2 0000 	movt	r0, #8192	; 0x2000
 80037ce:	800b      	strh	r3, [r1, #0]
 80037d0:	4770      	bx	lr
 80037d2:	bf00      	nop

080037d4 <USBD_USR_LangIDStrDescriptor>:
 80037d4:	2304      	movs	r3, #4
 80037d6:	800b      	strh	r3, [r1, #0]
 80037d8:	4800      	ldr	r0, [pc, #0]	; (80037dc <USBD_USR_LangIDStrDescriptor+0x8>)
 80037da:	4770      	bx	lr
 80037dc:	20000058 	andcs	r0, r0, r8, asr r0

080037e0 <USBD_USR_ManufacturerStrDescriptor>:
 80037e0:	b510      	push	{r4, lr}
 80037e2:	f241 6444 	movw	r4, #5700	; 0x1644
 80037e6:	f2c2 0400 	movt	r4, #8192	; 0x2000
 80037ea:	f64a 40c0 	movw	r0, #44224	; 0xacc0
 80037ee:	460a      	mov	r2, r1
 80037f0:	f6c0 0000 	movt	r0, #2048	; 0x800
 80037f4:	4621      	mov	r1, r4
 80037f6:	f004 fca1 	bl	800813c <USBD_GetString>
 80037fa:	4620      	mov	r0, r4
 80037fc:	bd10      	pop	{r4, pc}
 80037fe:	bf00      	nop

08003800 <USBD_USR_InterfaceStrDescriptor>:
 8003800:	460a      	mov	r2, r1
 8003802:	b508      	push	{r3, lr}
 8003804:	4802      	ldr	r0, [pc, #8]	; (8003810 <USBD_USR_InterfaceStrDescriptor+0x10>)
 8003806:	4903      	ldr	r1, [pc, #12]	; (8003814 <USBD_USR_InterfaceStrDescriptor+0x14>)
 8003808:	f004 fc98 	bl	800813c <USBD_GetString>
 800380c:	4801      	ldr	r0, [pc, #4]	; (8003814 <USBD_USR_InterfaceStrDescriptor+0x14>)
 800380e:	bd08      	pop	{r3, pc}
 8003810:	0800acd4 	stmdaeq	r0, {r2, r4, r6, r7, sl, fp, sp, pc}
 8003814:	20001644 	andcs	r1, r0, r4, asr #12

08003818 <USBD_USR_ConfigStrDescriptor>:
 8003818:	460a      	mov	r2, r1
 800381a:	b508      	push	{r3, lr}
 800381c:	4802      	ldr	r0, [pc, #8]	; (8003828 <USBD_USR_ConfigStrDescriptor+0x10>)
 800381e:	4903      	ldr	r1, [pc, #12]	; (800382c <USBD_USR_ConfigStrDescriptor+0x14>)
 8003820:	f004 fc8c 	bl	800813c <USBD_GetString>
 8003824:	4801      	ldr	r0, [pc, #4]	; (800382c <USBD_USR_ConfigStrDescriptor+0x14>)
 8003826:	bd08      	pop	{r3, pc}
 8003828:	0800ace4 	stmdaeq	r0, {r2, r5, r6, r7, sl, fp, sp, pc}
 800382c:	20001644 	andcs	r1, r0, r4, asr #12

08003830 <USBD_USR_SerialStrDescriptor>:
 8003830:	b508      	push	{r3, lr}
 8003832:	460a      	mov	r2, r1
 8003834:	b128      	cbz	r0, 8003842 <USBD_USR_SerialStrDescriptor+0x12>
 8003836:	4806      	ldr	r0, [pc, #24]	; (8003850 <USBD_USR_SerialStrDescriptor+0x20>)
 8003838:	4906      	ldr	r1, [pc, #24]	; (8003854 <USBD_USR_SerialStrDescriptor+0x24>)
 800383a:	f004 fc7f 	bl	800813c <USBD_GetString>
 800383e:	4805      	ldr	r0, [pc, #20]	; (8003854 <USBD_USR_SerialStrDescriptor+0x24>)
 8003840:	bd08      	pop	{r3, pc}
 8003842:	4805      	ldr	r0, [pc, #20]	; (8003858 <USBD_USR_SerialStrDescriptor+0x28>)
 8003844:	4903      	ldr	r1, [pc, #12]	; (8003854 <USBD_USR_SerialStrDescriptor+0x24>)
 8003846:	f004 fc79 	bl	800813c <USBD_GetString>
 800384a:	4802      	ldr	r0, [pc, #8]	; (8003854 <USBD_USR_SerialStrDescriptor+0x24>)
 800384c:	bd08      	pop	{r3, pc}
 800384e:	bf00      	nop
 8003850:	0800ad00 	stmdaeq	r0, {r8, sl, fp, sp, pc}
 8003854:	20001644 	andcs	r1, r0, r4, asr #12
 8003858:	0800acf0 	stmdaeq	r0, {r4, r5, r6, r7, sl, fp, sp, pc}

0800385c <USBD_USR_ProductStrDescriptor>:
 800385c:	b508      	push	{r3, lr}
 800385e:	460a      	mov	r2, r1
 8003860:	b128      	cbz	r0, 800386e <USBD_USR_ProductStrDescriptor+0x12>
 8003862:	4806      	ldr	r0, [pc, #24]	; (800387c <USBD_USR_ProductStrDescriptor+0x20>)
 8003864:	4906      	ldr	r1, [pc, #24]	; (8003880 <USBD_USR_ProductStrDescriptor+0x24>)
 8003866:	f004 fc69 	bl	800813c <USBD_GetString>
 800386a:	4805      	ldr	r0, [pc, #20]	; (8003880 <USBD_USR_ProductStrDescriptor+0x24>)
 800386c:	bd08      	pop	{r3, pc}
 800386e:	4805      	ldr	r0, [pc, #20]	; (8003884 <USBD_USR_ProductStrDescriptor+0x28>)
 8003870:	4903      	ldr	r1, [pc, #12]	; (8003880 <USBD_USR_ProductStrDescriptor+0x24>)
 8003872:	f004 fc63 	bl	800813c <USBD_GetString>
 8003876:	4802      	ldr	r0, [pc, #8]	; (8003880 <USBD_USR_ProductStrDescriptor+0x24>)
 8003878:	bd08      	pop	{r3, pc}
 800387a:	bf00      	nop
 800387c:	0800ad34 	stmdaeq	r0, {r2, r4, r5, r8, sl, fp, sp, pc}
 8003880:	20001644 	andcs	r1, r0, r4, asr #12
 8003884:	0800ad10 	stmdaeq	r0, {r4, r8, sl, fp, sp, pc}

08003888 <USBD_USR_Init>:
 8003888:	4770      	bx	lr
 800388a:	bf00      	nop

0800388c <USBD_USR_DeviceReset>:
 800388c:	4770      	bx	lr
 800388e:	bf00      	nop

08003890 <USBD_USR_DeviceResumed>:
 8003890:	f240 53b8 	movw	r3, #1464	; 0x5b8
 8003894:	f2c2 0300 	movt	r3, #8192	; 0x2000
 8003898:	2001      	movs	r0, #1
 800389a:	7118      	strb	r0, [r3, #4]
 800389c:	f7fe bf00 	b.w	80026a0 <LEDOn>

080038a0 <USBD_USR_DeviceConfigured>:
 80038a0:	f240 53b8 	movw	r3, #1464	; 0x5b8
 80038a4:	f2c2 0300 	movt	r3, #8192	; 0x2000
 80038a8:	2001      	movs	r0, #1
 80038aa:	7118      	strb	r0, [r3, #4]
 80038ac:	f7fe bef8 	b.w	80026a0 <LEDOn>

080038b0 <USBD_USR_DeviceSuspended>:
 80038b0:	f240 53b8 	movw	r3, #1464	; 0x5b8
 80038b4:	f2c2 0300 	movt	r3, #8192	; 0x2000
 80038b8:	2200      	movs	r2, #0
 80038ba:	2001      	movs	r0, #1
 80038bc:	711a      	strb	r2, [r3, #4]
 80038be:	f7fe befd 	b.w	80026bc <LEDOff>
 80038c2:	bf00      	nop

080038c4 <LUFactorize>:
 80038c4:	e92d 0ff0 	stmdb	sp!, {r4, r5, r6, r7, r8, r9, sl, fp}
 80038c8:	f100 0c28 	add.w	ip, r0, #40	; 0x28
 80038cc:	b082      	sub	sp, #8
 80038ce:	f1a2 0a04 	sub.w	sl, r2, #4
 80038d2:	f500 78a4 	add.w	r8, r0, #328	; 0x148
 80038d6:	f101 0b24 	add.w	fp, r1, #36	; 0x24
 80038da:	f04f 0900 	mov.w	r9, #0
 80038de:	f109 0101 	add.w	r1, r9, #1
 80038e2:	9101      	str	r1, [sp, #4]
 80038e4:	9b01      	ldr	r3, [sp, #4]
 80038e6:	f04f 507e 	mov.w	r0, #1065353216	; 0x3f800000
 80038ea:	2b09      	cmp	r3, #9
 80038ec:	f84b 0c24 	str.w	r0, [fp, #-36]
 80038f0:	d03f      	beq.n	8003972 <LUFactorize+0xae>
 80038f2:	4665      	mov	r5, ip
 80038f4:	465c      	mov	r4, fp
 80038f6:	f1ac 0728 	sub.w	r7, ip, #40	; 0x28
 80038fa:	464e      	mov	r6, r9
 80038fc:	ed15 7a01 	vldr	s14, [r5, #-4]
 8003900:	ed1c 0a0a 	vldr	s0, [ip, #-40]	; 0xffffffd8
 8003904:	ee87 7a00 	vdiv.f32	s14, s14, s0
 8003908:	07f2      	lsls	r2, r6, #31
 800390a:	4639      	mov	r1, r7
 800390c:	4630      	mov	r0, r6
 800390e:	462b      	mov	r3, r5
 8003910:	ed84 7a00 	vstr	s14, [r4]
 8003914:	d41c      	bmi.n	8003950 <LUFactorize+0x8c>
 8003916:	ed97 3a01 	vldr	s6, [r7, #4]
 800391a:	edd5 2a00 	vldr	s5, [r5]
 800391e:	ee47 2a43 	vmls.f32	s5, s14, s6
 8003922:	462b      	mov	r3, r5
 8003924:	ece3 2a01 	vstmia	r3!, {s5}
 8003928:	1d39      	adds	r1, r7, #4
 800392a:	1c70      	adds	r0, r6, #1
 800392c:	ed94 7a00 	vldr	s14, [r4]
 8003930:	e00e      	b.n	8003950 <LUFactorize+0x8c>
 8003932:	ed93 1a01 	vldr	s2, [r3, #4]
 8003936:	ed91 2a01 	vldr	s4, [r1, #4]
 800393a:	edd4 1a00 	vldr	s3, [r4]
 800393e:	ee01 1ac2 	vmls.f32	s2, s3, s4
 8003942:	3104      	adds	r1, #4
 8003944:	ed83 1a01 	vstr	s2, [r3, #4]
 8003948:	ed94 7a00 	vldr	s14, [r4]
 800394c:	3001      	adds	r0, #1
 800394e:	1d13      	adds	r3, r2, #4
 8003950:	edd1 6a01 	vldr	s13, [r1, #4]
 8003954:	edd3 0a00 	vldr	s1, [r3]
 8003958:	ee47 0a66 	vmls.f32	s1, s14, s13
 800395c:	3001      	adds	r0, #1
 800395e:	461a      	mov	r2, r3
 8003960:	3104      	adds	r1, #4
 8003962:	2808      	cmp	r0, #8
 8003964:	ece2 0a01 	vstmia	r2!, {s1}
 8003968:	d1e3      	bne.n	8003932 <LUFactorize+0x6e>
 800396a:	3524      	adds	r5, #36	; 0x24
 800396c:	3424      	adds	r4, #36	; 0x24
 800396e:	45a8      	cmp	r8, r5
 8003970:	d1c4      	bne.n	80038fc <LUFactorize+0x38>
 8003972:	f85c 1c28 	ldr.w	r1, [ip, #-40]
 8003976:	f109 0301 	add.w	r3, r9, #1
 800397a:	2b08      	cmp	r3, #8
 800397c:	f8ca 1004 	str.w	r1, [sl, #4]
 8003980:	f009 0001 	and.w	r0, r9, #1
 8003984:	f1ac 0128 	sub.w	r1, ip, #40	; 0x28
 8003988:	f10a 0204 	add.w	r2, sl, #4
 800398c:	dc12      	bgt.n	80039b4 <LUFactorize+0xf0>
 800398e:	b140      	cbz	r0, 80039a2 <LUFactorize+0xde>
 8003990:	f85c 0c24 	ldr.w	r0, [ip, #-36]
 8003994:	3301      	adds	r3, #1
 8003996:	2b08      	cmp	r3, #8
 8003998:	f842 0f04 	str.w	r0, [r2, #4]!
 800399c:	f1ac 0124 	sub.w	r1, ip, #36	; 0x24
 80039a0:	dc08      	bgt.n	80039b4 <LUFactorize+0xf0>
 80039a2:	6848      	ldr	r0, [r1, #4]
 80039a4:	6050      	str	r0, [r2, #4]
 80039a6:	6888      	ldr	r0, [r1, #8]
 80039a8:	3302      	adds	r3, #2
 80039aa:	6090      	str	r0, [r2, #8]
 80039ac:	3108      	adds	r1, #8
 80039ae:	3208      	adds	r2, #8
 80039b0:	2b08      	cmp	r3, #8
 80039b2:	ddf6      	ble.n	80039a2 <LUFactorize+0xde>
 80039b4:	9a01      	ldr	r2, [sp, #4]
 80039b6:	2a09      	cmp	r2, #9
 80039b8:	f10a 0a28 	add.w	sl, sl, #40	; 0x28
 80039bc:	f108 0804 	add.w	r8, r8, #4
 80039c0:	f10b 0b28 	add.w	fp, fp, #40	; 0x28
 80039c4:	f10c 0c28 	add.w	ip, ip, #40	; 0x28
 80039c8:	d002      	beq.n	80039d0 <LUFactorize+0x10c>
 80039ca:	f8dd 9004 	ldr.w	r9, [sp, #4]
 80039ce:	e786      	b.n	80038de <LUFactorize+0x1a>
 80039d0:	b002      	add	sp, #8
 80039d2:	e8bd 0ff0 	ldmia.w	sp!, {r4, r5, r6, r7, r8, r9, sl, fp}
 80039d6:	4770      	bx	lr

080039d8 <InvertLMatrix>:
 80039d8:	b4f0      	push	{r4, r5, r6, r7}
 80039da:	2600      	movs	r6, #0
 80039dc:	f106 0c01 	add.w	ip, r6, #1
 80039e0:	f1bc 0f09 	cmp.w	ip, #9
 80039e4:	ed9f 6a28 	vldr	s12, [pc, #160]	; 8003a88 <InvertLMatrix+0xb0>
 80039e8:	d043      	beq.n	8003a72 <InvertLMatrix+0x9a>
 80039ea:	f100 0520 	add.w	r5, r0, #32
 80039ee:	4664      	mov	r4, ip
 80039f0:	42b4      	cmp	r4, r6
 80039f2:	dd40      	ble.n	8003a76 <InvertLMatrix+0x9e>
 80039f4:	edd0 7a00 	vldr	s15, [r0]
 80039f8:	ed95 7a01 	vldr	s14, [r5, #4]
 80039fc:	eef0 6a46 	vmov.f32	s13, s12
 8003a00:	ee47 6a67 	vmls.f32	s13, s14, s15
 8003a04:	43f7      	mvns	r7, r6
 8003a06:	1939      	adds	r1, r7, r4
 8003a08:	4603      	mov	r3, r0
 8003a0a:	1c72      	adds	r2, r6, #1
 8003a0c:	3324      	adds	r3, #36	; 0x24
 8003a0e:	f001 0701 	and.w	r7, r1, #1
 8003a12:	1d29      	adds	r1, r5, #4
 8003a14:	42a2      	cmp	r2, r4
 8003a16:	eef0 7a66 	vmov.f32	s15, s13
 8003a1a:	d01d      	beq.n	8003a58 <InvertLMatrix+0x80>
 8003a1c:	b15f      	cbz	r7, 8003a36 <InvertLMatrix+0x5e>
 8003a1e:	3104      	adds	r1, #4
 8003a20:	edd3 2a00 	vldr	s5, [r3]
 8003a24:	ed91 2a00 	vldr	s4, [r1]
 8003a28:	3201      	adds	r2, #1
 8003a2a:	42a2      	cmp	r2, r4
 8003a2c:	ee42 7a62 	vmls.f32	s15, s4, s5
 8003a30:	f100 0348 	add.w	r3, r0, #72	; 0x48
 8003a34:	d010      	beq.n	8003a58 <InvertLMatrix+0x80>
 8003a36:	ed91 1a01 	vldr	s2, [r1, #4]
 8003a3a:	edd3 1a00 	vldr	s3, [r3]
 8003a3e:	ee41 7a61 	vmls.f32	s15, s2, s3
 8003a42:	edd3 0a09 	vldr	s1, [r3, #36]	; 0x24
 8003a46:	ed91 0a02 	vldr	s0, [r1, #8]
 8003a4a:	3202      	adds	r2, #2
 8003a4c:	3108      	adds	r1, #8
 8003a4e:	3348      	adds	r3, #72	; 0x48
 8003a50:	42a2      	cmp	r2, r4
 8003a52:	ee40 7a60 	vmls.f32	s15, s0, s1
 8003a56:	d1ee      	bne.n	8003a36 <InvertLMatrix+0x5e>
 8003a58:	3401      	adds	r4, #1
 8003a5a:	edc5 7a01 	vstr	s15, [r5, #4]
 8003a5e:	3524      	adds	r5, #36	; 0x24
 8003a60:	2c09      	cmp	r4, #9
 8003a62:	d1c5      	bne.n	80039f0 <InvertLMatrix+0x18>
 8003a64:	4666      	mov	r6, ip
 8003a66:	f106 0c01 	add.w	ip, r6, #1
 8003a6a:	3028      	adds	r0, #40	; 0x28
 8003a6c:	f1bc 0f09 	cmp.w	ip, #9
 8003a70:	d1bb      	bne.n	80039ea <InvertLMatrix+0x12>
 8003a72:	bcf0      	pop	{r4, r5, r6, r7}
 8003a74:	4770      	bx	lr
 8003a76:	eddf 7a04 	vldr	s15, [pc, #16]	; 8003a88 <InvertLMatrix+0xb0>
 8003a7a:	3401      	adds	r4, #1
 8003a7c:	edc5 7a01 	vstr	s15, [r5, #4]
 8003a80:	3524      	adds	r5, #36	; 0x24
 8003a82:	2c09      	cmp	r4, #9
 8003a84:	d1b4      	bne.n	80039f0 <InvertLMatrix+0x18>
 8003a86:	e7ed      	b.n	8003a64 <InvertLMatrix+0x8c>
 8003a88:	00000000 	andeq	r0, r0, r0

08003a8c <InvertUMatrix>:
 8003a8c:	edd0 6a50 	vldr	s13, [r0, #320]	; 0x140
 8003a90:	ed90 7a46 	vldr	s14, [r0, #280]	; 0x118
 8003a94:	edd0 7a3c 	vldr	s15, [r0, #240]	; 0xf0
 8003a98:	edd0 2a32 	vldr	s5, [r0, #200]	; 0xc8
 8003a9c:	ed90 2a28 	vldr	s4, [r0, #160]	; 0xa0
 8003aa0:	edd0 1a1e 	vldr	s3, [r0, #120]	; 0x78
 8003aa4:	ed90 1a14 	vldr	s2, [r0, #80]	; 0x50
 8003aa8:	edd0 0a0a 	vldr	s1, [r0, #40]	; 0x28
 8003aac:	ed90 3a00 	vldr	s6, [r0]
 8003ab0:	eeb7 0a00 	vmov.f32	s0, #112	; 0x70
 8003ab4:	eec0 3a26 	vdiv.f32	s7, s0, s13
 8003ab8:	e92d 01f0 	stmdb	sp!, {r4, r5, r6, r7, r8}
 8003abc:	f04f 0c07 	mov.w	ip, #7
 8003ac0:	f500 76a0 	add.w	r6, r0, #320	; 0x140
 8003ac4:	ee80 4a07 	vdiv.f32	s8, s0, s14
 8003ac8:	eec0 4a27 	vdiv.f32	s9, s0, s15
 8003acc:	ee80 6a21 	vdiv.f32	s12, s0, s3
 8003ad0:	ee80 5a22 	vdiv.f32	s10, s0, s5
 8003ad4:	eec0 5a02 	vdiv.f32	s11, s0, s4
 8003ad8:	eec0 6a01 	vdiv.f32	s13, s0, s2
 8003adc:	ee80 7a20 	vdiv.f32	s14, s0, s1
 8003ae0:	eec0 7a03 	vdiv.f32	s15, s0, s6
 8003ae4:	ed80 6a1e 	vstr	s12, [r0, #120]	; 0x78
 8003ae8:	edc0 3a50 	vstr	s7, [r0, #320]	; 0x140
 8003aec:	ed80 4a46 	vstr	s8, [r0, #280]	; 0x118
 8003af0:	edc0 4a3c 	vstr	s9, [r0, #240]	; 0xf0
 8003af4:	ed80 5a32 	vstr	s10, [r0, #200]	; 0xc8
 8003af8:	edc0 5a28 	vstr	s11, [r0, #160]	; 0xa0
 8003afc:	edc0 6a14 	vstr	s13, [r0, #80]	; 0x50
 8003b00:	ed80 7a0a 	vstr	s14, [r0, #40]	; 0x28
 8003b04:	edc0 7a00 	vstr	s15, [r0]
 8003b08:	ed9f 6a30 	vldr	s12, [pc, #192]	; 8003bcc <InvertUMatrix+0x140>
 8003b0c:	f1bc 0f00 	cmp.w	ip, #0
 8003b10:	f10c 0501 	add.w	r5, ip, #1
 8003b14:	4660      	mov	r0, ip
 8003b16:	db42      	blt.n	8003b9e <InvertUMatrix+0x112>
 8003b18:	f1a6 0420 	sub.w	r4, r6, #32
 8003b1c:	4637      	mov	r7, r6
 8003b1e:	4285      	cmp	r5, r0
 8003b20:	dd46      	ble.n	8003bb0 <InvertUMatrix+0x124>
 8003b22:	ed14 5a01 	vldr	s10, [r4, #-4]
 8003b26:	edd6 4a00 	vldr	s9, [r6]
 8003b2a:	eef0 5a46 	vmov.f32	s11, s12
 8003b2e:	ee45 5a64 	vmls.f32	s11, s10, s9
 8003b32:	1b41      	subs	r1, r0, r5
 8003b34:	43c9      	mvns	r1, r1
 8003b36:	4633      	mov	r3, r6
 8003b38:	1e6a      	subs	r2, r5, #1
 8003b3a:	3b24      	subs	r3, #36	; 0x24
 8003b3c:	f001 0801 	and.w	r8, r1, #1
 8003b40:	1f21      	subs	r1, r4, #4
 8003b42:	4282      	cmp	r2, r0
 8003b44:	eef0 7a65 	vmov.f32	s15, s11
 8003b48:	d01e      	beq.n	8003b88 <InvertUMatrix+0xfc>
 8003b4a:	f1b8 0f00 	cmp.w	r8, #0
 8003b4e:	d00a      	beq.n	8003b66 <InvertUMatrix+0xda>
 8003b50:	ed93 2a00 	vldr	s4, [r3]
 8003b54:	ed71 1a01 	vldmdb	r1!, {s3}
 8003b58:	3a01      	subs	r2, #1
 8003b5a:	4282      	cmp	r2, r0
 8003b5c:	ee41 7ac2 	vmls.f32	s15, s3, s4
 8003b60:	f1a6 0348 	sub.w	r3, r6, #72	; 0x48
 8003b64:	d010      	beq.n	8003b88 <InvertUMatrix+0xfc>
 8003b66:	ed11 0a01 	vldr	s0, [r1, #-4]
 8003b6a:	ed93 3a00 	vldr	s6, [r3]
 8003b6e:	ee40 7a43 	vmls.f32	s15, s0, s6
 8003b72:	ed53 3a09 	vldr	s7, [r3, #-36]	; 0xffffffdc
 8003b76:	ed11 4a02 	vldr	s8, [r1, #-8]
 8003b7a:	3a02      	subs	r2, #2
 8003b7c:	3908      	subs	r1, #8
 8003b7e:	3b48      	subs	r3, #72	; 0x48
 8003b80:	4282      	cmp	r2, r0
 8003b82:	ee44 7a63 	vmls.f32	s15, s8, s7
 8003b86:	d1ee      	bne.n	8003b66 <InvertUMatrix+0xda>
 8003b88:	3f28      	subs	r7, #40	; 0x28
 8003b8a:	ed97 1a00 	vldr	s2, [r7]
 8003b8e:	ee61 0a27 	vmul.f32	s1, s2, s15
 8003b92:	3801      	subs	r0, #1
 8003b94:	ed44 0a01 	vstr	s1, [r4, #-4]
 8003b98:	3c24      	subs	r4, #36	; 0x24
 8003b9a:	1c41      	adds	r1, r0, #1
 8003b9c:	d1bf      	bne.n	8003b1e <InvertUMatrix+0x92>
 8003b9e:	f10c 3cff 	add.w	ip, ip, #4294967295
 8003ba2:	3e28      	subs	r6, #40	; 0x28
 8003ba4:	f11c 0f02 	cmn.w	ip, #2
 8003ba8:	d1b0      	bne.n	8003b0c <InvertUMatrix+0x80>
 8003baa:	e8bd 01f0 	ldmia.w	sp!, {r4, r5, r6, r7, r8}
 8003bae:	4770      	bx	lr
 8003bb0:	3f28      	subs	r7, #40	; 0x28
 8003bb2:	ed97 1a00 	vldr	s2, [r7]
 8003bb6:	eddf 7a05 	vldr	s15, [pc, #20]	; 8003bcc <InvertUMatrix+0x140>
 8003bba:	ee61 0a27 	vmul.f32	s1, s2, s15
 8003bbe:	3801      	subs	r0, #1
 8003bc0:	ed44 0a01 	vstr	s1, [r4, #-4]
 8003bc4:	3c24      	subs	r4, #36	; 0x24
 8003bc6:	1c41      	adds	r1, r0, #1
 8003bc8:	d1a9      	bne.n	8003b1e <InvertUMatrix+0x92>
 8003bca:	e7e8      	b.n	8003b9e <InvertUMatrix+0x112>
 8003bcc:	00000000 	andeq	r0, r0, r0

08003bd0 <MatrixMultiply>:
 8003bd0:	e92d 0ff0 	stmdb	sp!, {r4, r5, r6, r7, r8, r9, sl, fp}
 8003bd4:	b084      	sub	sp, #16
 8003bd6:	2900      	cmp	r1, #0
 8003bd8:	9101      	str	r1, [sp, #4]
 8003bda:	9303      	str	r3, [sp, #12]
 8003bdc:	f8dd 8030 	ldr.w	r8, [sp, #48]	; 0x30
 8003be0:	dd51      	ble.n	8003c86 <MatrixMultiply+0xb6>
 8003be2:	0093      	lsls	r3, r2, #2
 8003be4:	f8dd a034 	ldr.w	sl, [sp, #52]	; 0x34
 8003be8:	9302      	str	r3, [sp, #8]
 8003bea:	ed9f 6a2d 	vldr	s12, [pc, #180]	; 8003ca0 <MatrixMultiply+0xd0>
 8003bee:	ea4f 0588 	mov.w	r5, r8, lsl #2
 8003bf2:	4681      	mov	r9, r0
 8003bf4:	f04f 0b00 	mov.w	fp, #0
 8003bf8:	f1b8 0f00 	cmp.w	r8, #0
 8003bfc:	dd3b      	ble.n	8003c76 <MatrixMultiply+0xa6>
 8003bfe:	9e03      	ldr	r6, [sp, #12]
 8003c00:	46d4      	mov	ip, sl
 8003c02:	2700      	movs	r7, #0
 8003c04:	2a00      	cmp	r2, #0
 8003c06:	dd42      	ble.n	8003c8e <MatrixMultiply+0xbe>
 8003c08:	464b      	mov	r3, r9
 8003c0a:	edd6 7a00 	vldr	s15, [r6]
 8003c0e:	ecf3 1a01 	vldmia	r3!, {s3}
 8003c12:	eeb0 1a46 	vmov.f32	s2, s12
 8003c16:	ee01 1aa7 	vmla.f32	s2, s3, s15
 8003c1a:	2001      	movs	r0, #1
 8003c1c:	1e54      	subs	r4, r2, #1
 8003c1e:	4290      	cmp	r0, r2
 8003c20:	ea04 0100 	and.w	r1, r4, r0
 8003c24:	eef0 7a41 	vmov.f32	s15, s2
 8003c28:	eb06 0405 	add.w	r4, r6, r5
 8003c2c:	d01d      	beq.n	8003c6a <MatrixMultiply+0x9a>
 8003c2e:	b149      	cbz	r1, 8003c44 <MatrixMultiply+0x74>
 8003c30:	edd4 2a00 	vldr	s5, [r4]
 8003c34:	ecb3 2a01 	vldmia	r3!, {s4}
 8003c38:	2002      	movs	r0, #2
 8003c3a:	4290      	cmp	r0, r2
 8003c3c:	ee42 7a22 	vmla.f32	s15, s4, s5
 8003c40:	442c      	add	r4, r5
 8003c42:	d012      	beq.n	8003c6a <MatrixMultiply+0x9a>
 8003c44:	4619      	mov	r1, r3
 8003c46:	ecb1 0a01 	vldmia	r1!, {s0}
 8003c4a:	edd4 0a00 	vldr	s1, [r4]
 8003c4e:	1964      	adds	r4, r4, r5
 8003c50:	ee40 7a20 	vmla.f32	s15, s0, s1
 8003c54:	edd3 6a01 	vldr	s13, [r3, #4]
 8003c58:	ed94 7a00 	vldr	s14, [r4]
 8003c5c:	3002      	adds	r0, #2
 8003c5e:	1d0b      	adds	r3, r1, #4
 8003c60:	4290      	cmp	r0, r2
 8003c62:	ee46 7a87 	vmla.f32	s15, s13, s14
 8003c66:	442c      	add	r4, r5
 8003c68:	d1ec      	bne.n	8003c44 <MatrixMultiply+0x74>
 8003c6a:	3701      	adds	r7, #1
 8003c6c:	3604      	adds	r6, #4
 8003c6e:	4547      	cmp	r7, r8
 8003c70:	ecec 7a01 	vstmia	ip!, {s15}
 8003c74:	d1c6      	bne.n	8003c04 <MatrixMultiply+0x34>
 8003c76:	9801      	ldr	r0, [sp, #4]
 8003c78:	9b02      	ldr	r3, [sp, #8]
 8003c7a:	f10b 0b01 	add.w	fp, fp, #1
 8003c7e:	4583      	cmp	fp, r0
 8003c80:	44aa      	add	sl, r5
 8003c82:	4499      	add	r9, r3
 8003c84:	d1b8      	bne.n	8003bf8 <MatrixMultiply+0x28>
 8003c86:	b004      	add	sp, #16
 8003c88:	e8bd 0ff0 	ldmia.w	sp!, {r4, r5, r6, r7, r8, r9, sl, fp}
 8003c8c:	4770      	bx	lr
 8003c8e:	eddf 7a04 	vldr	s15, [pc, #16]	; 8003ca0 <MatrixMultiply+0xd0>
 8003c92:	3701      	adds	r7, #1
 8003c94:	3604      	adds	r6, #4
 8003c96:	4547      	cmp	r7, r8
 8003c98:	ecec 7a01 	vstmia	ip!, {s15}
 8003c9c:	d1b2      	bne.n	8003c04 <MatrixMultiply+0x34>
 8003c9e:	e7ea      	b.n	8003c76 <MatrixMultiply+0xa6>
 8003ca0:	00000000 	andeq	r0, r0, r0

08003ca4 <MultiplyULMatrix>:
 8003ca4:	2300      	movs	r3, #0
 8003ca6:	ed9f 6a2c 	vldr	s12, [pc, #176]	; 8003d58 <MultiplyULMatrix+0xb4>
 8003caa:	e92d 07f0 	stmdb	sp!, {r4, r5, r6, r7, r8, r9, sl}
 8003cae:	4699      	mov	r9, r3
 8003cb0:	4690      	mov	r8, r2
 8003cb2:	2700      	movs	r7, #0
 8003cb4:	454f      	cmp	r7, r9
 8003cb6:	bfac      	ite	ge
 8003cb8:	46ba      	movge	sl, r7
 8003cba:	46ca      	movlt	sl, r9
 8003cbc:	eb0a 0cca 	add.w	ip, sl, sl, lsl #3
 8003cc0:	eb0a 0403 	add.w	r4, sl, r3
 8003cc4:	1e66      	subs	r6, r4, #1
 8003cc6:	eb0c 0507 	add.w	r5, ip, r7
 8003cca:	eb01 0c85 	add.w	ip, r1, r5, lsl #2
 8003cce:	eb00 0686 	add.w	r6, r0, r6, lsl #2
 8003cd2:	ed96 7a01 	vldr	s14, [r6, #4]
 8003cd6:	eddc 7a00 	vldr	s15, [ip]
 8003cda:	eef0 6a46 	vmov.f32	s13, s12
 8003cde:	ee47 6a27 	vmla.f32	s13, s14, s15
 8003ce2:	f10a 0501 	add.w	r5, sl, #1
 8003ce6:	4664      	mov	r4, ip
 8003ce8:	3424      	adds	r4, #36	; 0x24
 8003cea:	3604      	adds	r6, #4
 8003cec:	2d08      	cmp	r5, #8
 8003cee:	f00a 0a01 	and.w	sl, sl, #1
 8003cf2:	eef0 7a66 	vmov.f32	s15, s13
 8003cf6:	dc1f      	bgt.n	8003d38 <MultiplyULMatrix+0x94>
 8003cf8:	f1ba 0f00 	cmp.w	sl, #0
 8003cfc:	d00b      	beq.n	8003d16 <MultiplyULMatrix+0x72>
 8003cfe:	3604      	adds	r6, #4
 8003d00:	ed96 2a00 	vldr	s4, [r6]
 8003d04:	eddc 2a09 	vldr	s5, [ip, #36]	; 0x24
 8003d08:	3501      	adds	r5, #1
 8003d0a:	2d08      	cmp	r5, #8
 8003d0c:	ee42 7a22 	vmla.f32	s15, s4, s5
 8003d10:	f10c 0448 	add.w	r4, ip, #72	; 0x48
 8003d14:	dc10      	bgt.n	8003d38 <MultiplyULMatrix+0x94>
 8003d16:	ed96 1a01 	vldr	s2, [r6, #4]
 8003d1a:	edd4 1a00 	vldr	s3, [r4]
 8003d1e:	ee41 7a21 	vmla.f32	s15, s2, s3
 8003d22:	edd4 0a09 	vldr	s1, [r4, #36]	; 0x24
 8003d26:	ed96 0a02 	vldr	s0, [r6, #8]
 8003d2a:	3502      	adds	r5, #2
 8003d2c:	3608      	adds	r6, #8
 8003d2e:	3448      	adds	r4, #72	; 0x48
 8003d30:	2d08      	cmp	r5, #8
 8003d32:	ee40 7a20 	vmla.f32	s15, s0, s1
 8003d36:	ddee      	ble.n	8003d16 <MultiplyULMatrix+0x72>
 8003d38:	3701      	adds	r7, #1
 8003d3a:	2f09      	cmp	r7, #9
 8003d3c:	ece8 7a01 	vstmia	r8!, {s15}
 8003d40:	d1b8      	bne.n	8003cb4 <MultiplyULMatrix+0x10>
 8003d42:	f109 0901 	add.w	r9, r9, #1
 8003d46:	3224      	adds	r2, #36	; 0x24
 8003d48:	3309      	adds	r3, #9
 8003d4a:	f1b9 0f09 	cmp.w	r9, #9
 8003d4e:	d1af      	bne.n	8003cb0 <MultiplyULMatrix+0xc>
 8003d50:	e8bd 07f0 	ldmia.w	sp!, {r4, r5, r6, r7, r8, r9, sl}
 8003d54:	4770      	bx	lr
 8003d56:	bf00      	nop
 8003d58:	00000000 	andeq	r0, r0, r0

08003d5c <InvertMatrix>:
 8003d5c:	b5f8      	push	{r3, r4, r5, r6, r7, lr}
 8003d5e:	af00      	add	r7, sp, #0
 8003d60:	b0d4      	sub	sp, #336	; 0x150
 8003d62:	466c      	mov	r4, sp
 8003d64:	b0d4      	sub	sp, #336	; 0x150
 8003d66:	4621      	mov	r1, r4
 8003d68:	466a      	mov	r2, sp
 8003d6a:	4606      	mov	r6, r0
 8003d6c:	f7ff fdaa 	bl	80038c4 <LUFactorize>
 8003d70:	4620      	mov	r0, r4
 8003d72:	f7ff fe31 	bl	80039d8 <InvertLMatrix>
 8003d76:	4668      	mov	r0, sp
 8003d78:	f7ff fe88 	bl	8003a8c <InvertUMatrix>
 8003d7c:	4668      	mov	r0, sp
 8003d7e:	4621      	mov	r1, r4
 8003d80:	4632      	mov	r2, r6
 8003d82:	466d      	mov	r5, sp
 8003d84:	f7ff ff8e 	bl	8003ca4 <MultiplyULMatrix>
 8003d88:	46bd      	mov	sp, r7
 8003d8a:	bdf8      	pop	{r3, r4, r5, r6, r7, pc}
 8003d8c:	0000      	movs	r0, r0
	...

08003d90 <qmult>:
 8003d90:	edd0 2a01 	vldr	s5, [r0, #4]
 8003d94:	edd1 3a01 	vldr	s7, [r1, #4]
 8003d98:	edd0 7a00 	vldr	s15, [r0]
 8003d9c:	edd1 5a00 	vldr	s11, [r1]
 8003da0:	ee22 3aa3 	vmul.f32	s6, s5, s7
 8003da4:	ee17 3aa5 	vnmls.f32	s6, s15, s11
 8003da8:	edd0 1a02 	vldr	s3, [r0, #8]
 8003dac:	ed91 4a02 	vldr	s8, [r1, #8]
 8003db0:	ee01 3ac4 	vmls.f32	s6, s3, s8
 8003db4:	edd0 6a03 	vldr	s13, [r0, #12]
 8003db8:	ed91 6a03 	vldr	s12, [r1, #12]
 8003dbc:	ee06 3ac6 	vmls.f32	s6, s13, s12
 8003dc0:	ed82 3a00 	vstr	s6, [r2]
 8003dc4:	edd1 5a00 	vldr	s11, [r1]
 8003dc8:	ed90 5a00 	vldr	s10, [r0]
 8003dcc:	ee22 2aa5 	vmul.f32	s4, s5, s11
 8003dd0:	ee03 2a85 	vmla.f32	s4, s7, s10
 8003dd4:	ee01 2a86 	vmla.f32	s4, s3, s12
 8003dd8:	ee04 2a66 	vmls.f32	s4, s8, s13
 8003ddc:	ed82 2a01 	vstr	s4, [r2, #4]
 8003de0:	ed90 0a01 	vldr	s0, [r0, #4]
 8003de4:	ee26 1a00 	vmul.f32	s2, s12, s0
 8003de8:	ee14 1a05 	vnmls.f32	s2, s8, s10
 8003dec:	ee01 1aa5 	vmla.f32	s2, s3, s11
 8003df0:	edd1 4a01 	vldr	s9, [r1, #4]
 8003df4:	ee06 1aa4 	vmla.f32	s2, s13, s9
 8003df8:	ed82 1a02 	vstr	s2, [r2, #8]
 8003dfc:	edd1 0a02 	vldr	s1, [r1, #8]
 8003e00:	ee60 7a20 	vmul.f32	s15, s0, s1
 8003e04:	ee46 7a05 	vmla.f32	s15, s12, s10
 8003e08:	ed90 7a02 	vldr	s14, [r0, #8]
 8003e0c:	ee44 7ac7 	vmls.f32	s15, s9, s14
 8003e10:	ee46 7aa5 	vmla.f32	s15, s13, s11
 8003e14:	edc2 7a03 	vstr	s15, [r2, #12]
 8003e18:	4770      	bx	lr
 8003e1a:	bf00      	nop

08003e1c <qconj>:
 8003e1c:	ed90 1a01 	vldr	s2, [r0, #4]
 8003e20:	edd0 0a02 	vldr	s1, [r0, #8]
 8003e24:	ed90 0a03 	vldr	s0, [r0, #12]
 8003e28:	eef1 6a41 	vneg.f32	s13, s2
 8003e2c:	eeb1 7a60 	vneg.f32	s14, s1
 8003e30:	eef1 7a40 	vneg.f32	s15, s0
 8003e34:	edc0 6a01 	vstr	s13, [r0, #4]
 8003e38:	ed80 7a02 	vstr	s14, [r0, #8]
 8003e3c:	edc0 7a03 	vstr	s15, [r0, #12]
 8003e40:	4770      	bx	lr
 8003e42:	bf00      	nop

08003e44 <qnorm>:
 8003e44:	edd0 7a01 	vldr	s15, [r0, #4]
 8003e48:	edd0 0a00 	vldr	s1, [r0]
 8003e4c:	ee67 7aa7 	vmul.f32	s15, s15, s15
 8003e50:	ee40 7aa0 	vmla.f32	s15, s1, s1
 8003e54:	ed90 0a02 	vldr	s0, [r0, #8]
 8003e58:	ee40 7a00 	vmla.f32	s15, s0, s0
 8003e5c:	ed90 7a03 	vldr	s14, [r0, #12]
 8003e60:	ee47 7a07 	vmla.f32	s15, s14, s14
 8003e64:	b508      	push	{r3, lr}
 8003e66:	eeb1 0ae7 	vsqrt.f32	s0, s15
 8003e6a:	eeb4 0a40 	vcmp.f32	s0, s0
 8003e6e:	eef1 fa10 	vmrs	APSR_nzcv, fpscr
 8003e72:	d100      	bne.n	8003e76 <qnorm+0x32>
 8003e74:	bd08      	pop	{r3, pc}
 8003e76:	eeb0 0a67 	vmov.f32	s0, s15
 8003e7a:	f006 f979 	bl	800a170 <sqrtf>
 8003e7e:	e7f9      	b.n	8003e74 <qnorm+0x30>

08003e80 <qnormalize>:
 8003e80:	ed90 1a01 	vldr	s2, [r0, #4]
 8003e84:	edd0 1a00 	vldr	s3, [r0]
 8003e88:	ee21 3a01 	vmul.f32	s6, s2, s2
 8003e8c:	ee01 3aa1 	vmla.f32	s6, s3, s3
 8003e90:	edd0 0a02 	vldr	s1, [r0, #8]
 8003e94:	ee00 3aa0 	vmla.f32	s6, s1, s1
 8003e98:	ed90 7a03 	vldr	s14, [r0, #12]
 8003e9c:	ee07 3a07 	vmla.f32	s6, s14, s14
 8003ea0:	f645 11df 	movw	r1, #23007	; 0x59df
 8003ea4:	ee13 2a10 	vmov	r2, s6
 8003ea8:	f6c5 7137 	movt	r1, #24375	; 0x5f37
 8003eac:	eef6 3a00 	vmov.f32	s7, #96	; 0x60
 8003eb0:	eba1 0362 	sub.w	r3, r1, r2, asr #1
 8003eb4:	ee02 3a10 	vmov	s4, r3
 8003eb8:	ee63 2a23 	vmul.f32	s5, s6, s7
 8003ebc:	eeb7 5a08 	vmov.f32	s10, #120	; 0x78
 8003ec0:	ee62 4a82 	vmul.f32	s9, s5, s4
 8003ec4:	ee02 5a64 	vmls.f32	s10, s4, s9
 8003ec8:	ee22 0a05 	vmul.f32	s0, s4, s10
 8003ecc:	ee61 5a80 	vmul.f32	s11, s3, s0
 8003ed0:	ee21 6a00 	vmul.f32	s12, s2, s0
 8003ed4:	ee60 6a80 	vmul.f32	s13, s1, s0
 8003ed8:	ee67 7a00 	vmul.f32	s15, s14, s0
 8003edc:	edc0 5a00 	vstr	s11, [r0]
 8003ee0:	ed80 6a01 	vstr	s12, [r0, #4]
 8003ee4:	edc0 6a02 	vstr	s13, [r0, #8]
 8003ee8:	edc0 7a03 	vstr	s15, [r0, #12]
 8003eec:	4770      	bx	lr
 8003eee:	bf00      	nop

08003ef0 <qvqc>:
 8003ef0:	b5f0      	push	{r4, r5, r6, r7, lr}
 8003ef2:	ed90 1a01 	vldr	s2, [r0, #4]
 8003ef6:	b091      	sub	sp, #68	; 0x44
 8003ef8:	edd0 0a02 	vldr	s1, [r0, #8]
 8003efc:	ed90 0a03 	vldr	s0, [r0, #12]
 8003f00:	6807      	ldr	r7, [r0, #0]
 8003f02:	f8d1 c008 	ldr.w	ip, [r1, #8]
 8003f06:	680e      	ldr	r6, [r1, #0]
 8003f08:	684d      	ldr	r5, [r1, #4]
 8003f0a:	9700      	str	r7, [sp, #0]
 8003f0c:	4614      	mov	r4, r2
 8003f0e:	eef1 6a41 	vneg.f32	s13, s2
 8003f12:	eeb1 7a60 	vneg.f32	s14, s1
 8003f16:	eef1 7a40 	vneg.f32	s15, s0
 8003f1a:	a904      	add	r1, sp, #16
 8003f1c:	aa08      	add	r2, sp, #32
 8003f1e:	2700      	movs	r7, #0
 8003f20:	edcd 6a01 	vstr	s13, [sp, #4]
 8003f24:	ed8d 7a02 	vstr	s14, [sp, #8]
 8003f28:	edcd 7a03 	vstr	s15, [sp, #12]
 8003f2c:	f8cd c01c 	str.w	ip, [sp, #28]
 8003f30:	9704      	str	r7, [sp, #16]
 8003f32:	9605      	str	r6, [sp, #20]
 8003f34:	9506      	str	r5, [sp, #24]
 8003f36:	f7ff ff2b 	bl	8003d90 <qmult>
 8003f3a:	a808      	add	r0, sp, #32
 8003f3c:	4669      	mov	r1, sp
 8003f3e:	aa0c      	add	r2, sp, #48	; 0x30
 8003f40:	f7ff ff26 	bl	8003d90 <qmult>
 8003f44:	990d      	ldr	r1, [sp, #52]	; 0x34
 8003f46:	980e      	ldr	r0, [sp, #56]	; 0x38
 8003f48:	9b0f      	ldr	r3, [sp, #60]	; 0x3c
 8003f4a:	6021      	str	r1, [r4, #0]
 8003f4c:	6060      	str	r0, [r4, #4]
 8003f4e:	60a3      	str	r3, [r4, #8]
 8003f50:	b011      	add	sp, #68	; 0x44
 8003f52:	bdf0      	pop	{r4, r5, r6, r7, pc}

08003f54 <sine>:
 8003f54:	b5f8      	push	{r3, r4, r5, r6, r7, lr}
 8003f56:	eddf 7a2c 	vldr	s15, [pc, #176]	; 8004008 <sine+0xb4>
 8003f5a:	ee60 7a27 	vmul.f32	s15, s0, s15
 8003f5e:	ed2d 8b02 	vpush	{d8}
 8003f62:	ee17 0a90 	vmov	r0, s15
 8003f66:	eeb0 8a40 	vmov.f32	s16, s0
 8003f6a:	f005 fcb3 	bl	80098d4 <__aeabi_f2d>
 8003f6e:	eddf 7a27 	vldr	s15, [pc, #156]	; 800400c <sine+0xb8>
 8003f72:	ee68 7a27 	vmul.f32	s15, s16, s15
 8003f76:	4606      	mov	r6, r0
 8003f78:	ee17 0a90 	vmov	r0, s15
 8003f7c:	460f      	mov	r7, r1
 8003f7e:	f005 fca9 	bl	80098d4 <__aeabi_f2d>
 8003f82:	eeb0 8ac8 	vabs.f32	s16, s16
 8003f86:	4604      	mov	r4, r0
 8003f88:	ee18 0a10 	vmov	r0, s16
 8003f8c:	460d      	mov	r5, r1
 8003f8e:	f005 fca1 	bl	80098d4 <__aeabi_f2d>
 8003f92:	4602      	mov	r2, r0
 8003f94:	460b      	mov	r3, r1
 8003f96:	4620      	mov	r0, r4
 8003f98:	4629      	mov	r1, r5
 8003f9a:	f005 fcef 	bl	800997c <__aeabi_dmul>
 8003f9e:	4602      	mov	r2, r0
 8003fa0:	460b      	mov	r3, r1
 8003fa2:	4630      	mov	r0, r6
 8003fa4:	4639      	mov	r1, r7
 8003fa6:	f005 fb37 	bl	8009618 <__adddf3>
 8003faa:	f005 ff81 	bl	8009eb0 <__aeabi_d2f>
 8003fae:	ee08 0a10 	vmov	s16, r0
 8003fb2:	f005 fc8f 	bl	80098d4 <__aeabi_f2d>
 8003fb6:	eeb0 8ac8 	vabs.f32	s16, s16
 8003fba:	4604      	mov	r4, r0
 8003fbc:	ee18 0a10 	vmov	r0, s16
 8003fc0:	460d      	mov	r5, r1
 8003fc2:	f005 fc87 	bl	80098d4 <__aeabi_f2d>
 8003fc6:	4602      	mov	r2, r0
 8003fc8:	460b      	mov	r3, r1
 8003fca:	4620      	mov	r0, r4
 8003fcc:	4629      	mov	r1, r5
 8003fce:	f005 fcd5 	bl	800997c <__aeabi_dmul>
 8003fd2:	4622      	mov	r2, r4
 8003fd4:	462b      	mov	r3, r5
 8003fd6:	f005 fb1d 	bl	8009614 <__aeabi_dsub>
 8003fda:	a309      	add	r3, pc, #36	; (adr r3, 8004000 <sine+0xac>)
 8003fdc:	e9d3 2300 	ldrd	r2, r3, [r3]
 8003fe0:	f005 fccc 	bl	800997c <__aeabi_dmul>
 8003fe4:	4602      	mov	r2, r0
 8003fe6:	460b      	mov	r3, r1
 8003fe8:	4620      	mov	r0, r4
 8003fea:	4629      	mov	r1, r5
 8003fec:	f005 fb14 	bl	8009618 <__adddf3>
 8003ff0:	f005 ff5e 	bl	8009eb0 <__aeabi_d2f>
 8003ff4:	ee00 0a10 	vmov	s0, r0
 8003ff8:	ecbd 8b02 	vpop	{d8}
 8003ffc:	bdf8      	pop	{r3, r4, r5, r6, r7, pc}
 8003ffe:	bf00      	nop
 8004000:	c0000000 	andgt	r0, r0, r0
 8004004:	3fcccccc 	svccc	0x00cccccc
 8004008:	3fa2f983 	svccc	0x00a2f983
 800400c:	becf817a 	mcrlt	1, 6, r8, cr15, cr10, {3}

08004010 <cosine>:
 8004010:	b5f8      	push	{r3, r4, r5, r6, r7, lr}
 8004012:	ed2d 8b02 	vpush	{d8}
 8004016:	ed9f 8a2c 	vldr	s16, [pc, #176]	; 80040c8 <cosine+0xb8>
 800401a:	eddf 7a2c 	vldr	s15, [pc, #176]	; 80040cc <cosine+0xbc>
 800401e:	ee38 8a40 	vsub.f32	s16, s16, s0
 8004022:	ee68 7a27 	vmul.f32	s15, s16, s15
 8004026:	ee17 0a90 	vmov	r0, s15
 800402a:	f005 fc53 	bl	80098d4 <__aeabi_f2d>
 800402e:	eddf 7a28 	vldr	s15, [pc, #160]	; 80040d0 <cosine+0xc0>
 8004032:	ee68 7a27 	vmul.f32	s15, s16, s15
 8004036:	4606      	mov	r6, r0
 8004038:	ee17 0a90 	vmov	r0, s15
 800403c:	460f      	mov	r7, r1
 800403e:	f005 fc49 	bl	80098d4 <__aeabi_f2d>
 8004042:	eeb0 8ac8 	vabs.f32	s16, s16
 8004046:	4604      	mov	r4, r0
 8004048:	ee18 0a10 	vmov	r0, s16
 800404c:	460d      	mov	r5, r1
 800404e:	f005 fc41 	bl	80098d4 <__aeabi_f2d>
 8004052:	4602      	mov	r2, r0
 8004054:	460b      	mov	r3, r1
 8004056:	4620      	mov	r0, r4
 8004058:	4629      	mov	r1, r5
 800405a:	f005 fc8f 	bl	800997c <__aeabi_dmul>
 800405e:	4602      	mov	r2, r0
 8004060:	460b      	mov	r3, r1
 8004062:	4630      	mov	r0, r6
 8004064:	4639      	mov	r1, r7
 8004066:	f005 fad7 	bl	8009618 <__adddf3>
 800406a:	f005 ff21 	bl	8009eb0 <__aeabi_d2f>
 800406e:	ee08 0a10 	vmov	s16, r0
 8004072:	f005 fc2f 	bl	80098d4 <__aeabi_f2d>
 8004076:	eeb0 8ac8 	vabs.f32	s16, s16
 800407a:	4604      	mov	r4, r0
 800407c:	ee18 0a10 	vmov	r0, s16
 8004080:	460d      	mov	r5, r1
 8004082:	f005 fc27 	bl	80098d4 <__aeabi_f2d>
 8004086:	4602      	mov	r2, r0
 8004088:	460b      	mov	r3, r1
 800408a:	4620      	mov	r0, r4
 800408c:	4629      	mov	r1, r5
 800408e:	f005 fc75 	bl	800997c <__aeabi_dmul>
 8004092:	4622      	mov	r2, r4
 8004094:	462b      	mov	r3, r5
 8004096:	f005 fabd 	bl	8009614 <__aeabi_dsub>
 800409a:	a309      	add	r3, pc, #36	; (adr r3, 80040c0 <cosine+0xb0>)
 800409c:	e9d3 2300 	ldrd	r2, r3, [r3]
 80040a0:	f005 fc6c 	bl	800997c <__aeabi_dmul>
 80040a4:	4602      	mov	r2, r0
 80040a6:	460b      	mov	r3, r1
 80040a8:	4620      	mov	r0, r4
 80040aa:	4629      	mov	r1, r5
 80040ac:	f005 fab4 	bl	8009618 <__adddf3>
 80040b0:	f005 fefe 	bl	8009eb0 <__aeabi_d2f>
 80040b4:	ee00 0a10 	vmov	s0, r0
 80040b8:	ecbd 8b02 	vpop	{d8}
 80040bc:	bdf8      	pop	{r3, r4, r5, r6, r7, pc}
 80040be:	bf00      	nop
 80040c0:	c0000000 	andgt	r0, r0, r0
 80040c4:	3fcccccc 	svccc	0x00cccccc
 80040c8:	3fc90fdb 	svccc	0x00c90fdb
 80040cc:	3fa2f983 	svccc	0x00a2f983
 80040d0:	becf817a 	mcrlt	1, 6, r8, cr15, cr10, {3}

080040d4 <tangent>:
 80040d4:	e92d 43f8 	stmdb	sp!, {r3, r4, r5, r6, r7, r8, r9, lr}
 80040d8:	ed2d 8b04 	vpush	{d8-d9}
 80040dc:	ed9f 9a56 	vldr	s18, [pc, #344]	; 8004238 <tangent+0x164>
 80040e0:	ee60 7a09 	vmul.f32	s15, s0, s18
 80040e4:	eddf 9a55 	vldr	s19, [pc, #340]	; 800423c <tangent+0x168>
 80040e8:	ee17 0a90 	vmov	r0, s15
 80040ec:	eef0 8a40 	vmov.f32	s17, s0
 80040f0:	f005 fbf0 	bl	80098d4 <__aeabi_f2d>
 80040f4:	ee68 7aa9 	vmul.f32	s15, s17, s19
 80040f8:	4606      	mov	r6, r0
 80040fa:	ee17 0a90 	vmov	r0, s15
 80040fe:	460f      	mov	r7, r1
 8004100:	f005 fbe8 	bl	80098d4 <__aeabi_f2d>
 8004104:	eef0 7ae8 	vabs.f32	s15, s17
 8004108:	4604      	mov	r4, r0
 800410a:	ee17 0a90 	vmov	r0, s15
 800410e:	460d      	mov	r5, r1
 8004110:	f005 fbe0 	bl	80098d4 <__aeabi_f2d>
 8004114:	4602      	mov	r2, r0
 8004116:	460b      	mov	r3, r1
 8004118:	4620      	mov	r0, r4
 800411a:	4629      	mov	r1, r5
 800411c:	f005 fc2e 	bl	800997c <__aeabi_dmul>
 8004120:	4602      	mov	r2, r0
 8004122:	460b      	mov	r3, r1
 8004124:	4630      	mov	r0, r6
 8004126:	4639      	mov	r1, r7
 8004128:	f005 fa76 	bl	8009618 <__adddf3>
 800412c:	f005 fec0 	bl	8009eb0 <__aeabi_d2f>
 8004130:	ee08 0a10 	vmov	s16, r0
 8004134:	f005 fbce 	bl	80098d4 <__aeabi_f2d>
 8004138:	eeb0 8ac8 	vabs.f32	s16, s16
 800413c:	4604      	mov	r4, r0
 800413e:	ee18 0a10 	vmov	r0, s16
 8004142:	460d      	mov	r5, r1
 8004144:	f005 fbc6 	bl	80098d4 <__aeabi_f2d>
 8004148:	4602      	mov	r2, r0
 800414a:	460b      	mov	r3, r1
 800414c:	4620      	mov	r0, r4
 800414e:	4629      	mov	r1, r5
 8004150:	f005 fc14 	bl	800997c <__aeabi_dmul>
 8004154:	4622      	mov	r2, r4
 8004156:	462b      	mov	r3, r5
 8004158:	f005 fa5c 	bl	8009614 <__aeabi_dsub>
 800415c:	a334      	add	r3, pc, #208	; (adr r3, 8004230 <tangent+0x15c>)
 800415e:	e9d3 2300 	ldrd	r2, r3, [r3]
 8004162:	f005 fc0b 	bl	800997c <__aeabi_dmul>
 8004166:	4602      	mov	r2, r0
 8004168:	460b      	mov	r3, r1
 800416a:	4620      	mov	r0, r4
 800416c:	4629      	mov	r1, r5
 800416e:	f005 fa53 	bl	8009618 <__adddf3>
 8004172:	eddf 7a33 	vldr	s15, [pc, #204]	; 8004240 <tangent+0x16c>
 8004176:	ee77 8ae8 	vsub.f32	s17, s15, s17
 800417a:	4680      	mov	r8, r0
 800417c:	ee28 9a89 	vmul.f32	s18, s17, s18
 8004180:	4689      	mov	r9, r1
 8004182:	ee19 0a10 	vmov	r0, s18
 8004186:	f005 fba5 	bl	80098d4 <__aeabi_f2d>
 800418a:	ee68 9aa9 	vmul.f32	s19, s17, s19
 800418e:	4606      	mov	r6, r0
 8004190:	ee19 0a90 	vmov	r0, s19
 8004194:	460f      	mov	r7, r1
 8004196:	f005 fb9d 	bl	80098d4 <__aeabi_f2d>
 800419a:	eef0 8ae8 	vabs.f32	s17, s17
 800419e:	4604      	mov	r4, r0
 80041a0:	ee18 0a90 	vmov	r0, s17
 80041a4:	460d      	mov	r5, r1
 80041a6:	f005 fb95 	bl	80098d4 <__aeabi_f2d>
 80041aa:	4602      	mov	r2, r0
 80041ac:	460b      	mov	r3, r1
 80041ae:	4620      	mov	r0, r4
 80041b0:	4629      	mov	r1, r5
 80041b2:	f005 fbe3 	bl	800997c <__aeabi_dmul>
 80041b6:	4602      	mov	r2, r0
 80041b8:	460b      	mov	r3, r1
 80041ba:	4630      	mov	r0, r6
 80041bc:	4639      	mov	r1, r7
 80041be:	f005 fa2b 	bl	8009618 <__adddf3>
 80041c2:	f005 fe75 	bl	8009eb0 <__aeabi_d2f>
 80041c6:	ee08 0a10 	vmov	s16, r0
 80041ca:	f005 fb83 	bl	80098d4 <__aeabi_f2d>
 80041ce:	eeb0 8ac8 	vabs.f32	s16, s16
 80041d2:	4604      	mov	r4, r0
 80041d4:	ee18 0a10 	vmov	r0, s16
 80041d8:	460d      	mov	r5, r1
 80041da:	f005 fb7b 	bl	80098d4 <__aeabi_f2d>
 80041de:	4602      	mov	r2, r0
 80041e0:	460b      	mov	r3, r1
 80041e2:	4620      	mov	r0, r4
 80041e4:	4629      	mov	r1, r5
 80041e6:	f005 fbc9 	bl	800997c <__aeabi_dmul>
 80041ea:	4622      	mov	r2, r4
 80041ec:	462b      	mov	r3, r5
 80041ee:	f005 fa11 	bl	8009614 <__aeabi_dsub>
 80041f2:	a30f      	add	r3, pc, #60	; (adr r3, 8004230 <tangent+0x15c>)
 80041f4:	e9d3 2300 	ldrd	r2, r3, [r3]
 80041f8:	f005 fbc0 	bl	800997c <__aeabi_dmul>
 80041fc:	4602      	mov	r2, r0
 80041fe:	460b      	mov	r3, r1
 8004200:	4620      	mov	r0, r4
 8004202:	4629      	mov	r1, r5
 8004204:	f005 fa08 	bl	8009618 <__adddf3>
 8004208:	4604      	mov	r4, r0
 800420a:	460d      	mov	r5, r1
 800420c:	4640      	mov	r0, r8
 800420e:	4649      	mov	r1, r9
 8004210:	f005 fe4e 	bl	8009eb0 <__aeabi_d2f>
 8004214:	4629      	mov	r1, r5
 8004216:	ee08 0a10 	vmov	s16, r0
 800421a:	4620      	mov	r0, r4
 800421c:	f005 fe48 	bl	8009eb0 <__aeabi_d2f>
 8004220:	ee00 0a10 	vmov	s0, r0
 8004224:	ee88 0a00 	vdiv.f32	s0, s16, s0
 8004228:	ecbd 8b04 	vpop	{d8-d9}
 800422c:	e8bd 83f8 	ldmia.w	sp!, {r3, r4, r5, r6, r7, r8, r9, pc}
 8004230:	c0000000 	andgt	r0, r0, r0
 8004234:	3fcccccc 	svccc	0x00cccccc
 8004238:	3fa2f983 	svccc	0x00a2f983
 800423c:	becf817a 	mcrlt	1, 6, r8, cr15, cr10, {3}
 8004240:	3fc90fdb 	svccc	0x00c90fdb

08004244 <invSqrt>:
 8004244:	ee10 2a10 	vmov	r2, s0
 8004248:	f645 10df 	movw	r0, #23007	; 0x59df
 800424c:	f6c5 7037 	movt	r0, #24375	; 0x5f37
 8004250:	eeb6 1a00 	vmov.f32	s2, #96	; 0x60
 8004254:	eba0 0362 	sub.w	r3, r0, r2, asr #1
 8004258:	ee60 0a01 	vmul.f32	s1, s0, s2
 800425c:	ee00 3a10 	vmov	s0, r3
 8004260:	ee20 7a80 	vmul.f32	s14, s1, s0
 8004264:	eef7 7a08 	vmov.f32	s15, #120	; 0x78
 8004268:	ee40 7a47 	vmls.f32	s15, s0, s14
 800426c:	ee20 0a27 	vmul.f32	s0, s0, s15
 8004270:	4770      	bx	lr
 8004272:	bf00      	nop
 8004274:	f3af 8000 	nop.w

08004278 <vListInitialise>:
 8004278:	f100 0108 	add.w	r1, r0, #8
 800427c:	f04f 32ff 	mov.w	r2, #4294967295
 8004280:	2300      	movs	r3, #0
 8004282:	6082      	str	r2, [r0, #8]
 8004284:	6041      	str	r1, [r0, #4]
 8004286:	60c1      	str	r1, [r0, #12]
 8004288:	6101      	str	r1, [r0, #16]
 800428a:	6003      	str	r3, [r0, #0]
 800428c:	4770      	bx	lr
 800428e:	bf00      	nop

08004290 <vListInitialiseItem>:
 8004290:	2300      	movs	r3, #0
 8004292:	6103      	str	r3, [r0, #16]
 8004294:	4770      	bx	lr
 8004296:	bf00      	nop

08004298 <vListInsertEnd>:
 8004298:	6843      	ldr	r3, [r0, #4]
 800429a:	685a      	ldr	r2, [r3, #4]
 800429c:	608b      	str	r3, [r1, #8]
 800429e:	604a      	str	r2, [r1, #4]
 80042a0:	685a      	ldr	r2, [r3, #4]
 80042a2:	6091      	str	r1, [r2, #8]
 80042a4:	6059      	str	r1, [r3, #4]
 80042a6:	6041      	str	r1, [r0, #4]
 80042a8:	6108      	str	r0, [r1, #16]
 80042aa:	6801      	ldr	r1, [r0, #0]
 80042ac:	1c4b      	adds	r3, r1, #1
 80042ae:	6003      	str	r3, [r0, #0]
 80042b0:	4770      	bx	lr
 80042b2:	bf00      	nop

080042b4 <vListInsert>:
 80042b4:	b410      	push	{r4}
 80042b6:	680c      	ldr	r4, [r1, #0]
 80042b8:	1c63      	adds	r3, r4, #1
 80042ba:	d015      	beq.n	80042e8 <vListInsert+0x34>
 80042bc:	68c3      	ldr	r3, [r0, #12]
 80042be:	681a      	ldr	r2, [r3, #0]
 80042c0:	4294      	cmp	r4, r2
 80042c2:	f100 0308 	add.w	r3, r0, #8
 80042c6:	d304      	bcc.n	80042d2 <vListInsert+0x1e>
 80042c8:	685b      	ldr	r3, [r3, #4]
 80042ca:	685a      	ldr	r2, [r3, #4]
 80042cc:	6812      	ldr	r2, [r2, #0]
 80042ce:	4294      	cmp	r4, r2
 80042d0:	d2fa      	bcs.n	80042c8 <vListInsert+0x14>
 80042d2:	685a      	ldr	r2, [r3, #4]
 80042d4:	6108      	str	r0, [r1, #16]
 80042d6:	6091      	str	r1, [r2, #8]
 80042d8:	604a      	str	r2, [r1, #4]
 80042da:	608b      	str	r3, [r1, #8]
 80042dc:	6059      	str	r1, [r3, #4]
 80042de:	6803      	ldr	r3, [r0, #0]
 80042e0:	1c59      	adds	r1, r3, #1
 80042e2:	6001      	str	r1, [r0, #0]
 80042e4:	bc10      	pop	{r4}
 80042e6:	4770      	bx	lr
 80042e8:	6903      	ldr	r3, [r0, #16]
 80042ea:	e7f2      	b.n	80042d2 <vListInsert+0x1e>

080042ec <vListRemove>:
 80042ec:	b410      	push	{r4}
 80042ee:	6842      	ldr	r2, [r0, #4]
 80042f0:	6884      	ldr	r4, [r0, #8]
 80042f2:	6903      	ldr	r3, [r0, #16]
 80042f4:	6094      	str	r4, [r2, #8]
 80042f6:	685c      	ldr	r4, [r3, #4]
 80042f8:	6881      	ldr	r1, [r0, #8]
 80042fa:	4284      	cmp	r4, r0
 80042fc:	604a      	str	r2, [r1, #4]
 80042fe:	bf08      	it	eq
 8004300:	6059      	streq	r1, [r3, #4]
 8004302:	2100      	movs	r1, #0
 8004304:	6101      	str	r1, [r0, #16]
 8004306:	6818      	ldr	r0, [r3, #0]
 8004308:	1e42      	subs	r2, r0, #1
 800430a:	601a      	str	r2, [r3, #0]
 800430c:	bc10      	pop	{r4}
 800430e:	4770      	bx	lr

08004310 <prvIdleTask>:
 8004310:	e7fe      	b.n	8004310 <prvIdleTask>
 8004312:	bf00      	nop

08004314 <prvAddCurrentTaskToDelayedList>:
 8004314:	4b0c      	ldr	r3, [pc, #48]	; (8004348 <prvAddCurrentTaskToDelayedList+0x34>)
 8004316:	6819      	ldr	r1, [r3, #0]
 8004318:	685a      	ldr	r2, [r3, #4]
 800431a:	4290      	cmp	r0, r2
 800431c:	b510      	push	{r4, lr}
 800431e:	4604      	mov	r4, r0
 8004320:	6048      	str	r0, [r1, #4]
 8004322:	d30a      	bcc.n	800433a <prvAddCurrentTaskToDelayedList+0x26>
 8004324:	68d8      	ldr	r0, [r3, #12]
 8004326:	6819      	ldr	r1, [r3, #0]
 8004328:	3104      	adds	r1, #4
 800432a:	f7ff ffc3 	bl	80042b4 <vListInsert>
 800432e:	4807      	ldr	r0, [pc, #28]	; (800434c <prvAddCurrentTaskToDelayedList+0x38>)
 8004330:	6802      	ldr	r2, [r0, #0]
 8004332:	4294      	cmp	r4, r2
 8004334:	bf38      	it	cc
 8004336:	6004      	strcc	r4, [r0, #0]
 8004338:	bd10      	pop	{r4, pc}
 800433a:	6898      	ldr	r0, [r3, #8]
 800433c:	681b      	ldr	r3, [r3, #0]
 800433e:	1d19      	adds	r1, r3, #4
 8004340:	e8bd 4010 	ldmia.w	sp!, {r4, lr}
 8004344:	f7ff bfb6 	b.w	80042b4 <vListInsert>
 8004348:	200005d0 	ldrdcs	r0, [r0], -r0	; <UNPREDICTABLE>
 800434c:	200000a0 	andcs	r0, r0, r0, lsr #1

08004350 <xTaskGenericCreate>:
 8004350:	e92d 4ff0 	stmdb	sp!, {r4, r5, r6, r7, r8, r9, sl, fp, lr}
 8004354:	b083      	sub	sp, #12
 8004356:	4605      	mov	r5, r0
 8004358:	9101      	str	r1, [sp, #4]
 800435a:	4614      	mov	r4, r2
 800435c:	469a      	mov	sl, r3
 800435e:	f8dd 8030 	ldr.w	r8, [sp, #48]	; 0x30
 8004362:	f8dd 9034 	ldr.w	r9, [sp, #52]	; 0x34
 8004366:	9f0e      	ldr	r7, [sp, #56]	; 0x38
 8004368:	b138      	cbz	r0, 800437a <xTaskGenericCreate+0x2a>
 800436a:	f1b8 0f04 	cmp.w	r8, #4
 800436e:	d909      	bls.n	8004384 <xTaskGenericCreate+0x34>
 8004370:	f04f 0050 	mov.w	r0, #80	; 0x50
 8004374:	f380 8811 	msr	BASEPRI, r0
 8004378:	e7fe      	b.n	8004378 <xTaskGenericCreate+0x28>
 800437a:	f04f 0050 	mov.w	r0, #80	; 0x50
 800437e:	f380 8811 	msr	BASEPRI, r0
 8004382:	e7fe      	b.n	8004382 <xTaskGenericCreate+0x32>
 8004384:	2048      	movs	r0, #72	; 0x48
 8004386:	f001 f805 	bl	8005394 <pvPortMalloc>
 800438a:	4606      	mov	r6, r0
 800438c:	2800      	cmp	r0, #0
 800438e:	f000 80b8 	beq.w	8004502 <xTaskGenericCreate+0x1b2>
 8004392:	2f00      	cmp	r7, #0
 8004394:	f000 80a5 	beq.w	80044e2 <xTaskGenericCreate+0x192>
 8004398:	6307      	str	r7, [r0, #48]	; 0x30
 800439a:	ea4f 0b84 	mov.w	fp, r4, lsl #2
 800439e:	21a5      	movs	r1, #165	; 0xa5
 80043a0:	465a      	mov	r2, fp
 80043a2:	4638      	mov	r0, r7
 80043a4:	f006 f96e 	bl	800a684 <memset>
 80043a8:	6b37      	ldr	r7, [r6, #48]	; 0x30
 80043aa:	9901      	ldr	r1, [sp, #4]
 80043ac:	1e63      	subs	r3, r4, #1
 80043ae:	eb07 0483 	add.w	r4, r7, r3, lsl #2
 80043b2:	2214      	movs	r2, #20
 80043b4:	f106 0034 	add.w	r0, r6, #52	; 0x34
 80043b8:	f006 f9ac 	bl	800a714 <strncpy>
 80043bc:	f024 0707 	bic.w	r7, r4, #7
 80043c0:	2100      	movs	r1, #0
 80043c2:	1d34      	adds	r4, r6, #4
 80043c4:	f886 1047 	strb.w	r1, [r6, #71]	; 0x47
 80043c8:	4620      	mov	r0, r4
 80043ca:	f8c6 802c 	str.w	r8, [r6, #44]	; 0x2c
 80043ce:	f7ff ff5f 	bl	8004290 <vListInitialiseItem>
 80043d2:	f106 0018 	add.w	r0, r6, #24
 80043d6:	f7ff ff5b 	bl	8004290 <vListInitialiseItem>
 80043da:	f1c8 0305 	rsb	r3, r8, #5
 80043de:	6136      	str	r6, [r6, #16]
 80043e0:	61b3      	str	r3, [r6, #24]
 80043e2:	6276      	str	r6, [r6, #36]	; 0x24
 80043e4:	4638      	mov	r0, r7
 80043e6:	4629      	mov	r1, r5
 80043e8:	4652      	mov	r2, sl
 80043ea:	f000 ff0f 	bl	800520c <pxPortInitialiseStack>
 80043ee:	6030      	str	r0, [r6, #0]
 80043f0:	f1b9 0f00 	cmp.w	r9, #0
 80043f4:	d001      	beq.n	80043fa <xTaskGenericCreate+0xaa>
 80043f6:	f8c9 6000 	str.w	r6, [r9]
 80043fa:	4d43      	ldr	r5, [pc, #268]	; (8004508 <xTaskGenericCreate+0x1b8>)
 80043fc:	f000 ff72 	bl	80052e4 <vPortEnterCritical>
 8004400:	6929      	ldr	r1, [r5, #16]
 8004402:	1c4a      	adds	r2, r1, #1
 8004404:	612a      	str	r2, [r5, #16]
 8004406:	6828      	ldr	r0, [r5, #0]
 8004408:	2800      	cmp	r0, #0
 800440a:	d036      	beq.n	800447a <xTaskGenericCreate+0x12a>
 800440c:	f8d5 70c8 	ldr.w	r7, [r5, #200]	; 0xc8
 8004410:	b91f      	cbnz	r7, 800441a <xTaskGenericCreate+0xca>
 8004412:	682a      	ldr	r2, [r5, #0]
 8004414:	6ad0      	ldr	r0, [r2, #44]	; 0x2c
 8004416:	4580      	cmp	r8, r0
 8004418:	d25f      	bcs.n	80044da <xTaskGenericCreate+0x18a>
 800441a:	f105 0714 	add.w	r7, r5, #20
 800441e:	6af3      	ldr	r3, [r6, #44]	; 0x2c
 8004420:	f8d5 00cc 	ldr.w	r0, [r5, #204]	; 0xcc
 8004424:	f8d5 10d0 	ldr.w	r1, [r5, #208]	; 0xd0
 8004428:	4283      	cmp	r3, r0
 800442a:	bf84      	itt	hi
 800442c:	4836      	ldrhi	r0, [pc, #216]	; (8004508 <xTaskGenericCreate+0x1b8>)
 800442e:	f8c0 30cc 	strhi.w	r3, [r0, #204]	; 0xcc
 8004432:	f8d5 00d4 	ldr.w	r0, [r5, #212]	; 0xd4
 8004436:	1c4a      	adds	r2, r1, #1
 8004438:	4283      	cmp	r3, r0
 800443a:	bf88      	it	hi
 800443c:	4832      	ldrhi	r0, [pc, #200]	; (8004508 <xTaskGenericCreate+0x1b8>)
 800443e:	f8c5 20d0 	str.w	r2, [r5, #208]	; 0xd0
 8004442:	eb03 0c83 	add.w	ip, r3, r3, lsl #2
 8004446:	bf88      	it	hi
 8004448:	f8c0 30d4 	strhi.w	r3, [r0, #212]	; 0xd4
 800444c:	4621      	mov	r1, r4
 800444e:	eb07 008c 	add.w	r0, r7, ip, lsl #2
 8004452:	f7ff ff21 	bl	8004298 <vListInsertEnd>
 8004456:	f000 ff51 	bl	80052fc <vPortExitCritical>
 800445a:	f8d5 10c8 	ldr.w	r1, [r5, #200]	; 0xc8
 800445e:	b121      	cbz	r1, 800446a <xTaskGenericCreate+0x11a>
 8004460:	4929      	ldr	r1, [pc, #164]	; (8004508 <xTaskGenericCreate+0x1b8>)
 8004462:	680a      	ldr	r2, [r1, #0]
 8004464:	6ad3      	ldr	r3, [r2, #44]	; 0x2c
 8004466:	4598      	cmp	r8, r3
 8004468:	d803      	bhi.n	8004472 <xTaskGenericCreate+0x122>
 800446a:	2001      	movs	r0, #1
 800446c:	b003      	add	sp, #12
 800446e:	e8bd 8ff0 	ldmia.w	sp!, {r4, r5, r6, r7, r8, r9, sl, fp, pc}
 8004472:	f000 ff2f 	bl	80052d4 <vPortYieldFromISR>
 8004476:	2001      	movs	r0, #1
 8004478:	e7f8      	b.n	800446c <xTaskGenericCreate+0x11c>
 800447a:	602e      	str	r6, [r5, #0]
 800447c:	692b      	ldr	r3, [r5, #16]
 800447e:	2b01      	cmp	r3, #1
 8004480:	f105 0714 	add.w	r7, r5, #20
 8004484:	d1cb      	bne.n	800441e <xTaskGenericCreate+0xce>
 8004486:	4638      	mov	r0, r7
 8004488:	f7ff fef6 	bl	8004278 <vListInitialise>
 800448c:	f105 0028 	add.w	r0, r5, #40	; 0x28
 8004490:	f7ff fef2 	bl	8004278 <vListInitialise>
 8004494:	f105 003c 	add.w	r0, r5, #60	; 0x3c
 8004498:	f7ff feee 	bl	8004278 <vListInitialise>
 800449c:	f105 0050 	add.w	r0, r5, #80	; 0x50
 80044a0:	f7ff feea 	bl	8004278 <vListInitialise>
 80044a4:	f105 0a78 	add.w	sl, r5, #120	; 0x78
 80044a8:	f105 0064 	add.w	r0, r5, #100	; 0x64
 80044ac:	f7ff fee4 	bl	8004278 <vListInitialise>
 80044b0:	f105 098c 	add.w	r9, r5, #140	; 0x8c
 80044b4:	4650      	mov	r0, sl
 80044b6:	f7ff fedf 	bl	8004278 <vListInitialise>
 80044ba:	4648      	mov	r0, r9
 80044bc:	f7ff fedc 	bl	8004278 <vListInitialise>
 80044c0:	f105 00a0 	add.w	r0, r5, #160	; 0xa0
 80044c4:	f7ff fed8 	bl	8004278 <vListInitialise>
 80044c8:	f105 00b4 	add.w	r0, r5, #180	; 0xb4
 80044cc:	f7ff fed4 	bl	8004278 <vListInitialise>
 80044d0:	f8c5 a00c 	str.w	sl, [r5, #12]
 80044d4:	f8c5 9008 	str.w	r9, [r5, #8]
 80044d8:	e7a1      	b.n	800441e <xTaskGenericCreate+0xce>
 80044da:	462f      	mov	r7, r5
 80044dc:	f847 6b14 	str.w	r6, [r7], #20
 80044e0:	e79d      	b.n	800441e <xTaskGenericCreate+0xce>
 80044e2:	ea4f 0b84 	mov.w	fp, r4, lsl #2
 80044e6:	4658      	mov	r0, fp
 80044e8:	f000 ff54 	bl	8005394 <pvPortMalloc>
 80044ec:	4607      	mov	r7, r0
 80044ee:	6330      	str	r0, [r6, #48]	; 0x30
 80044f0:	2800      	cmp	r0, #0
 80044f2:	f47f af54 	bne.w	800439e <xTaskGenericCreate+0x4e>
 80044f6:	4630      	mov	r0, r6
 80044f8:	f000 ff6e 	bl	80053d8 <vPortFree>
 80044fc:	f04f 30ff 	mov.w	r0, #4294967295
 8004500:	e7b4      	b.n	800446c <xTaskGenericCreate+0x11c>
 8004502:	f04f 30ff 	mov.w	r0, #4294967295
 8004506:	e7b1      	b.n	800446c <xTaskGenericCreate+0x11c>
 8004508:	200005d0 	ldrdcs	r0, [r0], -r0	; <UNPREDICTABLE>

0800450c <xTaskIsTaskSuspended>:
 800450c:	b128      	cbz	r0, 800451a <xTaskIsTaskSuspended+0xe>
 800450e:	6943      	ldr	r3, [r0, #20]
 8004510:	4a0a      	ldr	r2, [pc, #40]	; (800453c <xTaskIsTaskSuspended+0x30>)
 8004512:	4293      	cmp	r3, r2
 8004514:	d006      	beq.n	8004524 <xTaskIsTaskSuspended+0x18>
 8004516:	2000      	movs	r0, #0
 8004518:	4770      	bx	lr
 800451a:	f04f 0050 	mov.w	r0, #80	; 0x50
 800451e:	f380 8811 	msr	BASEPRI, r0
 8004522:	e7fe      	b.n	8004522 <xTaskIsTaskSuspended+0x16>
 8004524:	6a80      	ldr	r0, [r0, #40]	; 0x28
 8004526:	3b14      	subs	r3, #20
 8004528:	4298      	cmp	r0, r3
 800452a:	d004      	beq.n	8004536 <xTaskIsTaskSuspended+0x2a>
 800452c:	f1d0 0001 	rsbs	r0, r0, #1
 8004530:	bf38      	it	cc
 8004532:	2000      	movcc	r0, #0
 8004534:	4770      	bx	lr
 8004536:	2000      	movs	r0, #0
 8004538:	4770      	bx	lr
 800453a:	bf00      	nop
 800453c:	20000684 	andcs	r0, r0, r4, lsl #13

08004540 <vTaskResume>:
 8004540:	b570      	push	{r4, r5, r6, lr}
 8004542:	4604      	mov	r4, r0
 8004544:	b178      	cbz	r0, 8004566 <vTaskResume+0x26>
 8004546:	4d18      	ldr	r5, [pc, #96]	; (80045a8 <vTaskResume+0x68>)
 8004548:	682b      	ldr	r3, [r5, #0]
 800454a:	4298      	cmp	r0, r3
 800454c:	d00a      	beq.n	8004564 <vTaskResume+0x24>
 800454e:	f000 fec9 	bl	80052e4 <vPortEnterCritical>
 8004552:	4620      	mov	r0, r4
 8004554:	f7ff ffda 	bl	800450c <xTaskIsTaskSuspended>
 8004558:	2801      	cmp	r0, #1
 800455a:	d009      	beq.n	8004570 <vTaskResume+0x30>
 800455c:	e8bd 4070 	ldmia.w	sp!, {r4, r5, r6, lr}
 8004560:	f000 becc 	b.w	80052fc <vPortExitCritical>
 8004564:	bd70      	pop	{r4, r5, r6, pc}
 8004566:	f04f 0050 	mov.w	r0, #80	; 0x50
 800456a:	f380 8811 	msr	BASEPRI, r0
 800456e:	e7fe      	b.n	800456e <vTaskResume+0x2e>
 8004570:	1d26      	adds	r6, r4, #4
 8004572:	4630      	mov	r0, r6
 8004574:	f7ff feba 	bl	80042ec <vListRemove>
 8004578:	6ae3      	ldr	r3, [r4, #44]	; 0x2c
 800457a:	f8d5 00d4 	ldr.w	r0, [r5, #212]	; 0xd4
 800457e:	4a0b      	ldr	r2, [pc, #44]	; (80045ac <vTaskResume+0x6c>)
 8004580:	eb03 0c83 	add.w	ip, r3, r3, lsl #2
 8004584:	4283      	cmp	r3, r0
 8004586:	4631      	mov	r1, r6
 8004588:	eb02 008c 	add.w	r0, r2, ip, lsl #2
 800458c:	bf88      	it	hi
 800458e:	f8c5 30d4 	strhi.w	r3, [r5, #212]	; 0xd4
 8004592:	f7ff fe81 	bl	8004298 <vListInsertEnd>
 8004596:	6829      	ldr	r1, [r5, #0]
 8004598:	6ae2      	ldr	r2, [r4, #44]	; 0x2c
 800459a:	6ac8      	ldr	r0, [r1, #44]	; 0x2c
 800459c:	4282      	cmp	r2, r0
 800459e:	d3dd      	bcc.n	800455c <vTaskResume+0x1c>
 80045a0:	f000 fe98 	bl	80052d4 <vPortYieldFromISR>
 80045a4:	e7da      	b.n	800455c <vTaskResume+0x1c>
 80045a6:	bf00      	nop
 80045a8:	200005d0 	ldrdcs	r0, [r0], -r0	; <UNPREDICTABLE>
 80045ac:	200005e4 	andcs	r0, r0, r4, ror #11

080045b0 <xTaskResumeFromISR>:
 80045b0:	b5f8      	push	{r3, r4, r5, r6, r7, lr}
 80045b2:	4605      	mov	r5, r0
 80045b4:	f04f 0050 	mov.w	r0, #80	; 0x50
 80045b8:	f380 8811 	msr	BASEPRI, r0
 80045bc:	b15d      	cbz	r5, 80045d6 <xTaskResumeFromISR+0x26>
 80045be:	4628      	mov	r0, r5
 80045c0:	f7ff ffa4 	bl	800450c <xTaskIsTaskSuspended>
 80045c4:	2801      	cmp	r0, #1
 80045c6:	d007      	beq.n	80045d8 <xTaskResumeFromISR+0x28>
 80045c8:	2400      	movs	r4, #0
 80045ca:	f04f 0000 	mov.w	r0, #0
 80045ce:	f380 8811 	msr	BASEPRI, r0
 80045d2:	4620      	mov	r0, r4
 80045d4:	bdf8      	pop	{r3, r4, r5, r6, r7, pc}
 80045d6:	e7fe      	b.n	80045d6 <xTaskResumeFromISR+0x26>
 80045d8:	4e18      	ldr	r6, [pc, #96]	; (800463c <xTaskResumeFromISR+0x8c>)
 80045da:	f8d6 30d8 	ldr.w	r3, [r6, #216]	; 0xd8
 80045de:	b9fb      	cbnz	r3, 8004620 <xTaskResumeFromISR+0x70>
 80045e0:	6837      	ldr	r7, [r6, #0]
 80045e2:	6aec      	ldr	r4, [r5, #44]	; 0x2c
 80045e4:	6afa      	ldr	r2, [r7, #44]	; 0x2c
 80045e6:	1d2f      	adds	r7, r5, #4
 80045e8:	4638      	mov	r0, r7
 80045ea:	4294      	cmp	r4, r2
 80045ec:	bf34      	ite	cc
 80045ee:	2400      	movcc	r4, #0
 80045f0:	2401      	movcs	r4, #1
 80045f2:	f7ff fe7b 	bl	80042ec <vListRemove>
 80045f6:	6ae9      	ldr	r1, [r5, #44]	; 0x2c
 80045f8:	f8d6 30d4 	ldr.w	r3, [r6, #212]	; 0xd4
 80045fc:	4a10      	ldr	r2, [pc, #64]	; (8004640 <xTaskResumeFromISR+0x90>)
 80045fe:	4299      	cmp	r1, r3
 8004600:	eb01 0081 	add.w	r0, r1, r1, lsl #2
 8004604:	bf88      	it	hi
 8004606:	f8c6 10d4 	strhi.w	r1, [r6, #212]	; 0xd4
 800460a:	eb02 0080 	add.w	r0, r2, r0, lsl #2
 800460e:	4639      	mov	r1, r7
 8004610:	f7ff fe42 	bl	8004298 <vListInsertEnd>
 8004614:	f04f 0000 	mov.w	r0, #0
 8004618:	f380 8811 	msr	BASEPRI, r0
 800461c:	4620      	mov	r0, r4
 800461e:	bdf8      	pop	{r3, r4, r5, r6, r7, pc}
 8004620:	f105 0118 	add.w	r1, r5, #24
 8004624:	f106 00a0 	add.w	r0, r6, #160	; 0xa0
 8004628:	f7ff fe36 	bl	8004298 <vListInsertEnd>
 800462c:	2400      	movs	r4, #0
 800462e:	f04f 0000 	mov.w	r0, #0
 8004632:	f380 8811 	msr	BASEPRI, r0
 8004636:	4620      	mov	r0, r4
 8004638:	bdf8      	pop	{r3, r4, r5, r6, r7, pc}
 800463a:	bf00      	nop
 800463c:	200005d0 	ldrdcs	r0, [r0], -r0	; <UNPREDICTABLE>
 8004640:	200005e4 	andcs	r0, r0, r4, ror #11

08004644 <vTaskStartScheduler>:
 8004644:	b510      	push	{r4, lr}
 8004646:	2400      	movs	r4, #0
 8004648:	b084      	sub	sp, #16
 800464a:	2280      	movs	r2, #128	; 0x80
 800464c:	4623      	mov	r3, r4
 800464e:	4811      	ldr	r0, [pc, #68]	; (8004694 <vTaskStartScheduler+0x50>)
 8004650:	4911      	ldr	r1, [pc, #68]	; (8004698 <vTaskStartScheduler+0x54>)
 8004652:	9400      	str	r4, [sp, #0]
 8004654:	9401      	str	r4, [sp, #4]
 8004656:	9402      	str	r4, [sp, #8]
 8004658:	9403      	str	r4, [sp, #12]
 800465a:	f7ff fe79 	bl	8004350 <xTaskGenericCreate>
 800465e:	2801      	cmp	r0, #1
 8004660:	4603      	mov	r3, r0
 8004662:	d007      	beq.n	8004674 <vTaskStartScheduler+0x30>
 8004664:	b920      	cbnz	r0, 8004670 <vTaskStartScheduler+0x2c>
 8004666:	f04f 0050 	mov.w	r0, #80	; 0x50
 800466a:	f380 8811 	msr	BASEPRI, r0
 800466e:	e7fe      	b.n	800466e <vTaskStartScheduler+0x2a>
 8004670:	b004      	add	sp, #16
 8004672:	bd10      	pop	{r4, pc}
 8004674:	f04f 0050 	mov.w	r0, #80	; 0x50
 8004678:	f380 8811 	msr	BASEPRI, r0
 800467c:	4a07      	ldr	r2, [pc, #28]	; (800469c <vTaskStartScheduler+0x58>)
 800467e:	f8c2 30c8 	str.w	r3, [r2, #200]	; 0xc8
 8004682:	6054      	str	r4, [r2, #4]
 8004684:	f7fe ff3c 	bl	8003500 <FastCounterInit>
 8004688:	b004      	add	sp, #16
 800468a:	e8bd 4010 	ldmia.w	sp!, {r4, lr}
 800468e:	f000 bddf 	b.w	8005250 <xPortStartScheduler>
 8004692:	bf00      	nop
 8004694:	08004311 	stmdaeq	r0, {r0, r4, r8, r9, lr}
 8004698:	0800ad58 	stmdaeq	r0, {r3, r4, r6, r8, sl, fp, sp, pc}
 800469c:	200005d0 	ldrdcs	r0, [r0], -r0	; <UNPREDICTABLE>

080046a0 <vTaskEndScheduler>:
 80046a0:	f04f 0050 	mov.w	r0, #80	; 0x50
 80046a4:	f380 8811 	msr	BASEPRI, r0
 80046a8:	f240 53d0 	movw	r3, #1488	; 0x5d0
 80046ac:	f2c2 0300 	movt	r3, #8192	; 0x2000
 80046b0:	2200      	movs	r2, #0
 80046b2:	f8c3 20c8 	str.w	r2, [r3, #200]	; 0xc8
 80046b6:	f000 be0b 	b.w	80052d0 <vPortEndScheduler>
 80046ba:	bf00      	nop

080046bc <vTaskSuspendAll>:
 80046bc:	f240 53d0 	movw	r3, #1488	; 0x5d0
 80046c0:	f2c2 0300 	movt	r3, #8192	; 0x2000
 80046c4:	f8d3 00d8 	ldr.w	r0, [r3, #216]	; 0xd8
 80046c8:	1c42      	adds	r2, r0, #1
 80046ca:	f8c3 20d8 	str.w	r2, [r3, #216]	; 0xd8
 80046ce:	4770      	bx	lr

080046d0 <xTaskGetTickCount>:
 80046d0:	b510      	push	{r4, lr}
 80046d2:	f000 fe07 	bl	80052e4 <vPortEnterCritical>
 80046d6:	f240 53d0 	movw	r3, #1488	; 0x5d0
 80046da:	f2c2 0300 	movt	r3, #8192	; 0x2000
 80046de:	685c      	ldr	r4, [r3, #4]
 80046e0:	f000 fe0c 	bl	80052fc <vPortExitCritical>
 80046e4:	4620      	mov	r0, r4
 80046e6:	bd10      	pop	{r4, pc}

080046e8 <xTaskGetTickCountFromISR>:
 80046e8:	f04f 0050 	mov.w	r0, #80	; 0x50
 80046ec:	f380 8811 	msr	BASEPRI, r0
 80046f0:	f240 50d0 	movw	r0, #1488	; 0x5d0
 80046f4:	f2c2 0000 	movt	r0, #8192	; 0x2000
 80046f8:	6843      	ldr	r3, [r0, #4]
 80046fa:	f04f 0000 	mov.w	r0, #0
 80046fe:	f380 8811 	msr	BASEPRI, r0
 8004702:	4618      	mov	r0, r3
 8004704:	4770      	bx	lr
 8004706:	bf00      	nop

08004708 <uxTaskGetNumberOfTasks>:
 8004708:	f240 53d0 	movw	r3, #1488	; 0x5d0
 800470c:	f2c2 0300 	movt	r3, #8192	; 0x2000
 8004710:	6918      	ldr	r0, [r3, #16]
 8004712:	4770      	bx	lr

08004714 <vTaskIncrementTick>:
 8004714:	e92d 43f8 	stmdb	sp!, {r3, r4, r5, r6, r7, r8, r9, lr}
 8004718:	4c3b      	ldr	r4, [pc, #236]	; (8004808 <vTaskIncrementTick+0xf4>)
 800471a:	f8d4 30d8 	ldr.w	r3, [r4, #216]	; 0xd8
 800471e:	2b00      	cmp	r3, #0
 8004720:	d148      	bne.n	80047b4 <vTaskIncrementTick+0xa0>
 8004722:	6862      	ldr	r2, [r4, #4]
 8004724:	1c51      	adds	r1, r2, #1
 8004726:	6061      	str	r1, [r4, #4]
 8004728:	6860      	ldr	r0, [r4, #4]
 800472a:	2800      	cmp	r0, #0
 800472c:	d049      	beq.n	80047c2 <vTaskIncrementTick+0xae>
 800472e:	4d37      	ldr	r5, [pc, #220]	; (800480c <vTaskIncrementTick+0xf8>)
 8004730:	682b      	ldr	r3, [r5, #0]
 8004732:	6862      	ldr	r2, [r4, #4]
 8004734:	4e34      	ldr	r6, [pc, #208]	; (8004808 <vTaskIncrementTick+0xf4>)
 8004736:	429a      	cmp	r2, r3
 8004738:	d341      	bcc.n	80047be <vTaskIncrementTick+0xaa>
 800473a:	68f0      	ldr	r0, [r6, #12]
 800473c:	6803      	ldr	r3, [r0, #0]
 800473e:	2b00      	cmp	r3, #0
 8004740:	d033      	beq.n	80047aa <vTaskIncrementTick+0x96>
 8004742:	68f3      	ldr	r3, [r6, #12]
 8004744:	68da      	ldr	r2, [r3, #12]
 8004746:	f8d2 800c 	ldr.w	r8, [r2, #12]
 800474a:	6871      	ldr	r1, [r6, #4]
 800474c:	f8d8 3004 	ldr.w	r3, [r8, #4]
 8004750:	428b      	cmp	r3, r1
 8004752:	d84f      	bhi.n	80047f4 <vTaskIncrementTick+0xe0>
 8004754:	f106 0714 	add.w	r7, r6, #20
 8004758:	e008      	b.n	800476c <vTaskIncrementTick+0x58>
 800475a:	68f3      	ldr	r3, [r6, #12]
 800475c:	68da      	ldr	r2, [r3, #12]
 800475e:	f8d2 800c 	ldr.w	r8, [r2, #12]
 8004762:	6871      	ldr	r1, [r6, #4]
 8004764:	f8d8 3004 	ldr.w	r3, [r8, #4]
 8004768:	428b      	cmp	r3, r1
 800476a:	d843      	bhi.n	80047f4 <vTaskIncrementTick+0xe0>
 800476c:	f108 0904 	add.w	r9, r8, #4
 8004770:	4648      	mov	r0, r9
 8004772:	f7ff fdbb 	bl	80042ec <vListRemove>
 8004776:	f8d8 1028 	ldr.w	r1, [r8, #40]	; 0x28
 800477a:	f108 0018 	add.w	r0, r8, #24
 800477e:	b109      	cbz	r1, 8004784 <vTaskIncrementTick+0x70>
 8004780:	f7ff fdb4 	bl	80042ec <vListRemove>
 8004784:	f8d8 302c 	ldr.w	r3, [r8, #44]	; 0x2c
 8004788:	f8d4 20d4 	ldr.w	r2, [r4, #212]	; 0xd4
 800478c:	eb03 0183 	add.w	r1, r3, r3, lsl #2
 8004790:	4293      	cmp	r3, r2
 8004792:	eb07 0081 	add.w	r0, r7, r1, lsl #2
 8004796:	bf88      	it	hi
 8004798:	f8c6 30d4 	strhi.w	r3, [r6, #212]	; 0xd4
 800479c:	4649      	mov	r1, r9
 800479e:	f7ff fd7b 	bl	8004298 <vListInsertEnd>
 80047a2:	68e2      	ldr	r2, [r4, #12]
 80047a4:	6810      	ldr	r0, [r2, #0]
 80047a6:	2800      	cmp	r0, #0
 80047a8:	d1d7      	bne.n	800475a <vTaskIncrementTick+0x46>
 80047aa:	f04f 30ff 	mov.w	r0, #4294967295
 80047ae:	6028      	str	r0, [r5, #0]
 80047b0:	e8bd 83f8 	ldmia.w	sp!, {r3, r4, r5, r6, r7, r8, r9, pc}
 80047b4:	f8d4 30e0 	ldr.w	r3, [r4, #224]	; 0xe0
 80047b8:	1c58      	adds	r0, r3, #1
 80047ba:	f8c4 00e0 	str.w	r0, [r4, #224]	; 0xe0
 80047be:	e8bd 83f8 	ldmia.w	sp!, {r3, r4, r5, r6, r7, r8, r9, pc}
 80047c2:	68e6      	ldr	r6, [r4, #12]
 80047c4:	6835      	ldr	r5, [r6, #0]
 80047c6:	b125      	cbz	r5, 80047d2 <vTaskIncrementTick+0xbe>
 80047c8:	f04f 0050 	mov.w	r0, #80	; 0x50
 80047cc:	f380 8811 	msr	BASEPRI, r0
 80047d0:	e7fe      	b.n	80047d0 <vTaskIncrementTick+0xbc>
 80047d2:	68e5      	ldr	r5, [r4, #12]
 80047d4:	68a6      	ldr	r6, [r4, #8]
 80047d6:	60e6      	str	r6, [r4, #12]
 80047d8:	60a5      	str	r5, [r4, #8]
 80047da:	f8d4 20dc 	ldr.w	r2, [r4, #220]	; 0xdc
 80047de:	1c51      	adds	r1, r2, #1
 80047e0:	f8c4 10dc 	str.w	r1, [r4, #220]	; 0xdc
 80047e4:	68e0      	ldr	r0, [r4, #12]
 80047e6:	6803      	ldr	r3, [r0, #0]
 80047e8:	b93b      	cbnz	r3, 80047fa <vTaskIncrementTick+0xe6>
 80047ea:	4d08      	ldr	r5, [pc, #32]	; (800480c <vTaskIncrementTick+0xf8>)
 80047ec:	f04f 33ff 	mov.w	r3, #4294967295
 80047f0:	602b      	str	r3, [r5, #0]
 80047f2:	e79e      	b.n	8004732 <vTaskIncrementTick+0x1e>
 80047f4:	602b      	str	r3, [r5, #0]
 80047f6:	e8bd 83f8 	ldmia.w	sp!, {r3, r4, r5, r6, r7, r8, r9, pc}
 80047fa:	68e1      	ldr	r1, [r4, #12]
 80047fc:	4d03      	ldr	r5, [pc, #12]	; (800480c <vTaskIncrementTick+0xf8>)
 80047fe:	68c8      	ldr	r0, [r1, #12]
 8004800:	68c3      	ldr	r3, [r0, #12]
 8004802:	685b      	ldr	r3, [r3, #4]
 8004804:	602b      	str	r3, [r5, #0]
 8004806:	e794      	b.n	8004732 <vTaskIncrementTick+0x1e>
 8004808:	200005d0 	ldrdcs	r0, [r0], -r0	; <UNPREDICTABLE>
 800480c:	200000a0 	andcs	r0, r0, r0, lsr #1

08004810 <xTaskResumeAll>:
 8004810:	e92d 43f8 	stmdb	sp!, {r3, r4, r5, r6, r7, r8, r9, lr}
 8004814:	4c33      	ldr	r4, [pc, #204]	; (80048e4 <xTaskResumeAll+0xd4>)
 8004816:	f8d4 30d8 	ldr.w	r3, [r4, #216]	; 0xd8
 800481a:	b923      	cbnz	r3, 8004826 <xTaskResumeAll+0x16>
 800481c:	f04f 0050 	mov.w	r0, #80	; 0x50
 8004820:	f380 8811 	msr	BASEPRI, r0
 8004824:	e7fe      	b.n	8004824 <xTaskResumeAll+0x14>
 8004826:	f000 fd5d 	bl	80052e4 <vPortEnterCritical>
 800482a:	f8d4 10d8 	ldr.w	r1, [r4, #216]	; 0xd8
 800482e:	1e48      	subs	r0, r1, #1
 8004830:	f8c4 00d8 	str.w	r0, [r4, #216]	; 0xd8
 8004834:	f8d4 60d8 	ldr.w	r6, [r4, #216]	; 0xd8
 8004838:	2e00      	cmp	r6, #0
 800483a:	d143      	bne.n	80048c4 <xTaskResumeAll+0xb4>
 800483c:	6923      	ldr	r3, [r4, #16]
 800483e:	2b00      	cmp	r3, #0
 8004840:	d046      	beq.n	80048d0 <xTaskResumeAll+0xc0>
 8004842:	4627      	mov	r7, r4
 8004844:	f104 0814 	add.w	r8, r4, #20
 8004848:	e01f      	b.n	800488a <xTaskResumeAll+0x7a>
 800484a:	f8d7 50ac 	ldr.w	r5, [r7, #172]	; 0xac
 800484e:	68ed      	ldr	r5, [r5, #12]
 8004850:	f105 0018 	add.w	r0, r5, #24
 8004854:	f105 0904 	add.w	r9, r5, #4
 8004858:	f7ff fd48 	bl	80042ec <vListRemove>
 800485c:	4648      	mov	r0, r9
 800485e:	f7ff fd45 	bl	80042ec <vListRemove>
 8004862:	6aeb      	ldr	r3, [r5, #44]	; 0x2c
 8004864:	f8d7 20d4 	ldr.w	r2, [r7, #212]	; 0xd4
 8004868:	eb03 0183 	add.w	r1, r3, r3, lsl #2
 800486c:	4293      	cmp	r3, r2
 800486e:	eb08 0081 	add.w	r0, r8, r1, lsl #2
 8004872:	bf88      	it	hi
 8004874:	f8c7 30d4 	strhi.w	r3, [r7, #212]	; 0xd4
 8004878:	4649      	mov	r1, r9
 800487a:	f7ff fd0d 	bl	8004298 <vListInsertEnd>
 800487e:	6820      	ldr	r0, [r4, #0]
 8004880:	6aea      	ldr	r2, [r5, #44]	; 0x2c
 8004882:	6ac3      	ldr	r3, [r0, #44]	; 0x2c
 8004884:	429a      	cmp	r2, r3
 8004886:	bf28      	it	cs
 8004888:	2601      	movcs	r6, #1
 800488a:	f8d4 00a0 	ldr.w	r0, [r4, #160]	; 0xa0
 800488e:	4b15      	ldr	r3, [pc, #84]	; (80048e4 <xTaskResumeAll+0xd4>)
 8004890:	2800      	cmp	r0, #0
 8004892:	d1da      	bne.n	800484a <xTaskResumeAll+0x3a>
 8004894:	f8d3 20e0 	ldr.w	r2, [r3, #224]	; 0xe0
 8004898:	b1e2      	cbz	r2, 80048d4 <xTaskResumeAll+0xc4>
 800489a:	f8d3 30e0 	ldr.w	r3, [r3, #224]	; 0xe0
 800489e:	b153      	cbz	r3, 80048b6 <xTaskResumeAll+0xa6>
 80048a0:	f7ff ff38 	bl	8004714 <vTaskIncrementTick>
 80048a4:	f8d4 00e0 	ldr.w	r0, [r4, #224]	; 0xe0
 80048a8:	1e41      	subs	r1, r0, #1
 80048aa:	f8c4 10e0 	str.w	r1, [r4, #224]	; 0xe0
 80048ae:	f8d4 20e0 	ldr.w	r2, [r4, #224]	; 0xe0
 80048b2:	2a00      	cmp	r2, #0
 80048b4:	d1f4      	bne.n	80048a0 <xTaskResumeAll+0x90>
 80048b6:	2200      	movs	r2, #0
 80048b8:	f8c4 20e4 	str.w	r2, [r4, #228]	; 0xe4
 80048bc:	2401      	movs	r4, #1
 80048be:	f000 fd09 	bl	80052d4 <vPortYieldFromISR>
 80048c2:	e000      	b.n	80048c6 <xTaskResumeAll+0xb6>
 80048c4:	2400      	movs	r4, #0
 80048c6:	f000 fd19 	bl	80052fc <vPortExitCritical>
 80048ca:	4620      	mov	r0, r4
 80048cc:	e8bd 83f8 	ldmia.w	sp!, {r3, r4, r5, r6, r7, r8, r9, pc}
 80048d0:	461c      	mov	r4, r3
 80048d2:	e7f8      	b.n	80048c6 <xTaskResumeAll+0xb6>
 80048d4:	2e01      	cmp	r6, #1
 80048d6:	d0ee      	beq.n	80048b6 <xTaskResumeAll+0xa6>
 80048d8:	f8d3 30e4 	ldr.w	r3, [r3, #228]	; 0xe4
 80048dc:	2b01      	cmp	r3, #1
 80048de:	d0ea      	beq.n	80048b6 <xTaskResumeAll+0xa6>
 80048e0:	4614      	mov	r4, r2
 80048e2:	e7f0      	b.n	80048c6 <xTaskResumeAll+0xb6>
 80048e4:	200005d0 	ldrdcs	r0, [r0], -r0	; <UNPREDICTABLE>

080048e8 <vTaskDelay>:
 80048e8:	b510      	push	{r4, lr}
 80048ea:	b918      	cbnz	r0, 80048f4 <vTaskDelay+0xc>
 80048ec:	e8bd 4010 	ldmia.w	sp!, {r4, lr}
 80048f0:	f000 bcf0 	b.w	80052d4 <vPortYieldFromISR>
 80048f4:	4b0a      	ldr	r3, [pc, #40]	; (8004920 <vTaskDelay+0x38>)
 80048f6:	f8d3 40d8 	ldr.w	r4, [r3, #216]	; 0xd8
 80048fa:	1c62      	adds	r2, r4, #1
 80048fc:	f8c3 20d8 	str.w	r2, [r3, #216]	; 0xd8
 8004900:	685c      	ldr	r4, [r3, #4]
 8004902:	6819      	ldr	r1, [r3, #0]
 8004904:	1d0b      	adds	r3, r1, #4
 8004906:	1904      	adds	r4, r0, r4
 8004908:	4618      	mov	r0, r3
 800490a:	f7ff fcef 	bl	80042ec <vListRemove>
 800490e:	4620      	mov	r0, r4
 8004910:	f7ff fd00 	bl	8004314 <prvAddCurrentTaskToDelayedList>
 8004914:	f7ff ff7c 	bl	8004810 <xTaskResumeAll>
 8004918:	2800      	cmp	r0, #0
 800491a:	d0e7      	beq.n	80048ec <vTaskDelay+0x4>
 800491c:	bd10      	pop	{r4, pc}
 800491e:	bf00      	nop
 8004920:	200005d0 	ldrdcs	r0, [r0], -r0	; <UNPREDICTABLE>

08004924 <vTaskDelayUntil>:
 8004924:	b538      	push	{r3, r4, r5, lr}
 8004926:	b1a0      	cbz	r0, 8004952 <vTaskDelayUntil+0x2e>
 8004928:	b921      	cbnz	r1, 8004934 <vTaskDelayUntil+0x10>
 800492a:	f04f 0050 	mov.w	r0, #80	; 0x50
 800492e:	f380 8811 	msr	BASEPRI, r0
 8004932:	e7fe      	b.n	8004932 <vTaskDelayUntil+0xe>
 8004934:	4b16      	ldr	r3, [pc, #88]	; (8004990 <vTaskDelayUntil+0x6c>)
 8004936:	6802      	ldr	r2, [r0, #0]
 8004938:	f8d3 50d8 	ldr.w	r5, [r3, #216]	; 0xd8
 800493c:	1c6c      	adds	r4, r5, #1
 800493e:	f8c3 40d8 	str.w	r4, [r3, #216]	; 0xd8
 8004942:	685d      	ldr	r5, [r3, #4]
 8004944:	42aa      	cmp	r2, r5
 8004946:	eb02 0401 	add.w	r4, r2, r1
 800494a:	d907      	bls.n	800495c <vTaskDelayUntil+0x38>
 800494c:	42a2      	cmp	r2, r4
 800494e:	d90a      	bls.n	8004966 <vTaskDelayUntil+0x42>
 8004950:	e006      	b.n	8004960 <vTaskDelayUntil+0x3c>
 8004952:	f04f 0050 	mov.w	r0, #80	; 0x50
 8004956:	f380 8811 	msr	BASEPRI, r0
 800495a:	e7fe      	b.n	800495a <vTaskDelayUntil+0x36>
 800495c:	42a2      	cmp	r2, r4
 800495e:	d807      	bhi.n	8004970 <vTaskDelayUntil+0x4c>
 8004960:	685a      	ldr	r2, [r3, #4]
 8004962:	4294      	cmp	r4, r2
 8004964:	d804      	bhi.n	8004970 <vTaskDelayUntil+0x4c>
 8004966:	6004      	str	r4, [r0, #0]
 8004968:	f7ff ff52 	bl	8004810 <xTaskResumeAll>
 800496c:	b160      	cbz	r0, 8004988 <vTaskDelayUntil+0x64>
 800496e:	bd38      	pop	{r3, r4, r5, pc}
 8004970:	681b      	ldr	r3, [r3, #0]
 8004972:	6004      	str	r4, [r0, #0]
 8004974:	1d18      	adds	r0, r3, #4
 8004976:	f7ff fcb9 	bl	80042ec <vListRemove>
 800497a:	4620      	mov	r0, r4
 800497c:	f7ff fcca 	bl	8004314 <prvAddCurrentTaskToDelayedList>
 8004980:	f7ff ff46 	bl	8004810 <xTaskResumeAll>
 8004984:	2800      	cmp	r0, #0
 8004986:	d1f2      	bne.n	800496e <vTaskDelayUntil+0x4a>
 8004988:	e8bd 4038 	ldmia.w	sp!, {r3, r4, r5, lr}
 800498c:	f000 bca2 	b.w	80052d4 <vPortYieldFromISR>
 8004990:	200005d0 	ldrdcs	r0, [r0], -r0	; <UNPREDICTABLE>

08004994 <vTaskSwitchContext>:
 8004994:	4b1e      	ldr	r3, [pc, #120]	; (8004a10 <vTaskSwitchContext+0x7c>)
 8004996:	f8d3 20d8 	ldr.w	r2, [r3, #216]	; 0xd8
 800499a:	2a00      	cmp	r2, #0
 800499c:	d12f      	bne.n	80049fe <vTaskSwitchContext+0x6a>
 800499e:	f8d3 00d4 	ldr.w	r0, [r3, #212]	; 0xd4
 80049a2:	eb00 0180 	add.w	r1, r0, r0, lsl #2
 80049a6:	008a      	lsls	r2, r1, #2
 80049a8:	f103 0014 	add.w	r0, r3, #20
 80049ac:	5881      	ldr	r1, [r0, r2]
 80049ae:	b9a1      	cbnz	r1, 80049da <vTaskSwitchContext+0x46>
 80049b0:	f8d3 20d4 	ldr.w	r2, [r3, #212]	; 0xd4
 80049b4:	b33a      	cbz	r2, 8004a06 <vTaskSwitchContext+0x72>
 80049b6:	4619      	mov	r1, r3
 80049b8:	e002      	b.n	80049c0 <vTaskSwitchContext+0x2c>
 80049ba:	f8d1 20d4 	ldr.w	r2, [r1, #212]	; 0xd4
 80049be:	b312      	cbz	r2, 8004a06 <vTaskSwitchContext+0x72>
 80049c0:	f8d3 20d4 	ldr.w	r2, [r3, #212]	; 0xd4
 80049c4:	3a01      	subs	r2, #1
 80049c6:	f8c3 20d4 	str.w	r2, [r3, #212]	; 0xd4
 80049ca:	f8d3 20d4 	ldr.w	r2, [r3, #212]	; 0xd4
 80049ce:	eb02 0c82 	add.w	ip, r2, r2, lsl #2
 80049d2:	f850 202c 	ldr.w	r2, [r0, ip, lsl #2]
 80049d6:	2a00      	cmp	r2, #0
 80049d8:	d0ef      	beq.n	80049ba <vTaskSwitchContext+0x26>
 80049da:	f8d3 10d4 	ldr.w	r1, [r3, #212]	; 0xd4
 80049de:	eb01 0281 	add.w	r2, r1, r1, lsl #2
 80049e2:	eb00 0182 	add.w	r1, r0, r2, lsl #2
 80049e6:	f101 0c08 	add.w	ip, r1, #8
 80049ea:	6848      	ldr	r0, [r1, #4]
 80049ec:	6842      	ldr	r2, [r0, #4]
 80049ee:	604a      	str	r2, [r1, #4]
 80049f0:	4562      	cmp	r2, ip
 80049f2:	bf04      	itt	eq
 80049f4:	6852      	ldreq	r2, [r2, #4]
 80049f6:	604a      	streq	r2, [r1, #4]
 80049f8:	68d0      	ldr	r0, [r2, #12]
 80049fa:	6018      	str	r0, [r3, #0]
 80049fc:	4770      	bx	lr
 80049fe:	2101      	movs	r1, #1
 8004a00:	f8c3 10e4 	str.w	r1, [r3, #228]	; 0xe4
 8004a04:	4770      	bx	lr
 8004a06:	f04f 0050 	mov.w	r0, #80	; 0x50
 8004a0a:	f380 8811 	msr	BASEPRI, r0
 8004a0e:	e7fe      	b.n	8004a0e <vTaskSwitchContext+0x7a>
 8004a10:	200005d0 	ldrdcs	r0, [r0], -r0	; <UNPREDICTABLE>

08004a14 <vTaskSuspend>:
 8004a14:	b570      	push	{r4, r5, r6, lr}
 8004a16:	4604      	mov	r4, r0
 8004a18:	f000 fc64 	bl	80052e4 <vPortEnterCritical>
 8004a1c:	4b17      	ldr	r3, [pc, #92]	; (8004a7c <vTaskSuspend+0x68>)
 8004a1e:	681a      	ldr	r2, [r3, #0]
 8004a20:	4294      	cmp	r4, r2
 8004a22:	d021      	beq.n	8004a68 <vTaskSuspend+0x54>
 8004a24:	2c00      	cmp	r4, #0
 8004a26:	d01f      	beq.n	8004a68 <vTaskSuspend+0x54>
 8004a28:	4625      	mov	r5, r4
 8004a2a:	1d2e      	adds	r6, r5, #4
 8004a2c:	4630      	mov	r0, r6
 8004a2e:	f7ff fc5d 	bl	80042ec <vListRemove>
 8004a32:	6aab      	ldr	r3, [r5, #40]	; 0x28
 8004a34:	b11b      	cbz	r3, 8004a3e <vTaskSuspend+0x2a>
 8004a36:	f105 0018 	add.w	r0, r5, #24
 8004a3a:	f7ff fc57 	bl	80042ec <vListRemove>
 8004a3e:	4d0f      	ldr	r5, [pc, #60]	; (8004a7c <vTaskSuspend+0x68>)
 8004a40:	4631      	mov	r1, r6
 8004a42:	f105 00b4 	add.w	r0, r5, #180	; 0xb4
 8004a46:	f7ff fc27 	bl	8004298 <vListInsertEnd>
 8004a4a:	f000 fc57 	bl	80052fc <vPortExitCritical>
 8004a4e:	b104      	cbz	r4, 8004a52 <vTaskSuspend+0x3e>
 8004a50:	bd70      	pop	{r4, r5, r6, pc}
 8004a52:	f8d5 00c8 	ldr.w	r0, [r5, #200]	; 0xc8
 8004a56:	b960      	cbnz	r0, 8004a72 <vTaskSuspend+0x5e>
 8004a58:	f8d5 10b4 	ldr.w	r1, [r5, #180]	; 0xb4
 8004a5c:	692a      	ldr	r2, [r5, #16]
 8004a5e:	4291      	cmp	r1, r2
 8004a60:	d005      	beq.n	8004a6e <vTaskSuspend+0x5a>
 8004a62:	e8bd 4070 	ldmia.w	sp!, {r4, r5, r6, lr}
 8004a66:	e795      	b.n	8004994 <vTaskSwitchContext>
 8004a68:	681d      	ldr	r5, [r3, #0]
 8004a6a:	2400      	movs	r4, #0
 8004a6c:	e7dd      	b.n	8004a2a <vTaskSuspend+0x16>
 8004a6e:	602c      	str	r4, [r5, #0]
 8004a70:	bd70      	pop	{r4, r5, r6, pc}
 8004a72:	e8bd 4070 	ldmia.w	sp!, {r4, r5, r6, lr}
 8004a76:	f000 bc2d 	b.w	80052d4 <vPortYieldFromISR>
 8004a7a:	bf00      	nop
 8004a7c:	200005d0 	ldrdcs	r0, [r0], -r0	; <UNPREDICTABLE>

08004a80 <vTaskPlaceOnEventList>:
 8004a80:	b538      	push	{r3, r4, r5, lr}
 8004a82:	460d      	mov	r5, r1
 8004a84:	b178      	cbz	r0, 8004aa6 <vTaskPlaceOnEventList+0x26>
 8004a86:	4c0e      	ldr	r4, [pc, #56]	; (8004ac0 <vTaskPlaceOnEventList+0x40>)
 8004a88:	6821      	ldr	r1, [r4, #0]
 8004a8a:	3118      	adds	r1, #24
 8004a8c:	f7ff fc12 	bl	80042b4 <vListInsert>
 8004a90:	6820      	ldr	r0, [r4, #0]
 8004a92:	3004      	adds	r0, #4
 8004a94:	f7ff fc2a 	bl	80042ec <vListRemove>
 8004a98:	1c6b      	adds	r3, r5, #1
 8004a9a:	d009      	beq.n	8004ab0 <vTaskPlaceOnEventList+0x30>
 8004a9c:	6862      	ldr	r2, [r4, #4]
 8004a9e:	18a8      	adds	r0, r5, r2
 8004aa0:	e8bd 4038 	ldmia.w	sp!, {r3, r4, r5, lr}
 8004aa4:	e436      	b.n	8004314 <prvAddCurrentTaskToDelayedList>
 8004aa6:	f04f 0050 	mov.w	r0, #80	; 0x50
 8004aaa:	f380 8811 	msr	BASEPRI, r0
 8004aae:	e7fe      	b.n	8004aae <vTaskPlaceOnEventList+0x2e>
 8004ab0:	4620      	mov	r0, r4
 8004ab2:	f850 1bb4 	ldr.w	r1, [r0], #180
 8004ab6:	3104      	adds	r1, #4
 8004ab8:	e8bd 4038 	ldmia.w	sp!, {r3, r4, r5, lr}
 8004abc:	f7ff bbec 	b.w	8004298 <vListInsertEnd>
 8004ac0:	200005d0 	ldrdcs	r0, [r0], -r0	; <UNPREDICTABLE>

08004ac4 <xTaskRemoveFromEventList>:
 8004ac4:	b570      	push	{r4, r5, r6, lr}
 8004ac6:	68c3      	ldr	r3, [r0, #12]
 8004ac8:	68dc      	ldr	r4, [r3, #12]
 8004aca:	b31c      	cbz	r4, 8004b14 <xTaskRemoveFromEventList+0x50>
 8004acc:	f104 0618 	add.w	r6, r4, #24
 8004ad0:	4d16      	ldr	r5, [pc, #88]	; (8004b2c <xTaskRemoveFromEventList+0x68>)
 8004ad2:	4630      	mov	r0, r6
 8004ad4:	f7ff fc0a 	bl	80042ec <vListRemove>
 8004ad8:	f8d5 00d8 	ldr.w	r0, [r5, #216]	; 0xd8
 8004adc:	b9f8      	cbnz	r0, 8004b1e <xTaskRemoveFromEventList+0x5a>
 8004ade:	1d26      	adds	r6, r4, #4
 8004ae0:	4630      	mov	r0, r6
 8004ae2:	f7ff fc03 	bl	80042ec <vListRemove>
 8004ae6:	6ae3      	ldr	r3, [r4, #44]	; 0x2c
 8004ae8:	f8d5 00d4 	ldr.w	r0, [r5, #212]	; 0xd4
 8004aec:	4a10      	ldr	r2, [pc, #64]	; (8004b30 <xTaskRemoveFromEventList+0x6c>)
 8004aee:	eb03 0183 	add.w	r1, r3, r3, lsl #2
 8004af2:	4283      	cmp	r3, r0
 8004af4:	eb02 0081 	add.w	r0, r2, r1, lsl #2
 8004af8:	4631      	mov	r1, r6
 8004afa:	bf88      	it	hi
 8004afc:	f8c5 30d4 	strhi.w	r3, [r5, #212]	; 0xd4
 8004b00:	f7ff fbca 	bl	8004298 <vListInsertEnd>
 8004b04:	6829      	ldr	r1, [r5, #0]
 8004b06:	6ae0      	ldr	r0, [r4, #44]	; 0x2c
 8004b08:	6aca      	ldr	r2, [r1, #44]	; 0x2c
 8004b0a:	4290      	cmp	r0, r2
 8004b0c:	bf34      	ite	cc
 8004b0e:	2000      	movcc	r0, #0
 8004b10:	2001      	movcs	r0, #1
 8004b12:	bd70      	pop	{r4, r5, r6, pc}
 8004b14:	f04f 0050 	mov.w	r0, #80	; 0x50
 8004b18:	f380 8811 	msr	BASEPRI, r0
 8004b1c:	e7fe      	b.n	8004b1c <xTaskRemoveFromEventList+0x58>
 8004b1e:	f105 00a0 	add.w	r0, r5, #160	; 0xa0
 8004b22:	4631      	mov	r1, r6
 8004b24:	f7ff fbb8 	bl	8004298 <vListInsertEnd>
 8004b28:	e7ec      	b.n	8004b04 <xTaskRemoveFromEventList+0x40>
 8004b2a:	bf00      	nop
 8004b2c:	200005d0 	ldrdcs	r0, [r0], -r0	; <UNPREDICTABLE>
 8004b30:	200005e4 	andcs	r0, r0, r4, ror #11

08004b34 <vTaskSetTimeOutState>:
 8004b34:	b130      	cbz	r0, 8004b44 <vTaskSetTimeOutState+0x10>
 8004b36:	4b06      	ldr	r3, [pc, #24]	; (8004b50 <vTaskSetTimeOutState+0x1c>)
 8004b38:	f8d3 20dc 	ldr.w	r2, [r3, #220]	; 0xdc
 8004b3c:	685b      	ldr	r3, [r3, #4]
 8004b3e:	e880 000c 	stmia.w	r0, {r2, r3}
 8004b42:	4770      	bx	lr
 8004b44:	f04f 0050 	mov.w	r0, #80	; 0x50
 8004b48:	f380 8811 	msr	BASEPRI, r0
 8004b4c:	e7fe      	b.n	8004b4c <vTaskSetTimeOutState+0x18>
 8004b4e:	bf00      	nop
 8004b50:	200005d0 	ldrdcs	r0, [r0], -r0	; <UNPREDICTABLE>

08004b54 <xTaskCheckForTimeOut>:
 8004b54:	b570      	push	{r4, r5, r6, lr}
 8004b56:	4604      	mov	r4, r0
 8004b58:	460d      	mov	r5, r1
 8004b5a:	2800      	cmp	r0, #0
 8004b5c:	d038      	beq.n	8004bd0 <xTaskCheckForTimeOut+0x7c>
 8004b5e:	2900      	cmp	r1, #0
 8004b60:	d031      	beq.n	8004bc6 <xTaskCheckForTimeOut+0x72>
 8004b62:	f000 fbbf 	bl	80052e4 <vPortEnterCritical>
 8004b66:	682a      	ldr	r2, [r5, #0]
 8004b68:	1c51      	adds	r1, r2, #1
 8004b6a:	d036      	beq.n	8004bda <xTaskCheckForTimeOut+0x86>
 8004b6c:	491d      	ldr	r1, [pc, #116]	; (8004be4 <xTaskCheckForTimeOut+0x90>)
 8004b6e:	6820      	ldr	r0, [r4, #0]
 8004b70:	f8d1 30dc 	ldr.w	r3, [r1, #220]	; 0xdc
 8004b74:	4298      	cmp	r0, r3
 8004b76:	d01e      	beq.n	8004bb6 <xTaskCheckForTimeOut+0x62>
 8004b78:	6848      	ldr	r0, [r1, #4]
 8004b7a:	6863      	ldr	r3, [r4, #4]
 8004b7c:	4283      	cmp	r3, r0
 8004b7e:	d915      	bls.n	8004bac <xTaskCheckForTimeOut+0x58>
 8004b80:	6848      	ldr	r0, [r1, #4]
 8004b82:	4918      	ldr	r1, [pc, #96]	; (8004be4 <xTaskCheckForTimeOut+0x90>)
 8004b84:	ebc3 0c00 	rsb	ip, r3, r0
 8004b88:	4562      	cmp	r2, ip
 8004b8a:	d90f      	bls.n	8004bac <xTaskCheckForTimeOut+0x58>
 8004b8c:	684e      	ldr	r6, [r1, #4]
 8004b8e:	f8d1 00dc 	ldr.w	r0, [r1, #220]	; 0xdc
 8004b92:	6849      	ldr	r1, [r1, #4]
 8004b94:	ebc6 0e02 	rsb	lr, r6, r2
 8004b98:	eb0e 0203 	add.w	r2, lr, r3
 8004b9c:	602a      	str	r2, [r5, #0]
 8004b9e:	e884 0003 	stmia.w	r4, {r0, r1}
 8004ba2:	2500      	movs	r5, #0
 8004ba4:	f000 fbaa 	bl	80052fc <vPortExitCritical>
 8004ba8:	4628      	mov	r0, r5
 8004baa:	bd70      	pop	{r4, r5, r6, pc}
 8004bac:	2501      	movs	r5, #1
 8004bae:	f000 fba5 	bl	80052fc <vPortExitCritical>
 8004bb2:	4628      	mov	r0, r5
 8004bb4:	bd70      	pop	{r4, r5, r6, pc}
 8004bb6:	6848      	ldr	r0, [r1, #4]
 8004bb8:	6863      	ldr	r3, [r4, #4]
 8004bba:	490a      	ldr	r1, [pc, #40]	; (8004be4 <xTaskCheckForTimeOut+0x90>)
 8004bbc:	ebc3 0c00 	rsb	ip, r3, r0
 8004bc0:	4562      	cmp	r2, ip
 8004bc2:	d8e3      	bhi.n	8004b8c <xTaskCheckForTimeOut+0x38>
 8004bc4:	e7f2      	b.n	8004bac <xTaskCheckForTimeOut+0x58>
 8004bc6:	f04f 0050 	mov.w	r0, #80	; 0x50
 8004bca:	f380 8811 	msr	BASEPRI, r0
 8004bce:	e7fe      	b.n	8004bce <xTaskCheckForTimeOut+0x7a>
 8004bd0:	f04f 0050 	mov.w	r0, #80	; 0x50
 8004bd4:	f380 8811 	msr	BASEPRI, r0
 8004bd8:	e7fe      	b.n	8004bd8 <xTaskCheckForTimeOut+0x84>
 8004bda:	2500      	movs	r5, #0
 8004bdc:	f000 fb8e 	bl	80052fc <vPortExitCritical>
 8004be0:	4628      	mov	r0, r5
 8004be2:	bd70      	pop	{r4, r5, r6, pc}
 8004be4:	200005d0 	ldrdcs	r0, [r0], -r0	; <UNPREDICTABLE>

08004be8 <vTaskMissedYield>:
 8004be8:	f240 53d0 	movw	r3, #1488	; 0x5d0
 8004bec:	f2c2 0300 	movt	r3, #8192	; 0x2000
 8004bf0:	2201      	movs	r2, #1
 8004bf2:	f8c3 20e4 	str.w	r2, [r3, #228]	; 0xe4
 8004bf6:	4770      	bx	lr

08004bf8 <prvUnlockQueue>:
 8004bf8:	b538      	push	{r3, r4, r5, lr}
 8004bfa:	4604      	mov	r4, r0
 8004bfc:	f000 fb72 	bl	80052e4 <vPortEnterCritical>
 8004c00:	6ca3      	ldr	r3, [r4, #72]	; 0x48
 8004c02:	2b00      	cmp	r3, #0
 8004c04:	dd17      	ble.n	8004c36 <prvUnlockQueue+0x3e>
 8004c06:	6a60      	ldr	r0, [r4, #36]	; 0x24
 8004c08:	b1a8      	cbz	r0, 8004c36 <prvUnlockQueue+0x3e>
 8004c0a:	f104 0524 	add.w	r5, r4, #36	; 0x24
 8004c0e:	e006      	b.n	8004c1e <prvUnlockQueue+0x26>
 8004c10:	6ca3      	ldr	r3, [r4, #72]	; 0x48
 8004c12:	1e5a      	subs	r2, r3, #1
 8004c14:	2a00      	cmp	r2, #0
 8004c16:	64a2      	str	r2, [r4, #72]	; 0x48
 8004c18:	dd0d      	ble.n	8004c36 <prvUnlockQueue+0x3e>
 8004c1a:	6a61      	ldr	r1, [r4, #36]	; 0x24
 8004c1c:	b159      	cbz	r1, 8004c36 <prvUnlockQueue+0x3e>
 8004c1e:	4628      	mov	r0, r5
 8004c20:	f7ff ff50 	bl	8004ac4 <xTaskRemoveFromEventList>
 8004c24:	2800      	cmp	r0, #0
 8004c26:	d0f3      	beq.n	8004c10 <prvUnlockQueue+0x18>
 8004c28:	f7ff ffde 	bl	8004be8 <vTaskMissedYield>
 8004c2c:	6ca3      	ldr	r3, [r4, #72]	; 0x48
 8004c2e:	1e5a      	subs	r2, r3, #1
 8004c30:	2a00      	cmp	r2, #0
 8004c32:	64a2      	str	r2, [r4, #72]	; 0x48
 8004c34:	dcf1      	bgt.n	8004c1a <prvUnlockQueue+0x22>
 8004c36:	f04f 31ff 	mov.w	r1, #4294967295
 8004c3a:	64a1      	str	r1, [r4, #72]	; 0x48
 8004c3c:	f000 fb5e 	bl	80052fc <vPortExitCritical>
 8004c40:	f000 fb50 	bl	80052e4 <vPortEnterCritical>
 8004c44:	6c60      	ldr	r0, [r4, #68]	; 0x44
 8004c46:	2800      	cmp	r0, #0
 8004c48:	dd17      	ble.n	8004c7a <prvUnlockQueue+0x82>
 8004c4a:	6922      	ldr	r2, [r4, #16]
 8004c4c:	b1aa      	cbz	r2, 8004c7a <prvUnlockQueue+0x82>
 8004c4e:	f104 0510 	add.w	r5, r4, #16
 8004c52:	e006      	b.n	8004c62 <prvUnlockQueue+0x6a>
 8004c54:	6c61      	ldr	r1, [r4, #68]	; 0x44
 8004c56:	1e48      	subs	r0, r1, #1
 8004c58:	2800      	cmp	r0, #0
 8004c5a:	6460      	str	r0, [r4, #68]	; 0x44
 8004c5c:	dd0d      	ble.n	8004c7a <prvUnlockQueue+0x82>
 8004c5e:	6923      	ldr	r3, [r4, #16]
 8004c60:	b15b      	cbz	r3, 8004c7a <prvUnlockQueue+0x82>
 8004c62:	4628      	mov	r0, r5
 8004c64:	f7ff ff2e 	bl	8004ac4 <xTaskRemoveFromEventList>
 8004c68:	2800      	cmp	r0, #0
 8004c6a:	d0f3      	beq.n	8004c54 <prvUnlockQueue+0x5c>
 8004c6c:	f7ff ffbc 	bl	8004be8 <vTaskMissedYield>
 8004c70:	6c61      	ldr	r1, [r4, #68]	; 0x44
 8004c72:	1e48      	subs	r0, r1, #1
 8004c74:	2800      	cmp	r0, #0
 8004c76:	6460      	str	r0, [r4, #68]	; 0x44
 8004c78:	dcf1      	bgt.n	8004c5e <prvUnlockQueue+0x66>
 8004c7a:	f04f 32ff 	mov.w	r2, #4294967295
 8004c7e:	6462      	str	r2, [r4, #68]	; 0x44
 8004c80:	e8bd 4038 	ldmia.w	sp!, {r3, r4, r5, lr}
 8004c84:	f000 bb3a 	b.w	80052fc <vPortExitCritical>

08004c88 <xQueueGenericReset>:
 8004c88:	b510      	push	{r4, lr}
 8004c8a:	4604      	mov	r4, r0
 8004c8c:	b318      	cbz	r0, 8004cd6 <xQueueGenericReset+0x4e>
 8004c8e:	2901      	cmp	r1, #1
 8004c90:	d006      	beq.n	8004ca0 <xQueueGenericReset+0x18>
 8004c92:	6a43      	ldr	r3, [r0, #36]	; 0x24
 8004c94:	6900      	ldr	r0, [r0, #16]
 8004c96:	b908      	cbnz	r0, 8004c9c <xQueueGenericReset+0x14>
 8004c98:	b113      	cbz	r3, 8004ca0 <xQueueGenericReset+0x18>
 8004c9a:	bd10      	pop	{r4, pc}
 8004c9c:	2000      	movs	r0, #0
 8004c9e:	bd10      	pop	{r4, pc}
 8004ca0:	6823      	ldr	r3, [r4, #0]
 8004ca2:	6be1      	ldr	r1, [r4, #60]	; 0x3c
 8004ca4:	6c22      	ldr	r2, [r4, #64]	; 0x40
 8004ca6:	60a3      	str	r3, [r4, #8]
 8004ca8:	1e48      	subs	r0, r1, #1
 8004caa:	fb01 3102 	mla	r1, r1, r2, r3
 8004cae:	6061      	str	r1, [r4, #4]
 8004cb0:	fb02 3200 	mla	r2, r2, r0, r3
 8004cb4:	2100      	movs	r1, #0
 8004cb6:	f04f 33ff 	mov.w	r3, #4294967295
 8004cba:	f104 0010 	add.w	r0, r4, #16
 8004cbe:	63a1      	str	r1, [r4, #56]	; 0x38
 8004cc0:	60e2      	str	r2, [r4, #12]
 8004cc2:	6463      	str	r3, [r4, #68]	; 0x44
 8004cc4:	64a3      	str	r3, [r4, #72]	; 0x48
 8004cc6:	f7ff fad7 	bl	8004278 <vListInitialise>
 8004cca:	f104 0024 	add.w	r0, r4, #36	; 0x24
 8004cce:	f7ff fad3 	bl	8004278 <vListInitialise>
 8004cd2:	2001      	movs	r0, #1
 8004cd4:	bd10      	pop	{r4, pc}
 8004cd6:	f04f 0050 	mov.w	r0, #80	; 0x50
 8004cda:	f380 8811 	msr	BASEPRI, r0
 8004cde:	e7fe      	b.n	8004cde <xQueueGenericReset+0x56>

08004ce0 <xQueueGenericCreate>:
 8004ce0:	b570      	push	{r4, r5, r6, lr}
 8004ce2:	4605      	mov	r5, r0
 8004ce4:	460e      	mov	r6, r1
 8004ce6:	b1b0      	cbz	r0, 8004d16 <xQueueGenericCreate+0x36>
 8004ce8:	204c      	movs	r0, #76	; 0x4c
 8004cea:	f000 fb53 	bl	8005394 <pvPortMalloc>
 8004cee:	4604      	mov	r4, r0
 8004cf0:	b188      	cbz	r0, 8004d16 <xQueueGenericCreate+0x36>
 8004cf2:	fb05 f006 	mul.w	r0, r5, r6
 8004cf6:	3001      	adds	r0, #1
 8004cf8:	f000 fb4c 	bl	8005394 <pvPortMalloc>
 8004cfc:	6020      	str	r0, [r4, #0]
 8004cfe:	b138      	cbz	r0, 8004d10 <xQueueGenericCreate+0x30>
 8004d00:	63e5      	str	r5, [r4, #60]	; 0x3c
 8004d02:	6426      	str	r6, [r4, #64]	; 0x40
 8004d04:	4620      	mov	r0, r4
 8004d06:	2101      	movs	r1, #1
 8004d08:	f7ff ffbe 	bl	8004c88 <xQueueGenericReset>
 8004d0c:	4620      	mov	r0, r4
 8004d0e:	bd70      	pop	{r4, r5, r6, pc}
 8004d10:	4620      	mov	r0, r4
 8004d12:	f000 fb61 	bl	80053d8 <vPortFree>
 8004d16:	f04f 0050 	mov.w	r0, #80	; 0x50
 8004d1a:	f380 8811 	msr	BASEPRI, r0
 8004d1e:	e7fe      	b.n	8004d1e <xQueueGenericCreate+0x3e>

08004d20 <xQueueGenericSend>:
 8004d20:	e92d 43f0 	stmdb	sp!, {r4, r5, r6, r7, r8, r9, lr}
 8004d24:	b085      	sub	sp, #20
 8004d26:	4604      	mov	r4, r0
 8004d28:	460d      	mov	r5, r1
 8004d2a:	9201      	str	r2, [sp, #4]
 8004d2c:	461f      	mov	r7, r3
 8004d2e:	2800      	cmp	r0, #0
 8004d30:	d060      	beq.n	8004df4 <xQueueGenericSend+0xd4>
 8004d32:	2900      	cmp	r1, #0
 8004d34:	d070      	beq.n	8004e18 <xQueueGenericSend+0xf8>
 8004d36:	f04f 0800 	mov.w	r8, #0
 8004d3a:	f000 fad3 	bl	80052e4 <vPortEnterCritical>
 8004d3e:	6ba2      	ldr	r2, [r4, #56]	; 0x38
 8004d40:	6be0      	ldr	r0, [r4, #60]	; 0x3c
 8004d42:	2600      	movs	r6, #0
 8004d44:	4282      	cmp	r2, r0
 8004d46:	d334      	bcc.n	8004db2 <xQueueGenericSend+0x92>
 8004d48:	f8dd 9004 	ldr.w	r9, [sp, #4]
 8004d4c:	f1b9 0f00 	cmp.w	r9, #0
 8004d50:	d05e      	beq.n	8004e10 <xQueueGenericSend+0xf0>
 8004d52:	f1b8 0f00 	cmp.w	r8, #0
 8004d56:	d049      	beq.n	8004dec <xQueueGenericSend+0xcc>
 8004d58:	f000 fad0 	bl	80052fc <vPortExitCritical>
 8004d5c:	f7ff fcae 	bl	80046bc <vTaskSuspendAll>
 8004d60:	f000 fac0 	bl	80052e4 <vPortEnterCritical>
 8004d64:	6c62      	ldr	r2, [r4, #68]	; 0x44
 8004d66:	1c53      	adds	r3, r2, #1
 8004d68:	6ca3      	ldr	r3, [r4, #72]	; 0x48
 8004d6a:	bf08      	it	eq
 8004d6c:	6466      	streq	r6, [r4, #68]	; 0x44
 8004d6e:	3301      	adds	r3, #1
 8004d70:	bf08      	it	eq
 8004d72:	64a6      	streq	r6, [r4, #72]	; 0x48
 8004d74:	f000 fac2 	bl	80052fc <vPortExitCritical>
 8004d78:	a802      	add	r0, sp, #8
 8004d7a:	a901      	add	r1, sp, #4
 8004d7c:	f7ff feea 	bl	8004b54 <xTaskCheckForTimeOut>
 8004d80:	2800      	cmp	r0, #0
 8004d82:	d13c      	bne.n	8004dfe <xQueueGenericSend+0xde>
 8004d84:	f000 faae 	bl	80052e4 <vPortEnterCritical>
 8004d88:	f8d4 9038 	ldr.w	r9, [r4, #56]	; 0x38
 8004d8c:	f8d4 803c 	ldr.w	r8, [r4, #60]	; 0x3c
 8004d90:	f000 fab4 	bl	80052fc <vPortExitCritical>
 8004d94:	45c1      	cmp	r9, r8
 8004d96:	d018      	beq.n	8004dca <xQueueGenericSend+0xaa>
 8004d98:	4620      	mov	r0, r4
 8004d9a:	f7ff ff2d 	bl	8004bf8 <prvUnlockQueue>
 8004d9e:	f7ff fd37 	bl	8004810 <xTaskResumeAll>
 8004da2:	f04f 0801 	mov.w	r8, #1
 8004da6:	f000 fa9d 	bl	80052e4 <vPortEnterCritical>
 8004daa:	6ba2      	ldr	r2, [r4, #56]	; 0x38
 8004dac:	6be0      	ldr	r0, [r4, #60]	; 0x3c
 8004dae:	4282      	cmp	r2, r0
 8004db0:	d2ca      	bcs.n	8004d48 <xQueueGenericSend+0x28>
 8004db2:	4629      	mov	r1, r5
 8004db4:	4620      	mov	r0, r4
 8004db6:	463a      	mov	r2, r7
 8004db8:	f005 f956 	bl	800a068 <prvCopyDataToQueue>
 8004dbc:	6a61      	ldr	r1, [r4, #36]	; 0x24
 8004dbe:	2900      	cmp	r1, #0
 8004dc0:	d12e      	bne.n	8004e20 <xQueueGenericSend+0x100>
 8004dc2:	f000 fa9b 	bl	80052fc <vPortExitCritical>
 8004dc6:	2001      	movs	r0, #1
 8004dc8:	e01f      	b.n	8004e0a <xQueueGenericSend+0xea>
 8004dca:	f104 0010 	add.w	r0, r4, #16
 8004dce:	9901      	ldr	r1, [sp, #4]
 8004dd0:	f7ff fe56 	bl	8004a80 <vTaskPlaceOnEventList>
 8004dd4:	4620      	mov	r0, r4
 8004dd6:	f7ff ff0f 	bl	8004bf8 <prvUnlockQueue>
 8004dda:	f7ff fd19 	bl	8004810 <xTaskResumeAll>
 8004dde:	2800      	cmp	r0, #0
 8004de0:	d1df      	bne.n	8004da2 <xQueueGenericSend+0x82>
 8004de2:	f000 fa77 	bl	80052d4 <vPortYieldFromISR>
 8004de6:	f04f 0801 	mov.w	r8, #1
 8004dea:	e7dc      	b.n	8004da6 <xQueueGenericSend+0x86>
 8004dec:	a802      	add	r0, sp, #8
 8004dee:	f7ff fea1 	bl	8004b34 <vTaskSetTimeOutState>
 8004df2:	e7b1      	b.n	8004d58 <xQueueGenericSend+0x38>
 8004df4:	f04f 0050 	mov.w	r0, #80	; 0x50
 8004df8:	f380 8811 	msr	BASEPRI, r0
 8004dfc:	e7fe      	b.n	8004dfc <xQueueGenericSend+0xdc>
 8004dfe:	4620      	mov	r0, r4
 8004e00:	f7ff fefa 	bl	8004bf8 <prvUnlockQueue>
 8004e04:	f7ff fd04 	bl	8004810 <xTaskResumeAll>
 8004e08:	2000      	movs	r0, #0
 8004e0a:	b005      	add	sp, #20
 8004e0c:	e8bd 83f0 	ldmia.w	sp!, {r4, r5, r6, r7, r8, r9, pc}
 8004e10:	f000 fa74 	bl	80052fc <vPortExitCritical>
 8004e14:	4648      	mov	r0, r9
 8004e16:	e7f8      	b.n	8004e0a <xQueueGenericSend+0xea>
 8004e18:	6c03      	ldr	r3, [r0, #64]	; 0x40
 8004e1a:	b953      	cbnz	r3, 8004e32 <xQueueGenericSend+0x112>
 8004e1c:	4688      	mov	r8, r1
 8004e1e:	e78c      	b.n	8004d3a <xQueueGenericSend+0x1a>
 8004e20:	f104 0024 	add.w	r0, r4, #36	; 0x24
 8004e24:	f7ff fe4e 	bl	8004ac4 <xTaskRemoveFromEventList>
 8004e28:	2801      	cmp	r0, #1
 8004e2a:	d1ca      	bne.n	8004dc2 <xQueueGenericSend+0xa2>
 8004e2c:	f000 fa52 	bl	80052d4 <vPortYieldFromISR>
 8004e30:	e7c7      	b.n	8004dc2 <xQueueGenericSend+0xa2>
 8004e32:	f04f 0050 	mov.w	r0, #80	; 0x50
 8004e36:	f380 8811 	msr	BASEPRI, r0
 8004e3a:	e7fe      	b.n	8004e3a <xQueueGenericSend+0x11a>

08004e3c <xQueueGenericSendFromISR>:
 8004e3c:	b538      	push	{r3, r4, r5, lr}
 8004e3e:	4604      	mov	r4, r0
 8004e40:	4615      	mov	r5, r2
 8004e42:	b190      	cbz	r0, 8004e6a <xQueueGenericSendFromISR+0x2e>
 8004e44:	2a00      	cmp	r2, #0
 8004e46:	d02d      	beq.n	8004ea4 <xQueueGenericSendFromISR+0x68>
 8004e48:	2900      	cmp	r1, #0
 8004e4a:	d023      	beq.n	8004e94 <xQueueGenericSendFromISR+0x58>
 8004e4c:	f04f 0050 	mov.w	r0, #80	; 0x50
 8004e50:	f380 8811 	msr	BASEPRI, r0
 8004e54:	6ba0      	ldr	r0, [r4, #56]	; 0x38
 8004e56:	6be2      	ldr	r2, [r4, #60]	; 0x3c
 8004e58:	4290      	cmp	r0, r2
 8004e5a:	d30b      	bcc.n	8004e74 <xQueueGenericSendFromISR+0x38>
 8004e5c:	2300      	movs	r3, #0
 8004e5e:	f04f 0000 	mov.w	r0, #0
 8004e62:	f380 8811 	msr	BASEPRI, r0
 8004e66:	4618      	mov	r0, r3
 8004e68:	bd38      	pop	{r3, r4, r5, pc}
 8004e6a:	f04f 0050 	mov.w	r0, #80	; 0x50
 8004e6e:	f380 8811 	msr	BASEPRI, r0
 8004e72:	e7fe      	b.n	8004e72 <xQueueGenericSendFromISR+0x36>
 8004e74:	461a      	mov	r2, r3
 8004e76:	4620      	mov	r0, r4
 8004e78:	f005 f8f6 	bl	800a068 <prvCopyDataToQueue>
 8004e7c:	6ca3      	ldr	r3, [r4, #72]	; 0x48
 8004e7e:	1c5a      	adds	r2, r3, #1
 8004e80:	d015      	beq.n	8004eae <xQueueGenericSendFromISR+0x72>
 8004e82:	1c59      	adds	r1, r3, #1
 8004e84:	64a1      	str	r1, [r4, #72]	; 0x48
 8004e86:	2301      	movs	r3, #1
 8004e88:	f04f 0000 	mov.w	r0, #0
 8004e8c:	f380 8811 	msr	BASEPRI, r0
 8004e90:	4618      	mov	r0, r3
 8004e92:	bd38      	pop	{r3, r4, r5, pc}
 8004e94:	6c02      	ldr	r2, [r0, #64]	; 0x40
 8004e96:	2a00      	cmp	r2, #0
 8004e98:	d0d8      	beq.n	8004e4c <xQueueGenericSendFromISR+0x10>
 8004e9a:	f04f 0050 	mov.w	r0, #80	; 0x50
 8004e9e:	f380 8811 	msr	BASEPRI, r0
 8004ea2:	e7fe      	b.n	8004ea2 <xQueueGenericSendFromISR+0x66>
 8004ea4:	f04f 0050 	mov.w	r0, #80	; 0x50
 8004ea8:	f380 8811 	msr	BASEPRI, r0
 8004eac:	e7fe      	b.n	8004eac <xQueueGenericSendFromISR+0x70>
 8004eae:	6a63      	ldr	r3, [r4, #36]	; 0x24
 8004eb0:	b933      	cbnz	r3, 8004ec0 <xQueueGenericSendFromISR+0x84>
 8004eb2:	2301      	movs	r3, #1
 8004eb4:	f04f 0000 	mov.w	r0, #0
 8004eb8:	f380 8811 	msr	BASEPRI, r0
 8004ebc:	4618      	mov	r0, r3
 8004ebe:	bd38      	pop	{r3, r4, r5, pc}
 8004ec0:	f104 0024 	add.w	r0, r4, #36	; 0x24
 8004ec4:	f7ff fdfe 	bl	8004ac4 <xTaskRemoveFromEventList>
 8004ec8:	2301      	movs	r3, #1
 8004eca:	2800      	cmp	r0, #0
 8004ecc:	d0c7      	beq.n	8004e5e <xQueueGenericSendFromISR+0x22>
 8004ece:	602b      	str	r3, [r5, #0]
 8004ed0:	f04f 0000 	mov.w	r0, #0
 8004ed4:	f380 8811 	msr	BASEPRI, r0
 8004ed8:	4618      	mov	r0, r3
 8004eda:	bd38      	pop	{r3, r4, r5, pc}

08004edc <xQueueGenericReceive>:
 8004edc:	e92d 43f0 	stmdb	sp!, {r4, r5, r6, r7, r8, r9, lr}
 8004ee0:	b085      	sub	sp, #20
 8004ee2:	4604      	mov	r4, r0
 8004ee4:	460d      	mov	r5, r1
 8004ee6:	9201      	str	r2, [sp, #4]
 8004ee8:	461f      	mov	r7, r3
 8004eea:	2800      	cmp	r0, #0
 8004eec:	d064      	beq.n	8004fb8 <xQueueGenericReceive+0xdc>
 8004eee:	2900      	cmp	r1, #0
 8004ef0:	d074      	beq.n	8004fdc <xQueueGenericReceive+0x100>
 8004ef2:	f04f 0800 	mov.w	r8, #0
 8004ef6:	f000 f9f5 	bl	80052e4 <vPortEnterCritical>
 8004efa:	6ba0      	ldr	r0, [r4, #56]	; 0x38
 8004efc:	2600      	movs	r6, #0
 8004efe:	2800      	cmp	r0, #0
 8004f00:	d138      	bne.n	8004f74 <xQueueGenericReceive+0x98>
 8004f02:	f8dd 9004 	ldr.w	r9, [sp, #4]
 8004f06:	f1b9 0f00 	cmp.w	r9, #0
 8004f0a:	d063      	beq.n	8004fd4 <xQueueGenericReceive+0xf8>
 8004f0c:	f1b8 0f00 	cmp.w	r8, #0
 8004f10:	d04e      	beq.n	8004fb0 <xQueueGenericReceive+0xd4>
 8004f12:	f000 f9f3 	bl	80052fc <vPortExitCritical>
 8004f16:	f7ff fbd1 	bl	80046bc <vTaskSuspendAll>
 8004f1a:	f000 f9e3 	bl	80052e4 <vPortEnterCritical>
 8004f1e:	6c62      	ldr	r2, [r4, #68]	; 0x44
 8004f20:	6ca1      	ldr	r1, [r4, #72]	; 0x48
 8004f22:	1c53      	adds	r3, r2, #1
 8004f24:	bf08      	it	eq
 8004f26:	6466      	streq	r6, [r4, #68]	; 0x44
 8004f28:	1c4b      	adds	r3, r1, #1
 8004f2a:	bf08      	it	eq
 8004f2c:	64a6      	streq	r6, [r4, #72]	; 0x48
 8004f2e:	f000 f9e5 	bl	80052fc <vPortExitCritical>
 8004f32:	a802      	add	r0, sp, #8
 8004f34:	a901      	add	r1, sp, #4
 8004f36:	f7ff fe0d 	bl	8004b54 <xTaskCheckForTimeOut>
 8004f3a:	2800      	cmp	r0, #0
 8004f3c:	d141      	bne.n	8004fc2 <xQueueGenericReceive+0xe6>
 8004f3e:	f000 f9d1 	bl	80052e4 <vPortEnterCritical>
 8004f42:	f8d4 8038 	ldr.w	r8, [r4, #56]	; 0x38
 8004f46:	f000 f9d9 	bl	80052fc <vPortExitCritical>
 8004f4a:	f1b8 0f00 	cmp.w	r8, #0
 8004f4e:	d127      	bne.n	8004fa0 <xQueueGenericReceive+0xc4>
 8004f50:	f104 0024 	add.w	r0, r4, #36	; 0x24
 8004f54:	9901      	ldr	r1, [sp, #4]
 8004f56:	f7ff fd93 	bl	8004a80 <vTaskPlaceOnEventList>
 8004f5a:	4620      	mov	r0, r4
 8004f5c:	f7ff fe4c 	bl	8004bf8 <prvUnlockQueue>
 8004f60:	f7ff fc56 	bl	8004810 <xTaskResumeAll>
 8004f64:	b1b8      	cbz	r0, 8004f96 <xQueueGenericReceive+0xba>
 8004f66:	f04f 0801 	mov.w	r8, #1
 8004f6a:	f000 f9bb 	bl	80052e4 <vPortEnterCritical>
 8004f6e:	6ba0      	ldr	r0, [r4, #56]	; 0x38
 8004f70:	2800      	cmp	r0, #0
 8004f72:	d0c6      	beq.n	8004f02 <xQueueGenericReceive+0x26>
 8004f74:	4620      	mov	r0, r4
 8004f76:	4629      	mov	r1, r5
 8004f78:	68e6      	ldr	r6, [r4, #12]
 8004f7a:	f005 f861 	bl	800a040 <prvCopyDataFromQueue>
 8004f7e:	2f00      	cmp	r7, #0
 8004f80:	d137      	bne.n	8004ff2 <xQueueGenericReceive+0x116>
 8004f82:	6ba3      	ldr	r3, [r4, #56]	; 0x38
 8004f84:	1e5a      	subs	r2, r3, #1
 8004f86:	63a2      	str	r2, [r4, #56]	; 0x38
 8004f88:	6921      	ldr	r1, [r4, #16]
 8004f8a:	2900      	cmp	r1, #0
 8004f8c:	d12a      	bne.n	8004fe4 <xQueueGenericReceive+0x108>
 8004f8e:	f000 f9b5 	bl	80052fc <vPortExitCritical>
 8004f92:	2001      	movs	r0, #1
 8004f94:	e01b      	b.n	8004fce <xQueueGenericReceive+0xf2>
 8004f96:	f000 f99d 	bl	80052d4 <vPortYieldFromISR>
 8004f9a:	f04f 0801 	mov.w	r8, #1
 8004f9e:	e7e4      	b.n	8004f6a <xQueueGenericReceive+0x8e>
 8004fa0:	4620      	mov	r0, r4
 8004fa2:	f7ff fe29 	bl	8004bf8 <prvUnlockQueue>
 8004fa6:	f04f 0801 	mov.w	r8, #1
 8004faa:	f7ff fc31 	bl	8004810 <xTaskResumeAll>
 8004fae:	e7dc      	b.n	8004f6a <xQueueGenericReceive+0x8e>
 8004fb0:	a802      	add	r0, sp, #8
 8004fb2:	f7ff fdbf 	bl	8004b34 <vTaskSetTimeOutState>
 8004fb6:	e7ac      	b.n	8004f12 <xQueueGenericReceive+0x36>
 8004fb8:	f04f 0050 	mov.w	r0, #80	; 0x50
 8004fbc:	f380 8811 	msr	BASEPRI, r0
 8004fc0:	e7fe      	b.n	8004fc0 <xQueueGenericReceive+0xe4>
 8004fc2:	4620      	mov	r0, r4
 8004fc4:	f7ff fe18 	bl	8004bf8 <prvUnlockQueue>
 8004fc8:	f7ff fc22 	bl	8004810 <xTaskResumeAll>
 8004fcc:	2000      	movs	r0, #0
 8004fce:	b005      	add	sp, #20
 8004fd0:	e8bd 83f0 	ldmia.w	sp!, {r4, r5, r6, r7, r8, r9, pc}
 8004fd4:	f000 f992 	bl	80052fc <vPortExitCritical>
 8004fd8:	4648      	mov	r0, r9
 8004fda:	e7f8      	b.n	8004fce <xQueueGenericReceive+0xf2>
 8004fdc:	6c03      	ldr	r3, [r0, #64]	; 0x40
 8004fde:	b9ab      	cbnz	r3, 800500c <xQueueGenericReceive+0x130>
 8004fe0:	4688      	mov	r8, r1
 8004fe2:	e788      	b.n	8004ef6 <xQueueGenericReceive+0x1a>
 8004fe4:	f104 0010 	add.w	r0, r4, #16
 8004fe8:	f7ff fd6c 	bl	8004ac4 <xTaskRemoveFromEventList>
 8004fec:	2801      	cmp	r0, #1
 8004fee:	d1ce      	bne.n	8004f8e <xQueueGenericReceive+0xb2>
 8004ff0:	e009      	b.n	8005006 <xQueueGenericReceive+0x12a>
 8004ff2:	6a60      	ldr	r0, [r4, #36]	; 0x24
 8004ff4:	60e6      	str	r6, [r4, #12]
 8004ff6:	2800      	cmp	r0, #0
 8004ff8:	d0c9      	beq.n	8004f8e <xQueueGenericReceive+0xb2>
 8004ffa:	f104 0024 	add.w	r0, r4, #36	; 0x24
 8004ffe:	f7ff fd61 	bl	8004ac4 <xTaskRemoveFromEventList>
 8005002:	2800      	cmp	r0, #0
 8005004:	d0c3      	beq.n	8004f8e <xQueueGenericReceive+0xb2>
 8005006:	f000 f965 	bl	80052d4 <vPortYieldFromISR>
 800500a:	e7c0      	b.n	8004f8e <xQueueGenericReceive+0xb2>
 800500c:	f04f 0050 	mov.w	r0, #80	; 0x50
 8005010:	f380 8811 	msr	BASEPRI, r0
 8005014:	e7fe      	b.n	8005014 <xQueueGenericReceive+0x138>
 8005016:	bf00      	nop

08005018 <xQueueReceiveFromISR>:
 8005018:	b538      	push	{r3, r4, r5, lr}
 800501a:	4604      	mov	r4, r0
 800501c:	4615      	mov	r5, r2
 800501e:	b170      	cbz	r0, 800503e <xQueueReceiveFromISR+0x26>
 8005020:	2a00      	cmp	r2, #0
 8005022:	d02b      	beq.n	800507c <xQueueReceiveFromISR+0x64>
 8005024:	b311      	cbz	r1, 800506c <xQueueReceiveFromISR+0x54>
 8005026:	f04f 0050 	mov.w	r0, #80	; 0x50
 800502a:	f380 8811 	msr	BASEPRI, r0
 800502e:	6ba3      	ldr	r3, [r4, #56]	; 0x38
 8005030:	b953      	cbnz	r3, 8005048 <xQueueReceiveFromISR+0x30>
 8005032:	f04f 0000 	mov.w	r0, #0
 8005036:	f380 8811 	msr	BASEPRI, r0
 800503a:	4618      	mov	r0, r3
 800503c:	bd38      	pop	{r3, r4, r5, pc}
 800503e:	f04f 0050 	mov.w	r0, #80	; 0x50
 8005042:	f380 8811 	msr	BASEPRI, r0
 8005046:	e7fe      	b.n	8005046 <xQueueReceiveFromISR+0x2e>
 8005048:	4620      	mov	r0, r4
 800504a:	f004 fff9 	bl	800a040 <prvCopyDataFromQueue>
 800504e:	6ba0      	ldr	r0, [r4, #56]	; 0x38
 8005050:	6c63      	ldr	r3, [r4, #68]	; 0x44
 8005052:	1e42      	subs	r2, r0, #1
 8005054:	1c59      	adds	r1, r3, #1
 8005056:	63a2      	str	r2, [r4, #56]	; 0x38
 8005058:	d015      	beq.n	8005086 <xQueueReceiveFromISR+0x6e>
 800505a:	3301      	adds	r3, #1
 800505c:	6463      	str	r3, [r4, #68]	; 0x44
 800505e:	2301      	movs	r3, #1
 8005060:	f04f 0000 	mov.w	r0, #0
 8005064:	f380 8811 	msr	BASEPRI, r0
 8005068:	4618      	mov	r0, r3
 800506a:	bd38      	pop	{r3, r4, r5, pc}
 800506c:	6c03      	ldr	r3, [r0, #64]	; 0x40
 800506e:	2b00      	cmp	r3, #0
 8005070:	d0d9      	beq.n	8005026 <xQueueReceiveFromISR+0xe>
 8005072:	f04f 0050 	mov.w	r0, #80	; 0x50
 8005076:	f380 8811 	msr	BASEPRI, r0
 800507a:	e7fe      	b.n	800507a <xQueueReceiveFromISR+0x62>
 800507c:	f04f 0050 	mov.w	r0, #80	; 0x50
 8005080:	f380 8811 	msr	BASEPRI, r0
 8005084:	e7fe      	b.n	8005084 <xQueueReceiveFromISR+0x6c>
 8005086:	6921      	ldr	r1, [r4, #16]
 8005088:	b931      	cbnz	r1, 8005098 <xQueueReceiveFromISR+0x80>
 800508a:	2301      	movs	r3, #1
 800508c:	f04f 0000 	mov.w	r0, #0
 8005090:	f380 8811 	msr	BASEPRI, r0
 8005094:	4618      	mov	r0, r3
 8005096:	bd38      	pop	{r3, r4, r5, pc}
 8005098:	f104 0010 	add.w	r0, r4, #16
 800509c:	f7ff fd12 	bl	8004ac4 <xTaskRemoveFromEventList>
 80050a0:	2301      	movs	r3, #1
 80050a2:	2800      	cmp	r0, #0
 80050a4:	d0c5      	beq.n	8005032 <xQueueReceiveFromISR+0x1a>
 80050a6:	602b      	str	r3, [r5, #0]
 80050a8:	f04f 0000 	mov.w	r0, #0
 80050ac:	f380 8811 	msr	BASEPRI, r0
 80050b0:	4618      	mov	r0, r3
 80050b2:	bd38      	pop	{r3, r4, r5, pc}

080050b4 <uxQueueMessagesWaiting>:
 80050b4:	b510      	push	{r4, lr}
 80050b6:	4604      	mov	r4, r0
 80050b8:	b130      	cbz	r0, 80050c8 <uxQueueMessagesWaiting+0x14>
 80050ba:	f000 f913 	bl	80052e4 <vPortEnterCritical>
 80050be:	6ba4      	ldr	r4, [r4, #56]	; 0x38
 80050c0:	f000 f91c 	bl	80052fc <vPortExitCritical>
 80050c4:	4620      	mov	r0, r4
 80050c6:	bd10      	pop	{r4, pc}
 80050c8:	f04f 0050 	mov.w	r0, #80	; 0x50
 80050cc:	f380 8811 	msr	BASEPRI, r0
 80050d0:	e7fe      	b.n	80050d0 <uxQueueMessagesWaiting+0x1c>
 80050d2:	bf00      	nop

080050d4 <uxQueueMessagesWaitingFromISR>:
 80050d4:	b108      	cbz	r0, 80050da <uxQueueMessagesWaitingFromISR+0x6>
 80050d6:	6b80      	ldr	r0, [r0, #56]	; 0x38
 80050d8:	4770      	bx	lr
 80050da:	f04f 0050 	mov.w	r0, #80	; 0x50
 80050de:	f380 8811 	msr	BASEPRI, r0
 80050e2:	e7fe      	b.n	80050e2 <uxQueueMessagesWaitingFromISR+0xe>

080050e4 <vQueueDelete>:
 80050e4:	b510      	push	{r4, lr}
 80050e6:	4604      	mov	r4, r0
 80050e8:	2800      	cmp	r0, #0
 80050ea:	d020      	beq.n	800512e <vQueueDelete+0x4a>
 80050ec:	4b1c      	ldr	r3, [pc, #112]	; (8005160 <vQueueDelete+0x7c>)
 80050ee:	685a      	ldr	r2, [r3, #4]
 80050f0:	4290      	cmp	r0, r2
 80050f2:	d026      	beq.n	8005142 <vQueueDelete+0x5e>
 80050f4:	68d8      	ldr	r0, [r3, #12]
 80050f6:	4284      	cmp	r4, r0
 80050f8:	d025      	beq.n	8005146 <vQueueDelete+0x62>
 80050fa:	6959      	ldr	r1, [r3, #20]
 80050fc:	428c      	cmp	r4, r1
 80050fe:	d024      	beq.n	800514a <vQueueDelete+0x66>
 8005100:	69da      	ldr	r2, [r3, #28]
 8005102:	4294      	cmp	r4, r2
 8005104:	d023      	beq.n	800514e <vQueueDelete+0x6a>
 8005106:	6a58      	ldr	r0, [r3, #36]	; 0x24
 8005108:	4284      	cmp	r4, r0
 800510a:	d022      	beq.n	8005152 <vQueueDelete+0x6e>
 800510c:	6ad9      	ldr	r1, [r3, #44]	; 0x2c
 800510e:	428c      	cmp	r4, r1
 8005110:	d021      	beq.n	8005156 <vQueueDelete+0x72>
 8005112:	6b5a      	ldr	r2, [r3, #52]	; 0x34
 8005114:	4294      	cmp	r4, r2
 8005116:	d020      	beq.n	800515a <vQueueDelete+0x76>
 8005118:	6bd8      	ldr	r0, [r3, #60]	; 0x3c
 800511a:	4284      	cmp	r4, r0
 800511c:	d00c      	beq.n	8005138 <vQueueDelete+0x54>
 800511e:	6820      	ldr	r0, [r4, #0]
 8005120:	f000 f95a 	bl	80053d8 <vPortFree>
 8005124:	4620      	mov	r0, r4
 8005126:	e8bd 4010 	ldmia.w	sp!, {r4, lr}
 800512a:	f000 b955 	b.w	80053d8 <vPortFree>
 800512e:	f04f 0050 	mov.w	r0, #80	; 0x50
 8005132:	f380 8811 	msr	BASEPRI, r0
 8005136:	e7fe      	b.n	8005136 <vQueueDelete+0x52>
 8005138:	2207      	movs	r2, #7
 800513a:	2100      	movs	r1, #0
 800513c:	f843 1032 	str.w	r1, [r3, r2, lsl #3]
 8005140:	e7ed      	b.n	800511e <vQueueDelete+0x3a>
 8005142:	2200      	movs	r2, #0
 8005144:	e7f9      	b.n	800513a <vQueueDelete+0x56>
 8005146:	2201      	movs	r2, #1
 8005148:	e7f7      	b.n	800513a <vQueueDelete+0x56>
 800514a:	2202      	movs	r2, #2
 800514c:	e7f5      	b.n	800513a <vQueueDelete+0x56>
 800514e:	2203      	movs	r2, #3
 8005150:	e7f3      	b.n	800513a <vQueueDelete+0x56>
 8005152:	2204      	movs	r2, #4
 8005154:	e7f1      	b.n	800513a <vQueueDelete+0x56>
 8005156:	2205      	movs	r2, #5
 8005158:	e7ef      	b.n	800513a <vQueueDelete+0x56>
 800515a:	2206      	movs	r2, #6
 800515c:	e7ed      	b.n	800513a <vQueueDelete+0x56>
 800515e:	bf00      	nop
 8005160:	20001178 	andcs	r1, r0, r8, ror r1

08005164 <xQueueIsQueueEmptyFromISR>:
 8005164:	b128      	cbz	r0, 8005172 <xQueueIsQueueEmptyFromISR+0xe>
 8005166:	6b80      	ldr	r0, [r0, #56]	; 0x38
 8005168:	f1d0 0001 	rsbs	r0, r0, #1
 800516c:	bf38      	it	cc
 800516e:	2000      	movcc	r0, #0
 8005170:	4770      	bx	lr
 8005172:	f04f 0050 	mov.w	r0, #80	; 0x50
 8005176:	f380 8811 	msr	BASEPRI, r0
 800517a:	e7fe      	b.n	800517a <xQueueIsQueueEmptyFromISR+0x16>

0800517c <xQueueIsQueueFullFromISR>:
 800517c:	b130      	cbz	r0, 800518c <xQueueIsQueueFullFromISR+0x10>
 800517e:	6b82      	ldr	r2, [r0, #56]	; 0x38
 8005180:	6bc3      	ldr	r3, [r0, #60]	; 0x3c
 8005182:	1ad1      	subs	r1, r2, r3
 8005184:	4248      	negs	r0, r1
 8005186:	eb40 0001 	adc.w	r0, r0, r1
 800518a:	4770      	bx	lr
 800518c:	f04f 0050 	mov.w	r0, #80	; 0x50
 8005190:	f380 8811 	msr	BASEPRI, r0
 8005194:	e7fe      	b.n	8005194 <xQueueIsQueueFullFromISR+0x18>
 8005196:	bf00      	nop

08005198 <vQueueAddToRegistry>:
 8005198:	4b13      	ldr	r3, [pc, #76]	; (80051e8 <vQueueAddToRegistry+0x50>)
 800519a:	681a      	ldr	r2, [r3, #0]
 800519c:	b410      	push	{r4}
 800519e:	b182      	cbz	r2, 80051c2 <vQueueAddToRegistry+0x2a>
 80051a0:	689a      	ldr	r2, [r3, #8]
 80051a2:	b1a2      	cbz	r2, 80051ce <vQueueAddToRegistry+0x36>
 80051a4:	691a      	ldr	r2, [r3, #16]
 80051a6:	b1a2      	cbz	r2, 80051d2 <vQueueAddToRegistry+0x3a>
 80051a8:	699a      	ldr	r2, [r3, #24]
 80051aa:	b1a2      	cbz	r2, 80051d6 <vQueueAddToRegistry+0x3e>
 80051ac:	6a1a      	ldr	r2, [r3, #32]
 80051ae:	b1a2      	cbz	r2, 80051da <vQueueAddToRegistry+0x42>
 80051b0:	6a9a      	ldr	r2, [r3, #40]	; 0x28
 80051b2:	b1a2      	cbz	r2, 80051de <vQueueAddToRegistry+0x46>
 80051b4:	6b1a      	ldr	r2, [r3, #48]	; 0x30
 80051b6:	b11a      	cbz	r2, 80051c0 <vQueueAddToRegistry+0x28>
 80051b8:	6b9a      	ldr	r2, [r3, #56]	; 0x38
 80051ba:	b192      	cbz	r2, 80051e2 <vQueueAddToRegistry+0x4a>
 80051bc:	bc10      	pop	{r4}
 80051be:	4770      	bx	lr
 80051c0:	2206      	movs	r2, #6
 80051c2:	eb03 04c2 	add.w	r4, r3, r2, lsl #3
 80051c6:	f843 1032 	str.w	r1, [r3, r2, lsl #3]
 80051ca:	6060      	str	r0, [r4, #4]
 80051cc:	e7f6      	b.n	80051bc <vQueueAddToRegistry+0x24>
 80051ce:	2201      	movs	r2, #1
 80051d0:	e7f7      	b.n	80051c2 <vQueueAddToRegistry+0x2a>
 80051d2:	2202      	movs	r2, #2
 80051d4:	e7f5      	b.n	80051c2 <vQueueAddToRegistry+0x2a>
 80051d6:	2203      	movs	r2, #3
 80051d8:	e7f3      	b.n	80051c2 <vQueueAddToRegistry+0x2a>
 80051da:	2204      	movs	r2, #4
 80051dc:	e7f1      	b.n	80051c2 <vQueueAddToRegistry+0x2a>
 80051de:	2205      	movs	r2, #5
 80051e0:	e7ef      	b.n	80051c2 <vQueueAddToRegistry+0x2a>
 80051e2:	2207      	movs	r2, #7
 80051e4:	e7ed      	b.n	80051c2 <vQueueAddToRegistry+0x2a>
 80051e6:	bf00      	nop
 80051e8:	20001178 	andcs	r1, r0, r8, ror r1

080051ec <vPortStartFirstTask>:
 80051ec:	4867      	ldr	r0, [pc, #412]	; (800538c <SysTick_Handler+0x28>)
 80051ee:	6800      	ldr	r0, [r0, #0]
 80051f0:	6800      	ldr	r0, [r0, #0]
 80051f2:	f380 8808 	msr	MSP, r0
 80051f6:	b662      	cpsie	i
 80051f8:	df00      	svc	0
 80051fa:	bf00      	nop

080051fc <vPortEnableVFP>:
 80051fc:	f8df 0190 	ldr.w	r0, [pc, #400]	; 8005390 <SysTick_Handler+0x2c>
 8005200:	6801      	ldr	r1, [r0, #0]
 8005202:	f441 0170 	orr.w	r1, r1, #15728640	; 0xf00000
 8005206:	6001      	str	r1, [r0, #0]
 8005208:	4770      	bx	lr
 800520a:	bf00      	nop

0800520c <pxPortInitialiseStack>:
 800520c:	4603      	mov	r3, r0
 800520e:	b410      	push	{r4}
 8005210:	f04f 7480 	mov.w	r4, #16777216	; 0x1000000
 8005214:	e903 0012 	stmdb	r3, {r1, r4}
 8005218:	f843 2c20 	str.w	r2, [r3, #-32]
 800521c:	2100      	movs	r1, #0
 800521e:	f06f 0202 	mvn.w	r2, #2
 8005222:	f1a0 0044 	sub.w	r0, r0, #68	; 0x44
 8005226:	f843 1c0c 	str.w	r1, [r3, #-12]
 800522a:	f843 2c24 	str.w	r2, [r3, #-36]
 800522e:	bc10      	pop	{r4}
 8005230:	4770      	bx	lr
 8005232:	bf00      	nop

08005234 <SVC_Handler>:
 8005234:	4b05      	ldr	r3, [pc, #20]	; (800524c <pxCurrentTCBConst2>)
 8005236:	6819      	ldr	r1, [r3, #0]
 8005238:	6808      	ldr	r0, [r1, #0]
 800523a:	e8b0 4ff0 	ldmia.w	r0!, {r4, r5, r6, r7, r8, r9, sl, fp, lr}
 800523e:	f380 8809 	msr	PSP, r0
 8005242:	f04f 0000 	mov.w	r0, #0
 8005246:	f380 8811 	msr	BASEPRI, r0
 800524a:	4770      	bx	lr

0800524c <pxCurrentTCBConst2>:
 800524c:	200005d0 	ldrdcs	r0, [r0], -r0	; <UNPREDICTABLE>

08005250 <xPortStartScheduler>:
 8005250:	b510      	push	{r4, lr}
 8005252:	f64e 5e20 	movw	lr, #60704	; 0xed20
 8005256:	f2ce 0e00 	movt	lr, #57344	; 0xe000
 800525a:	f240 0c14 	movw	ip, #20
 800525e:	f8de 1000 	ldr.w	r1, [lr]
 8005262:	f441 0070 	orr.w	r0, r1, #15728640	; 0xf00000
 8005266:	f8ce 0000 	str.w	r0, [lr]
 800526a:	f8de 3000 	ldr.w	r3, [lr]
 800526e:	f2c2 0c00 	movt	ip, #8192	; 0x2000
 8005272:	f043 4270 	orr.w	r2, r3, #4026531840	; 0xf0000000
 8005276:	f8ce 2000 	str.w	r2, [lr]
 800527a:	f8dc 1000 	ldr.w	r1, [ip]
 800527e:	f644 54d3 	movw	r4, #19923	; 0x4dd3
 8005282:	f2c1 0462 	movt	r4, #4194	; 0x1062
 8005286:	fba4 2001 	umull	r2, r0, r4, r1
 800528a:	f24e 0214 	movw	r2, #57364	; 0xe014
 800528e:	0983      	lsrs	r3, r0, #6
 8005290:	f2ce 0200 	movt	r2, #57344	; 0xe000
 8005294:	f24e 0e10 	movw	lr, #57360	; 0xe010
 8005298:	f240 0ca4 	movw	ip, #164	; 0xa4
 800529c:	1e5c      	subs	r4, r3, #1
 800529e:	f2ce 0e00 	movt	lr, #57344	; 0xe000
 80052a2:	f2c2 0c00 	movt	ip, #8192	; 0x2000
 80052a6:	6014      	str	r4, [r2, #0]
 80052a8:	2107      	movs	r1, #7
 80052aa:	2400      	movs	r4, #0
 80052ac:	f8ce 1000 	str.w	r1, [lr]
 80052b0:	f8cc 4000 	str.w	r4, [ip]
 80052b4:	f7ff ffa2 	bl	80051fc <vPortEnableVFP>
 80052b8:	f64e 7334 	movw	r3, #61236	; 0xef34
 80052bc:	f2ce 0300 	movt	r3, #57344	; 0xe000
 80052c0:	6818      	ldr	r0, [r3, #0]
 80052c2:	f040 4240 	orr.w	r2, r0, #3221225472	; 0xc0000000
 80052c6:	601a      	str	r2, [r3, #0]
 80052c8:	f7ff ff90 	bl	80051ec <vPortStartFirstTask>
 80052cc:	4620      	mov	r0, r4
 80052ce:	bd10      	pop	{r4, pc}

080052d0 <vPortEndScheduler>:
 80052d0:	4770      	bx	lr
 80052d2:	bf00      	nop

080052d4 <vPortYieldFromISR>:
 80052d4:	f64e 5304 	movw	r3, #60676	; 0xed04
 80052d8:	f2ce 0300 	movt	r3, #57344	; 0xe000
 80052dc:	f04f 5280 	mov.w	r2, #268435456	; 0x10000000
 80052e0:	601a      	str	r2, [r3, #0]
 80052e2:	4770      	bx	lr

080052e4 <vPortEnterCritical>:
 80052e4:	f04f 0050 	mov.w	r0, #80	; 0x50
 80052e8:	f380 8811 	msr	BASEPRI, r0
 80052ec:	f240 03a4 	movw	r3, #164	; 0xa4
 80052f0:	f2c2 0300 	movt	r3, #8192	; 0x2000
 80052f4:	6818      	ldr	r0, [r3, #0]
 80052f6:	1c42      	adds	r2, r0, #1
 80052f8:	601a      	str	r2, [r3, #0]
 80052fa:	4770      	bx	lr

080052fc <vPortExitCritical>:
 80052fc:	4a04      	ldr	r2, [pc, #16]	; (8005310 <vPortExitCritical+0x14>)
 80052fe:	6810      	ldr	r0, [r2, #0]
 8005300:	1e43      	subs	r3, r0, #1
 8005302:	6013      	str	r3, [r2, #0]
 8005304:	b91b      	cbnz	r3, 800530e <vPortExitCritical+0x12>
 8005306:	f04f 0000 	mov.w	r0, #0
 800530a:	f380 8811 	msr	BASEPRI, r0
 800530e:	4770      	bx	lr
 8005310:	200000a4 	andcs	r0, r0, r4, lsr #1

08005314 <PendSV_Handler>:
 8005314:	f3ef 8009 	mrs	r0, PSP
 8005318:	4b11      	ldr	r3, [pc, #68]	; (8005360 <pxCurrentTCBConst>)
 800531a:	681a      	ldr	r2, [r3, #0]
 800531c:	f01e 0f10 	tst.w	lr, #16
 8005320:	bf08      	it	eq
 8005322:	ed20 8a10 	vstmdbeq	r0!, {s16-s31}
 8005326:	e920 4ff0 	stmdb	r0!, {r4, r5, r6, r7, r8, r9, sl, fp, lr}
 800532a:	6010      	str	r0, [r2, #0]
 800532c:	e92d 4008 	stmdb	sp!, {r3, lr}
 8005330:	f04f 0050 	mov.w	r0, #80	; 0x50
 8005334:	f380 8811 	msr	BASEPRI, r0
 8005338:	f7ff fb2c 	bl	8004994 <vTaskSwitchContext>
 800533c:	f04f 0000 	mov.w	r0, #0
 8005340:	f380 8811 	msr	BASEPRI, r0
 8005344:	e8bd 4008 	ldmia.w	sp!, {r3, lr}
 8005348:	6819      	ldr	r1, [r3, #0]
 800534a:	6808      	ldr	r0, [r1, #0]
 800534c:	e8b0 4ff0 	ldmia.w	r0!, {r4, r5, r6, r7, r8, r9, sl, fp, lr}
 8005350:	f01e 0f10 	tst.w	lr, #16
 8005354:	bf08      	it	eq
 8005356:	ecb0 8a10 	vldmiaeq	r0!, {s16-s31}
 800535a:	f380 8809 	msr	PSP, r0
 800535e:	4770      	bx	lr

08005360 <pxCurrentTCBConst>:
 8005360:	200005d0 	ldrdcs	r0, [r0], -r0	; <UNPREDICTABLE>

08005364 <SysTick_Handler>:
 8005364:	b508      	push	{r3, lr}
 8005366:	f64e 5304 	movw	r3, #60676	; 0xed04
 800536a:	f2ce 0300 	movt	r3, #57344	; 0xe000
 800536e:	f04f 5280 	mov.w	r2, #268435456	; 0x10000000
 8005372:	601a      	str	r2, [r3, #0]
 8005374:	f04f 0050 	mov.w	r0, #80	; 0x50
 8005378:	f380 8811 	msr	BASEPRI, r0
 800537c:	f7ff f9ca 	bl	8004714 <vTaskIncrementTick>
 8005380:	f04f 0000 	mov.w	r0, #0
 8005384:	f380 8811 	msr	BASEPRI, r0
 8005388:	bd08      	pop	{r3, pc}
 800538a:	ed080000 	stc	0, cr0, [r8]
 800538e:	ed88e000 	stc	0, cr14, [r8]
 8005392:	b538e000 	ldrlt	lr, [r8]!

08005394 <pvPortMalloc>:
 8005394:	b538      	push	{r3, r4, r5, lr}
 8005396:	0743      	lsls	r3, r0, #29
 8005398:	4605      	mov	r5, r0
 800539a:	bf1c      	itt	ne
 800539c:	f020 0507 	bicne.w	r5, r0, #7
 80053a0:	3508      	addne	r5, #8
 80053a2:	f7ff f98b 	bl	80046bc <vTaskSuspendAll>
 80053a6:	4a0a      	ldr	r2, [pc, #40]	; (80053d0 <pvPortMalloc+0x3c>)
 80053a8:	6813      	ldr	r3, [r2, #0]
 80053aa:	18ed      	adds	r5, r5, r3
 80053ac:	f5b5 3f80 	cmp.w	r5, #65536	; 0x10000
 80053b0:	d208      	bcs.n	80053c4 <pvPortMalloc+0x30>
 80053b2:	42ab      	cmp	r3, r5
 80053b4:	d206      	bcs.n	80053c4 <pvPortMalloc+0x30>
 80053b6:	4c07      	ldr	r4, [pc, #28]	; (80053d4 <pvPortMalloc+0x40>)
 80053b8:	6015      	str	r5, [r2, #0]
 80053ba:	18e4      	adds	r4, r4, r3
 80053bc:	f7ff fa28 	bl	8004810 <xTaskResumeAll>
 80053c0:	4620      	mov	r0, r4
 80053c2:	bd38      	pop	{r3, r4, r5, pc}
 80053c4:	2400      	movs	r4, #0
 80053c6:	f7ff fa23 	bl	8004810 <xTaskResumeAll>
 80053ca:	4620      	mov	r0, r4
 80053cc:	bd38      	pop	{r3, r4, r5, pc}
 80053ce:	bf00      	nop
 80053d0:	200006b8 			; <UNDEFINED> instruction: 0x200006b8
 80053d4:	10000000 	andne	r0, r0, r0

080053d8 <vPortFree>:
 80053d8:	4770      	bx	lr
 80053da:	bf00      	nop

080053dc <vPortInitialiseBlocks>:
 80053dc:	f240 63b8 	movw	r3, #1720	; 0x6b8
 80053e0:	f2c2 0300 	movt	r3, #8192	; 0x2000
 80053e4:	2200      	movs	r2, #0
 80053e6:	601a      	str	r2, [r3, #0]
 80053e8:	4770      	bx	lr
 80053ea:	bf00      	nop

080053ec <xPortGetFreeHeapSize>:
 80053ec:	f240 63b8 	movw	r3, #1720	; 0x6b8
 80053f0:	f2c2 0300 	movt	r3, #8192	; 0x2000
 80053f4:	6818      	ldr	r0, [r3, #0]
 80053f6:	f5c0 3080 	rsb	r0, r0, #65536	; 0x10000
 80053fa:	4770      	bx	lr

080053fc <GPIO_DeInit>:
 80053fc:	b508      	push	{r3, lr}
 80053fe:	2300      	movs	r3, #0
 8005400:	f2c4 0302 	movt	r3, #16386	; 0x4002
 8005404:	4298      	cmp	r0, r3
 8005406:	d03c      	beq.n	8005482 <GPIO_DeInit+0x86>
 8005408:	f44f 6180 	mov.w	r1, #1024	; 0x400
 800540c:	f2c4 0102 	movt	r1, #16386	; 0x4002
 8005410:	4288      	cmp	r0, r1
 8005412:	d040      	beq.n	8005496 <GPIO_DeInit+0x9a>
 8005414:	f44f 6200 	mov.w	r2, #2048	; 0x800
 8005418:	f2c4 0202 	movt	r2, #16386	; 0x4002
 800541c:	4290      	cmp	r0, r2
 800541e:	d044      	beq.n	80054aa <GPIO_DeInit+0xae>
 8005420:	f44f 6c40 	mov.w	ip, #3072	; 0xc00
 8005424:	f2c4 0c02 	movt	ip, #16386	; 0x4002
 8005428:	4560      	cmp	r0, ip
 800542a:	d048      	beq.n	80054be <GPIO_DeInit+0xc2>
 800542c:	f44f 5380 	mov.w	r3, #4096	; 0x1000
 8005430:	f2c4 0302 	movt	r3, #16386	; 0x4002
 8005434:	4298      	cmp	r0, r3
 8005436:	d04c      	beq.n	80054d2 <GPIO_DeInit+0xd6>
 8005438:	f44f 51a0 	mov.w	r1, #5120	; 0x1400
 800543c:	f2c4 0102 	movt	r1, #16386	; 0x4002
 8005440:	4288      	cmp	r0, r1
 8005442:	d050      	beq.n	80054e6 <GPIO_DeInit+0xea>
 8005444:	f44f 52c0 	mov.w	r2, #6144	; 0x1800
 8005448:	f2c4 0202 	movt	r2, #16386	; 0x4002
 800544c:	4290      	cmp	r0, r2
 800544e:	d054      	beq.n	80054fa <GPIO_DeInit+0xfe>
 8005450:	f44f 5ce0 	mov.w	ip, #7168	; 0x1c00
 8005454:	f2c4 0c02 	movt	ip, #16386	; 0x4002
 8005458:	4560      	cmp	r0, ip
 800545a:	d058      	beq.n	800550e <GPIO_DeInit+0x112>
 800545c:	f44f 5300 	mov.w	r3, #8192	; 0x2000
 8005460:	f2c4 0302 	movt	r3, #16386	; 0x4002
 8005464:	4298      	cmp	r0, r3
 8005466:	d000      	beq.n	800546a <GPIO_DeInit+0x6e>
 8005468:	bd08      	pop	{r3, pc}
 800546a:	2101      	movs	r1, #1
 800546c:	f44f 7080 	mov.w	r0, #256	; 0x100
 8005470:	f000 fbb6 	bl	8005be0 <RCC_AHB1PeriphResetCmd>
 8005474:	f44f 7080 	mov.w	r0, #256	; 0x100
 8005478:	2100      	movs	r1, #0
 800547a:	e8bd 4008 	ldmia.w	sp!, {r3, lr}
 800547e:	f000 bbaf 	b.w	8005be0 <RCC_AHB1PeriphResetCmd>
 8005482:	2001      	movs	r0, #1
 8005484:	4601      	mov	r1, r0
 8005486:	f000 fbab 	bl	8005be0 <RCC_AHB1PeriphResetCmd>
 800548a:	2001      	movs	r0, #1
 800548c:	2100      	movs	r1, #0
 800548e:	e8bd 4008 	ldmia.w	sp!, {r3, lr}
 8005492:	f000 bba5 	b.w	8005be0 <RCC_AHB1PeriphResetCmd>
 8005496:	2002      	movs	r0, #2
 8005498:	2101      	movs	r1, #1
 800549a:	f000 fba1 	bl	8005be0 <RCC_AHB1PeriphResetCmd>
 800549e:	2002      	movs	r0, #2
 80054a0:	2100      	movs	r1, #0
 80054a2:	e8bd 4008 	ldmia.w	sp!, {r3, lr}
 80054a6:	f000 bb9b 	b.w	8005be0 <RCC_AHB1PeriphResetCmd>
 80054aa:	2004      	movs	r0, #4
 80054ac:	2101      	movs	r1, #1
 80054ae:	f000 fb97 	bl	8005be0 <RCC_AHB1PeriphResetCmd>
 80054b2:	2004      	movs	r0, #4
 80054b4:	2100      	movs	r1, #0
 80054b6:	e8bd 4008 	ldmia.w	sp!, {r3, lr}
 80054ba:	f000 bb91 	b.w	8005be0 <RCC_AHB1PeriphResetCmd>
 80054be:	2008      	movs	r0, #8
 80054c0:	2101      	movs	r1, #1
 80054c2:	f000 fb8d 	bl	8005be0 <RCC_AHB1PeriphResetCmd>
 80054c6:	2008      	movs	r0, #8
 80054c8:	2100      	movs	r1, #0
 80054ca:	e8bd 4008 	ldmia.w	sp!, {r3, lr}
 80054ce:	f000 bb87 	b.w	8005be0 <RCC_AHB1PeriphResetCmd>
 80054d2:	2010      	movs	r0, #16
 80054d4:	2101      	movs	r1, #1
 80054d6:	f000 fb83 	bl	8005be0 <RCC_AHB1PeriphResetCmd>
 80054da:	2010      	movs	r0, #16
 80054dc:	2100      	movs	r1, #0
 80054de:	e8bd 4008 	ldmia.w	sp!, {r3, lr}
 80054e2:	f000 bb7d 	b.w	8005be0 <RCC_AHB1PeriphResetCmd>
 80054e6:	2020      	movs	r0, #32
 80054e8:	2101      	movs	r1, #1
 80054ea:	f000 fb79 	bl	8005be0 <RCC_AHB1PeriphResetCmd>
 80054ee:	2020      	movs	r0, #32
 80054f0:	2100      	movs	r1, #0
 80054f2:	e8bd 4008 	ldmia.w	sp!, {r3, lr}
 80054f6:	f000 bb73 	b.w	8005be0 <RCC_AHB1PeriphResetCmd>
 80054fa:	2040      	movs	r0, #64	; 0x40
 80054fc:	2101      	movs	r1, #1
 80054fe:	f000 fb6f 	bl	8005be0 <RCC_AHB1PeriphResetCmd>
 8005502:	2040      	movs	r0, #64	; 0x40
 8005504:	2100      	movs	r1, #0
 8005506:	e8bd 4008 	ldmia.w	sp!, {r3, lr}
 800550a:	f000 bb69 	b.w	8005be0 <RCC_AHB1PeriphResetCmd>
 800550e:	2080      	movs	r0, #128	; 0x80
 8005510:	2101      	movs	r1, #1
 8005512:	f000 fb65 	bl	8005be0 <RCC_AHB1PeriphResetCmd>
 8005516:	2080      	movs	r0, #128	; 0x80
 8005518:	2100      	movs	r1, #0
 800551a:	e8bd 4008 	ldmia.w	sp!, {r3, lr}
 800551e:	f000 bb5f 	b.w	8005be0 <RCC_AHB1PeriphResetCmd>
 8005522:	bf00      	nop

08005524 <GPIO_Init>:
 8005524:	e92d 0ff0 	stmdb	sp!, {r4, r5, r6, r7, r8, r9, sl, fp}
 8005528:	b084      	sub	sp, #16
 800552a:	2300      	movs	r3, #0
 800552c:	680a      	ldr	r2, [r1, #0]
 800552e:	9100      	str	r1, [sp, #0]
 8005530:	461c      	mov	r4, r3
 8005532:	f04f 0c01 	mov.w	ip, #1
 8005536:	e005      	b.n	8005544 <GPIO_Init+0x20>
 8005538:	45b0      	cmp	r8, r6
 800553a:	d041      	beq.n	80055c0 <GPIO_Init+0x9c>
 800553c:	1c6c      	adds	r4, r5, #1
 800553e:	1cbb      	adds	r3, r7, #2
 8005540:	2c10      	cmp	r4, #16
 8005542:	d062      	beq.n	800560a <GPIO_Init+0xe6>
 8005544:	fa0c f704 	lsl.w	r7, ip, r4
 8005548:	1c65      	adds	r5, r4, #1
 800554a:	ea07 0902 	and.w	r9, r7, r2
 800554e:	fa0c f605 	lsl.w	r6, ip, r5
 8005552:	45b9      	cmp	r9, r7
 8005554:	ea06 0802 	and.w	r8, r6, r2
 8005558:	f103 0702 	add.w	r7, r3, #2
 800555c:	d1ec      	bne.n	8005538 <GPIO_Init+0x14>
 800555e:	6801      	ldr	r1, [r0, #0]
 8005560:	f8dd b000 	ldr.w	fp, [sp]
 8005564:	9101      	str	r1, [sp, #4]
 8005566:	2103      	movs	r1, #3
 8005568:	fa01 f103 	lsl.w	r1, r1, r3
 800556c:	ea6f 0a01 	mvn.w	sl, r1
 8005570:	9901      	ldr	r1, [sp, #4]
 8005572:	f89b b004 	ldrb.w	fp, [fp, #4]
 8005576:	f8cd a008 	str.w	sl, [sp, #8]
 800557a:	ea0a 0a01 	and.w	sl, sl, r1
 800557e:	f8c0 a000 	str.w	sl, [r0]
 8005582:	6801      	ldr	r1, [r0, #0]
 8005584:	fa0b fa03 	lsl.w	sl, fp, r3
 8005588:	f10b 3bff 	add.w	fp, fp, #4294967295
 800558c:	fa5f fb8b 	uxtb.w	fp, fp
 8005590:	ea4a 0a01 	orr.w	sl, sl, r1
 8005594:	f1bb 0f01 	cmp.w	fp, #1
 8005598:	f8c0 a000 	str.w	sl, [r0]
 800559c:	d939      	bls.n	8005612 <GPIO_Init+0xee>
 800559e:	68c4      	ldr	r4, [r0, #12]
 80055a0:	9900      	ldr	r1, [sp, #0]
 80055a2:	f8dd a008 	ldr.w	sl, [sp, #8]
 80055a6:	f891 9007 	ldrb.w	r9, [r1, #7]
 80055aa:	ea0a 0104 	and.w	r1, sl, r4
 80055ae:	60c1      	str	r1, [r0, #12]
 80055b0:	68c4      	ldr	r4, [r0, #12]
 80055b2:	fa09 f103 	lsl.w	r1, r9, r3
 80055b6:	ea41 0304 	orr.w	r3, r1, r4
 80055ba:	45b0      	cmp	r8, r6
 80055bc:	60c3      	str	r3, [r0, #12]
 80055be:	d1bd      	bne.n	800553c <GPIO_Init+0x18>
 80055c0:	f04f 0a03 	mov.w	sl, #3
 80055c4:	6806      	ldr	r6, [r0, #0]
 80055c6:	9c00      	ldr	r4, [sp, #0]
 80055c8:	fa0a f307 	lsl.w	r3, sl, r7
 80055cc:	43db      	mvns	r3, r3
 80055ce:	7924      	ldrb	r4, [r4, #4]
 80055d0:	ea03 0106 	and.w	r1, r3, r6
 80055d4:	6001      	str	r1, [r0, #0]
 80055d6:	6806      	ldr	r6, [r0, #0]
 80055d8:	1e61      	subs	r1, r4, #1
 80055da:	fa04 f907 	lsl.w	r9, r4, r7
 80055de:	b2cc      	uxtb	r4, r1
 80055e0:	ea49 0606 	orr.w	r6, r9, r6
 80055e4:	2c01      	cmp	r4, #1
 80055e6:	6006      	str	r6, [r0, #0]
 80055e8:	d93b      	bls.n	8005662 <GPIO_Init+0x13e>
 80055ea:	68c4      	ldr	r4, [r0, #12]
 80055ec:	9e00      	ldr	r6, [sp, #0]
 80055ee:	ea03 0104 	and.w	r1, r3, r4
 80055f2:	79f6      	ldrb	r6, [r6, #7]
 80055f4:	60c1      	str	r1, [r0, #12]
 80055f6:	68c4      	ldr	r4, [r0, #12]
 80055f8:	fa06 f307 	lsl.w	r3, r6, r7
 80055fc:	ea43 0104 	orr.w	r1, r3, r4
 8005600:	1c6c      	adds	r4, r5, #1
 8005602:	1cbb      	adds	r3, r7, #2
 8005604:	2c10      	cmp	r4, #16
 8005606:	60c1      	str	r1, [r0, #12]
 8005608:	d19c      	bne.n	8005544 <GPIO_Init+0x20>
 800560a:	b004      	add	sp, #16
 800560c:	e8bd 0ff0 	ldmia.w	sp!, {r4, r5, r6, r7, r8, r9, sl, fp}
 8005610:	4770      	bx	lr
 8005612:	9900      	ldr	r1, [sp, #0]
 8005614:	f8d0 a008 	ldr.w	sl, [r0, #8]
 8005618:	7949      	ldrb	r1, [r1, #5]
 800561a:	9101      	str	r1, [sp, #4]
 800561c:	9900      	ldr	r1, [sp, #0]
 800561e:	7989      	ldrb	r1, [r1, #6]
 8005620:	9103      	str	r1, [sp, #12]
 8005622:	9902      	ldr	r1, [sp, #8]
 8005624:	ea01 0b0a 	and.w	fp, r1, sl
 8005628:	f8c0 b008 	str.w	fp, [r0, #8]
 800562c:	9901      	ldr	r1, [sp, #4]
 800562e:	f8d0 b008 	ldr.w	fp, [r0, #8]
 8005632:	fa01 f103 	lsl.w	r1, r1, r3
 8005636:	ea41 0a0b 	orr.w	sl, r1, fp
 800563a:	f8c0 a008 	str.w	sl, [r0, #8]
 800563e:	f8d0 a004 	ldr.w	sl, [r0, #4]
 8005642:	ea2a 0909 	bic.w	r9, sl, r9
 8005646:	f8dd a00c 	ldr.w	sl, [sp, #12]
 800564a:	f8c0 9004 	str.w	r9, [r0, #4]
 800564e:	f8d0 9004 	ldr.w	r9, [r0, #4]
 8005652:	fa0a fa04 	lsl.w	sl, sl, r4
 8005656:	fa1f f18a 	uxth.w	r1, sl
 800565a:	ea41 0409 	orr.w	r4, r1, r9
 800565e:	6044      	str	r4, [r0, #4]
 8005660:	e79d      	b.n	800559e <GPIO_Init+0x7a>
 8005662:	6881      	ldr	r1, [r0, #8]
 8005664:	f8dd a000 	ldr.w	sl, [sp]
 8005668:	ea03 0601 	and.w	r6, r3, r1
 800566c:	f89a 4006 	ldrb.w	r4, [sl, #6]
 8005670:	f89a 9005 	ldrb.w	r9, [sl, #5]
 8005674:	6086      	str	r6, [r0, #8]
 8005676:	6881      	ldr	r1, [r0, #8]
 8005678:	fa09 f907 	lsl.w	r9, r9, r7
 800567c:	ea49 0601 	orr.w	r6, r9, r1
 8005680:	6086      	str	r6, [r0, #8]
 8005682:	6841      	ldr	r1, [r0, #4]
 8005684:	ea21 0608 	bic.w	r6, r1, r8
 8005688:	6046      	str	r6, [r0, #4]
 800568a:	6846      	ldr	r6, [r0, #4]
 800568c:	fa04 f105 	lsl.w	r1, r4, r5
 8005690:	b28c      	uxth	r4, r1
 8005692:	ea44 0106 	orr.w	r1, r4, r6
 8005696:	6041      	str	r1, [r0, #4]
 8005698:	e7a7      	b.n	80055ea <GPIO_Init+0xc6>
 800569a:	bf00      	nop

0800569c <GPIO_StructInit>:
 800569c:	2300      	movs	r3, #0
 800569e:	f64f 72ff 	movw	r2, #65535	; 0xffff
 80056a2:	6002      	str	r2, [r0, #0]
 80056a4:	7103      	strb	r3, [r0, #4]
 80056a6:	7143      	strb	r3, [r0, #5]
 80056a8:	7183      	strb	r3, [r0, #6]
 80056aa:	71c3      	strb	r3, [r0, #7]
 80056ac:	4770      	bx	lr
 80056ae:	bf00      	nop

080056b0 <GPIO_PinLockConfig>:
 80056b0:	b082      	sub	sp, #8
 80056b2:	f44f 3280 	mov.w	r2, #65536	; 0x10000
 80056b6:	9201      	str	r2, [sp, #4]
 80056b8:	9b01      	ldr	r3, [sp, #4]
 80056ba:	ea41 0203 	orr.w	r2, r1, r3
 80056be:	9201      	str	r2, [sp, #4]
 80056c0:	9b01      	ldr	r3, [sp, #4]
 80056c2:	61c3      	str	r3, [r0, #28]
 80056c4:	61c1      	str	r1, [r0, #28]
 80056c6:	9a01      	ldr	r2, [sp, #4]
 80056c8:	61c2      	str	r2, [r0, #28]
 80056ca:	69c1      	ldr	r1, [r0, #28]
 80056cc:	9101      	str	r1, [sp, #4]
 80056ce:	69c3      	ldr	r3, [r0, #28]
 80056d0:	9301      	str	r3, [sp, #4]
 80056d2:	b002      	add	sp, #8
 80056d4:	4770      	bx	lr
 80056d6:	bf00      	nop

080056d8 <GPIO_ReadInputDataBit>:
 80056d8:	6903      	ldr	r3, [r0, #16]
 80056da:	4219      	tst	r1, r3
 80056dc:	bf0c      	ite	eq
 80056de:	2000      	moveq	r0, #0
 80056e0:	2001      	movne	r0, #1
 80056e2:	4770      	bx	lr

080056e4 <GPIO_ReadInputData>:
 80056e4:	6900      	ldr	r0, [r0, #16]
 80056e6:	b280      	uxth	r0, r0
 80056e8:	4770      	bx	lr
 80056ea:	bf00      	nop

080056ec <GPIO_ReadOutputDataBit>:
 80056ec:	6943      	ldr	r3, [r0, #20]
 80056ee:	4219      	tst	r1, r3
 80056f0:	bf0c      	ite	eq
 80056f2:	2000      	moveq	r0, #0
 80056f4:	2001      	movne	r0, #1
 80056f6:	4770      	bx	lr

080056f8 <GPIO_ReadOutputData>:
 80056f8:	6940      	ldr	r0, [r0, #20]
 80056fa:	b280      	uxth	r0, r0
 80056fc:	4770      	bx	lr
 80056fe:	bf00      	nop

08005700 <GPIO_SetBits>:
 8005700:	8301      	strh	r1, [r0, #24]
 8005702:	4770      	bx	lr

08005704 <GPIO_ResetBits>:
 8005704:	8341      	strh	r1, [r0, #26]
 8005706:	4770      	bx	lr

08005708 <GPIO_WriteBit>:
 8005708:	b90a      	cbnz	r2, 800570e <GPIO_WriteBit+0x6>
 800570a:	8341      	strh	r1, [r0, #26]
 800570c:	4770      	bx	lr
 800570e:	8301      	strh	r1, [r0, #24]
 8005710:	4770      	bx	lr
 8005712:	bf00      	nop

08005714 <GPIO_Write>:
 8005714:	6141      	str	r1, [r0, #20]
 8005716:	4770      	bx	lr

08005718 <GPIO_ToggleBits>:
 8005718:	6943      	ldr	r3, [r0, #20]
 800571a:	4059      	eors	r1, r3
 800571c:	6141      	str	r1, [r0, #20]
 800571e:	4770      	bx	lr

08005720 <GPIO_PinAFConfig>:
 8005720:	08cb      	lsrs	r3, r1, #3
 8005722:	3308      	adds	r3, #8
 8005724:	f001 0107 	and.w	r1, r1, #7
 8005728:	0089      	lsls	r1, r1, #2
 800572a:	b430      	push	{r4, r5}
 800572c:	f850 5023 	ldr.w	r5, [r0, r3, lsl #2]
 8005730:	240f      	movs	r4, #15
 8005732:	fa04 fc01 	lsl.w	ip, r4, r1
 8005736:	ea25 040c 	bic.w	r4, r5, ip
 800573a:	f840 4023 	str.w	r4, [r0, r3, lsl #2]
 800573e:	f850 4023 	ldr.w	r4, [r0, r3, lsl #2]
 8005742:	fa02 f201 	lsl.w	r2, r2, r1
 8005746:	ea42 0104 	orr.w	r1, r2, r4
 800574a:	f840 1023 	str.w	r1, [r0, r3, lsl #2]
 800574e:	bc30      	pop	{r4, r5}
 8005750:	4770      	bx	lr
 8005752:	bf00      	nop

08005754 <EXTI_DeInit>:
 8005754:	f44f 5370 	mov.w	r3, #15360	; 0x3c00
 8005758:	f2c4 0301 	movt	r3, #16385	; 0x4001
 800575c:	f64f 71ff 	movw	r1, #65535	; 0xffff
 8005760:	2200      	movs	r2, #0
 8005762:	f2c0 017f 	movt	r1, #127	; 0x7f
 8005766:	601a      	str	r2, [r3, #0]
 8005768:	605a      	str	r2, [r3, #4]
 800576a:	609a      	str	r2, [r3, #8]
 800576c:	60da      	str	r2, [r3, #12]
 800576e:	6159      	str	r1, [r3, #20]
 8005770:	4770      	bx	lr
 8005772:	bf00      	nop

08005774 <EXTI_Init>:
 8005774:	7983      	ldrb	r3, [r0, #6]
 8005776:	b470      	push	{r4, r5, r6}
 8005778:	b343      	cbz	r3, 80057cc <EXTI_Init+0x58>
 800577a:	f44f 5370 	mov.w	r3, #15360	; 0x3c00
 800577e:	f2c4 0301 	movt	r3, #16385	; 0x4001
 8005782:	6801      	ldr	r1, [r0, #0]
 8005784:	681e      	ldr	r6, [r3, #0]
 8005786:	7902      	ldrb	r2, [r0, #4]
 8005788:	7945      	ldrb	r5, [r0, #5]
 800578a:	43cc      	mvns	r4, r1
 800578c:	4026      	ands	r6, r4
 800578e:	601e      	str	r6, [r3, #0]
 8005790:	685e      	ldr	r6, [r3, #4]
 8005792:	f102 4c80 	add.w	ip, r2, #1073741824	; 0x40000000
 8005796:	f50c 329e 	add.w	r2, ip, #80896	; 0x13c00
 800579a:	4034      	ands	r4, r6
 800579c:	605c      	str	r4, [r3, #4]
 800579e:	6814      	ldr	r4, [r2, #0]
 80057a0:	4321      	orrs	r1, r4
 80057a2:	6011      	str	r1, [r2, #0]
 80057a4:	6802      	ldr	r2, [r0, #0]
 80057a6:	6898      	ldr	r0, [r3, #8]
 80057a8:	43d1      	mvns	r1, r2
 80057aa:	4008      	ands	r0, r1
 80057ac:	6098      	str	r0, [r3, #8]
 80057ae:	68d8      	ldr	r0, [r3, #12]
 80057b0:	2d10      	cmp	r5, #16
 80057b2:	ea01 0100 	and.w	r1, r1, r0
 80057b6:	60d9      	str	r1, [r3, #12]
 80057b8:	d016      	beq.n	80057e8 <EXTI_Init+0x74>
 80057ba:	f105 4580 	add.w	r5, r5, #1073741824	; 0x40000000
 80057be:	f505 359e 	add.w	r5, r5, #80896	; 0x13c00
 80057c2:	6828      	ldr	r0, [r5, #0]
 80057c4:	ea40 0302 	orr.w	r3, r0, r2
 80057c8:	602b      	str	r3, [r5, #0]
 80057ca:	e00b      	b.n	80057e4 <EXTI_Init+0x70>
 80057cc:	7902      	ldrb	r2, [r0, #4]
 80057ce:	6801      	ldr	r1, [r0, #0]
 80057d0:	f102 4080 	add.w	r0, r2, #1073741824	; 0x40000000
 80057d4:	f500 3c9e 	add.w	ip, r0, #80896	; 0x13c00
 80057d8:	f8dc 3000 	ldr.w	r3, [ip]
 80057dc:	ea23 0201 	bic.w	r2, r3, r1
 80057e0:	f8cc 2000 	str.w	r2, [ip]
 80057e4:	bc70      	pop	{r4, r5, r6}
 80057e6:	4770      	bx	lr
 80057e8:	6899      	ldr	r1, [r3, #8]
 80057ea:	ea41 0002 	orr.w	r0, r1, r2
 80057ee:	6098      	str	r0, [r3, #8]
 80057f0:	68d9      	ldr	r1, [r3, #12]
 80057f2:	ea41 0002 	orr.w	r0, r1, r2
 80057f6:	60d8      	str	r0, [r3, #12]
 80057f8:	e7f4      	b.n	80057e4 <EXTI_Init+0x70>
 80057fa:	bf00      	nop

080057fc <EXTI_StructInit>:
 80057fc:	2300      	movs	r3, #0
 80057fe:	220c      	movs	r2, #12
 8005800:	6003      	str	r3, [r0, #0]
 8005802:	7103      	strb	r3, [r0, #4]
 8005804:	7142      	strb	r2, [r0, #5]
 8005806:	7183      	strb	r3, [r0, #6]
 8005808:	4770      	bx	lr
 800580a:	bf00      	nop

0800580c <EXTI_GenerateSWInterrupt>:
 800580c:	f44f 5370 	mov.w	r3, #15360	; 0x3c00
 8005810:	f2c4 0301 	movt	r3, #16385	; 0x4001
 8005814:	691a      	ldr	r2, [r3, #16]
 8005816:	4310      	orrs	r0, r2
 8005818:	6118      	str	r0, [r3, #16]
 800581a:	4770      	bx	lr

0800581c <EXTI_GetFlagStatus>:
 800581c:	f44f 5170 	mov.w	r1, #15360	; 0x3c00
 8005820:	f2c4 0101 	movt	r1, #16385	; 0x4001
 8005824:	694b      	ldr	r3, [r1, #20]
 8005826:	4218      	tst	r0, r3
 8005828:	bf0c      	ite	eq
 800582a:	2000      	moveq	r0, #0
 800582c:	2001      	movne	r0, #1
 800582e:	4770      	bx	lr

08005830 <EXTI_ClearFlag>:
 8005830:	f44f 5370 	mov.w	r3, #15360	; 0x3c00
 8005834:	f2c4 0301 	movt	r3, #16385	; 0x4001
 8005838:	6158      	str	r0, [r3, #20]
 800583a:	4770      	bx	lr

0800583c <EXTI_GetITStatus>:
 800583c:	f44f 5170 	mov.w	r1, #15360	; 0x3c00
 8005840:	f2c4 0101 	movt	r1, #16385	; 0x4001
 8005844:	680a      	ldr	r2, [r1, #0]
 8005846:	694b      	ldr	r3, [r1, #20]
 8005848:	4003      	ands	r3, r0
 800584a:	d004      	beq.n	8005856 <EXTI_GetITStatus+0x1a>
 800584c:	4210      	tst	r0, r2
 800584e:	bf0c      	ite	eq
 8005850:	2000      	moveq	r0, #0
 8005852:	2001      	movne	r0, #1
 8005854:	4770      	bx	lr
 8005856:	4618      	mov	r0, r3
 8005858:	4770      	bx	lr
 800585a:	bf00      	nop

0800585c <EXTI_ClearITPendingBit>:
 800585c:	f44f 5370 	mov.w	r3, #15360	; 0x3c00
 8005860:	f2c4 0301 	movt	r3, #16385	; 0x4001
 8005864:	6158      	str	r0, [r3, #20]
 8005866:	4770      	bx	lr

08005868 <RCC_DeInit>:
 8005868:	f44f 5360 	mov.w	r3, #14336	; 0x3800
 800586c:	f2c4 0302 	movt	r3, #16386	; 0x4002
 8005870:	2200      	movs	r2, #0
 8005872:	6818      	ldr	r0, [r3, #0]
 8005874:	f040 0101 	orr.w	r1, r0, #1
 8005878:	6019      	str	r1, [r3, #0]
 800587a:	609a      	str	r2, [r3, #8]
 800587c:	6818      	ldr	r0, [r3, #0]
 800587e:	f243 0110 	movw	r1, #12304	; 0x3010
 8005882:	f020 7c84 	bic.w	ip, r0, #17301504	; 0x1080000
 8005886:	f42c 3080 	bic.w	r0, ip, #65536	; 0x10000
 800588a:	f2c2 4100 	movt	r1, #9216	; 0x2400
 800588e:	6018      	str	r0, [r3, #0]
 8005890:	6059      	str	r1, [r3, #4]
 8005892:	6818      	ldr	r0, [r3, #0]
 8005894:	f420 2180 	bic.w	r1, r0, #262144	; 0x40000
 8005898:	6019      	str	r1, [r3, #0]
 800589a:	60da      	str	r2, [r3, #12]
 800589c:	4770      	bx	lr
 800589e:	bf00      	nop

080058a0 <RCC_HSEConfig>:
 80058a0:	f643 0302 	movw	r3, #14338	; 0x3802
 80058a4:	f2c4 0302 	movt	r3, #16386	; 0x4002
 80058a8:	2200      	movs	r2, #0
 80058aa:	701a      	strb	r2, [r3, #0]
 80058ac:	7018      	strb	r0, [r3, #0]
 80058ae:	4770      	bx	lr

080058b0 <RCC_WaitForHSEStartUp>:
 80058b0:	b082      	sub	sp, #8
 80058b2:	f44f 5160 	mov.w	r1, #14336	; 0x3800
 80058b6:	2300      	movs	r3, #0
 80058b8:	9301      	str	r3, [sp, #4]
 80058ba:	f2c4 0102 	movt	r1, #16386	; 0x4002
 80058be:	680a      	ldr	r2, [r1, #0]
 80058c0:	9801      	ldr	r0, [sp, #4]
 80058c2:	1c43      	adds	r3, r0, #1
 80058c4:	9301      	str	r3, [sp, #4]
 80058c6:	9801      	ldr	r0, [sp, #4]
 80058c8:	f5b0 4fa0 	cmp.w	r0, #20480	; 0x5000
 80058cc:	d001      	beq.n	80058d2 <RCC_WaitForHSEStartUp+0x22>
 80058ce:	0393      	lsls	r3, r2, #14
 80058d0:	d5f5      	bpl.n	80058be <RCC_WaitForHSEStartUp+0xe>
 80058d2:	f44f 5260 	mov.w	r2, #14336	; 0x3800
 80058d6:	f2c4 0202 	movt	r2, #16386	; 0x4002
 80058da:	6811      	ldr	r1, [r2, #0]
 80058dc:	f3c1 4040 	ubfx	r0, r1, #17, #1
 80058e0:	b002      	add	sp, #8
 80058e2:	4770      	bx	lr

080058e4 <RCC_AdjustHSICalibrationValue>:
 80058e4:	f44f 5360 	mov.w	r3, #14336	; 0x3800
 80058e8:	f2c4 0302 	movt	r3, #16386	; 0x4002
 80058ec:	6819      	ldr	r1, [r3, #0]
 80058ee:	f021 02f8 	bic.w	r2, r1, #248	; 0xf8
 80058f2:	ea42 00c0 	orr.w	r0, r2, r0, lsl #3
 80058f6:	6018      	str	r0, [r3, #0]
 80058f8:	4770      	bx	lr
 80058fa:	bf00      	nop

080058fc <RCC_HSICmd>:
 80058fc:	2300      	movs	r3, #0
 80058fe:	f2c4 2347 	movt	r3, #16967	; 0x4247
 8005902:	6018      	str	r0, [r3, #0]
 8005904:	4770      	bx	lr
 8005906:	bf00      	nop

08005908 <RCC_LSEConfig>:
 8005908:	f643 0370 	movw	r3, #14448	; 0x3870
 800590c:	f2c4 0302 	movt	r3, #16386	; 0x4002
 8005910:	2200      	movs	r2, #0
 8005912:	2801      	cmp	r0, #1
 8005914:	701a      	strb	r2, [r3, #0]
 8005916:	701a      	strb	r2, [r3, #0]
 8005918:	d004      	beq.n	8005924 <RCC_LSEConfig+0x1c>
 800591a:	2804      	cmp	r0, #4
 800591c:	d101      	bne.n	8005922 <RCC_LSEConfig+0x1a>
 800591e:	2005      	movs	r0, #5
 8005920:	7018      	strb	r0, [r3, #0]
 8005922:	4770      	bx	lr
 8005924:	7018      	strb	r0, [r3, #0]
 8005926:	4770      	bx	lr

08005928 <RCC_LSICmd>:
 8005928:	f44f 6368 	mov.w	r3, #3712	; 0xe80
 800592c:	f2c4 2347 	movt	r3, #16967	; 0x4247
 8005930:	6018      	str	r0, [r3, #0]
 8005932:	4770      	bx	lr

08005934 <RCC_PLLConfig>:
 8005934:	b410      	push	{r4}
 8005936:	ea41 0400 	orr.w	r4, r1, r0
 800593a:	9901      	ldr	r1, [sp, #4]
 800593c:	ea44 1c82 	orr.w	ip, r4, r2, lsl #6
 8005940:	085b      	lsrs	r3, r3, #1
 8005942:	f44f 5460 	mov.w	r4, #14336	; 0x3800
 8005946:	ea4c 6001 	orr.w	r0, ip, r1, lsl #24
 800594a:	3b01      	subs	r3, #1
 800594c:	f2c4 0402 	movt	r4, #16386	; 0x4002
 8005950:	ea40 4203 	orr.w	r2, r0, r3, lsl #16
 8005954:	6062      	str	r2, [r4, #4]
 8005956:	bc10      	pop	{r4}
 8005958:	4770      	bx	lr
 800595a:	bf00      	nop

0800595c <RCC_PLLCmd>:
 800595c:	2360      	movs	r3, #96	; 0x60
 800595e:	f2c4 2347 	movt	r3, #16967	; 0x4247
 8005962:	6018      	str	r0, [r3, #0]
 8005964:	4770      	bx	lr
 8005966:	bf00      	nop

08005968 <RCC_PLLI2SConfig>:
 8005968:	f44f 5360 	mov.w	r3, #14336	; 0x3800
 800596c:	0182      	lsls	r2, r0, #6
 800596e:	f2c4 0302 	movt	r3, #16386	; 0x4002
 8005972:	ea42 7001 	orr.w	r0, r2, r1, lsl #28
 8005976:	f8c3 0084 	str.w	r0, [r3, #132]	; 0x84
 800597a:	4770      	bx	lr

0800597c <RCC_PLLI2SCmd>:
 800597c:	2368      	movs	r3, #104	; 0x68
 800597e:	f2c4 2347 	movt	r3, #16967	; 0x4247
 8005982:	6018      	str	r0, [r3, #0]
 8005984:	4770      	bx	lr
 8005986:	bf00      	nop

08005988 <RCC_ClockSecuritySystemCmd>:
 8005988:	234c      	movs	r3, #76	; 0x4c
 800598a:	f2c4 2347 	movt	r3, #16967	; 0x4247
 800598e:	6018      	str	r0, [r3, #0]
 8005990:	4770      	bx	lr
 8005992:	bf00      	nop

08005994 <RCC_MCO1Config>:
 8005994:	f44f 5360 	mov.w	r3, #14336	; 0x3800
 8005998:	f2c4 0302 	movt	r3, #16386	; 0x4002
 800599c:	689a      	ldr	r2, [r3, #8]
 800599e:	f022 6cec 	bic.w	ip, r2, #123731968	; 0x7600000
 80059a2:	ea40 000c 	orr.w	r0, r0, ip
 80059a6:	ea40 0201 	orr.w	r2, r0, r1
 80059aa:	609a      	str	r2, [r3, #8]
 80059ac:	4770      	bx	lr
 80059ae:	bf00      	nop

080059b0 <RCC_MCO2Config>:
 80059b0:	f44f 5360 	mov.w	r3, #14336	; 0x3800
 80059b4:	f2c4 0302 	movt	r3, #16386	; 0x4002
 80059b8:	689a      	ldr	r2, [r3, #8]
 80059ba:	f022 4c78 	bic.w	ip, r2, #4160749568	; 0xf8000000
 80059be:	ea40 000c 	orr.w	r0, r0, ip
 80059c2:	ea40 0201 	orr.w	r2, r0, r1
 80059c6:	609a      	str	r2, [r3, #8]
 80059c8:	4770      	bx	lr
 80059ca:	bf00      	nop

080059cc <RCC_SYSCLKConfig>:
 80059cc:	f44f 5360 	mov.w	r3, #14336	; 0x3800
 80059d0:	f2c4 0302 	movt	r3, #16386	; 0x4002
 80059d4:	6899      	ldr	r1, [r3, #8]
 80059d6:	f021 0203 	bic.w	r2, r1, #3
 80059da:	4310      	orrs	r0, r2
 80059dc:	6098      	str	r0, [r3, #8]
 80059de:	4770      	bx	lr

080059e0 <RCC_GetSYSCLKSource>:
 80059e0:	f44f 5360 	mov.w	r3, #14336	; 0x3800
 80059e4:	f2c4 0302 	movt	r3, #16386	; 0x4002
 80059e8:	6898      	ldr	r0, [r3, #8]
 80059ea:	f000 000c 	and.w	r0, r0, #12
 80059ee:	4770      	bx	lr

080059f0 <RCC_HCLKConfig>:
 80059f0:	f44f 5360 	mov.w	r3, #14336	; 0x3800
 80059f4:	f2c4 0302 	movt	r3, #16386	; 0x4002
 80059f8:	6899      	ldr	r1, [r3, #8]
 80059fa:	f021 02f0 	bic.w	r2, r1, #240	; 0xf0
 80059fe:	4310      	orrs	r0, r2
 8005a00:	6098      	str	r0, [r3, #8]
 8005a02:	4770      	bx	lr

08005a04 <RCC_PCLK1Config>:
 8005a04:	f44f 5360 	mov.w	r3, #14336	; 0x3800
 8005a08:	f2c4 0302 	movt	r3, #16386	; 0x4002
 8005a0c:	6899      	ldr	r1, [r3, #8]
 8005a0e:	f421 52e0 	bic.w	r2, r1, #7168	; 0x1c00
 8005a12:	4310      	orrs	r0, r2
 8005a14:	6098      	str	r0, [r3, #8]
 8005a16:	4770      	bx	lr

08005a18 <RCC_PCLK2Config>:
 8005a18:	f44f 5360 	mov.w	r3, #14336	; 0x3800
 8005a1c:	f2c4 0302 	movt	r3, #16386	; 0x4002
 8005a20:	6899      	ldr	r1, [r3, #8]
 8005a22:	f421 4260 	bic.w	r2, r1, #57344	; 0xe000
 8005a26:	ea42 00c0 	orr.w	r0, r2, r0, lsl #3
 8005a2a:	6098      	str	r0, [r3, #8]
 8005a2c:	4770      	bx	lr
 8005a2e:	bf00      	nop

08005a30 <RCC_GetClocksFreq>:
 8005a30:	b410      	push	{r4}
 8005a32:	f44f 5360 	mov.w	r3, #14336	; 0x3800
 8005a36:	f2c4 0302 	movt	r3, #16386	; 0x4002
 8005a3a:	689a      	ldr	r2, [r3, #8]
 8005a3c:	f002 020c 	and.w	r2, r2, #12
 8005a40:	2a04      	cmp	r2, #4
 8005a42:	d026      	beq.n	8005a92 <RCC_GetClocksFreq+0x62>
 8005a44:	2a08      	cmp	r2, #8
 8005a46:	d02a      	beq.n	8005a9e <RCC_GetClocksFreq+0x6e>
 8005a48:	f44f 5210 	mov.w	r2, #9216	; 0x2400
 8005a4c:	f2c0 02f4 	movt	r2, #244	; 0xf4
 8005a50:	6002      	str	r2, [r0, #0]
 8005a52:	f44f 5c60 	mov.w	ip, #14336	; 0x3800
 8005a56:	f2c4 0c02 	movt	ip, #16386	; 0x4002
 8005a5a:	4923      	ldr	r1, [pc, #140]	; (8005ae8 <RCC_GetClocksFreq+0xb8>)
 8005a5c:	f8dc 3008 	ldr.w	r3, [ip, #8]
 8005a60:	f3c3 1403 	ubfx	r4, r3, #4, #4
 8005a64:	5d0b      	ldrb	r3, [r1, r4]
 8005a66:	fa22 f203 	lsr.w	r2, r2, r3
 8005a6a:	6042      	str	r2, [r0, #4]
 8005a6c:	f8dc 4008 	ldr.w	r4, [ip, #8]
 8005a70:	f3c4 2382 	ubfx	r3, r4, #10, #3
 8005a74:	5ccc      	ldrb	r4, [r1, r3]
 8005a76:	fa22 f404 	lsr.w	r4, r2, r4
 8005a7a:	6084      	str	r4, [r0, #8]
 8005a7c:	f8dc 3008 	ldr.w	r3, [ip, #8]
 8005a80:	f3c3 3c42 	ubfx	ip, r3, #13, #3
 8005a84:	f811 100c 	ldrb.w	r1, [r1, ip]
 8005a88:	fa22 f301 	lsr.w	r3, r2, r1
 8005a8c:	60c3      	str	r3, [r0, #12]
 8005a8e:	bc10      	pop	{r4}
 8005a90:	4770      	bx	lr
 8005a92:	f44f 52d8 	mov.w	r2, #6912	; 0x1b00
 8005a96:	f2c0 02b7 	movt	r2, #183	; 0xb7
 8005a9a:	6002      	str	r2, [r0, #0]
 8005a9c:	e7d9      	b.n	8005a52 <RCC_GetClocksFreq+0x22>
 8005a9e:	685c      	ldr	r4, [r3, #4]
 8005aa0:	685a      	ldr	r2, [r3, #4]
 8005aa2:	6859      	ldr	r1, [r3, #4]
 8005aa4:	f414 0f80 	tst.w	r4, #4194304	; 0x400000
 8005aa8:	f44f 5c60 	mov.w	ip, #14336	; 0x3800
 8005aac:	bf14      	ite	ne
 8005aae:	f44f 53d8 	movne.w	r3, #6912	; 0x1b00
 8005ab2:	f44f 5310 	moveq.w	r3, #9216	; 0x2400
 8005ab6:	f2c4 0c02 	movt	ip, #16386	; 0x4002
 8005aba:	bf14      	ite	ne
 8005abc:	f2c0 03b7 	movtne	r3, #183	; 0xb7
 8005ac0:	f2c0 03f4 	movteq	r3, #244	; 0xf4
 8005ac4:	f002 023f 	and.w	r2, r2, #63	; 0x3f
 8005ac8:	f3c1 1488 	ubfx	r4, r1, #6, #9
 8005acc:	fbb3 f1f2 	udiv	r1, r3, r2
 8005ad0:	f8dc 3004 	ldr.w	r3, [ip, #4]
 8005ad4:	f3c3 4201 	ubfx	r2, r3, #16, #2
 8005ad8:	fb01 f104 	mul.w	r1, r1, r4
 8005adc:	1c54      	adds	r4, r2, #1
 8005ade:	0063      	lsls	r3, r4, #1
 8005ae0:	fbb1 f2f3 	udiv	r2, r1, r3
 8005ae4:	6002      	str	r2, [r0, #0]
 8005ae6:	e7b4      	b.n	8005a52 <RCC_GetClocksFreq+0x22>
 8005ae8:	200000a8 	andcs	r0, r0, r8, lsr #1

08005aec <RCC_RTCCLKConfig>:
 8005aec:	f400 7340 	and.w	r3, r0, #768	; 0x300
 8005af0:	f5b3 7f40 	cmp.w	r3, #768	; 0x300
 8005af4:	d10f      	bne.n	8005b16 <RCC_RTCCLKConfig+0x2a>
 8005af6:	f44f 5c60 	mov.w	ip, #14336	; 0x3800
 8005afa:	f2c4 0c02 	movt	ip, #16386	; 0x4002
 8005afe:	f020 4370 	bic.w	r3, r0, #4026531840	; 0xf0000000
 8005b02:	f8dc 2008 	ldr.w	r2, [ip, #8]
 8005b06:	f423 7140 	bic.w	r1, r3, #768	; 0x300
 8005b0a:	f422 13f8 	bic.w	r3, r2, #2031616	; 0x1f0000
 8005b0e:	ea41 0203 	orr.w	r2, r1, r3
 8005b12:	f8cc 2008 	str.w	r2, [ip, #8]
 8005b16:	f44f 5c60 	mov.w	ip, #14336	; 0x3800
 8005b1a:	f2c4 0c02 	movt	ip, #16386	; 0x4002
 8005b1e:	0503      	lsls	r3, r0, #20
 8005b20:	f8dc 2070 	ldr.w	r2, [ip, #112]	; 0x70
 8005b24:	0d19      	lsrs	r1, r3, #20
 8005b26:	ea41 0002 	orr.w	r0, r1, r2
 8005b2a:	f8cc 0070 	str.w	r0, [ip, #112]	; 0x70
 8005b2e:	4770      	bx	lr

08005b30 <RCC_RTCCLKCmd>:
 8005b30:	f640 633c 	movw	r3, #3644	; 0xe3c
 8005b34:	f2c4 2347 	movt	r3, #16967	; 0x4247
 8005b38:	6018      	str	r0, [r3, #0]
 8005b3a:	4770      	bx	lr

08005b3c <RCC_BackupResetCmd>:
 8005b3c:	f44f 6364 	mov.w	r3, #3648	; 0xe40
 8005b40:	f2c4 2347 	movt	r3, #16967	; 0x4247
 8005b44:	6018      	str	r0, [r3, #0]
 8005b46:	4770      	bx	lr

08005b48 <RCC_I2SCLKConfig>:
 8005b48:	f44f 73ae 	mov.w	r3, #348	; 0x15c
 8005b4c:	f2c4 2347 	movt	r3, #16967	; 0x4247
 8005b50:	6018      	str	r0, [r3, #0]
 8005b52:	4770      	bx	lr

08005b54 <RCC_AHB1PeriphClockCmd>:
 8005b54:	f44f 5360 	mov.w	r3, #14336	; 0x3800
 8005b58:	f2c4 0302 	movt	r3, #16386	; 0x4002
 8005b5c:	6b1a      	ldr	r2, [r3, #48]	; 0x30
 8005b5e:	b919      	cbnz	r1, 8005b68 <RCC_AHB1PeriphClockCmd+0x14>
 8005b60:	ea22 0100 	bic.w	r1, r2, r0
 8005b64:	6319      	str	r1, [r3, #48]	; 0x30
 8005b66:	4770      	bx	lr
 8005b68:	4310      	orrs	r0, r2
 8005b6a:	6318      	str	r0, [r3, #48]	; 0x30
 8005b6c:	4770      	bx	lr
 8005b6e:	bf00      	nop

08005b70 <RCC_AHB2PeriphClockCmd>:
 8005b70:	f44f 5360 	mov.w	r3, #14336	; 0x3800
 8005b74:	f2c4 0302 	movt	r3, #16386	; 0x4002
 8005b78:	6b5a      	ldr	r2, [r3, #52]	; 0x34
 8005b7a:	b919      	cbnz	r1, 8005b84 <RCC_AHB2PeriphClockCmd+0x14>
 8005b7c:	ea22 0100 	bic.w	r1, r2, r0
 8005b80:	6359      	str	r1, [r3, #52]	; 0x34
 8005b82:	4770      	bx	lr
 8005b84:	4310      	orrs	r0, r2
 8005b86:	6358      	str	r0, [r3, #52]	; 0x34
 8005b88:	4770      	bx	lr
 8005b8a:	bf00      	nop

08005b8c <RCC_AHB3PeriphClockCmd>:
 8005b8c:	f44f 5360 	mov.w	r3, #14336	; 0x3800
 8005b90:	f2c4 0302 	movt	r3, #16386	; 0x4002
 8005b94:	6b9a      	ldr	r2, [r3, #56]	; 0x38
 8005b96:	b919      	cbnz	r1, 8005ba0 <RCC_AHB3PeriphClockCmd+0x14>
 8005b98:	ea22 0100 	bic.w	r1, r2, r0
 8005b9c:	6399      	str	r1, [r3, #56]	; 0x38
 8005b9e:	4770      	bx	lr
 8005ba0:	4310      	orrs	r0, r2
 8005ba2:	6398      	str	r0, [r3, #56]	; 0x38
 8005ba4:	4770      	bx	lr
 8005ba6:	bf00      	nop

08005ba8 <RCC_APB1PeriphClockCmd>:
 8005ba8:	f44f 5360 	mov.w	r3, #14336	; 0x3800
 8005bac:	f2c4 0302 	movt	r3, #16386	; 0x4002
 8005bb0:	6c1a      	ldr	r2, [r3, #64]	; 0x40
 8005bb2:	b919      	cbnz	r1, 8005bbc <RCC_APB1PeriphClockCmd+0x14>
 8005bb4:	ea22 0100 	bic.w	r1, r2, r0
 8005bb8:	6419      	str	r1, [r3, #64]	; 0x40
 8005bba:	4770      	bx	lr
 8005bbc:	4310      	orrs	r0, r2
 8005bbe:	6418      	str	r0, [r3, #64]	; 0x40
 8005bc0:	4770      	bx	lr
 8005bc2:	bf00      	nop

08005bc4 <RCC_APB2PeriphClockCmd>:
 8005bc4:	f44f 5360 	mov.w	r3, #14336	; 0x3800
 8005bc8:	f2c4 0302 	movt	r3, #16386	; 0x4002
 8005bcc:	6c5a      	ldr	r2, [r3, #68]	; 0x44
 8005bce:	b919      	cbnz	r1, 8005bd8 <RCC_APB2PeriphClockCmd+0x14>
 8005bd0:	ea22 0100 	bic.w	r1, r2, r0
 8005bd4:	6459      	str	r1, [r3, #68]	; 0x44
 8005bd6:	4770      	bx	lr
 8005bd8:	4310      	orrs	r0, r2
 8005bda:	6458      	str	r0, [r3, #68]	; 0x44
 8005bdc:	4770      	bx	lr
 8005bde:	bf00      	nop

08005be0 <RCC_AHB1PeriphResetCmd>:
 8005be0:	f44f 5360 	mov.w	r3, #14336	; 0x3800
 8005be4:	f2c4 0302 	movt	r3, #16386	; 0x4002
 8005be8:	691a      	ldr	r2, [r3, #16]
 8005bea:	b919      	cbnz	r1, 8005bf4 <RCC_AHB1PeriphResetCmd+0x14>
 8005bec:	ea22 0100 	bic.w	r1, r2, r0
 8005bf0:	6119      	str	r1, [r3, #16]
 8005bf2:	4770      	bx	lr
 8005bf4:	4310      	orrs	r0, r2
 8005bf6:	6118      	str	r0, [r3, #16]
 8005bf8:	4770      	bx	lr
 8005bfa:	bf00      	nop

08005bfc <RCC_AHB2PeriphResetCmd>:
 8005bfc:	f44f 5360 	mov.w	r3, #14336	; 0x3800
 8005c00:	f2c4 0302 	movt	r3, #16386	; 0x4002
 8005c04:	695a      	ldr	r2, [r3, #20]
 8005c06:	b919      	cbnz	r1, 8005c10 <RCC_AHB2PeriphResetCmd+0x14>
 8005c08:	ea22 0100 	bic.w	r1, r2, r0
 8005c0c:	6159      	str	r1, [r3, #20]
 8005c0e:	4770      	bx	lr
 8005c10:	4310      	orrs	r0, r2
 8005c12:	6158      	str	r0, [r3, #20]
 8005c14:	4770      	bx	lr
 8005c16:	bf00      	nop

08005c18 <RCC_AHB3PeriphResetCmd>:
 8005c18:	f44f 5360 	mov.w	r3, #14336	; 0x3800
 8005c1c:	f2c4 0302 	movt	r3, #16386	; 0x4002
 8005c20:	699a      	ldr	r2, [r3, #24]
 8005c22:	b919      	cbnz	r1, 8005c2c <RCC_AHB3PeriphResetCmd+0x14>
 8005c24:	ea22 0100 	bic.w	r1, r2, r0
 8005c28:	6199      	str	r1, [r3, #24]
 8005c2a:	4770      	bx	lr
 8005c2c:	4310      	orrs	r0, r2
 8005c2e:	6198      	str	r0, [r3, #24]
 8005c30:	4770      	bx	lr
 8005c32:	bf00      	nop

08005c34 <RCC_APB1PeriphResetCmd>:
 8005c34:	f44f 5360 	mov.w	r3, #14336	; 0x3800
 8005c38:	f2c4 0302 	movt	r3, #16386	; 0x4002
 8005c3c:	6a1a      	ldr	r2, [r3, #32]
 8005c3e:	b919      	cbnz	r1, 8005c48 <RCC_APB1PeriphResetCmd+0x14>
 8005c40:	ea22 0100 	bic.w	r1, r2, r0
 8005c44:	6219      	str	r1, [r3, #32]
 8005c46:	4770      	bx	lr
 8005c48:	4310      	orrs	r0, r2
 8005c4a:	6218      	str	r0, [r3, #32]
 8005c4c:	4770      	bx	lr
 8005c4e:	bf00      	nop

08005c50 <RCC_APB2PeriphResetCmd>:
 8005c50:	f44f 5360 	mov.w	r3, #14336	; 0x3800
 8005c54:	f2c4 0302 	movt	r3, #16386	; 0x4002
 8005c58:	6a5a      	ldr	r2, [r3, #36]	; 0x24
 8005c5a:	b919      	cbnz	r1, 8005c64 <RCC_APB2PeriphResetCmd+0x14>
 8005c5c:	ea22 0100 	bic.w	r1, r2, r0
 8005c60:	6259      	str	r1, [r3, #36]	; 0x24
 8005c62:	4770      	bx	lr
 8005c64:	4310      	orrs	r0, r2
 8005c66:	6258      	str	r0, [r3, #36]	; 0x24
 8005c68:	4770      	bx	lr
 8005c6a:	bf00      	nop

08005c6c <RCC_AHB1PeriphClockLPModeCmd>:
 8005c6c:	f44f 5360 	mov.w	r3, #14336	; 0x3800
 8005c70:	f2c4 0302 	movt	r3, #16386	; 0x4002
 8005c74:	6d1a      	ldr	r2, [r3, #80]	; 0x50
 8005c76:	b919      	cbnz	r1, 8005c80 <RCC_AHB1PeriphClockLPModeCmd+0x14>
 8005c78:	ea22 0100 	bic.w	r1, r2, r0
 8005c7c:	6519      	str	r1, [r3, #80]	; 0x50
 8005c7e:	4770      	bx	lr
 8005c80:	4310      	orrs	r0, r2
 8005c82:	6518      	str	r0, [r3, #80]	; 0x50
 8005c84:	4770      	bx	lr
 8005c86:	bf00      	nop

08005c88 <RCC_AHB2PeriphClockLPModeCmd>:
 8005c88:	f44f 5360 	mov.w	r3, #14336	; 0x3800
 8005c8c:	f2c4 0302 	movt	r3, #16386	; 0x4002
 8005c90:	6d5a      	ldr	r2, [r3, #84]	; 0x54
 8005c92:	b919      	cbnz	r1, 8005c9c <RCC_AHB2PeriphClockLPModeCmd+0x14>
 8005c94:	ea22 0100 	bic.w	r1, r2, r0
 8005c98:	6559      	str	r1, [r3, #84]	; 0x54
 8005c9a:	4770      	bx	lr
 8005c9c:	4310      	orrs	r0, r2
 8005c9e:	6558      	str	r0, [r3, #84]	; 0x54
 8005ca0:	4770      	bx	lr
 8005ca2:	bf00      	nop

08005ca4 <RCC_AHB3PeriphClockLPModeCmd>:
 8005ca4:	f44f 5360 	mov.w	r3, #14336	; 0x3800
 8005ca8:	f2c4 0302 	movt	r3, #16386	; 0x4002
 8005cac:	6d9a      	ldr	r2, [r3, #88]	; 0x58
 8005cae:	b919      	cbnz	r1, 8005cb8 <RCC_AHB3PeriphClockLPModeCmd+0x14>
 8005cb0:	ea22 0100 	bic.w	r1, r2, r0
 8005cb4:	6599      	str	r1, [r3, #88]	; 0x58
 8005cb6:	4770      	bx	lr
 8005cb8:	4310      	orrs	r0, r2
 8005cba:	6598      	str	r0, [r3, #88]	; 0x58
 8005cbc:	4770      	bx	lr
 8005cbe:	bf00      	nop

08005cc0 <RCC_APB1PeriphClockLPModeCmd>:
 8005cc0:	f44f 5360 	mov.w	r3, #14336	; 0x3800
 8005cc4:	f2c4 0302 	movt	r3, #16386	; 0x4002
 8005cc8:	6e1a      	ldr	r2, [r3, #96]	; 0x60
 8005cca:	b919      	cbnz	r1, 8005cd4 <RCC_APB1PeriphClockLPModeCmd+0x14>
 8005ccc:	ea22 0100 	bic.w	r1, r2, r0
 8005cd0:	6619      	str	r1, [r3, #96]	; 0x60
 8005cd2:	4770      	bx	lr
 8005cd4:	4310      	orrs	r0, r2
 8005cd6:	6618      	str	r0, [r3, #96]	; 0x60
 8005cd8:	4770      	bx	lr
 8005cda:	bf00      	nop

08005cdc <RCC_APB2PeriphClockLPModeCmd>:
 8005cdc:	f44f 5360 	mov.w	r3, #14336	; 0x3800
 8005ce0:	f2c4 0302 	movt	r3, #16386	; 0x4002
 8005ce4:	6e5a      	ldr	r2, [r3, #100]	; 0x64
 8005ce6:	b919      	cbnz	r1, 8005cf0 <RCC_APB2PeriphClockLPModeCmd+0x14>
 8005ce8:	ea22 0100 	bic.w	r1, r2, r0
 8005cec:	6659      	str	r1, [r3, #100]	; 0x64
 8005cee:	4770      	bx	lr
 8005cf0:	4310      	orrs	r0, r2
 8005cf2:	6658      	str	r0, [r3, #100]	; 0x64
 8005cf4:	4770      	bx	lr
 8005cf6:	bf00      	nop

08005cf8 <RCC_ITConfig>:
 8005cf8:	f643 030d 	movw	r3, #14349	; 0x380d
 8005cfc:	f2c4 0302 	movt	r3, #16386	; 0x4002
 8005d00:	781a      	ldrb	r2, [r3, #0]
 8005d02:	b919      	cbnz	r1, 8005d0c <RCC_ITConfig+0x14>
 8005d04:	ea22 0100 	bic.w	r1, r2, r0
 8005d08:	7019      	strb	r1, [r3, #0]
 8005d0a:	4770      	bx	lr
 8005d0c:	4310      	orrs	r0, r2
 8005d0e:	7018      	strb	r0, [r3, #0]
 8005d10:	4770      	bx	lr
 8005d12:	bf00      	nop

08005d14 <RCC_GetFlagStatus>:
 8005d14:	0943      	lsrs	r3, r0, #5
 8005d16:	2b01      	cmp	r3, #1
 8005d18:	d00e      	beq.n	8005d38 <RCC_GetFlagStatus+0x24>
 8005d1a:	2b02      	cmp	r3, #2
 8005d1c:	f44f 5360 	mov.w	r3, #14336	; 0x3800
 8005d20:	f2c4 0302 	movt	r3, #16386	; 0x4002
 8005d24:	f000 011f 	and.w	r1, r0, #31
 8005d28:	bf0c      	ite	eq
 8005d2a:	6f1b      	ldreq	r3, [r3, #112]	; 0x70
 8005d2c:	6f5b      	ldrne	r3, [r3, #116]	; 0x74
 8005d2e:	fa23 f001 	lsr.w	r0, r3, r1
 8005d32:	f000 0001 	and.w	r0, r0, #1
 8005d36:	4770      	bx	lr
 8005d38:	f44f 5360 	mov.w	r3, #14336	; 0x3800
 8005d3c:	f2c4 0302 	movt	r3, #16386	; 0x4002
 8005d40:	f000 011f 	and.w	r1, r0, #31
 8005d44:	681b      	ldr	r3, [r3, #0]
 8005d46:	fa23 f001 	lsr.w	r0, r3, r1
 8005d4a:	f000 0001 	and.w	r0, r0, #1
 8005d4e:	4770      	bx	lr

08005d50 <RCC_ClearFlag>:
 8005d50:	f44f 5360 	mov.w	r3, #14336	; 0x3800
 8005d54:	f2c4 0302 	movt	r3, #16386	; 0x4002
 8005d58:	6f58      	ldr	r0, [r3, #116]	; 0x74
 8005d5a:	f040 7280 	orr.w	r2, r0, #16777216	; 0x1000000
 8005d5e:	675a      	str	r2, [r3, #116]	; 0x74
 8005d60:	4770      	bx	lr
 8005d62:	bf00      	nop

08005d64 <RCC_GetITStatus>:
 8005d64:	f44f 5160 	mov.w	r1, #14336	; 0x3800
 8005d68:	f2c4 0102 	movt	r1, #16386	; 0x4002
 8005d6c:	68cb      	ldr	r3, [r1, #12]
 8005d6e:	4218      	tst	r0, r3
 8005d70:	bf0c      	ite	eq
 8005d72:	2000      	moveq	r0, #0
 8005d74:	2001      	movne	r0, #1
 8005d76:	4770      	bx	lr

08005d78 <RCC_ClearITPendingBit>:
 8005d78:	f643 030e 	movw	r3, #14350	; 0x380e
 8005d7c:	f2c4 0302 	movt	r3, #16386	; 0x4002
 8005d80:	7018      	strb	r0, [r3, #0]
 8005d82:	4770      	bx	lr

08005d84 <SYSCFG_DeInit>:
 8005d84:	b508      	push	{r3, lr}
 8005d86:	2101      	movs	r1, #1
 8005d88:	f44f 4080 	mov.w	r0, #16384	; 0x4000
 8005d8c:	f7ff ff60 	bl	8005c50 <RCC_APB2PeriphResetCmd>
 8005d90:	f44f 4080 	mov.w	r0, #16384	; 0x4000
 8005d94:	2100      	movs	r1, #0
 8005d96:	e8bd 4008 	ldmia.w	sp!, {r3, lr}
 8005d9a:	f7ff bf59 	b.w	8005c50 <RCC_APB2PeriphResetCmd>
 8005d9e:	bf00      	nop

08005da0 <SYSCFG_MemoryRemapConfig>:
 8005da0:	f44f 5360 	mov.w	r3, #14336	; 0x3800
 8005da4:	f2c4 0301 	movt	r3, #16385	; 0x4001
 8005da8:	6018      	str	r0, [r3, #0]
 8005daa:	4770      	bx	lr

08005dac <SYSCFG_EXTILineConfig>:
 8005dac:	b430      	push	{r4, r5}
 8005dae:	f44f 5360 	mov.w	r3, #14336	; 0x3800
 8005db2:	088d      	lsrs	r5, r1, #2
 8005db4:	f2c4 0301 	movt	r3, #16385	; 0x4001
 8005db8:	1caa      	adds	r2, r5, #2
 8005dba:	f001 0103 	and.w	r1, r1, #3
 8005dbe:	f853 5022 	ldr.w	r5, [r3, r2, lsl #2]
 8005dc2:	0089      	lsls	r1, r1, #2
 8005dc4:	240f      	movs	r4, #15
 8005dc6:	fa04 fc01 	lsl.w	ip, r4, r1
 8005dca:	ea25 040c 	bic.w	r4, r5, ip
 8005dce:	f843 4022 	str.w	r4, [r3, r2, lsl #2]
 8005dd2:	f853 4022 	ldr.w	r4, [r3, r2, lsl #2]
 8005dd6:	fa00 f001 	lsl.w	r0, r0, r1
 8005dda:	ea40 0104 	orr.w	r1, r0, r4
 8005dde:	f843 1022 	str.w	r1, [r3, r2, lsl #2]
 8005de2:	bc30      	pop	{r4, r5}
 8005de4:	4770      	bx	lr
 8005de6:	bf00      	nop

08005de8 <SYSCFG_ETH_MediaInterfaceConfig>:
 8005de8:	23dc      	movs	r3, #220	; 0xdc
 8005dea:	f2c4 2327 	movt	r3, #16935	; 0x4227
 8005dee:	6018      	str	r0, [r3, #0]
 8005df0:	4770      	bx	lr
 8005df2:	bf00      	nop

08005df4 <SYSCFG_CompensationCellCmd>:
 8005df4:	f44f 6380 	mov.w	r3, #1024	; 0x400
 8005df8:	f2c4 2327 	movt	r3, #16935	; 0x4227
 8005dfc:	6018      	str	r0, [r3, #0]
 8005dfe:	4770      	bx	lr

08005e00 <SYSCFG_GetCompensationCellStatus>:
 8005e00:	f44f 5360 	mov.w	r3, #14336	; 0x3800
 8005e04:	f2c4 0301 	movt	r3, #16385	; 0x4001
 8005e08:	6a18      	ldr	r0, [r3, #32]
 8005e0a:	f3c0 2000 	ubfx	r0, r0, #8, #1
 8005e0e:	4770      	bx	lr

08005e10 <TIM_DeInit>:
 8005e10:	b508      	push	{r3, lr}
 8005e12:	2300      	movs	r3, #0
 8005e14:	f2c4 0301 	movt	r3, #16385	; 0x4001
 8005e18:	4298      	cmp	r0, r3
 8005e1a:	d05b      	beq.n	8005ed4 <TIM_DeInit+0xc4>
 8005e1c:	f1b0 4f80 	cmp.w	r0, #1073741824	; 0x40000000
 8005e20:	d062      	beq.n	8005ee8 <TIM_DeInit+0xd8>
 8005e22:	f44f 6180 	mov.w	r1, #1024	; 0x400
 8005e26:	f2c4 0100 	movt	r1, #16384	; 0x4000
 8005e2a:	4288      	cmp	r0, r1
 8005e2c:	d066      	beq.n	8005efc <TIM_DeInit+0xec>
 8005e2e:	f44f 6200 	mov.w	r2, #2048	; 0x800
 8005e32:	f2c4 0200 	movt	r2, #16384	; 0x4000
 8005e36:	4290      	cmp	r0, r2
 8005e38:	d06a      	beq.n	8005f10 <TIM_DeInit+0x100>
 8005e3a:	f44f 6c40 	mov.w	ip, #3072	; 0xc00
 8005e3e:	f2c4 0c00 	movt	ip, #16384	; 0x4000
 8005e42:	4560      	cmp	r0, ip
 8005e44:	d06e      	beq.n	8005f24 <TIM_DeInit+0x114>
 8005e46:	f44f 5380 	mov.w	r3, #4096	; 0x1000
 8005e4a:	f2c4 0300 	movt	r3, #16384	; 0x4000
 8005e4e:	4298      	cmp	r0, r3
 8005e50:	d072      	beq.n	8005f38 <TIM_DeInit+0x128>
 8005e52:	f44f 51a0 	mov.w	r1, #5120	; 0x1400
 8005e56:	f2c4 0100 	movt	r1, #16384	; 0x4000
 8005e5a:	4288      	cmp	r0, r1
 8005e5c:	d076      	beq.n	8005f4c <TIM_DeInit+0x13c>
 8005e5e:	f44f 6280 	mov.w	r2, #1024	; 0x400
 8005e62:	f2c4 0201 	movt	r2, #16385	; 0x4001
 8005e66:	4290      	cmp	r0, r2
 8005e68:	d07a      	beq.n	8005f60 <TIM_DeInit+0x150>
 8005e6a:	f44f 4c80 	mov.w	ip, #16384	; 0x4000
 8005e6e:	f2c4 0c01 	movt	ip, #16385	; 0x4001
 8005e72:	4560      	cmp	r0, ip
 8005e74:	d07e      	beq.n	8005f74 <TIM_DeInit+0x164>
 8005e76:	f44f 4388 	mov.w	r3, #17408	; 0x4400
 8005e7a:	f2c4 0301 	movt	r3, #16385	; 0x4001
 8005e7e:	4298      	cmp	r0, r3
 8005e80:	f000 8084 	beq.w	8005f8c <TIM_DeInit+0x17c>
 8005e84:	f44f 4190 	mov.w	r1, #18432	; 0x4800
 8005e88:	f2c4 0101 	movt	r1, #16385	; 0x4001
 8005e8c:	4288      	cmp	r0, r1
 8005e8e:	f000 8089 	beq.w	8005fa4 <TIM_DeInit+0x194>
 8005e92:	f44f 52c0 	mov.w	r2, #6144	; 0x1800
 8005e96:	f2c4 0200 	movt	r2, #16384	; 0x4000
 8005e9a:	4290      	cmp	r0, r2
 8005e9c:	f000 808e 	beq.w	8005fbc <TIM_DeInit+0x1ac>
 8005ea0:	f44f 5ce0 	mov.w	ip, #7168	; 0x1c00
 8005ea4:	f2c4 0c00 	movt	ip, #16384	; 0x4000
 8005ea8:	4560      	cmp	r0, ip
 8005eaa:	f000 8091 	beq.w	8005fd0 <TIM_DeInit+0x1c0>
 8005eae:	f44f 5300 	mov.w	r3, #8192	; 0x2000
 8005eb2:	f2c4 0300 	movt	r3, #16384	; 0x4000
 8005eb6:	4298      	cmp	r0, r3
 8005eb8:	d000      	beq.n	8005ebc <TIM_DeInit+0xac>
 8005eba:	bd08      	pop	{r3, pc}
 8005ebc:	2101      	movs	r1, #1
 8005ebe:	f44f 7080 	mov.w	r0, #256	; 0x100
 8005ec2:	f7ff feb7 	bl	8005c34 <RCC_APB1PeriphResetCmd>
 8005ec6:	f44f 7080 	mov.w	r0, #256	; 0x100
 8005eca:	2100      	movs	r1, #0
 8005ecc:	e8bd 4008 	ldmia.w	sp!, {r3, lr}
 8005ed0:	f7ff beb0 	b.w	8005c34 <RCC_APB1PeriphResetCmd>
 8005ed4:	2001      	movs	r0, #1
 8005ed6:	4601      	mov	r1, r0
 8005ed8:	f7ff feba 	bl	8005c50 <RCC_APB2PeriphResetCmd>
 8005edc:	2001      	movs	r0, #1
 8005ede:	2100      	movs	r1, #0
 8005ee0:	e8bd 4008 	ldmia.w	sp!, {r3, lr}
 8005ee4:	f7ff beb4 	b.w	8005c50 <RCC_APB2PeriphResetCmd>
 8005ee8:	2001      	movs	r0, #1
 8005eea:	4601      	mov	r1, r0
 8005eec:	f7ff fea2 	bl	8005c34 <RCC_APB1PeriphResetCmd>
 8005ef0:	2001      	movs	r0, #1
 8005ef2:	2100      	movs	r1, #0
 8005ef4:	e8bd 4008 	ldmia.w	sp!, {r3, lr}
 8005ef8:	f7ff be9c 	b.w	8005c34 <RCC_APB1PeriphResetCmd>
 8005efc:	2002      	movs	r0, #2
 8005efe:	2101      	movs	r1, #1
 8005f00:	f7ff fe98 	bl	8005c34 <RCC_APB1PeriphResetCmd>
 8005f04:	2002      	movs	r0, #2
 8005f06:	2100      	movs	r1, #0
 8005f08:	e8bd 4008 	ldmia.w	sp!, {r3, lr}
 8005f0c:	f7ff be92 	b.w	8005c34 <RCC_APB1PeriphResetCmd>
 8005f10:	2004      	movs	r0, #4
 8005f12:	2101      	movs	r1, #1
 8005f14:	f7ff fe8e 	bl	8005c34 <RCC_APB1PeriphResetCmd>
 8005f18:	2004      	movs	r0, #4
 8005f1a:	2100      	movs	r1, #0
 8005f1c:	e8bd 4008 	ldmia.w	sp!, {r3, lr}
 8005f20:	f7ff be88 	b.w	8005c34 <RCC_APB1PeriphResetCmd>
 8005f24:	2008      	movs	r0, #8
 8005f26:	2101      	movs	r1, #1
 8005f28:	f7ff fe84 	bl	8005c34 <RCC_APB1PeriphResetCmd>
 8005f2c:	2008      	movs	r0, #8
 8005f2e:	2100      	movs	r1, #0
 8005f30:	e8bd 4008 	ldmia.w	sp!, {r3, lr}
 8005f34:	f7ff be7e 	b.w	8005c34 <RCC_APB1PeriphResetCmd>
 8005f38:	2010      	movs	r0, #16
 8005f3a:	2101      	movs	r1, #1
 8005f3c:	f7ff fe7a 	bl	8005c34 <RCC_APB1PeriphResetCmd>
 8005f40:	2010      	movs	r0, #16
 8005f42:	2100      	movs	r1, #0
 8005f44:	e8bd 4008 	ldmia.w	sp!, {r3, lr}
 8005f48:	f7ff be74 	b.w	8005c34 <RCC_APB1PeriphResetCmd>
 8005f4c:	2020      	movs	r0, #32
 8005f4e:	2101      	movs	r1, #1
 8005f50:	f7ff fe70 	bl	8005c34 <RCC_APB1PeriphResetCmd>
 8005f54:	2020      	movs	r0, #32
 8005f56:	2100      	movs	r1, #0
 8005f58:	e8bd 4008 	ldmia.w	sp!, {r3, lr}
 8005f5c:	f7ff be6a 	b.w	8005c34 <RCC_APB1PeriphResetCmd>
 8005f60:	2002      	movs	r0, #2
 8005f62:	2101      	movs	r1, #1
 8005f64:	f7ff fe74 	bl	8005c50 <RCC_APB2PeriphResetCmd>
 8005f68:	2002      	movs	r0, #2
 8005f6a:	2100      	movs	r1, #0
 8005f6c:	e8bd 4008 	ldmia.w	sp!, {r3, lr}
 8005f70:	f7ff be6e 	b.w	8005c50 <RCC_APB2PeriphResetCmd>
 8005f74:	2101      	movs	r1, #1
 8005f76:	f44f 3080 	mov.w	r0, #65536	; 0x10000
 8005f7a:	f7ff fe69 	bl	8005c50 <RCC_APB2PeriphResetCmd>
 8005f7e:	f44f 3080 	mov.w	r0, #65536	; 0x10000
 8005f82:	2100      	movs	r1, #0
 8005f84:	e8bd 4008 	ldmia.w	sp!, {r3, lr}
 8005f88:	f7ff be62 	b.w	8005c50 <RCC_APB2PeriphResetCmd>
 8005f8c:	2101      	movs	r1, #1
 8005f8e:	f44f 3000 	mov.w	r0, #131072	; 0x20000
 8005f92:	f7ff fe5d 	bl	8005c50 <RCC_APB2PeriphResetCmd>
 8005f96:	f44f 3000 	mov.w	r0, #131072	; 0x20000
 8005f9a:	2100      	movs	r1, #0
 8005f9c:	e8bd 4008 	ldmia.w	sp!, {r3, lr}
 8005fa0:	f7ff be56 	b.w	8005c50 <RCC_APB2PeriphResetCmd>
 8005fa4:	2101      	movs	r1, #1
 8005fa6:	f44f 2080 	mov.w	r0, #262144	; 0x40000
 8005faa:	f7ff fe51 	bl	8005c50 <RCC_APB2PeriphResetCmd>
 8005fae:	f44f 2080 	mov.w	r0, #262144	; 0x40000
 8005fb2:	2100      	movs	r1, #0
 8005fb4:	e8bd 4008 	ldmia.w	sp!, {r3, lr}
 8005fb8:	f7ff be4a 	b.w	8005c50 <RCC_APB2PeriphResetCmd>
 8005fbc:	2040      	movs	r0, #64	; 0x40
 8005fbe:	2101      	movs	r1, #1
 8005fc0:	f7ff fe38 	bl	8005c34 <RCC_APB1PeriphResetCmd>
 8005fc4:	2040      	movs	r0, #64	; 0x40
 8005fc6:	2100      	movs	r1, #0
 8005fc8:	e8bd 4008 	ldmia.w	sp!, {r3, lr}
 8005fcc:	f7ff be32 	b.w	8005c34 <RCC_APB1PeriphResetCmd>
 8005fd0:	2080      	movs	r0, #128	; 0x80
 8005fd2:	2101      	movs	r1, #1
 8005fd4:	f7ff fe2e 	bl	8005c34 <RCC_APB1PeriphResetCmd>
 8005fd8:	2080      	movs	r0, #128	; 0x80
 8005fda:	2100      	movs	r1, #0
 8005fdc:	e8bd 4008 	ldmia.w	sp!, {r3, lr}
 8005fe0:	f7ff be28 	b.w	8005c34 <RCC_APB1PeriphResetCmd>

08005fe4 <TIM_TimeBaseInit>:
 8005fe4:	2300      	movs	r3, #0
 8005fe6:	8802      	ldrh	r2, [r0, #0]
 8005fe8:	f2c4 0301 	movt	r3, #16385	; 0x4001
 8005fec:	4298      	cmp	r0, r3
 8005fee:	b470      	push	{r4, r5, r6}
 8005ff0:	b292      	uxth	r2, r2
 8005ff2:	d01a      	beq.n	800602a <TIM_TimeBaseInit+0x46>
 8005ff4:	f44f 6480 	mov.w	r4, #1024	; 0x400
 8005ff8:	f2c4 0401 	movt	r4, #16385	; 0x4001
 8005ffc:	42a0      	cmp	r0, r4
 8005ffe:	d014      	beq.n	800602a <TIM_TimeBaseInit+0x46>
 8006000:	f1b0 4f80 	cmp.w	r0, #1073741824	; 0x40000000
 8006004:	d011      	beq.n	800602a <TIM_TimeBaseInit+0x46>
 8006006:	f44f 6c80 	mov.w	ip, #1024	; 0x400
 800600a:	f2c4 0c00 	movt	ip, #16384	; 0x4000
 800600e:	4560      	cmp	r0, ip
 8006010:	d00b      	beq.n	800602a <TIM_TimeBaseInit+0x46>
 8006012:	f44f 6300 	mov.w	r3, #2048	; 0x800
 8006016:	f2c4 0300 	movt	r3, #16384	; 0x4000
 800601a:	4298      	cmp	r0, r3
 800601c:	d005      	beq.n	800602a <TIM_TimeBaseInit+0x46>
 800601e:	f44f 6440 	mov.w	r4, #3072	; 0xc00
 8006022:	f2c4 0400 	movt	r4, #16384	; 0x4000
 8006026:	42a0      	cmp	r0, r4
 8006028:	d106      	bne.n	8006038 <TIM_TimeBaseInit+0x54>
 800602a:	f64f 738f 	movw	r3, #65423	; 0xff8f
 800602e:	f8b1 c002 	ldrh.w	ip, [r1, #2]
 8006032:	401a      	ands	r2, r3
 8006034:	ea42 020c 	orr.w	r2, r2, ip
 8006038:	f44f 5480 	mov.w	r4, #4096	; 0x1000
 800603c:	f2c4 0400 	movt	r4, #16384	; 0x4000
 8006040:	42a0      	cmp	r0, r4
 8006042:	d023      	beq.n	800608c <TIM_TimeBaseInit+0xa8>
 8006044:	f44f 5ca0 	mov.w	ip, #5120	; 0x1400
 8006048:	f2c4 0c00 	movt	ip, #16384	; 0x4000
 800604c:	4560      	cmp	r0, ip
 800604e:	d01d      	beq.n	800608c <TIM_TimeBaseInit+0xa8>
 8006050:	f64f 43ff 	movw	r3, #64767	; 0xfcff
 8006054:	890e      	ldrh	r6, [r1, #8]
 8006056:	684d      	ldr	r5, [r1, #4]
 8006058:	880c      	ldrh	r4, [r1, #0]
 800605a:	ea02 0c03 	and.w	ip, r2, r3
 800605e:	2200      	movs	r2, #0
 8006060:	f2c4 0201 	movt	r2, #16385	; 0x4001
 8006064:	ea4c 0306 	orr.w	r3, ip, r6
 8006068:	4290      	cmp	r0, r2
 800606a:	8003      	strh	r3, [r0, #0]
 800606c:	62c5      	str	r5, [r0, #44]	; 0x2c
 800606e:	8504      	strh	r4, [r0, #40]	; 0x28
 8006070:	d009      	beq.n	8006086 <TIM_TimeBaseInit+0xa2>
 8006072:	f44f 6280 	mov.w	r2, #1024	; 0x400
 8006076:	f2c4 0201 	movt	r2, #16385	; 0x4001
 800607a:	4290      	cmp	r0, r2
 800607c:	d003      	beq.n	8006086 <TIM_TimeBaseInit+0xa2>
 800607e:	2301      	movs	r3, #1
 8006080:	8283      	strh	r3, [r0, #20]
 8006082:	bc70      	pop	{r4, r5, r6}
 8006084:	4770      	bx	lr
 8006086:	7a89      	ldrb	r1, [r1, #10]
 8006088:	8601      	strh	r1, [r0, #48]	; 0x30
 800608a:	e7f8      	b.n	800607e <TIM_TimeBaseInit+0x9a>
 800608c:	684c      	ldr	r4, [r1, #4]
 800608e:	f8b1 c000 	ldrh.w	ip, [r1]
 8006092:	8002      	strh	r2, [r0, #0]
 8006094:	62c4      	str	r4, [r0, #44]	; 0x2c
 8006096:	f8a0 c028 	strh.w	ip, [r0, #40]	; 0x28
 800609a:	e7ea      	b.n	8006072 <TIM_TimeBaseInit+0x8e>

0800609c <TIM_TimeBaseStructInit>:
 800609c:	2300      	movs	r3, #0
 800609e:	f04f 31ff 	mov.w	r1, #4294967295
 80060a2:	6041      	str	r1, [r0, #4]
 80060a4:	8003      	strh	r3, [r0, #0]
 80060a6:	8103      	strh	r3, [r0, #8]
 80060a8:	8043      	strh	r3, [r0, #2]
 80060aa:	7283      	strb	r3, [r0, #10]
 80060ac:	4770      	bx	lr
 80060ae:	bf00      	nop

080060b0 <TIM_PrescalerConfig>:
 80060b0:	8501      	strh	r1, [r0, #40]	; 0x28
 80060b2:	8282      	strh	r2, [r0, #20]
 80060b4:	4770      	bx	lr
 80060b6:	bf00      	nop

080060b8 <TIM_CounterModeConfig>:
 80060b8:	f8b0 c000 	ldrh.w	ip, [r0]
 80060bc:	f02c 0270 	bic.w	r2, ip, #112	; 0x70
 80060c0:	0413      	lsls	r3, r2, #16
 80060c2:	0c1a      	lsrs	r2, r3, #16
 80060c4:	ea41 0302 	orr.w	r3, r1, r2
 80060c8:	8003      	strh	r3, [r0, #0]
 80060ca:	4770      	bx	lr

080060cc <TIM_SetCounter>:
 80060cc:	6241      	str	r1, [r0, #36]	; 0x24
 80060ce:	4770      	bx	lr

080060d0 <TIM_SetAutoreload>:
 80060d0:	62c1      	str	r1, [r0, #44]	; 0x2c
 80060d2:	4770      	bx	lr

080060d4 <TIM_GetCounter>:
 80060d4:	6a40      	ldr	r0, [r0, #36]	; 0x24
 80060d6:	4770      	bx	lr

080060d8 <TIM_GetPrescaler>:
 80060d8:	8d00      	ldrh	r0, [r0, #40]	; 0x28
 80060da:	b280      	uxth	r0, r0
 80060dc:	4770      	bx	lr
 80060de:	bf00      	nop

080060e0 <TIM_UpdateDisableConfig>:
 80060e0:	8803      	ldrh	r3, [r0, #0]
 80060e2:	b929      	cbnz	r1, 80060f0 <TIM_UpdateDisableConfig+0x10>
 80060e4:	f023 0102 	bic.w	r1, r3, #2
 80060e8:	040b      	lsls	r3, r1, #16
 80060ea:	0c1a      	lsrs	r2, r3, #16
 80060ec:	8002      	strh	r2, [r0, #0]
 80060ee:	4770      	bx	lr
 80060f0:	b299      	uxth	r1, r3
 80060f2:	f041 0302 	orr.w	r3, r1, #2
 80060f6:	8003      	strh	r3, [r0, #0]
 80060f8:	4770      	bx	lr
 80060fa:	bf00      	nop

080060fc <TIM_UpdateRequestConfig>:
 80060fc:	8803      	ldrh	r3, [r0, #0]
 80060fe:	b929      	cbnz	r1, 800610c <TIM_UpdateRequestConfig+0x10>
 8006100:	f023 0104 	bic.w	r1, r3, #4
 8006104:	040b      	lsls	r3, r1, #16
 8006106:	0c1a      	lsrs	r2, r3, #16
 8006108:	8002      	strh	r2, [r0, #0]
 800610a:	4770      	bx	lr
 800610c:	b299      	uxth	r1, r3
 800610e:	f041 0304 	orr.w	r3, r1, #4
 8006112:	8003      	strh	r3, [r0, #0]
 8006114:	4770      	bx	lr
 8006116:	bf00      	nop

08006118 <TIM_ARRPreloadConfig>:
 8006118:	8803      	ldrh	r3, [r0, #0]
 800611a:	b929      	cbnz	r1, 8006128 <TIM_ARRPreloadConfig+0x10>
 800611c:	f023 0180 	bic.w	r1, r3, #128	; 0x80
 8006120:	040b      	lsls	r3, r1, #16
 8006122:	0c1a      	lsrs	r2, r3, #16
 8006124:	8002      	strh	r2, [r0, #0]
 8006126:	4770      	bx	lr
 8006128:	b299      	uxth	r1, r3
 800612a:	f041 0380 	orr.w	r3, r1, #128	; 0x80
 800612e:	8003      	strh	r3, [r0, #0]
 8006130:	4770      	bx	lr
 8006132:	bf00      	nop

08006134 <TIM_SelectOnePulseMode>:
 8006134:	8802      	ldrh	r2, [r0, #0]
 8006136:	f022 0308 	bic.w	r3, r2, #8
 800613a:	041a      	lsls	r2, r3, #16
 800613c:	0c13      	lsrs	r3, r2, #16
 800613e:	8003      	strh	r3, [r0, #0]
 8006140:	8802      	ldrh	r2, [r0, #0]
 8006142:	b293      	uxth	r3, r2
 8006144:	4319      	orrs	r1, r3
 8006146:	8001      	strh	r1, [r0, #0]
 8006148:	4770      	bx	lr
 800614a:	bf00      	nop

0800614c <TIM_SetClockDivision>:
 800614c:	8802      	ldrh	r2, [r0, #0]
 800614e:	f422 7340 	bic.w	r3, r2, #768	; 0x300
 8006152:	041a      	lsls	r2, r3, #16
 8006154:	0c13      	lsrs	r3, r2, #16
 8006156:	8003      	strh	r3, [r0, #0]
 8006158:	8802      	ldrh	r2, [r0, #0]
 800615a:	b293      	uxth	r3, r2
 800615c:	4319      	orrs	r1, r3
 800615e:	8001      	strh	r1, [r0, #0]
 8006160:	4770      	bx	lr
 8006162:	bf00      	nop

08006164 <TIM_Cmd>:
 8006164:	8803      	ldrh	r3, [r0, #0]
 8006166:	b929      	cbnz	r1, 8006174 <TIM_Cmd+0x10>
 8006168:	f023 0101 	bic.w	r1, r3, #1
 800616c:	040b      	lsls	r3, r1, #16
 800616e:	0c1a      	lsrs	r2, r3, #16
 8006170:	8002      	strh	r2, [r0, #0]
 8006172:	4770      	bx	lr
 8006174:	b299      	uxth	r1, r3
 8006176:	f041 0301 	orr.w	r3, r1, #1
 800617a:	8003      	strh	r3, [r0, #0]
 800617c:	4770      	bx	lr
 800617e:	bf00      	nop

08006180 <TIM_OC1Init>:
 8006180:	e92d 01f0 	stmdb	sp!, {r4, r5, r6, r7, r8}
 8006184:	8c04      	ldrh	r4, [r0, #32]
 8006186:	f8b1 c002 	ldrh.w	ip, [r1, #2]
 800618a:	898e      	ldrh	r6, [r1, #12]
 800618c:	880f      	ldrh	r7, [r1, #0]
 800618e:	f024 0201 	bic.w	r2, r4, #1
 8006192:	0413      	lsls	r3, r2, #16
 8006194:	0c1d      	lsrs	r5, r3, #16
 8006196:	8405      	strh	r5, [r0, #32]
 8006198:	8c04      	ldrh	r4, [r0, #32]
 800619a:	8885      	ldrh	r5, [r0, #4]
 800619c:	8b02      	ldrh	r2, [r0, #24]
 800619e:	f024 0402 	bic.w	r4, r4, #2
 80061a2:	f022 0373 	bic.w	r3, r2, #115	; 0x73
 80061a6:	041a      	lsls	r2, r3, #16
 80061a8:	0423      	lsls	r3, r4, #16
 80061aa:	2400      	movs	r4, #0
 80061ac:	ea4c 0606 	orr.w	r6, ip, r6
 80061b0:	f2c4 0401 	movt	r4, #16385	; 0x4001
 80061b4:	0c12      	lsrs	r2, r2, #16
 80061b6:	0c1b      	lsrs	r3, r3, #16
 80061b8:	b2b6      	uxth	r6, r6
 80061ba:	42a0      	cmp	r0, r4
 80061bc:	b2ad      	uxth	r5, r5
 80061be:	ea42 0207 	orr.w	r2, r2, r7
 80061c2:	ea46 0303 	orr.w	r3, r6, r3
 80061c6:	d00d      	beq.n	80061e4 <TIM_OC1Init+0x64>
 80061c8:	f44f 6480 	mov.w	r4, #1024	; 0x400
 80061cc:	f2c4 0401 	movt	r4, #16385	; 0x4001
 80061d0:	42a0      	cmp	r0, r4
 80061d2:	d007      	beq.n	80061e4 <TIM_OC1Init+0x64>
 80061d4:	6889      	ldr	r1, [r1, #8]
 80061d6:	8085      	strh	r5, [r0, #4]
 80061d8:	8302      	strh	r2, [r0, #24]
 80061da:	6341      	str	r1, [r0, #52]	; 0x34
 80061dc:	8403      	strh	r3, [r0, #32]
 80061de:	e8bd 01f0 	ldmia.w	sp!, {r4, r5, r6, r7, r8}
 80061e2:	4770      	bx	lr
 80061e4:	f64f 74f7 	movw	r4, #65527	; 0xfff7
 80061e8:	f8b1 c00e 	ldrh.w	ip, [r1, #14]
 80061ec:	f8b1 8012 	ldrh.w	r8, [r1, #18]
 80061f0:	8a0f      	ldrh	r7, [r1, #16]
 80061f2:	888e      	ldrh	r6, [r1, #4]
 80061f4:	401c      	ands	r4, r3
 80061f6:	ea44 0c0c 	orr.w	ip, r4, ip
 80061fa:	f64f 73fb 	movw	r3, #65531	; 0xfffb
 80061fe:	f64f 44ff 	movw	r4, #64767	; 0xfcff
 8006202:	ea48 0707 	orr.w	r7, r8, r7
 8006206:	ea0c 0303 	and.w	r3, ip, r3
 800620a:	402c      	ands	r4, r5
 800620c:	fa1f fc87 	uxth.w	ip, r7
 8006210:	4333      	orrs	r3, r6
 8006212:	ea4c 0504 	orr.w	r5, ip, r4
 8006216:	e7dd      	b.n	80061d4 <TIM_OC1Init+0x54>

08006218 <TIM_OC2Init>:
 8006218:	f8b0 c020 	ldrh.w	ip, [r0, #32]
 800621c:	f02c 0310 	bic.w	r3, ip, #16
 8006220:	041a      	lsls	r2, r3, #16
 8006222:	e92d 03f0 	stmdb	sp!, {r4, r5, r6, r7, r8, r9}
 8006226:	0c14      	lsrs	r4, r2, #16
 8006228:	898d      	ldrh	r5, [r1, #12]
 800622a:	880f      	ldrh	r7, [r1, #0]
 800622c:	884e      	ldrh	r6, [r1, #2]
 800622e:	8404      	strh	r4, [r0, #32]
 8006230:	8c03      	ldrh	r3, [r0, #32]
 8006232:	8884      	ldrh	r4, [r0, #4]
 8006234:	f8b0 c018 	ldrh.w	ip, [r0, #24]
 8006238:	f023 0220 	bic.w	r2, r3, #32
 800623c:	0412      	lsls	r2, r2, #16
 800623e:	0c12      	lsrs	r2, r2, #16
 8006240:	f42c 43e6 	bic.w	r3, ip, #29440	; 0x7300
 8006244:	041b      	lsls	r3, r3, #16
 8006246:	ea42 1c05 	orr.w	ip, r2, r5, lsl #4
 800624a:	2500      	movs	r5, #0
 800624c:	0c1b      	lsrs	r3, r3, #16
 800624e:	f2c4 0501 	movt	r5, #16385	; 0x4001
 8006252:	ea43 2307 	orr.w	r3, r3, r7, lsl #8
 8006256:	ea4c 1206 	orr.w	r2, ip, r6, lsl #4
 800625a:	42a8      	cmp	r0, r5
 800625c:	b2a4      	uxth	r4, r4
 800625e:	b29b      	uxth	r3, r3
 8006260:	b292      	uxth	r2, r2
 8006262:	d00d      	beq.n	8006280 <TIM_OC2Init+0x68>
 8006264:	f44f 6580 	mov.w	r5, #1024	; 0x400
 8006268:	f2c4 0501 	movt	r5, #16385	; 0x4001
 800626c:	42a8      	cmp	r0, r5
 800626e:	d007      	beq.n	8006280 <TIM_OC2Init+0x68>
 8006270:	6889      	ldr	r1, [r1, #8]
 8006272:	8084      	strh	r4, [r0, #4]
 8006274:	8303      	strh	r3, [r0, #24]
 8006276:	6381      	str	r1, [r0, #56]	; 0x38
 8006278:	8402      	strh	r2, [r0, #32]
 800627a:	e8bd 03f0 	ldmia.w	sp!, {r4, r5, r6, r7, r8, r9}
 800627e:	4770      	bx	lr
 8006280:	f64f 767f 	movw	r6, #65407	; 0xff7f
 8006284:	f8b1 900e 	ldrh.w	r9, [r1, #14]
 8006288:	f8b1 8010 	ldrh.w	r8, [r1, #16]
 800628c:	f8b1 c004 	ldrh.w	ip, [r1, #4]
 8006290:	8a4f      	ldrh	r7, [r1, #18]
 8006292:	4016      	ands	r6, r2
 8006294:	f24f 35ff 	movw	r5, #62463	; 0xf3ff
 8006298:	4025      	ands	r5, r4
 800629a:	ea46 1609 	orr.w	r6, r6, r9, lsl #4
 800629e:	f64f 74bf 	movw	r4, #65471	; 0xffbf
 80062a2:	ea06 0204 	and.w	r2, r6, r4
 80062a6:	ea45 0488 	orr.w	r4, r5, r8, lsl #2
 80062aa:	ea42 120c 	orr.w	r2, r2, ip, lsl #4
 80062ae:	ea44 0487 	orr.w	r4, r4, r7, lsl #2
 80062b2:	b292      	uxth	r2, r2
 80062b4:	b2a4      	uxth	r4, r4
 80062b6:	e7db      	b.n	8006270 <TIM_OC2Init+0x58>

080062b8 <TIM_OC3Init>:
 80062b8:	f8b0 c020 	ldrh.w	ip, [r0, #32]
 80062bc:	f42c 7280 	bic.w	r2, ip, #256	; 0x100
 80062c0:	0413      	lsls	r3, r2, #16
 80062c2:	e92d 03f0 	stmdb	sp!, {r4, r5, r6, r7, r8, r9}
 80062c6:	0c1c      	lsrs	r4, r3, #16
 80062c8:	898d      	ldrh	r5, [r1, #12]
 80062ca:	884f      	ldrh	r7, [r1, #2]
 80062cc:	880e      	ldrh	r6, [r1, #0]
 80062ce:	8404      	strh	r4, [r0, #32]
 80062d0:	8c02      	ldrh	r2, [r0, #32]
 80062d2:	8884      	ldrh	r4, [r0, #4]
 80062d4:	f8b0 c01c 	ldrh.w	ip, [r0, #28]
 80062d8:	f422 7300 	bic.w	r3, r2, #512	; 0x200
 80062dc:	041a      	lsls	r2, r3, #16
 80062de:	0c12      	lsrs	r2, r2, #16
 80062e0:	f02c 0373 	bic.w	r3, ip, #115	; 0x73
 80062e4:	ea42 2c05 	orr.w	ip, r2, r5, lsl #8
 80062e8:	2500      	movs	r5, #0
 80062ea:	041b      	lsls	r3, r3, #16
 80062ec:	f2c4 0501 	movt	r5, #16385	; 0x4001
 80062f0:	0c1b      	lsrs	r3, r3, #16
 80062f2:	ea4c 2207 	orr.w	r2, ip, r7, lsl #8
 80062f6:	42a8      	cmp	r0, r5
 80062f8:	b2a4      	uxth	r4, r4
 80062fa:	ea43 0306 	orr.w	r3, r3, r6
 80062fe:	b292      	uxth	r2, r2
 8006300:	d00d      	beq.n	800631e <TIM_OC3Init+0x66>
 8006302:	f44f 6580 	mov.w	r5, #1024	; 0x400
 8006306:	f2c4 0501 	movt	r5, #16385	; 0x4001
 800630a:	42a8      	cmp	r0, r5
 800630c:	d007      	beq.n	800631e <TIM_OC3Init+0x66>
 800630e:	6889      	ldr	r1, [r1, #8]
 8006310:	8084      	strh	r4, [r0, #4]
 8006312:	8383      	strh	r3, [r0, #28]
 8006314:	63c1      	str	r1, [r0, #60]	; 0x3c
 8006316:	8402      	strh	r2, [r0, #32]
 8006318:	e8bd 03f0 	ldmia.w	sp!, {r4, r5, r6, r7, r8, r9}
 800631c:	4770      	bx	lr
 800631e:	f24f 76ff 	movw	r6, #63487	; 0xf7ff
 8006322:	f8b1 900e 	ldrh.w	r9, [r1, #14]
 8006326:	f8b1 8010 	ldrh.w	r8, [r1, #16]
 800632a:	f8b1 c004 	ldrh.w	ip, [r1, #4]
 800632e:	8a4f      	ldrh	r7, [r1, #18]
 8006330:	4016      	ands	r6, r2
 8006332:	f64c 75ff 	movw	r5, #53247	; 0xcfff
 8006336:	4025      	ands	r5, r4
 8006338:	ea46 2609 	orr.w	r6, r6, r9, lsl #8
 800633c:	f64f 34ff 	movw	r4, #64511	; 0xfbff
 8006340:	ea06 0204 	and.w	r2, r6, r4
 8006344:	ea45 1408 	orr.w	r4, r5, r8, lsl #4
 8006348:	ea42 220c 	orr.w	r2, r2, ip, lsl #8
 800634c:	ea44 1407 	orr.w	r4, r4, r7, lsl #4
 8006350:	b292      	uxth	r2, r2
 8006352:	b2a4      	uxth	r4, r4
 8006354:	e7db      	b.n	800630e <TIM_OC3Init+0x56>
 8006356:	bf00      	nop

08006358 <TIM_OC4Init>:
 8006358:	b4f0      	push	{r4, r5, r6, r7}
 800635a:	8c04      	ldrh	r4, [r0, #32]
 800635c:	f8b1 c00c 	ldrh.w	ip, [r1, #12]
 8006360:	880f      	ldrh	r7, [r1, #0]
 8006362:	884e      	ldrh	r6, [r1, #2]
 8006364:	f424 5380 	bic.w	r3, r4, #4096	; 0x1000
 8006368:	041a      	lsls	r2, r3, #16
 800636a:	0c15      	lsrs	r5, r2, #16
 800636c:	8405      	strh	r5, [r0, #32]
 800636e:	8c04      	ldrh	r4, [r0, #32]
 8006370:	8885      	ldrh	r5, [r0, #4]
 8006372:	8b83      	ldrh	r3, [r0, #28]
 8006374:	f424 5200 	bic.w	r2, r4, #8192	; 0x2000
 8006378:	0412      	lsls	r2, r2, #16
 800637a:	f423 44e6 	bic.w	r4, r3, #29440	; 0x7300
 800637e:	0423      	lsls	r3, r4, #16
 8006380:	0c14      	lsrs	r4, r2, #16
 8006382:	ea44 3c0c 	orr.w	ip, r4, ip, lsl #12
 8006386:	2400      	movs	r4, #0
 8006388:	0c1b      	lsrs	r3, r3, #16
 800638a:	f2c4 0401 	movt	r4, #16385	; 0x4001
 800638e:	ea43 2307 	orr.w	r3, r3, r7, lsl #8
 8006392:	ea4c 3206 	orr.w	r2, ip, r6, lsl #12
 8006396:	42a0      	cmp	r0, r4
 8006398:	b2ad      	uxth	r5, r5
 800639a:	b29b      	uxth	r3, r3
 800639c:	b292      	uxth	r2, r2
 800639e:	d00c      	beq.n	80063ba <TIM_OC4Init+0x62>
 80063a0:	f44f 6480 	mov.w	r4, #1024	; 0x400
 80063a4:	f2c4 0401 	movt	r4, #16385	; 0x4001
 80063a8:	42a0      	cmp	r0, r4
 80063aa:	d006      	beq.n	80063ba <TIM_OC4Init+0x62>
 80063ac:	6889      	ldr	r1, [r1, #8]
 80063ae:	8085      	strh	r5, [r0, #4]
 80063b0:	8383      	strh	r3, [r0, #28]
 80063b2:	6401      	str	r1, [r0, #64]	; 0x40
 80063b4:	8402      	strh	r2, [r0, #32]
 80063b6:	bcf0      	pop	{r4, r5, r6, r7}
 80063b8:	4770      	bx	lr
 80063ba:	f64b 74ff 	movw	r4, #49151	; 0xbfff
 80063be:	8a0e      	ldrh	r6, [r1, #16]
 80063c0:	402c      	ands	r4, r5
 80063c2:	ea44 1c86 	orr.w	ip, r4, r6, lsl #6
 80063c6:	fa1f f58c 	uxth.w	r5, ip
 80063ca:	e7ef      	b.n	80063ac <TIM_OC4Init+0x54>

080063cc <TIM_OCStructInit>:
 80063cc:	2300      	movs	r3, #0
 80063ce:	8003      	strh	r3, [r0, #0]
 80063d0:	8043      	strh	r3, [r0, #2]
 80063d2:	8083      	strh	r3, [r0, #4]
 80063d4:	6083      	str	r3, [r0, #8]
 80063d6:	8183      	strh	r3, [r0, #12]
 80063d8:	81c3      	strh	r3, [r0, #14]
 80063da:	8203      	strh	r3, [r0, #16]
 80063dc:	8243      	strh	r3, [r0, #18]
 80063de:	4770      	bx	lr

080063e0 <TIM_SelectOCxM>:
 80063e0:	b410      	push	{r4}
 80063e2:	f8b0 c020 	ldrh.w	ip, [r0, #32]
 80063e6:	2301      	movs	r3, #1
 80063e8:	fa1f f48c 	uxth.w	r4, ip
 80063ec:	fa03 fc01 	lsl.w	ip, r3, r1
 80063f0:	ea24 030c 	bic.w	r3, r4, ip
 80063f4:	8403      	strh	r3, [r0, #32]
 80063f6:	f100 0418 	add.w	r4, r0, #24
 80063fa:	b189      	cbz	r1, 8006420 <TIM_SelectOCxM+0x40>
 80063fc:	2908      	cmp	r1, #8
 80063fe:	d00f      	beq.n	8006420 <TIM_SelectOCxM+0x40>
 8006400:	3904      	subs	r1, #4
 8006402:	f3c1 014e 	ubfx	r1, r1, #1, #15
 8006406:	f648 7cff 	movw	ip, #36863	; 0x8fff
 800640a:	590b      	ldr	r3, [r1, r4]
 800640c:	ea03 000c 	and.w	r0, r3, ip
 8006410:	5108      	str	r0, [r1, r4]
 8006412:	0212      	lsls	r2, r2, #8
 8006414:	590b      	ldr	r3, [r1, r4]
 8006416:	b290      	uxth	r0, r2
 8006418:	ea43 0200 	orr.w	r2, r3, r0
 800641c:	510a      	str	r2, [r1, r4]
 800641e:	e009      	b.n	8006434 <TIM_SelectOCxM+0x54>
 8006420:	0849      	lsrs	r1, r1, #1
 8006422:	f64f 7c8f 	movw	ip, #65423	; 0xff8f
 8006426:	5908      	ldr	r0, [r1, r4]
 8006428:	ea00 030c 	and.w	r3, r0, ip
 800642c:	510b      	str	r3, [r1, r4]
 800642e:	5908      	ldr	r0, [r1, r4]
 8006430:	4302      	orrs	r2, r0
 8006432:	510a      	str	r2, [r1, r4]
 8006434:	bc10      	pop	{r4}
 8006436:	4770      	bx	lr

08006438 <TIM_SetCompare1>:
 8006438:	6341      	str	r1, [r0, #52]	; 0x34
 800643a:	4770      	bx	lr

0800643c <TIM_SetCompare2>:
 800643c:	6381      	str	r1, [r0, #56]	; 0x38
 800643e:	4770      	bx	lr

08006440 <TIM_SetCompare3>:
 8006440:	63c1      	str	r1, [r0, #60]	; 0x3c
 8006442:	4770      	bx	lr

08006444 <TIM_SetCompare4>:
 8006444:	6401      	str	r1, [r0, #64]	; 0x40
 8006446:	4770      	bx	lr

08006448 <TIM_ForcedOC1Config>:
 8006448:	f8b0 c018 	ldrh.w	ip, [r0, #24]
 800644c:	f02c 0270 	bic.w	r2, ip, #112	; 0x70
 8006450:	0413      	lsls	r3, r2, #16
 8006452:	0c1a      	lsrs	r2, r3, #16
 8006454:	ea41 0302 	orr.w	r3, r1, r2
 8006458:	8303      	strh	r3, [r0, #24]
 800645a:	4770      	bx	lr

0800645c <TIM_ForcedOC2Config>:
 800645c:	f8b0 c018 	ldrh.w	ip, [r0, #24]
 8006460:	f42c 42e0 	bic.w	r2, ip, #28672	; 0x7000
 8006464:	0413      	lsls	r3, r2, #16
 8006466:	0c1a      	lsrs	r2, r3, #16
 8006468:	ea42 2101 	orr.w	r1, r2, r1, lsl #8
 800646c:	b28b      	uxth	r3, r1
 800646e:	8303      	strh	r3, [r0, #24]
 8006470:	4770      	bx	lr
 8006472:	bf00      	nop

08006474 <TIM_ForcedOC3Config>:
 8006474:	f8b0 c01c 	ldrh.w	ip, [r0, #28]
 8006478:	f02c 0270 	bic.w	r2, ip, #112	; 0x70
 800647c:	0413      	lsls	r3, r2, #16
 800647e:	0c1a      	lsrs	r2, r3, #16
 8006480:	ea41 0302 	orr.w	r3, r1, r2
 8006484:	8383      	strh	r3, [r0, #28]
 8006486:	4770      	bx	lr

08006488 <TIM_ForcedOC4Config>:
 8006488:	f8b0 c01c 	ldrh.w	ip, [r0, #28]
 800648c:	f42c 42e0 	bic.w	r2, ip, #28672	; 0x7000
 8006490:	0413      	lsls	r3, r2, #16
 8006492:	0c1a      	lsrs	r2, r3, #16
 8006494:	ea42 2101 	orr.w	r1, r2, r1, lsl #8
 8006498:	b28b      	uxth	r3, r1
 800649a:	8383      	strh	r3, [r0, #28]
 800649c:	4770      	bx	lr
 800649e:	bf00      	nop

080064a0 <TIM_OC1PreloadConfig>:
 80064a0:	f8b0 c018 	ldrh.w	ip, [r0, #24]
 80064a4:	f02c 0208 	bic.w	r2, ip, #8
 80064a8:	0413      	lsls	r3, r2, #16
 80064aa:	0c1a      	lsrs	r2, r3, #16
 80064ac:	ea41 0302 	orr.w	r3, r1, r2
 80064b0:	8303      	strh	r3, [r0, #24]
 80064b2:	4770      	bx	lr

080064b4 <TIM_OC2PreloadConfig>:
 80064b4:	f8b0 c018 	ldrh.w	ip, [r0, #24]
 80064b8:	f42c 6200 	bic.w	r2, ip, #2048	; 0x800
 80064bc:	0413      	lsls	r3, r2, #16
 80064be:	0c1a      	lsrs	r2, r3, #16
 80064c0:	ea42 2101 	orr.w	r1, r2, r1, lsl #8
 80064c4:	b28b      	uxth	r3, r1
 80064c6:	8303      	strh	r3, [r0, #24]
 80064c8:	4770      	bx	lr
 80064ca:	bf00      	nop

080064cc <TIM_OC3PreloadConfig>:
 80064cc:	f8b0 c01c 	ldrh.w	ip, [r0, #28]
 80064d0:	f02c 0208 	bic.w	r2, ip, #8
 80064d4:	0413      	lsls	r3, r2, #16
 80064d6:	0c1a      	lsrs	r2, r3, #16
 80064d8:	ea41 0302 	orr.w	r3, r1, r2
 80064dc:	8383      	strh	r3, [r0, #28]
 80064de:	4770      	bx	lr

080064e0 <TIM_OC4PreloadConfig>:
 80064e0:	f8b0 c01c 	ldrh.w	ip, [r0, #28]
 80064e4:	f42c 6200 	bic.w	r2, ip, #2048	; 0x800
 80064e8:	0413      	lsls	r3, r2, #16
 80064ea:	0c1a      	lsrs	r2, r3, #16
 80064ec:	ea42 2101 	orr.w	r1, r2, r1, lsl #8
 80064f0:	b28b      	uxth	r3, r1
 80064f2:	8383      	strh	r3, [r0, #28]
 80064f4:	4770      	bx	lr
 80064f6:	bf00      	nop

080064f8 <TIM_OC1FastConfig>:
 80064f8:	f8b0 c018 	ldrh.w	ip, [r0, #24]
 80064fc:	f02c 0204 	bic.w	r2, ip, #4
 8006500:	0413      	lsls	r3, r2, #16
 8006502:	0c1a      	lsrs	r2, r3, #16
 8006504:	ea41 0302 	orr.w	r3, r1, r2
 8006508:	8303      	strh	r3, [r0, #24]
 800650a:	4770      	bx	lr

0800650c <TIM_OC2FastConfig>:
 800650c:	f8b0 c018 	ldrh.w	ip, [r0, #24]
 8006510:	f42c 6280 	bic.w	r2, ip, #1024	; 0x400
 8006514:	0413      	lsls	r3, r2, #16
 8006516:	0c1a      	lsrs	r2, r3, #16
 8006518:	ea42 2101 	orr.w	r1, r2, r1, lsl #8
 800651c:	b28b      	uxth	r3, r1
 800651e:	8303      	strh	r3, [r0, #24]
 8006520:	4770      	bx	lr
 8006522:	bf00      	nop

08006524 <TIM_OC3FastConfig>:
 8006524:	f8b0 c01c 	ldrh.w	ip, [r0, #28]
 8006528:	f02c 0204 	bic.w	r2, ip, #4
 800652c:	0413      	lsls	r3, r2, #16
 800652e:	0c1a      	lsrs	r2, r3, #16
 8006530:	ea41 0302 	orr.w	r3, r1, r2
 8006534:	8383      	strh	r3, [r0, #28]
 8006536:	4770      	bx	lr

08006538 <TIM_OC4FastConfig>:
 8006538:	f8b0 c01c 	ldrh.w	ip, [r0, #28]
 800653c:	f42c 6280 	bic.w	r2, ip, #1024	; 0x400
 8006540:	0413      	lsls	r3, r2, #16
 8006542:	0c1a      	lsrs	r2, r3, #16
 8006544:	ea42 2101 	orr.w	r1, r2, r1, lsl #8
 8006548:	b28b      	uxth	r3, r1
 800654a:	8383      	strh	r3, [r0, #28]
 800654c:	4770      	bx	lr
 800654e:	bf00      	nop

08006550 <TIM_ClearOC1Ref>:
 8006550:	f8b0 c018 	ldrh.w	ip, [r0, #24]
 8006554:	f02c 0280 	bic.w	r2, ip, #128	; 0x80
 8006558:	0413      	lsls	r3, r2, #16
 800655a:	0c1a      	lsrs	r2, r3, #16
 800655c:	ea41 0302 	orr.w	r3, r1, r2
 8006560:	8303      	strh	r3, [r0, #24]
 8006562:	4770      	bx	lr

08006564 <TIM_ClearOC2Ref>:
 8006564:	8b02      	ldrh	r2, [r0, #24]
 8006566:	0453      	lsls	r3, r2, #17
 8006568:	0c5a      	lsrs	r2, r3, #17
 800656a:	ea42 2101 	orr.w	r1, r2, r1, lsl #8
 800656e:	b28b      	uxth	r3, r1
 8006570:	8303      	strh	r3, [r0, #24]
 8006572:	4770      	bx	lr

08006574 <TIM_ClearOC3Ref>:
 8006574:	f8b0 c01c 	ldrh.w	ip, [r0, #28]
 8006578:	f02c 0280 	bic.w	r2, ip, #128	; 0x80
 800657c:	0413      	lsls	r3, r2, #16
 800657e:	0c1a      	lsrs	r2, r3, #16
 8006580:	ea41 0302 	orr.w	r3, r1, r2
 8006584:	8383      	strh	r3, [r0, #28]
 8006586:	4770      	bx	lr

08006588 <TIM_ClearOC4Ref>:
 8006588:	8b82      	ldrh	r2, [r0, #28]
 800658a:	0453      	lsls	r3, r2, #17
 800658c:	0c5a      	lsrs	r2, r3, #17
 800658e:	ea42 2101 	orr.w	r1, r2, r1, lsl #8
 8006592:	b28b      	uxth	r3, r1
 8006594:	8383      	strh	r3, [r0, #28]
 8006596:	4770      	bx	lr

08006598 <TIM_OC1PolarityConfig>:
 8006598:	f8b0 c020 	ldrh.w	ip, [r0, #32]
 800659c:	f02c 0202 	bic.w	r2, ip, #2
 80065a0:	0413      	lsls	r3, r2, #16
 80065a2:	0c1a      	lsrs	r2, r3, #16
 80065a4:	ea41 0302 	orr.w	r3, r1, r2
 80065a8:	8403      	strh	r3, [r0, #32]
 80065aa:	4770      	bx	lr

080065ac <TIM_OC1NPolarityConfig>:
 80065ac:	f8b0 c020 	ldrh.w	ip, [r0, #32]
 80065b0:	f02c 0208 	bic.w	r2, ip, #8
 80065b4:	0413      	lsls	r3, r2, #16
 80065b6:	0c1a      	lsrs	r2, r3, #16
 80065b8:	ea41 0302 	orr.w	r3, r1, r2
 80065bc:	8403      	strh	r3, [r0, #32]
 80065be:	4770      	bx	lr

080065c0 <TIM_OC2PolarityConfig>:
 80065c0:	f8b0 c020 	ldrh.w	ip, [r0, #32]
 80065c4:	f02c 0220 	bic.w	r2, ip, #32
 80065c8:	0413      	lsls	r3, r2, #16
 80065ca:	0c1a      	lsrs	r2, r3, #16
 80065cc:	ea42 1101 	orr.w	r1, r2, r1, lsl #4
 80065d0:	b28b      	uxth	r3, r1
 80065d2:	8403      	strh	r3, [r0, #32]
 80065d4:	4770      	bx	lr
 80065d6:	bf00      	nop

080065d8 <TIM_OC2NPolarityConfig>:
 80065d8:	f8b0 c020 	ldrh.w	ip, [r0, #32]
 80065dc:	f02c 0280 	bic.w	r2, ip, #128	; 0x80
 80065e0:	0413      	lsls	r3, r2, #16
 80065e2:	0c1a      	lsrs	r2, r3, #16
 80065e4:	ea42 1101 	orr.w	r1, r2, r1, lsl #4
 80065e8:	b28b      	uxth	r3, r1
 80065ea:	8403      	strh	r3, [r0, #32]
 80065ec:	4770      	bx	lr
 80065ee:	bf00      	nop

080065f0 <TIM_OC3PolarityConfig>:
 80065f0:	f8b0 c020 	ldrh.w	ip, [r0, #32]
 80065f4:	f42c 7200 	bic.w	r2, ip, #512	; 0x200
 80065f8:	0413      	lsls	r3, r2, #16
 80065fa:	0c1a      	lsrs	r2, r3, #16
 80065fc:	ea42 2101 	orr.w	r1, r2, r1, lsl #8
 8006600:	b28b      	uxth	r3, r1
 8006602:	8403      	strh	r3, [r0, #32]
 8006604:	4770      	bx	lr
 8006606:	bf00      	nop

08006608 <TIM_OC3NPolarityConfig>:
 8006608:	f8b0 c020 	ldrh.w	ip, [r0, #32]
 800660c:	f42c 6200 	bic.w	r2, ip, #2048	; 0x800
 8006610:	0413      	lsls	r3, r2, #16
 8006612:	0c1a      	lsrs	r2, r3, #16
 8006614:	ea42 2101 	orr.w	r1, r2, r1, lsl #8
 8006618:	b28b      	uxth	r3, r1
 800661a:	8403      	strh	r3, [r0, #32]
 800661c:	4770      	bx	lr
 800661e:	bf00      	nop

08006620 <TIM_OC4PolarityConfig>:
 8006620:	f8b0 c020 	ldrh.w	ip, [r0, #32]
 8006624:	f42c 5200 	bic.w	r2, ip, #8192	; 0x2000
 8006628:	0413      	lsls	r3, r2, #16
 800662a:	0c1a      	lsrs	r2, r3, #16
 800662c:	ea42 3101 	orr.w	r1, r2, r1, lsl #12
 8006630:	b28b      	uxth	r3, r1
 8006632:	8403      	strh	r3, [r0, #32]
 8006634:	4770      	bx	lr
 8006636:	bf00      	nop

08006638 <TIM_CCxCmd>:
 8006638:	b410      	push	{r4}
 800663a:	8c04      	ldrh	r4, [r0, #32]
 800663c:	2301      	movs	r3, #1
 800663e:	fa03 fc01 	lsl.w	ip, r3, r1
 8006642:	b2a4      	uxth	r4, r4
 8006644:	ea24 030c 	bic.w	r3, r4, ip
 8006648:	8403      	strh	r3, [r0, #32]
 800664a:	f8b0 c020 	ldrh.w	ip, [r0, #32]
 800664e:	fa02 f201 	lsl.w	r2, r2, r1
 8006652:	ea42 010c 	orr.w	r1, r2, ip
 8006656:	b28b      	uxth	r3, r1
 8006658:	8403      	strh	r3, [r0, #32]
 800665a:	bc10      	pop	{r4}
 800665c:	4770      	bx	lr
 800665e:	bf00      	nop

08006660 <TIM_CCxNCmd>:
 8006660:	b410      	push	{r4}
 8006662:	8c04      	ldrh	r4, [r0, #32]
 8006664:	2304      	movs	r3, #4
 8006666:	fa03 fc01 	lsl.w	ip, r3, r1
 800666a:	b2a4      	uxth	r4, r4
 800666c:	ea24 030c 	bic.w	r3, r4, ip
 8006670:	8403      	strh	r3, [r0, #32]
 8006672:	f8b0 c020 	ldrh.w	ip, [r0, #32]
 8006676:	fa02 f201 	lsl.w	r2, r2, r1
 800667a:	ea42 010c 	orr.w	r1, r2, ip
 800667e:	b28b      	uxth	r3, r1
 8006680:	8403      	strh	r3, [r0, #32]
 8006682:	bc10      	pop	{r4}
 8006684:	4770      	bx	lr
 8006686:	bf00      	nop

08006688 <TIM_ICInit>:
 8006688:	880b      	ldrh	r3, [r1, #0]
 800668a:	b4f0      	push	{r4, r5, r6, r7}
 800668c:	2b00      	cmp	r3, #0
 800668e:	d037      	beq.n	8006700 <TIM_ICInit+0x78>
 8006690:	2b04      	cmp	r3, #4
 8006692:	d063      	beq.n	800675c <TIM_ICInit+0xd4>
 8006694:	2b08      	cmp	r3, #8
 8006696:	884e      	ldrh	r6, [r1, #2]
 8006698:	8c03      	ldrh	r3, [r0, #32]
 800669a:	f000 8093 	beq.w	80067c4 <TIM_ICInit+0x13c>
 800669e:	f423 5280 	bic.w	r2, r3, #4096	; 0x1000
 80066a2:	888f      	ldrh	r7, [r1, #4]
 80066a4:	890d      	ldrh	r5, [r1, #8]
 80066a6:	88cc      	ldrh	r4, [r1, #6]
 80066a8:	0411      	lsls	r1, r2, #16
 80066aa:	0c0b      	lsrs	r3, r1, #16
 80066ac:	8403      	strh	r3, [r0, #32]
 80066ae:	8b82      	ldrh	r2, [r0, #28]
 80066b0:	f8b0 c020 	ldrh.w	ip, [r0, #32]
 80066b4:	f422 7140 	bic.w	r1, r2, #768	; 0x300
 80066b8:	f42c 5300 	bic.w	r3, ip, #8192	; 0x2000
 80066bc:	050a      	lsls	r2, r1, #20
 80066be:	0459      	lsls	r1, r3, #17
 80066c0:	0d12      	lsrs	r2, r2, #20
 80066c2:	0c4b      	lsrs	r3, r1, #17
 80066c4:	ea43 3306 	orr.w	r3, r3, r6, lsl #12
 80066c8:	ea42 2107 	orr.w	r1, r2, r7, lsl #8
 80066cc:	ea41 3205 	orr.w	r2, r1, r5, lsl #12
 80066d0:	fa1f fc83 	uxth.w	ip, r3
 80066d4:	b291      	uxth	r1, r2
 80066d6:	f44c 5380 	orr.w	r3, ip, #4096	; 0x1000
 80066da:	8381      	strh	r1, [r0, #28]
 80066dc:	8403      	strh	r3, [r0, #32]
 80066de:	f8b0 c01c 	ldrh.w	ip, [r0, #28]
 80066e2:	f42c 6240 	bic.w	r2, ip, #3072	; 0xc00
 80066e6:	0411      	lsls	r1, r2, #16
 80066e8:	0c0b      	lsrs	r3, r1, #16
 80066ea:	8383      	strh	r3, [r0, #28]
 80066ec:	8b82      	ldrh	r2, [r0, #28]
 80066ee:	b291      	uxth	r1, r2
 80066f0:	ea41 2304 	orr.w	r3, r1, r4, lsl #8
 80066f4:	fa1f fc83 	uxth.w	ip, r3
 80066f8:	f8a0 c01c 	strh.w	ip, [r0, #28]
 80066fc:	bcf0      	pop	{r4, r5, r6, r7}
 80066fe:	4770      	bx	lr
 8006700:	f8b0 c020 	ldrh.w	ip, [r0, #32]
 8006704:	884e      	ldrh	r6, [r1, #2]
 8006706:	888d      	ldrh	r5, [r1, #4]
 8006708:	890f      	ldrh	r7, [r1, #8]
 800670a:	88cc      	ldrh	r4, [r1, #6]
 800670c:	f02c 0201 	bic.w	r2, ip, #1
 8006710:	0411      	lsls	r1, r2, #16
 8006712:	0c0b      	lsrs	r3, r1, #16
 8006714:	8403      	strh	r3, [r0, #32]
 8006716:	8b02      	ldrh	r2, [r0, #24]
 8006718:	f8b0 c020 	ldrh.w	ip, [r0, #32]
 800671c:	f022 01f3 	bic.w	r1, r2, #243	; 0xf3
 8006720:	040b      	lsls	r3, r1, #16
 8006722:	0c1a      	lsrs	r2, r3, #16
 8006724:	f02c 010a 	bic.w	r1, ip, #10
 8006728:	ea42 1207 	orr.w	r2, r2, r7, lsl #4
 800672c:	040b      	lsls	r3, r1, #16
 800672e:	fa1f fc82 	uxth.w	ip, r2
 8006732:	f046 0101 	orr.w	r1, r6, #1
 8006736:	0c1b      	lsrs	r3, r3, #16
 8006738:	ea4c 0205 	orr.w	r2, ip, r5
 800673c:	430b      	orrs	r3, r1
 800673e:	8302      	strh	r2, [r0, #24]
 8006740:	8403      	strh	r3, [r0, #32]
 8006742:	f8b0 c018 	ldrh.w	ip, [r0, #24]
 8006746:	f02c 020c 	bic.w	r2, ip, #12
 800674a:	0411      	lsls	r1, r2, #16
 800674c:	0c0b      	lsrs	r3, r1, #16
 800674e:	8303      	strh	r3, [r0, #24]
 8006750:	8b02      	ldrh	r2, [r0, #24]
 8006752:	b291      	uxth	r1, r2
 8006754:	ea41 0304 	orr.w	r3, r1, r4
 8006758:	8303      	strh	r3, [r0, #24]
 800675a:	e7cf      	b.n	80066fc <TIM_ICInit+0x74>
 800675c:	8c02      	ldrh	r2, [r0, #32]
 800675e:	884e      	ldrh	r6, [r1, #2]
 8006760:	888d      	ldrh	r5, [r1, #4]
 8006762:	890f      	ldrh	r7, [r1, #8]
 8006764:	88cc      	ldrh	r4, [r1, #6]
 8006766:	f022 0310 	bic.w	r3, r2, #16
 800676a:	041a      	lsls	r2, r3, #16
 800676c:	0c11      	lsrs	r1, r2, #16
 800676e:	8401      	strh	r1, [r0, #32]
 8006770:	8b03      	ldrh	r3, [r0, #24]
 8006772:	f8b0 c020 	ldrh.w	ip, [r0, #32]
 8006776:	f423 7240 	bic.w	r2, r3, #768	; 0x300
 800677a:	0511      	lsls	r1, r2, #20
 800677c:	f02c 03a0 	bic.w	r3, ip, #160	; 0xa0
 8006780:	0d0a      	lsrs	r2, r1, #20
 8006782:	0419      	lsls	r1, r3, #16
 8006784:	ea42 3c07 	orr.w	ip, r2, r7, lsl #12
 8006788:	0c0b      	lsrs	r3, r1, #16
 800678a:	ea43 1306 	orr.w	r3, r3, r6, lsl #4
 800678e:	fa1f f18c 	uxth.w	r1, ip
 8006792:	ea41 2205 	orr.w	r2, r1, r5, lsl #8
 8006796:	fa1f fc83 	uxth.w	ip, r3
 800679a:	b291      	uxth	r1, r2
 800679c:	f04c 0310 	orr.w	r3, ip, #16
 80067a0:	8301      	strh	r1, [r0, #24]
 80067a2:	8403      	strh	r3, [r0, #32]
 80067a4:	f8b0 c018 	ldrh.w	ip, [r0, #24]
 80067a8:	f42c 6240 	bic.w	r2, ip, #3072	; 0xc00
 80067ac:	0411      	lsls	r1, r2, #16
 80067ae:	0c0b      	lsrs	r3, r1, #16
 80067b0:	8303      	strh	r3, [r0, #24]
 80067b2:	f8b0 c018 	ldrh.w	ip, [r0, #24]
 80067b6:	fa1f f28c 	uxth.w	r2, ip
 80067ba:	ea42 2104 	orr.w	r1, r2, r4, lsl #8
 80067be:	b28b      	uxth	r3, r1
 80067c0:	8303      	strh	r3, [r0, #24]
 80067c2:	e79b      	b.n	80066fc <TIM_ICInit+0x74>
 80067c4:	f423 7280 	bic.w	r2, r3, #256	; 0x100
 80067c8:	888d      	ldrh	r5, [r1, #4]
 80067ca:	890f      	ldrh	r7, [r1, #8]
 80067cc:	88cc      	ldrh	r4, [r1, #6]
 80067ce:	0411      	lsls	r1, r2, #16
 80067d0:	0c0b      	lsrs	r3, r1, #16
 80067d2:	8403      	strh	r3, [r0, #32]
 80067d4:	8b82      	ldrh	r2, [r0, #28]
 80067d6:	f8b0 c020 	ldrh.w	ip, [r0, #32]
 80067da:	f022 01f3 	bic.w	r1, r2, #243	; 0xf3
 80067de:	f42c 6320 	bic.w	r3, ip, #2560	; 0xa00
 80067e2:	040a      	lsls	r2, r1, #16
 80067e4:	0419      	lsls	r1, r3, #16
 80067e6:	0c12      	lsrs	r2, r2, #16
 80067e8:	0c0b      	lsrs	r3, r1, #16
 80067ea:	ea42 1c07 	orr.w	ip, r2, r7, lsl #4
 80067ee:	ea43 2106 	orr.w	r1, r3, r6, lsl #8
 80067f2:	fa1f f28c 	uxth.w	r2, ip
 80067f6:	b28b      	uxth	r3, r1
 80067f8:	ea42 0c05 	orr.w	ip, r2, r5
 80067fc:	f443 7180 	orr.w	r1, r3, #256	; 0x100
 8006800:	f8a0 c01c 	strh.w	ip, [r0, #28]
 8006804:	8401      	strh	r1, [r0, #32]
 8006806:	8b82      	ldrh	r2, [r0, #28]
 8006808:	f022 030c 	bic.w	r3, r2, #12
 800680c:	0419      	lsls	r1, r3, #16
 800680e:	0c0a      	lsrs	r2, r1, #16
 8006810:	8382      	strh	r2, [r0, #28]
 8006812:	8b83      	ldrh	r3, [r0, #28]
 8006814:	fa1f fc83 	uxth.w	ip, r3
 8006818:	ea4c 0104 	orr.w	r1, ip, r4
 800681c:	8381      	strh	r1, [r0, #28]
 800681e:	e76d      	b.n	80066fc <TIM_ICInit+0x74>

08006820 <TIM_ICStructInit>:
 8006820:	2300      	movs	r3, #0
 8006822:	2201      	movs	r2, #1
 8006824:	8003      	strh	r3, [r0, #0]
 8006826:	8043      	strh	r3, [r0, #2]
 8006828:	8082      	strh	r2, [r0, #4]
 800682a:	80c3      	strh	r3, [r0, #6]
 800682c:	8103      	strh	r3, [r0, #8]
 800682e:	4770      	bx	lr

08006830 <TIM_PWMIConfig>:
 8006830:	e92d 01f0 	stmdb	sp!, {r4, r5, r6, r7, r8}
 8006834:	888a      	ldrh	r2, [r1, #4]
 8006836:	f8b1 8002 	ldrh.w	r8, [r1, #2]
 800683a:	880b      	ldrh	r3, [r1, #0]
 800683c:	f1b8 0f00 	cmp.w	r8, #0
 8006840:	bf0c      	ite	eq
 8006842:	2502      	moveq	r5, #2
 8006844:	2500      	movne	r5, #0
 8006846:	2a01      	cmp	r2, #1
 8006848:	bf14      	ite	ne
 800684a:	2601      	movne	r6, #1
 800684c:	2602      	moveq	r6, #2
 800684e:	2b00      	cmp	r3, #0
 8006850:	d053      	beq.n	80068fa <TIM_PWMIConfig+0xca>
 8006852:	8c03      	ldrh	r3, [r0, #32]
 8006854:	f8b1 c008 	ldrh.w	ip, [r1, #8]
 8006858:	88cf      	ldrh	r7, [r1, #6]
 800685a:	f023 0410 	bic.w	r4, r3, #16
 800685e:	0421      	lsls	r1, r4, #16
 8006860:	0c0b      	lsrs	r3, r1, #16
 8006862:	8403      	strh	r3, [r0, #32]
 8006864:	8b04      	ldrh	r4, [r0, #24]
 8006866:	8c03      	ldrh	r3, [r0, #32]
 8006868:	f424 7140 	bic.w	r1, r4, #768	; 0x300
 800686c:	050c      	lsls	r4, r1, #20
 800686e:	f023 01a0 	bic.w	r1, r3, #160	; 0xa0
 8006872:	0409      	lsls	r1, r1, #16
 8006874:	0d23      	lsrs	r3, r4, #20
 8006876:	ea43 340c 	orr.w	r4, r3, ip, lsl #12
 800687a:	0c0b      	lsrs	r3, r1, #16
 800687c:	ea43 1108 	orr.w	r1, r3, r8, lsl #4
 8006880:	b2a4      	uxth	r4, r4
 8006882:	ea44 2302 	orr.w	r3, r4, r2, lsl #8
 8006886:	b289      	uxth	r1, r1
 8006888:	b29a      	uxth	r2, r3
 800688a:	f041 0310 	orr.w	r3, r1, #16
 800688e:	8302      	strh	r2, [r0, #24]
 8006890:	8403      	strh	r3, [r0, #32]
 8006892:	8b02      	ldrh	r2, [r0, #24]
 8006894:	f422 6140 	bic.w	r1, r2, #3072	; 0xc00
 8006898:	040b      	lsls	r3, r1, #16
 800689a:	0c1a      	lsrs	r2, r3, #16
 800689c:	8302      	strh	r2, [r0, #24]
 800689e:	8b01      	ldrh	r1, [r0, #24]
 80068a0:	b28b      	uxth	r3, r1
 80068a2:	ea43 2207 	orr.w	r2, r3, r7, lsl #8
 80068a6:	b291      	uxth	r1, r2
 80068a8:	8301      	strh	r1, [r0, #24]
 80068aa:	8c03      	ldrh	r3, [r0, #32]
 80068ac:	f023 0201 	bic.w	r2, r3, #1
 80068b0:	0411      	lsls	r1, r2, #16
 80068b2:	0c0b      	lsrs	r3, r1, #16
 80068b4:	8403      	strh	r3, [r0, #32]
 80068b6:	8b02      	ldrh	r2, [r0, #24]
 80068b8:	8c03      	ldrh	r3, [r0, #32]
 80068ba:	f022 01f3 	bic.w	r1, r2, #243	; 0xf3
 80068be:	040a      	lsls	r2, r1, #16
 80068c0:	f023 010a 	bic.w	r1, r3, #10
 80068c4:	0c12      	lsrs	r2, r2, #16
 80068c6:	040b      	lsls	r3, r1, #16
 80068c8:	ea42 1c0c 	orr.w	ip, r2, ip, lsl #4
 80068cc:	0c19      	lsrs	r1, r3, #16
 80068ce:	fa1f f28c 	uxth.w	r2, ip
 80068d2:	f041 0301 	orr.w	r3, r1, #1
 80068d6:	4316      	orrs	r6, r2
 80068d8:	431d      	orrs	r5, r3
 80068da:	8306      	strh	r6, [r0, #24]
 80068dc:	8405      	strh	r5, [r0, #32]
 80068de:	f8b0 c018 	ldrh.w	ip, [r0, #24]
 80068e2:	f02c 010c 	bic.w	r1, ip, #12
 80068e6:	040a      	lsls	r2, r1, #16
 80068e8:	0c13      	lsrs	r3, r2, #16
 80068ea:	8303      	strh	r3, [r0, #24]
 80068ec:	8b01      	ldrh	r1, [r0, #24]
 80068ee:	b28a      	uxth	r2, r1
 80068f0:	4317      	orrs	r7, r2
 80068f2:	8307      	strh	r7, [r0, #24]
 80068f4:	e8bd 01f0 	ldmia.w	sp!, {r4, r5, r6, r7, r8}
 80068f8:	4770      	bx	lr
 80068fa:	8c03      	ldrh	r3, [r0, #32]
 80068fc:	890f      	ldrh	r7, [r1, #8]
 80068fe:	f8b1 c006 	ldrh.w	ip, [r1, #6]
 8006902:	f023 0401 	bic.w	r4, r3, #1
 8006906:	0421      	lsls	r1, r4, #16
 8006908:	0c0b      	lsrs	r3, r1, #16
 800690a:	8403      	strh	r3, [r0, #32]
 800690c:	8b04      	ldrh	r4, [r0, #24]
 800690e:	8c03      	ldrh	r3, [r0, #32]
 8006910:	f024 01f3 	bic.w	r1, r4, #243	; 0xf3
 8006914:	040c      	lsls	r4, r1, #16
 8006916:	0c21      	lsrs	r1, r4, #16
 8006918:	f023 040a 	bic.w	r4, r3, #10
 800691c:	ea41 1107 	orr.w	r1, r1, r7, lsl #4
 8006920:	0423      	lsls	r3, r4, #16
 8006922:	0c1b      	lsrs	r3, r3, #16
 8006924:	b28c      	uxth	r4, r1
 8006926:	f048 0801 	orr.w	r8, r8, #1
 800692a:	4322      	orrs	r2, r4
 800692c:	ea43 0108 	orr.w	r1, r3, r8
 8006930:	8302      	strh	r2, [r0, #24]
 8006932:	8401      	strh	r1, [r0, #32]
 8006934:	8b04      	ldrh	r4, [r0, #24]
 8006936:	f024 030c 	bic.w	r3, r4, #12
 800693a:	041a      	lsls	r2, r3, #16
 800693c:	0c11      	lsrs	r1, r2, #16
 800693e:	8301      	strh	r1, [r0, #24]
 8006940:	8b04      	ldrh	r4, [r0, #24]
 8006942:	b2a3      	uxth	r3, r4
 8006944:	ea43 020c 	orr.w	r2, r3, ip
 8006948:	8302      	strh	r2, [r0, #24]
 800694a:	8c01      	ldrh	r1, [r0, #32]
 800694c:	f021 0410 	bic.w	r4, r1, #16
 8006950:	0423      	lsls	r3, r4, #16
 8006952:	0c1a      	lsrs	r2, r3, #16
 8006954:	8402      	strh	r2, [r0, #32]
 8006956:	8b01      	ldrh	r1, [r0, #24]
 8006958:	8c03      	ldrh	r3, [r0, #32]
 800695a:	f421 7440 	bic.w	r4, r1, #768	; 0x300
 800695e:	0522      	lsls	r2, r4, #20
 8006960:	f023 01a0 	bic.w	r1, r3, #160	; 0xa0
 8006964:	0d14      	lsrs	r4, r2, #20
 8006966:	040b      	lsls	r3, r1, #16
 8006968:	ea44 3207 	orr.w	r2, r4, r7, lsl #12
 800696c:	0c19      	lsrs	r1, r3, #16
 800696e:	b294      	uxth	r4, r2
 8006970:	f041 0310 	orr.w	r3, r1, #16
 8006974:	ea44 2606 	orr.w	r6, r4, r6, lsl #8
 8006978:	ea43 1505 	orr.w	r5, r3, r5, lsl #4
 800697c:	8306      	strh	r6, [r0, #24]
 800697e:	8405      	strh	r5, [r0, #32]
 8006980:	8b02      	ldrh	r2, [r0, #24]
 8006982:	f422 6140 	bic.w	r1, r2, #3072	; 0xc00
 8006986:	040c      	lsls	r4, r1, #16
 8006988:	0c23      	lsrs	r3, r4, #16
 800698a:	8303      	strh	r3, [r0, #24]
 800698c:	8b02      	ldrh	r2, [r0, #24]
 800698e:	b291      	uxth	r1, r2
 8006990:	ea41 240c 	orr.w	r4, r1, ip, lsl #8
 8006994:	b2a4      	uxth	r4, r4
 8006996:	8304      	strh	r4, [r0, #24]
 8006998:	e7ac      	b.n	80068f4 <TIM_PWMIConfig+0xc4>
 800699a:	bf00      	nop

0800699c <TIM_GetCapture1>:
 800699c:	6b40      	ldr	r0, [r0, #52]	; 0x34
 800699e:	4770      	bx	lr

080069a0 <TIM_GetCapture2>:
 80069a0:	6b80      	ldr	r0, [r0, #56]	; 0x38
 80069a2:	4770      	bx	lr

080069a4 <TIM_GetCapture3>:
 80069a4:	6bc0      	ldr	r0, [r0, #60]	; 0x3c
 80069a6:	4770      	bx	lr

080069a8 <TIM_GetCapture4>:
 80069a8:	6c00      	ldr	r0, [r0, #64]	; 0x40
 80069aa:	4770      	bx	lr

080069ac <TIM_SetIC1Prescaler>:
 80069ac:	8b02      	ldrh	r2, [r0, #24]
 80069ae:	f022 030c 	bic.w	r3, r2, #12
 80069b2:	041a      	lsls	r2, r3, #16
 80069b4:	0c13      	lsrs	r3, r2, #16
 80069b6:	8303      	strh	r3, [r0, #24]
 80069b8:	8b02      	ldrh	r2, [r0, #24]
 80069ba:	b293      	uxth	r3, r2
 80069bc:	4319      	orrs	r1, r3
 80069be:	8301      	strh	r1, [r0, #24]
 80069c0:	4770      	bx	lr
 80069c2:	bf00      	nop

080069c4 <TIM_SetIC2Prescaler>:
 80069c4:	8b02      	ldrh	r2, [r0, #24]
 80069c6:	f422 6340 	bic.w	r3, r2, #3072	; 0xc00
 80069ca:	041a      	lsls	r2, r3, #16
 80069cc:	0c13      	lsrs	r3, r2, #16
 80069ce:	8303      	strh	r3, [r0, #24]
 80069d0:	8b02      	ldrh	r2, [r0, #24]
 80069d2:	b293      	uxth	r3, r2
 80069d4:	ea43 2201 	orr.w	r2, r3, r1, lsl #8
 80069d8:	b291      	uxth	r1, r2
 80069da:	8301      	strh	r1, [r0, #24]
 80069dc:	4770      	bx	lr
 80069de:	bf00      	nop

080069e0 <TIM_SetIC3Prescaler>:
 80069e0:	8b82      	ldrh	r2, [r0, #28]
 80069e2:	f022 030c 	bic.w	r3, r2, #12
 80069e6:	041a      	lsls	r2, r3, #16
 80069e8:	0c13      	lsrs	r3, r2, #16
 80069ea:	8383      	strh	r3, [r0, #28]
 80069ec:	8b82      	ldrh	r2, [r0, #28]
 80069ee:	b293      	uxth	r3, r2
 80069f0:	4319      	orrs	r1, r3
 80069f2:	8381      	strh	r1, [r0, #28]
 80069f4:	4770      	bx	lr
 80069f6:	bf00      	nop

080069f8 <TIM_SetIC4Prescaler>:
 80069f8:	8b82      	ldrh	r2, [r0, #28]
 80069fa:	f422 6340 	bic.w	r3, r2, #3072	; 0xc00
 80069fe:	041a      	lsls	r2, r3, #16
 8006a00:	0c13      	lsrs	r3, r2, #16
 8006a02:	8383      	strh	r3, [r0, #28]
 8006a04:	8b82      	ldrh	r2, [r0, #28]
 8006a06:	b293      	uxth	r3, r2
 8006a08:	ea43 2201 	orr.w	r2, r3, r1, lsl #8
 8006a0c:	b291      	uxth	r1, r2
 8006a0e:	8381      	strh	r1, [r0, #28]
 8006a10:	4770      	bx	lr
 8006a12:	bf00      	nop

08006a14 <TIM_BDTRConfig>:
 8006a14:	f8b1 c002 	ldrh.w	ip, [r1, #2]
 8006a18:	880b      	ldrh	r3, [r1, #0]
 8006a1a:	898a      	ldrh	r2, [r1, #12]
 8006a1c:	b4f0      	push	{r4, r5, r6, r7}
 8006a1e:	888f      	ldrh	r7, [r1, #4]
 8006a20:	88ce      	ldrh	r6, [r1, #6]
 8006a22:	890d      	ldrh	r5, [r1, #8]
 8006a24:	894c      	ldrh	r4, [r1, #10]
 8006a26:	ea4c 0303 	orr.w	r3, ip, r3
 8006a2a:	ea43 0c07 	orr.w	ip, r3, r7
 8006a2e:	ea4c 0106 	orr.w	r1, ip, r6
 8006a32:	ea41 0305 	orr.w	r3, r1, r5
 8006a36:	ea43 0c04 	orr.w	ip, r3, r4
 8006a3a:	ea4c 0102 	orr.w	r1, ip, r2
 8006a3e:	b28b      	uxth	r3, r1
 8006a40:	f8a0 3044 	strh.w	r3, [r0, #68]	; 0x44
 8006a44:	bcf0      	pop	{r4, r5, r6, r7}
 8006a46:	4770      	bx	lr

08006a48 <TIM_BDTRStructInit>:
 8006a48:	2300      	movs	r3, #0
 8006a4a:	8003      	strh	r3, [r0, #0]
 8006a4c:	8043      	strh	r3, [r0, #2]
 8006a4e:	8083      	strh	r3, [r0, #4]
 8006a50:	80c3      	strh	r3, [r0, #6]
 8006a52:	8103      	strh	r3, [r0, #8]
 8006a54:	8143      	strh	r3, [r0, #10]
 8006a56:	8183      	strh	r3, [r0, #12]
 8006a58:	4770      	bx	lr
 8006a5a:	bf00      	nop

08006a5c <TIM_CtrlPWMOutputs>:
 8006a5c:	f8b0 3044 	ldrh.w	r3, [r0, #68]	; 0x44
 8006a60:	b921      	cbnz	r1, 8006a6c <TIM_CtrlPWMOutputs+0x10>
 8006a62:	0459      	lsls	r1, r3, #17
 8006a64:	0c4b      	lsrs	r3, r1, #17
 8006a66:	f8a0 3044 	strh.w	r3, [r0, #68]	; 0x44
 8006a6a:	4770      	bx	lr
 8006a6c:	ea6f 4243 	mvn.w	r2, r3, lsl #17
 8006a70:	ea6f 4152 	mvn.w	r1, r2, lsr #17
 8006a74:	b28b      	uxth	r3, r1
 8006a76:	f8a0 3044 	strh.w	r3, [r0, #68]	; 0x44
 8006a7a:	4770      	bx	lr

08006a7c <TIM_SelectCOM>:
 8006a7c:	8883      	ldrh	r3, [r0, #4]
 8006a7e:	b929      	cbnz	r1, 8006a8c <TIM_SelectCOM+0x10>
 8006a80:	f023 0104 	bic.w	r1, r3, #4
 8006a84:	040b      	lsls	r3, r1, #16
 8006a86:	0c1a      	lsrs	r2, r3, #16
 8006a88:	8082      	strh	r2, [r0, #4]
 8006a8a:	4770      	bx	lr
 8006a8c:	b299      	uxth	r1, r3
 8006a8e:	f041 0304 	orr.w	r3, r1, #4
 8006a92:	8083      	strh	r3, [r0, #4]
 8006a94:	4770      	bx	lr
 8006a96:	bf00      	nop

08006a98 <TIM_CCPreloadControl>:
 8006a98:	8883      	ldrh	r3, [r0, #4]
 8006a9a:	b929      	cbnz	r1, 8006aa8 <TIM_CCPreloadControl+0x10>
 8006a9c:	f023 0101 	bic.w	r1, r3, #1
 8006aa0:	040b      	lsls	r3, r1, #16
 8006aa2:	0c1a      	lsrs	r2, r3, #16
 8006aa4:	8082      	strh	r2, [r0, #4]
 8006aa6:	4770      	bx	lr
 8006aa8:	b299      	uxth	r1, r3
 8006aaa:	f041 0301 	orr.w	r3, r1, #1
 8006aae:	8083      	strh	r3, [r0, #4]
 8006ab0:	4770      	bx	lr
 8006ab2:	bf00      	nop

08006ab4 <TIM_ITConfig>:
 8006ab4:	8983      	ldrh	r3, [r0, #12]
 8006ab6:	b29b      	uxth	r3, r3
 8006ab8:	b91a      	cbnz	r2, 8006ac2 <TIM_ITConfig+0xe>
 8006aba:	ea23 0201 	bic.w	r2, r3, r1
 8006abe:	8182      	strh	r2, [r0, #12]
 8006ac0:	4770      	bx	lr
 8006ac2:	4319      	orrs	r1, r3
 8006ac4:	8181      	strh	r1, [r0, #12]
 8006ac6:	4770      	bx	lr

08006ac8 <TIM_GenerateEvent>:
 8006ac8:	8281      	strh	r1, [r0, #20]
 8006aca:	4770      	bx	lr

08006acc <TIM_GetFlagStatus>:
 8006acc:	8a03      	ldrh	r3, [r0, #16]
 8006ace:	4219      	tst	r1, r3
 8006ad0:	bf0c      	ite	eq
 8006ad2:	2000      	moveq	r0, #0
 8006ad4:	2001      	movne	r0, #1
 8006ad6:	4770      	bx	lr

08006ad8 <TIM_ClearFlag>:
 8006ad8:	43ca      	mvns	r2, r1
 8006ada:	b291      	uxth	r1, r2
 8006adc:	8201      	strh	r1, [r0, #16]
 8006ade:	4770      	bx	lr

08006ae0 <TIM_GetITStatus>:
 8006ae0:	8a03      	ldrh	r3, [r0, #16]
 8006ae2:	8982      	ldrh	r2, [r0, #12]
 8006ae4:	ea11 0003 	ands.w	r0, r1, r3
 8006ae8:	b292      	uxth	r2, r2
 8006aea:	d003      	beq.n	8006af4 <TIM_GetITStatus+0x14>
 8006aec:	4211      	tst	r1, r2
 8006aee:	bf0c      	ite	eq
 8006af0:	2000      	moveq	r0, #0
 8006af2:	2001      	movne	r0, #1
 8006af4:	4770      	bx	lr
 8006af6:	bf00      	nop

08006af8 <TIM_ClearITPendingBit>:
 8006af8:	43ca      	mvns	r2, r1
 8006afa:	b291      	uxth	r1, r2
 8006afc:	8201      	strh	r1, [r0, #16]
 8006afe:	4770      	bx	lr

08006b00 <TIM_DMAConfig>:
 8006b00:	4311      	orrs	r1, r2
 8006b02:	f8a0 1048 	strh.w	r1, [r0, #72]	; 0x48
 8006b06:	4770      	bx	lr

08006b08 <TIM_DMACmd>:
 8006b08:	8983      	ldrh	r3, [r0, #12]
 8006b0a:	b29b      	uxth	r3, r3
 8006b0c:	b91a      	cbnz	r2, 8006b16 <TIM_DMACmd+0xe>
 8006b0e:	ea23 0201 	bic.w	r2, r3, r1
 8006b12:	8182      	strh	r2, [r0, #12]
 8006b14:	4770      	bx	lr
 8006b16:	4319      	orrs	r1, r3
 8006b18:	8181      	strh	r1, [r0, #12]
 8006b1a:	4770      	bx	lr

08006b1c <TIM_SelectCCDMA>:
 8006b1c:	8883      	ldrh	r3, [r0, #4]
 8006b1e:	b929      	cbnz	r1, 8006b2c <TIM_SelectCCDMA+0x10>
 8006b20:	f023 0108 	bic.w	r1, r3, #8
 8006b24:	040b      	lsls	r3, r1, #16
 8006b26:	0c1a      	lsrs	r2, r3, #16
 8006b28:	8082      	strh	r2, [r0, #4]
 8006b2a:	4770      	bx	lr
 8006b2c:	b299      	uxth	r1, r3
 8006b2e:	f041 0308 	orr.w	r3, r1, #8
 8006b32:	8083      	strh	r3, [r0, #4]
 8006b34:	4770      	bx	lr
 8006b36:	bf00      	nop

08006b38 <TIM_InternalClockConfig>:
 8006b38:	f8b0 c008 	ldrh.w	ip, [r0, #8]
 8006b3c:	f02c 0207 	bic.w	r2, ip, #7
 8006b40:	0411      	lsls	r1, r2, #16
 8006b42:	0c0b      	lsrs	r3, r1, #16
 8006b44:	8103      	strh	r3, [r0, #8]
 8006b46:	4770      	bx	lr

08006b48 <TIM_ITRxExternalClockConfig>:
 8006b48:	8902      	ldrh	r2, [r0, #8]
 8006b4a:	f022 0370 	bic.w	r3, r2, #112	; 0x70
 8006b4e:	041a      	lsls	r2, r3, #16
 8006b50:	0c13      	lsrs	r3, r2, #16
 8006b52:	ea41 0c03 	orr.w	ip, r1, r3
 8006b56:	f8a0 c008 	strh.w	ip, [r0, #8]
 8006b5a:	8902      	ldrh	r2, [r0, #8]
 8006b5c:	b291      	uxth	r1, r2
 8006b5e:	f041 0307 	orr.w	r3, r1, #7
 8006b62:	8103      	strh	r3, [r0, #8]
 8006b64:	4770      	bx	lr
 8006b66:	bf00      	nop

08006b68 <TIM_TIxExternalClockConfig>:
 8006b68:	2960      	cmp	r1, #96	; 0x60
 8006b6a:	b430      	push	{r4, r5}
 8006b6c:	8c04      	ldrh	r4, [r0, #32]
 8006b6e:	d02b      	beq.n	8006bc8 <TIM_TIxExternalClockConfig+0x60>
 8006b70:	f024 0401 	bic.w	r4, r4, #1
 8006b74:	0425      	lsls	r5, r4, #16
 8006b76:	0c2c      	lsrs	r4, r5, #16
 8006b78:	8404      	strh	r4, [r0, #32]
 8006b7a:	8b05      	ldrh	r5, [r0, #24]
 8006b7c:	f8b0 c020 	ldrh.w	ip, [r0, #32]
 8006b80:	f025 04f3 	bic.w	r4, r5, #243	; 0xf3
 8006b84:	0425      	lsls	r5, r4, #16
 8006b86:	f02c 040a 	bic.w	r4, ip, #10
 8006b8a:	0c2d      	lsrs	r5, r5, #16
 8006b8c:	0424      	lsls	r4, r4, #16
 8006b8e:	f045 0501 	orr.w	r5, r5, #1
 8006b92:	0c24      	lsrs	r4, r4, #16
 8006b94:	ea45 1c03 	orr.w	ip, r5, r3, lsl #4
 8006b98:	f044 0401 	orr.w	r4, r4, #1
 8006b9c:	fa1f f38c 	uxth.w	r3, ip
 8006ba0:	4322      	orrs	r2, r4
 8006ba2:	8303      	strh	r3, [r0, #24]
 8006ba4:	8402      	strh	r2, [r0, #32]
 8006ba6:	f8b0 c008 	ldrh.w	ip, [r0, #8]
 8006baa:	f02c 0270 	bic.w	r2, ip, #112	; 0x70
 8006bae:	0413      	lsls	r3, r2, #16
 8006bb0:	0c1a      	lsrs	r2, r3, #16
 8006bb2:	ea41 0c02 	orr.w	ip, r1, r2
 8006bb6:	f8a0 c008 	strh.w	ip, [r0, #8]
 8006bba:	8903      	ldrh	r3, [r0, #8]
 8006bbc:	b29a      	uxth	r2, r3
 8006bbe:	f042 0107 	orr.w	r1, r2, #7
 8006bc2:	8101      	strh	r1, [r0, #8]
 8006bc4:	bc30      	pop	{r4, r5}
 8006bc6:	4770      	bx	lr
 8006bc8:	f024 0510 	bic.w	r5, r4, #16
 8006bcc:	042c      	lsls	r4, r5, #16
 8006bce:	0c25      	lsrs	r5, r4, #16
 8006bd0:	8405      	strh	r5, [r0, #32]
 8006bd2:	8b04      	ldrh	r4, [r0, #24]
 8006bd4:	f8b0 c020 	ldrh.w	ip, [r0, #32]
 8006bd8:	f424 7540 	bic.w	r5, r4, #768	; 0x300
 8006bdc:	f02c 04a0 	bic.w	r4, ip, #160	; 0xa0
 8006be0:	052d      	lsls	r5, r5, #20
 8006be2:	0424      	lsls	r4, r4, #16
 8006be4:	0d2d      	lsrs	r5, r5, #20
 8006be6:	0c24      	lsrs	r4, r4, #16
 8006be8:	f445 7580 	orr.w	r5, r5, #256	; 0x100
 8006bec:	f044 0410 	orr.w	r4, r4, #16
 8006bf0:	ea45 3303 	orr.w	r3, r5, r3, lsl #12
 8006bf4:	ea44 1c02 	orr.w	ip, r4, r2, lsl #4
 8006bf8:	b29b      	uxth	r3, r3
 8006bfa:	fa1f f28c 	uxth.w	r2, ip
 8006bfe:	8303      	strh	r3, [r0, #24]
 8006c00:	8402      	strh	r2, [r0, #32]
 8006c02:	e7d0      	b.n	8006ba6 <TIM_TIxExternalClockConfig+0x3e>

08006c04 <TIM_ETRClockMode1Config>:
 8006c04:	b410      	push	{r4}
 8006c06:	8904      	ldrh	r4, [r0, #8]
 8006c08:	fa5f fc84 	uxtb.w	ip, r4
 8006c0c:	ea41 010c 	orr.w	r1, r1, ip
 8006c10:	430a      	orrs	r2, r1
 8006c12:	ea42 2403 	orr.w	r4, r2, r3, lsl #8
 8006c16:	b2a4      	uxth	r4, r4
 8006c18:	8104      	strh	r4, [r0, #8]
 8006c1a:	8901      	ldrh	r1, [r0, #8]
 8006c1c:	f021 0377 	bic.w	r3, r1, #119	; 0x77
 8006c20:	041a      	lsls	r2, r3, #16
 8006c22:	0c11      	lsrs	r1, r2, #16
 8006c24:	f041 0377 	orr.w	r3, r1, #119	; 0x77
 8006c28:	8103      	strh	r3, [r0, #8]
 8006c2a:	bc10      	pop	{r4}
 8006c2c:	4770      	bx	lr
 8006c2e:	bf00      	nop

08006c30 <TIM_ETRClockMode2Config>:
 8006c30:	f8b0 c008 	ldrh.w	ip, [r0, #8]
 8006c34:	b410      	push	{r4}
 8006c36:	fa5f f48c 	uxtb.w	r4, ip
 8006c3a:	ea41 0c04 	orr.w	ip, r1, r4
 8006c3e:	ea42 010c 	orr.w	r1, r2, ip
 8006c42:	ea41 2403 	orr.w	r4, r1, r3, lsl #8
 8006c46:	b2a4      	uxth	r4, r4
 8006c48:	8104      	strh	r4, [r0, #8]
 8006c4a:	8902      	ldrh	r2, [r0, #8]
 8006c4c:	b291      	uxth	r1, r2
 8006c4e:	f441 4380 	orr.w	r3, r1, #16384	; 0x4000
 8006c52:	8103      	strh	r3, [r0, #8]
 8006c54:	bc10      	pop	{r4}
 8006c56:	4770      	bx	lr

08006c58 <TIM_SelectInputTrigger>:
 8006c58:	f8b0 c008 	ldrh.w	ip, [r0, #8]
 8006c5c:	f02c 0270 	bic.w	r2, ip, #112	; 0x70
 8006c60:	0413      	lsls	r3, r2, #16
 8006c62:	0c1a      	lsrs	r2, r3, #16
 8006c64:	ea41 0302 	orr.w	r3, r1, r2
 8006c68:	8103      	strh	r3, [r0, #8]
 8006c6a:	4770      	bx	lr

08006c6c <TIM_SelectOutputTrigger>:
 8006c6c:	8882      	ldrh	r2, [r0, #4]
 8006c6e:	f022 0370 	bic.w	r3, r2, #112	; 0x70
 8006c72:	041a      	lsls	r2, r3, #16
 8006c74:	0c13      	lsrs	r3, r2, #16
 8006c76:	8083      	strh	r3, [r0, #4]
 8006c78:	8882      	ldrh	r2, [r0, #4]
 8006c7a:	b293      	uxth	r3, r2
 8006c7c:	4319      	orrs	r1, r3
 8006c7e:	8081      	strh	r1, [r0, #4]
 8006c80:	4770      	bx	lr
 8006c82:	bf00      	nop

08006c84 <TIM_SelectSlaveMode>:
 8006c84:	8902      	ldrh	r2, [r0, #8]
 8006c86:	f022 0307 	bic.w	r3, r2, #7
 8006c8a:	041a      	lsls	r2, r3, #16
 8006c8c:	0c13      	lsrs	r3, r2, #16
 8006c8e:	8103      	strh	r3, [r0, #8]
 8006c90:	8902      	ldrh	r2, [r0, #8]
 8006c92:	b293      	uxth	r3, r2
 8006c94:	4319      	orrs	r1, r3
 8006c96:	8101      	strh	r1, [r0, #8]
 8006c98:	4770      	bx	lr
 8006c9a:	bf00      	nop

08006c9c <TIM_SelectMasterSlaveMode>:
 8006c9c:	8902      	ldrh	r2, [r0, #8]
 8006c9e:	f022 0380 	bic.w	r3, r2, #128	; 0x80
 8006ca2:	041a      	lsls	r2, r3, #16
 8006ca4:	0c13      	lsrs	r3, r2, #16
 8006ca6:	8103      	strh	r3, [r0, #8]
 8006ca8:	8902      	ldrh	r2, [r0, #8]
 8006caa:	b293      	uxth	r3, r2
 8006cac:	4319      	orrs	r1, r3
 8006cae:	8101      	strh	r1, [r0, #8]
 8006cb0:	4770      	bx	lr
 8006cb2:	bf00      	nop

08006cb4 <TIM_ETRConfig>:
 8006cb4:	f8b0 c008 	ldrh.w	ip, [r0, #8]
 8006cb8:	b410      	push	{r4}
 8006cba:	fa5f f48c 	uxtb.w	r4, ip
 8006cbe:	ea41 0c04 	orr.w	ip, r1, r4
 8006cc2:	ea42 010c 	orr.w	r1, r2, ip
 8006cc6:	ea41 2403 	orr.w	r4, r1, r3, lsl #8
 8006cca:	b2a4      	uxth	r4, r4
 8006ccc:	8104      	strh	r4, [r0, #8]
 8006cce:	bc10      	pop	{r4}
 8006cd0:	4770      	bx	lr
 8006cd2:	bf00      	nop

08006cd4 <TIM_EncoderInterfaceConfig>:
 8006cd4:	f8b0 c008 	ldrh.w	ip, [r0, #8]
 8006cd8:	b470      	push	{r4, r5, r6}
 8006cda:	8b05      	ldrh	r5, [r0, #24]
 8006cdc:	8c06      	ldrh	r6, [r0, #32]
 8006cde:	f425 7440 	bic.w	r4, r5, #768	; 0x300
 8006ce2:	f026 0522 	bic.w	r5, r6, #34	; 0x22
 8006ce6:	042e      	lsls	r6, r5, #16
 8006ce8:	f024 0403 	bic.w	r4, r4, #3
 8006cec:	0c36      	lsrs	r6, r6, #16
 8006cee:	f02c 0507 	bic.w	r5, ip, #7
 8006cf2:	0424      	lsls	r4, r4, #16
 8006cf4:	042d      	lsls	r5, r5, #16
 8006cf6:	0c24      	lsrs	r4, r4, #16
 8006cf8:	4332      	orrs	r2, r6
 8006cfa:	0c2d      	lsrs	r5, r5, #16
 8006cfc:	f444 7480 	orr.w	r4, r4, #256	; 0x100
 8006d00:	ea42 1603 	orr.w	r6, r2, r3, lsl #4
 8006d04:	430d      	orrs	r5, r1
 8006d06:	f044 0401 	orr.w	r4, r4, #1
 8006d0a:	b2b6      	uxth	r6, r6
 8006d0c:	8105      	strh	r5, [r0, #8]
 8006d0e:	8304      	strh	r4, [r0, #24]
 8006d10:	8406      	strh	r6, [r0, #32]
 8006d12:	bc70      	pop	{r4, r5, r6}
 8006d14:	4770      	bx	lr
 8006d16:	bf00      	nop

08006d18 <TIM_SelectHallSensor>:
 8006d18:	8883      	ldrh	r3, [r0, #4]
 8006d1a:	b929      	cbnz	r1, 8006d28 <TIM_SelectHallSensor+0x10>
 8006d1c:	f023 0180 	bic.w	r1, r3, #128	; 0x80
 8006d20:	040b      	lsls	r3, r1, #16
 8006d22:	0c1a      	lsrs	r2, r3, #16
 8006d24:	8082      	strh	r2, [r0, #4]
 8006d26:	4770      	bx	lr
 8006d28:	b299      	uxth	r1, r3
 8006d2a:	f041 0380 	orr.w	r3, r1, #128	; 0x80
 8006d2e:	8083      	strh	r3, [r0, #4]
 8006d30:	4770      	bx	lr
 8006d32:	bf00      	nop

08006d34 <TIM_RemapConfig>:
 8006d34:	f8a0 1050 	strh.w	r1, [r0, #80]	; 0x50
 8006d38:	4770      	bx	lr
 8006d3a:	bf00      	nop

08006d3c <I2C_DeInit>:
 8006d3c:	b508      	push	{r3, lr}
 8006d3e:	f44f 43a8 	mov.w	r3, #21504	; 0x5400
 8006d42:	f2c4 0300 	movt	r3, #16384	; 0x4000
 8006d46:	4298      	cmp	r0, r3
 8006d48:	d018      	beq.n	8006d7c <I2C_DeInit+0x40>
 8006d4a:	f44f 41b0 	mov.w	r1, #22528	; 0x5800
 8006d4e:	f2c4 0100 	movt	r1, #16384	; 0x4000
 8006d52:	4288      	cmp	r0, r1
 8006d54:	d01e      	beq.n	8006d94 <I2C_DeInit+0x58>
 8006d56:	f44f 42b8 	mov.w	r2, #23552	; 0x5c00
 8006d5a:	f2c4 0200 	movt	r2, #16384	; 0x4000
 8006d5e:	4290      	cmp	r0, r2
 8006d60:	d000      	beq.n	8006d64 <I2C_DeInit+0x28>
 8006d62:	bd08      	pop	{r3, pc}
 8006d64:	2101      	movs	r1, #1
 8006d66:	f44f 0000 	mov.w	r0, #8388608	; 0x800000
 8006d6a:	f7fe ff63 	bl	8005c34 <RCC_APB1PeriphResetCmd>
 8006d6e:	f44f 0000 	mov.w	r0, #8388608	; 0x800000
 8006d72:	2100      	movs	r1, #0
 8006d74:	e8bd 4008 	ldmia.w	sp!, {r3, lr}
 8006d78:	f7fe bf5c 	b.w	8005c34 <RCC_APB1PeriphResetCmd>
 8006d7c:	2101      	movs	r1, #1
 8006d7e:	f44f 1000 	mov.w	r0, #2097152	; 0x200000
 8006d82:	f7fe ff57 	bl	8005c34 <RCC_APB1PeriphResetCmd>
 8006d86:	f44f 1000 	mov.w	r0, #2097152	; 0x200000
 8006d8a:	2100      	movs	r1, #0
 8006d8c:	e8bd 4008 	ldmia.w	sp!, {r3, lr}
 8006d90:	f7fe bf50 	b.w	8005c34 <RCC_APB1PeriphResetCmd>
 8006d94:	2101      	movs	r1, #1
 8006d96:	f44f 0080 	mov.w	r0, #4194304	; 0x400000
 8006d9a:	f7fe ff4b 	bl	8005c34 <RCC_APB1PeriphResetCmd>
 8006d9e:	f44f 0080 	mov.w	r0, #4194304	; 0x400000
 8006da2:	2100      	movs	r1, #0
 8006da4:	e8bd 4008 	ldmia.w	sp!, {r3, lr}
 8006da8:	f7fe bf44 	b.w	8005c34 <RCC_APB1PeriphResetCmd>

08006dac <I2C_Init>:
 8006dac:	b570      	push	{r4, r5, r6, lr}
 8006dae:	8882      	ldrh	r2, [r0, #4]
 8006db0:	b084      	sub	sp, #16
 8006db2:	4604      	mov	r4, r0
 8006db4:	4668      	mov	r0, sp
 8006db6:	460d      	mov	r5, r1
 8006db8:	f022 063f 	bic.w	r6, r2, #63	; 0x3f
 8006dbc:	f7fe fe38 	bl	8005a30 <RCC_GetClocksFreq>
 8006dc0:	9802      	ldr	r0, [sp, #8]
 8006dc2:	682a      	ldr	r2, [r5, #0]
 8006dc4:	f64d 6383 	movw	r3, #56963	; 0xde83
 8006dc8:	f2c4 331b 	movt	r3, #17179	; 0x431b
 8006dcc:	0436      	lsls	r6, r6, #16
 8006dce:	fba3 3100 	umull	r3, r1, r3, r0
 8006dd2:	0c36      	lsrs	r6, r6, #16
 8006dd4:	0c89      	lsrs	r1, r1, #18
 8006dd6:	ea41 0306 	orr.w	r3, r1, r6
 8006dda:	80a3      	strh	r3, [r4, #4]
 8006ddc:	f8b4 c000 	ldrh.w	ip, [r4]
 8006de0:	f02c 0601 	bic.w	r6, ip, #1
 8006de4:	0433      	lsls	r3, r6, #16
 8006de6:	f248 66a0 	movw	r6, #34464	; 0x86a0
 8006dea:	f2c0 0601 	movt	r6, #1
 8006dee:	0c1b      	lsrs	r3, r3, #16
 8006df0:	42b2      	cmp	r2, r6
 8006df2:	8023      	strh	r3, [r4, #0]
 8006df4:	d829      	bhi.n	8006e4a <I2C_Init+0x9e>
 8006df6:	0053      	lsls	r3, r2, #1
 8006df8:	fbb0 f0f3 	udiv	r0, r0, r3
 8006dfc:	b280      	uxth	r0, r0
 8006dfe:	3101      	adds	r1, #1
 8006e00:	8421      	strh	r1, [r4, #32]
 8006e02:	2803      	cmp	r0, #3
 8006e04:	bf98      	it	ls
 8006e06:	2004      	movls	r0, #4
 8006e08:	83a0      	strh	r0, [r4, #28]
 8006e0a:	8823      	ldrh	r3, [r4, #0]
 8006e0c:	f8b5 e004 	ldrh.w	lr, [r5, #4]
 8006e10:	8929      	ldrh	r1, [r5, #8]
 8006e12:	896e      	ldrh	r6, [r5, #10]
 8006e14:	89aa      	ldrh	r2, [r5, #12]
 8006e16:	fa1f fc83 	uxth.w	ip, r3
 8006e1a:	f04c 0001 	orr.w	r0, ip, #1
 8006e1e:	8020      	strh	r0, [r4, #0]
 8006e20:	8823      	ldrh	r3, [r4, #0]
 8006e22:	f423 6c80 	bic.w	ip, r3, #1024	; 0x400
 8006e26:	f02c 000a 	bic.w	r0, ip, #10
 8006e2a:	0403      	lsls	r3, r0, #16
 8006e2c:	0c1b      	lsrs	r3, r3, #16
 8006e2e:	ea46 000e 	orr.w	r0, r6, lr
 8006e32:	ea43 0c00 	orr.w	ip, r3, r0
 8006e36:	ea41 0e02 	orr.w	lr, r1, r2
 8006e3a:	fa1f f08c 	uxth.w	r0, ip
 8006e3e:	fa1f f18e 	uxth.w	r1, lr
 8006e42:	8020      	strh	r0, [r4, #0]
 8006e44:	8121      	strh	r1, [r4, #8]
 8006e46:	b004      	add	sp, #16
 8006e48:	bd70      	pop	{r4, r5, r6, pc}
 8006e4a:	f8b5 c006 	ldrh.w	ip, [r5, #6]
 8006e4e:	f64b 7eff 	movw	lr, #49151	; 0xbfff
 8006e52:	45f4      	cmp	ip, lr
 8006e54:	d021      	beq.n	8006e9a <I2C_Init+0xee>
 8006e56:	eb02 0e82 	add.w	lr, r2, r2, lsl #2
 8006e5a:	eb0e 068e 	add.w	r6, lr, lr, lsl #2
 8006e5e:	fbb0 f3f6 	udiv	r3, r0, r6
 8006e62:	b298      	uxth	r0, r3
 8006e64:	f440 4080 	orr.w	r0, r0, #16384	; 0x4000
 8006e68:	0503      	lsls	r3, r0, #20
 8006e6a:	0d1a      	lsrs	r2, r3, #20
 8006e6c:	b90a      	cbnz	r2, 8006e72 <I2C_Init+0xc6>
 8006e6e:	f040 0001 	orr.w	r0, r0, #1
 8006e72:	f44f 7396 	mov.w	r3, #300	; 0x12c
 8006e76:	f644 56d3 	movw	r6, #19923	; 0x4dd3
 8006e7a:	fb03 f201 	mul.w	r2, r3, r1
 8006e7e:	f2c1 0662 	movt	r6, #4194	; 0x1062
 8006e82:	fb86 2302 	smull	r2, r3, r6, r2
 8006e86:	ea6f 4040 	mvn.w	r0, r0, lsl #17
 8006e8a:	099e      	lsrs	r6, r3, #6
 8006e8c:	ea6f 4c50 	mvn.w	ip, r0, lsr #17
 8006e90:	1c71      	adds	r1, r6, #1
 8006e92:	fa1f f08c 	uxth.w	r0, ip
 8006e96:	8421      	strh	r1, [r4, #32]
 8006e98:	e7b6      	b.n	8006e08 <I2C_Init+0x5c>
 8006e9a:	eb02 0242 	add.w	r2, r2, r2, lsl #1
 8006e9e:	fbb0 f6f2 	udiv	r6, r0, r2
 8006ea2:	b2b0      	uxth	r0, r6
 8006ea4:	e7e0      	b.n	8006e68 <I2C_Init+0xbc>
 8006ea6:	bf00      	nop

08006ea8 <I2C_StructInit>:
 8006ea8:	f241 3388 	movw	r3, #5000	; 0x1388
 8006eac:	2100      	movs	r1, #0
 8006eae:	6003      	str	r3, [r0, #0]
 8006eb0:	f64b 72ff 	movw	r2, #49151	; 0xbfff
 8006eb4:	f44f 4380 	mov.w	r3, #16384	; 0x4000
 8006eb8:	8081      	strh	r1, [r0, #4]
 8006eba:	80c2      	strh	r2, [r0, #6]
 8006ebc:	8101      	strh	r1, [r0, #8]
 8006ebe:	8141      	strh	r1, [r0, #10]
 8006ec0:	8183      	strh	r3, [r0, #12]
 8006ec2:	4770      	bx	lr

08006ec4 <I2C_Cmd>:
 8006ec4:	8803      	ldrh	r3, [r0, #0]
 8006ec6:	b929      	cbnz	r1, 8006ed4 <I2C_Cmd+0x10>
 8006ec8:	f023 0101 	bic.w	r1, r3, #1
 8006ecc:	040b      	lsls	r3, r1, #16
 8006ece:	0c1a      	lsrs	r2, r3, #16
 8006ed0:	8002      	strh	r2, [r0, #0]
 8006ed2:	4770      	bx	lr
 8006ed4:	b299      	uxth	r1, r3
 8006ed6:	f041 0301 	orr.w	r3, r1, #1
 8006eda:	8003      	strh	r3, [r0, #0]
 8006edc:	4770      	bx	lr
 8006ede:	bf00      	nop

08006ee0 <I2C_GenerateSTART>:
 8006ee0:	8803      	ldrh	r3, [r0, #0]
 8006ee2:	b929      	cbnz	r1, 8006ef0 <I2C_GenerateSTART+0x10>
 8006ee4:	f423 7180 	bic.w	r1, r3, #256	; 0x100
 8006ee8:	040b      	lsls	r3, r1, #16
 8006eea:	0c1a      	lsrs	r2, r3, #16
 8006eec:	8002      	strh	r2, [r0, #0]
 8006eee:	4770      	bx	lr
 8006ef0:	b299      	uxth	r1, r3
 8006ef2:	f441 7380 	orr.w	r3, r1, #256	; 0x100
 8006ef6:	8003      	strh	r3, [r0, #0]
 8006ef8:	4770      	bx	lr
 8006efa:	bf00      	nop

08006efc <I2C_GenerateSTOP>:
 8006efc:	8803      	ldrh	r3, [r0, #0]
 8006efe:	b929      	cbnz	r1, 8006f0c <I2C_GenerateSTOP+0x10>
 8006f00:	f423 7100 	bic.w	r1, r3, #512	; 0x200
 8006f04:	040b      	lsls	r3, r1, #16
 8006f06:	0c1a      	lsrs	r2, r3, #16
 8006f08:	8002      	strh	r2, [r0, #0]
 8006f0a:	4770      	bx	lr
 8006f0c:	b299      	uxth	r1, r3
 8006f0e:	f441 7300 	orr.w	r3, r1, #512	; 0x200
 8006f12:	8003      	strh	r3, [r0, #0]
 8006f14:	4770      	bx	lr
 8006f16:	bf00      	nop

08006f18 <I2C_Send7bitAddress>:
 8006f18:	b91a      	cbnz	r2, 8006f22 <I2C_Send7bitAddress+0xa>
 8006f1a:	f001 01fe 	and.w	r1, r1, #254	; 0xfe
 8006f1e:	8201      	strh	r1, [r0, #16]
 8006f20:	4770      	bx	lr
 8006f22:	f041 0101 	orr.w	r1, r1, #1
 8006f26:	8201      	strh	r1, [r0, #16]
 8006f28:	4770      	bx	lr
 8006f2a:	bf00      	nop

08006f2c <I2C_AcknowledgeConfig>:
 8006f2c:	8803      	ldrh	r3, [r0, #0]
 8006f2e:	b929      	cbnz	r1, 8006f3c <I2C_AcknowledgeConfig+0x10>
 8006f30:	f423 6180 	bic.w	r1, r3, #1024	; 0x400
 8006f34:	040b      	lsls	r3, r1, #16
 8006f36:	0c1a      	lsrs	r2, r3, #16
 8006f38:	8002      	strh	r2, [r0, #0]
 8006f3a:	4770      	bx	lr
 8006f3c:	b299      	uxth	r1, r3
 8006f3e:	f441 6380 	orr.w	r3, r1, #1024	; 0x400
 8006f42:	8003      	strh	r3, [r0, #0]
 8006f44:	4770      	bx	lr
 8006f46:	bf00      	nop

08006f48 <I2C_OwnAddress2Config>:
 8006f48:	f8b0 c00c 	ldrh.w	ip, [r0, #12]
 8006f4c:	f02c 02fe 	bic.w	r2, ip, #254	; 0xfe
 8006f50:	0413      	lsls	r3, r2, #16
 8006f52:	f001 01fe 	and.w	r1, r1, #254	; 0xfe
 8006f56:	0c1a      	lsrs	r2, r3, #16
 8006f58:	ea41 0302 	orr.w	r3, r1, r2
 8006f5c:	8183      	strh	r3, [r0, #12]
 8006f5e:	4770      	bx	lr

08006f60 <I2C_DualAddressCmd>:
 8006f60:	8983      	ldrh	r3, [r0, #12]
 8006f62:	b929      	cbnz	r1, 8006f70 <I2C_DualAddressCmd+0x10>
 8006f64:	f023 0101 	bic.w	r1, r3, #1
 8006f68:	040b      	lsls	r3, r1, #16
 8006f6a:	0c1a      	lsrs	r2, r3, #16
 8006f6c:	8182      	strh	r2, [r0, #12]
 8006f6e:	4770      	bx	lr
 8006f70:	b299      	uxth	r1, r3
 8006f72:	f041 0301 	orr.w	r3, r1, #1
 8006f76:	8183      	strh	r3, [r0, #12]
 8006f78:	4770      	bx	lr
 8006f7a:	bf00      	nop

08006f7c <I2C_GeneralCallCmd>:
 8006f7c:	8803      	ldrh	r3, [r0, #0]
 8006f7e:	b929      	cbnz	r1, 8006f8c <I2C_GeneralCallCmd+0x10>
 8006f80:	f023 0140 	bic.w	r1, r3, #64	; 0x40
 8006f84:	040b      	lsls	r3, r1, #16
 8006f86:	0c1a      	lsrs	r2, r3, #16
 8006f88:	8002      	strh	r2, [r0, #0]
 8006f8a:	4770      	bx	lr
 8006f8c:	b299      	uxth	r1, r3
 8006f8e:	f041 0340 	orr.w	r3, r1, #64	; 0x40
 8006f92:	8003      	strh	r3, [r0, #0]
 8006f94:	4770      	bx	lr
 8006f96:	bf00      	nop

08006f98 <I2C_SoftwareResetCmd>:
 8006f98:	8803      	ldrh	r3, [r0, #0]
 8006f9a:	b919      	cbnz	r1, 8006fa4 <I2C_SoftwareResetCmd+0xc>
 8006f9c:	0459      	lsls	r1, r3, #17
 8006f9e:	0c4b      	lsrs	r3, r1, #17
 8006fa0:	8003      	strh	r3, [r0, #0]
 8006fa2:	4770      	bx	lr
 8006fa4:	ea6f 4243 	mvn.w	r2, r3, lsl #17
 8006fa8:	ea6f 4152 	mvn.w	r1, r2, lsr #17
 8006fac:	b28b      	uxth	r3, r1
 8006fae:	8003      	strh	r3, [r0, #0]
 8006fb0:	4770      	bx	lr
 8006fb2:	bf00      	nop

08006fb4 <I2C_StretchClockCmd>:
 8006fb4:	8803      	ldrh	r3, [r0, #0]
 8006fb6:	b129      	cbz	r1, 8006fc4 <I2C_StretchClockCmd+0x10>
 8006fb8:	f023 0180 	bic.w	r1, r3, #128	; 0x80
 8006fbc:	040b      	lsls	r3, r1, #16
 8006fbe:	0c1a      	lsrs	r2, r3, #16
 8006fc0:	8002      	strh	r2, [r0, #0]
 8006fc2:	4770      	bx	lr
 8006fc4:	b299      	uxth	r1, r3
 8006fc6:	f041 0380 	orr.w	r3, r1, #128	; 0x80
 8006fca:	8003      	strh	r3, [r0, #0]
 8006fcc:	4770      	bx	lr
 8006fce:	bf00      	nop

08006fd0 <I2C_FastModeDutyCycleConfig>:
 8006fd0:	f5b1 4f80 	cmp.w	r1, #16384	; 0x4000
 8006fd4:	8b83      	ldrh	r3, [r0, #28]
 8006fd6:	d005      	beq.n	8006fe4 <I2C_FastModeDutyCycleConfig+0x14>
 8006fd8:	f423 4280 	bic.w	r2, r3, #16384	; 0x4000
 8006fdc:	0411      	lsls	r1, r2, #16
 8006fde:	0c0b      	lsrs	r3, r1, #16
 8006fe0:	8383      	strh	r3, [r0, #28]
 8006fe2:	4770      	bx	lr
 8006fe4:	b29b      	uxth	r3, r3
 8006fe6:	f443 4c80 	orr.w	ip, r3, #16384	; 0x4000
 8006fea:	f8a0 c01c 	strh.w	ip, [r0, #28]
 8006fee:	4770      	bx	lr

08006ff0 <I2C_NACKPositionConfig>:
 8006ff0:	f5b1 6f00 	cmp.w	r1, #2048	; 0x800
 8006ff4:	8803      	ldrh	r3, [r0, #0]
 8006ff6:	d005      	beq.n	8007004 <I2C_NACKPositionConfig+0x14>
 8006ff8:	f423 6100 	bic.w	r1, r3, #2048	; 0x800
 8006ffc:	040b      	lsls	r3, r1, #16
 8006ffe:	0c1a      	lsrs	r2, r3, #16
 8007000:	8002      	strh	r2, [r0, #0]
 8007002:	4770      	bx	lr
 8007004:	b299      	uxth	r1, r3
 8007006:	f441 6300 	orr.w	r3, r1, #2048	; 0x800
 800700a:	8003      	strh	r3, [r0, #0]
 800700c:	4770      	bx	lr
 800700e:	bf00      	nop

08007010 <I2C_SMBusAlertConfig>:
 8007010:	f5b1 5f00 	cmp.w	r1, #8192	; 0x2000
 8007014:	8803      	ldrh	r3, [r0, #0]
 8007016:	d005      	beq.n	8007024 <I2C_SMBusAlertConfig+0x14>
 8007018:	f423 5100 	bic.w	r1, r3, #8192	; 0x2000
 800701c:	040b      	lsls	r3, r1, #16
 800701e:	0c1a      	lsrs	r2, r3, #16
 8007020:	8002      	strh	r2, [r0, #0]
 8007022:	4770      	bx	lr
 8007024:	b299      	uxth	r1, r3
 8007026:	f441 5300 	orr.w	r3, r1, #8192	; 0x2000
 800702a:	8003      	strh	r3, [r0, #0]
 800702c:	4770      	bx	lr
 800702e:	bf00      	nop

08007030 <I2C_ARPCmd>:
 8007030:	8803      	ldrh	r3, [r0, #0]
 8007032:	b929      	cbnz	r1, 8007040 <I2C_ARPCmd+0x10>
 8007034:	f023 0110 	bic.w	r1, r3, #16
 8007038:	040b      	lsls	r3, r1, #16
 800703a:	0c1a      	lsrs	r2, r3, #16
 800703c:	8002      	strh	r2, [r0, #0]
 800703e:	4770      	bx	lr
 8007040:	b299      	uxth	r1, r3
 8007042:	f041 0310 	orr.w	r3, r1, #16
 8007046:	8003      	strh	r3, [r0, #0]
 8007048:	4770      	bx	lr
 800704a:	bf00      	nop

0800704c <I2C_SendData>:
 800704c:	8201      	strh	r1, [r0, #16]
 800704e:	4770      	bx	lr

08007050 <I2C_ReceiveData>:
 8007050:	8a00      	ldrh	r0, [r0, #16]
 8007052:	b2c0      	uxtb	r0, r0
 8007054:	4770      	bx	lr
 8007056:	bf00      	nop

08007058 <I2C_TransmitPEC>:
 8007058:	8803      	ldrh	r3, [r0, #0]
 800705a:	b929      	cbnz	r1, 8007068 <I2C_TransmitPEC+0x10>
 800705c:	f423 5180 	bic.w	r1, r3, #4096	; 0x1000
 8007060:	040b      	lsls	r3, r1, #16
 8007062:	0c1a      	lsrs	r2, r3, #16
 8007064:	8002      	strh	r2, [r0, #0]
 8007066:	4770      	bx	lr
 8007068:	b299      	uxth	r1, r3
 800706a:	f441 5380 	orr.w	r3, r1, #4096	; 0x1000
 800706e:	8003      	strh	r3, [r0, #0]
 8007070:	4770      	bx	lr
 8007072:	bf00      	nop

08007074 <I2C_PECPositionConfig>:
 8007074:	f5b1 6f00 	cmp.w	r1, #2048	; 0x800
 8007078:	8803      	ldrh	r3, [r0, #0]
 800707a:	d005      	beq.n	8007088 <I2C_PECPositionConfig+0x14>
 800707c:	f423 6100 	bic.w	r1, r3, #2048	; 0x800
 8007080:	040b      	lsls	r3, r1, #16
 8007082:	0c1a      	lsrs	r2, r3, #16
 8007084:	8002      	strh	r2, [r0, #0]
 8007086:	4770      	bx	lr
 8007088:	b299      	uxth	r1, r3
 800708a:	f441 6300 	orr.w	r3, r1, #2048	; 0x800
 800708e:	8003      	strh	r3, [r0, #0]
 8007090:	4770      	bx	lr
 8007092:	bf00      	nop

08007094 <I2C_CalculatePEC>:
 8007094:	8803      	ldrh	r3, [r0, #0]
 8007096:	b929      	cbnz	r1, 80070a4 <I2C_CalculatePEC+0x10>
 8007098:	f023 0120 	bic.w	r1, r3, #32
 800709c:	040b      	lsls	r3, r1, #16
 800709e:	0c1a      	lsrs	r2, r3, #16
 80070a0:	8002      	strh	r2, [r0, #0]
 80070a2:	4770      	bx	lr
 80070a4:	b299      	uxth	r1, r3
 80070a6:	f041 0320 	orr.w	r3, r1, #32
 80070aa:	8003      	strh	r3, [r0, #0]
 80070ac:	4770      	bx	lr
 80070ae:	bf00      	nop

080070b0 <I2C_GetPEC>:
 80070b0:	8b00      	ldrh	r0, [r0, #24]
 80070b2:	f3c0 2007 	ubfx	r0, r0, #8, #8
 80070b6:	4770      	bx	lr

080070b8 <I2C_DMACmd>:
 80070b8:	8883      	ldrh	r3, [r0, #4]
 80070ba:	b929      	cbnz	r1, 80070c8 <I2C_DMACmd+0x10>
 80070bc:	f423 6100 	bic.w	r1, r3, #2048	; 0x800
 80070c0:	040b      	lsls	r3, r1, #16
 80070c2:	0c1a      	lsrs	r2, r3, #16
 80070c4:	8082      	strh	r2, [r0, #4]
 80070c6:	4770      	bx	lr
 80070c8:	b299      	uxth	r1, r3
 80070ca:	f441 6300 	orr.w	r3, r1, #2048	; 0x800
 80070ce:	8083      	strh	r3, [r0, #4]
 80070d0:	4770      	bx	lr
 80070d2:	bf00      	nop

080070d4 <I2C_DMALastTransferCmd>:
 80070d4:	8883      	ldrh	r3, [r0, #4]
 80070d6:	b929      	cbnz	r1, 80070e4 <I2C_DMALastTransferCmd+0x10>
 80070d8:	f423 5180 	bic.w	r1, r3, #4096	; 0x1000
 80070dc:	040b      	lsls	r3, r1, #16
 80070de:	0c1a      	lsrs	r2, r3, #16
 80070e0:	8082      	strh	r2, [r0, #4]
 80070e2:	4770      	bx	lr
 80070e4:	b299      	uxth	r1, r3
 80070e6:	f441 5380 	orr.w	r3, r1, #4096	; 0x1000
 80070ea:	8083      	strh	r3, [r0, #4]
 80070ec:	4770      	bx	lr
 80070ee:	bf00      	nop

080070f0 <I2C_ReadRegister>:
 80070f0:	b082      	sub	sp, #8
 80070f2:	2300      	movs	r3, #0
 80070f4:	9301      	str	r3, [sp, #4]
 80070f6:	9001      	str	r0, [sp, #4]
 80070f8:	9a01      	ldr	r2, [sp, #4]
 80070fa:	1889      	adds	r1, r1, r2
 80070fc:	9101      	str	r1, [sp, #4]
 80070fe:	9b01      	ldr	r3, [sp, #4]
 8007100:	8818      	ldrh	r0, [r3, #0]
 8007102:	b280      	uxth	r0, r0
 8007104:	b002      	add	sp, #8
 8007106:	4770      	bx	lr

08007108 <I2C_ITConfig>:
 8007108:	8883      	ldrh	r3, [r0, #4]
 800710a:	b29b      	uxth	r3, r3
 800710c:	b91a      	cbnz	r2, 8007116 <I2C_ITConfig+0xe>
 800710e:	ea23 0201 	bic.w	r2, r3, r1
 8007112:	8082      	strh	r2, [r0, #4]
 8007114:	4770      	bx	lr
 8007116:	4319      	orrs	r1, r3
 8007118:	8081      	strh	r1, [r0, #4]
 800711a:	4770      	bx	lr

0800711c <I2C_CheckEvent>:
 800711c:	f8b0 c014 	ldrh.w	ip, [r0, #20]
 8007120:	8b03      	ldrh	r3, [r0, #24]
 8007122:	fa1f f28c 	uxth.w	r2, ip
 8007126:	ea42 4003 	orr.w	r0, r2, r3, lsl #16
 800712a:	ea00 0c01 	and.w	ip, r0, r1
 800712e:	f02c 427f 	bic.w	r2, ip, #4278190080	; 0xff000000
 8007132:	1a8b      	subs	r3, r1, r2
 8007134:	4258      	negs	r0, r3
 8007136:	eb40 0003 	adc.w	r0, r0, r3
 800713a:	4770      	bx	lr

0800713c <I2C_GetLastEvent>:
 800713c:	8a82      	ldrh	r2, [r0, #20]
 800713e:	8b03      	ldrh	r3, [r0, #24]
 8007140:	b291      	uxth	r1, r2
 8007142:	ea41 4003 	orr.w	r0, r1, r3, lsl #16
 8007146:	f020 407f 	bic.w	r0, r0, #4278190080	; 0xff000000
 800714a:	4770      	bx	lr

0800714c <I2C_GetFlagStatus>:
 800714c:	b082      	sub	sp, #8
 800714e:	2300      	movs	r3, #0
 8007150:	0f0a      	lsrs	r2, r1, #28
 8007152:	9300      	str	r3, [sp, #0]
 8007154:	9301      	str	r3, [sp, #4]
 8007156:	9001      	str	r0, [sp, #4]
 8007158:	9200      	str	r2, [sp, #0]
 800715a:	9b00      	ldr	r3, [sp, #0]
 800715c:	f021 417f 	bic.w	r1, r1, #4278190080	; 0xff000000
 8007160:	b153      	cbz	r3, 8007178 <I2C_GetFlagStatus+0x2c>
 8007162:	9801      	ldr	r0, [sp, #4]
 8007164:	3014      	adds	r0, #20
 8007166:	9001      	str	r0, [sp, #4]
 8007168:	9801      	ldr	r0, [sp, #4]
 800716a:	6803      	ldr	r3, [r0, #0]
 800716c:	4219      	tst	r1, r3
 800716e:	bf0c      	ite	eq
 8007170:	2000      	moveq	r0, #0
 8007172:	2001      	movne	r0, #1
 8007174:	b002      	add	sp, #8
 8007176:	4770      	bx	lr
 8007178:	9a01      	ldr	r2, [sp, #4]
 800717a:	3218      	adds	r2, #24
 800717c:	0c09      	lsrs	r1, r1, #16
 800717e:	9201      	str	r2, [sp, #4]
 8007180:	e7f2      	b.n	8007168 <I2C_GetFlagStatus+0x1c>
 8007182:	bf00      	nop

08007184 <I2C_ClearFlag>:
 8007184:	43ca      	mvns	r2, r1
 8007186:	b291      	uxth	r1, r2
 8007188:	8281      	strh	r1, [r0, #20]
 800718a:	4770      	bx	lr

0800718c <I2C_GetITStatus>:
 800718c:	8883      	ldrh	r3, [r0, #4]
 800718e:	8a82      	ldrh	r2, [r0, #20]
 8007190:	b290      	uxth	r0, r2
 8007192:	4008      	ands	r0, r1
 8007194:	b29b      	uxth	r3, r3
 8007196:	d006      	beq.n	80071a6 <I2C_GetITStatus+0x1a>
 8007198:	f001 61e0 	and.w	r1, r1, #117440512	; 0x7000000
 800719c:	ea13 4111 	ands.w	r1, r3, r1, lsr #16
 80071a0:	bf0c      	ite	eq
 80071a2:	2000      	moveq	r0, #0
 80071a4:	2001      	movne	r0, #1
 80071a6:	4770      	bx	lr

080071a8 <I2C_ClearITPendingBit>:
 80071a8:	43ca      	mvns	r2, r1
 80071aa:	b291      	uxth	r1, r2
 80071ac:	8281      	strh	r1, [r0, #20]
 80071ae:	4770      	bx	lr

080071b0 <FLASH_SetLatency>:
 80071b0:	f44f 5370 	mov.w	r3, #15360	; 0x3c00
 80071b4:	f2c4 0302 	movt	r3, #16386	; 0x4002
 80071b8:	b2c0      	uxtb	r0, r0
 80071ba:	7018      	strb	r0, [r3, #0]
 80071bc:	4770      	bx	lr
 80071be:	bf00      	nop

080071c0 <FLASH_PrefetchBufferCmd>:
 80071c0:	f44f 5370 	mov.w	r3, #15360	; 0x3c00
 80071c4:	f2c4 0302 	movt	r3, #16386	; 0x4002
 80071c8:	681a      	ldr	r2, [r3, #0]
 80071ca:	b918      	cbnz	r0, 80071d4 <FLASH_PrefetchBufferCmd+0x14>
 80071cc:	f422 7080 	bic.w	r0, r2, #256	; 0x100
 80071d0:	6018      	str	r0, [r3, #0]
 80071d2:	4770      	bx	lr
 80071d4:	f442 7280 	orr.w	r2, r2, #256	; 0x100
 80071d8:	601a      	str	r2, [r3, #0]
 80071da:	4770      	bx	lr

080071dc <FLASH_InstructionCacheCmd>:
 80071dc:	f44f 5370 	mov.w	r3, #15360	; 0x3c00
 80071e0:	f2c4 0302 	movt	r3, #16386	; 0x4002
 80071e4:	681a      	ldr	r2, [r3, #0]
 80071e6:	b918      	cbnz	r0, 80071f0 <FLASH_InstructionCacheCmd+0x14>
 80071e8:	f422 7000 	bic.w	r0, r2, #512	; 0x200
 80071ec:	6018      	str	r0, [r3, #0]
 80071ee:	4770      	bx	lr
 80071f0:	f442 7200 	orr.w	r2, r2, #512	; 0x200
 80071f4:	601a      	str	r2, [r3, #0]
 80071f6:	4770      	bx	lr

080071f8 <FLASH_DataCacheCmd>:
 80071f8:	f44f 5370 	mov.w	r3, #15360	; 0x3c00
 80071fc:	f2c4 0302 	movt	r3, #16386	; 0x4002
 8007200:	681a      	ldr	r2, [r3, #0]
 8007202:	b918      	cbnz	r0, 800720c <FLASH_DataCacheCmd+0x14>
 8007204:	f422 6080 	bic.w	r0, r2, #1024	; 0x400
 8007208:	6018      	str	r0, [r3, #0]
 800720a:	4770      	bx	lr
 800720c:	f442 6280 	orr.w	r2, r2, #1024	; 0x400
 8007210:	601a      	str	r2, [r3, #0]
 8007212:	4770      	bx	lr

08007214 <FLASH_InstructionCacheReset>:
 8007214:	f44f 5370 	mov.w	r3, #15360	; 0x3c00
 8007218:	f2c4 0302 	movt	r3, #16386	; 0x4002
 800721c:	6818      	ldr	r0, [r3, #0]
 800721e:	f440 6200 	orr.w	r2, r0, #2048	; 0x800
 8007222:	601a      	str	r2, [r3, #0]
 8007224:	4770      	bx	lr
 8007226:	bf00      	nop

08007228 <FLASH_DataCacheReset>:
 8007228:	f44f 5370 	mov.w	r3, #15360	; 0x3c00
 800722c:	f2c4 0302 	movt	r3, #16386	; 0x4002
 8007230:	6818      	ldr	r0, [r3, #0]
 8007232:	f440 5280 	orr.w	r2, r0, #4096	; 0x1000
 8007236:	601a      	str	r2, [r3, #0]
 8007238:	4770      	bx	lr
 800723a:	bf00      	nop

0800723c <FLASH_Unlock>:
 800723c:	f44f 5370 	mov.w	r3, #15360	; 0x3c00
 8007240:	f2c4 0302 	movt	r3, #16386	; 0x4002
 8007244:	691a      	ldr	r2, [r3, #16]
 8007246:	2a00      	cmp	r2, #0
 8007248:	da09      	bge.n	800725e <FLASH_Unlock+0x22>
 800724a:	f240 1123 	movw	r1, #291	; 0x123
 800724e:	f648 10ab 	movw	r0, #35243	; 0x89ab
 8007252:	f2c4 5167 	movt	r1, #17767	; 0x4567
 8007256:	f6cc 50ef 	movt	r0, #52719	; 0xcdef
 800725a:	6059      	str	r1, [r3, #4]
 800725c:	6058      	str	r0, [r3, #4]
 800725e:	4770      	bx	lr

08007260 <FLASH_Lock>:
 8007260:	f44f 5370 	mov.w	r3, #15360	; 0x3c00
 8007264:	f2c4 0302 	movt	r3, #16386	; 0x4002
 8007268:	6918      	ldr	r0, [r3, #16]
 800726a:	f040 4200 	orr.w	r2, r0, #2147483648	; 0x80000000
 800726e:	611a      	str	r2, [r3, #16]
 8007270:	4770      	bx	lr
 8007272:	bf00      	nop

08007274 <FLASH_OB_Unlock>:
 8007274:	f44f 5370 	mov.w	r3, #15360	; 0x3c00
 8007278:	f2c4 0302 	movt	r3, #16386	; 0x4002
 800727c:	695a      	ldr	r2, [r3, #20]
 800727e:	07d2      	lsls	r2, r2, #31
 8007280:	d509      	bpl.n	8007296 <FLASH_OB_Unlock+0x22>
 8007282:	f642 213b 	movw	r1, #10811	; 0x2a3b
 8007286:	f646 607f 	movw	r0, #28287	; 0x6e7f
 800728a:	f6c0 0119 	movt	r1, #2073	; 0x819
 800728e:	f6c4 405d 	movt	r0, #19549	; 0x4c5d
 8007292:	6099      	str	r1, [r3, #8]
 8007294:	6098      	str	r0, [r3, #8]
 8007296:	4770      	bx	lr

08007298 <FLASH_OB_Lock>:
 8007298:	f44f 5370 	mov.w	r3, #15360	; 0x3c00
 800729c:	f2c4 0302 	movt	r3, #16386	; 0x4002
 80072a0:	6958      	ldr	r0, [r3, #20]
 80072a2:	f040 0201 	orr.w	r2, r0, #1
 80072a6:	615a      	str	r2, [r3, #20]
 80072a8:	4770      	bx	lr
 80072aa:	bf00      	nop

080072ac <FLASH_OB_BORConfig>:
 80072ac:	f643 4314 	movw	r3, #15380	; 0x3c14
 80072b0:	f2c4 0302 	movt	r3, #16386	; 0x4002
 80072b4:	f893 c000 	ldrb.w	ip, [r3]
 80072b8:	f00c 01f3 	and.w	r1, ip, #243	; 0xf3
 80072bc:	7019      	strb	r1, [r3, #0]
 80072be:	781a      	ldrb	r2, [r3, #0]
 80072c0:	4310      	orrs	r0, r2
 80072c2:	7018      	strb	r0, [r3, #0]
 80072c4:	4770      	bx	lr
 80072c6:	bf00      	nop

080072c8 <FLASH_OB_GetUser>:
 80072c8:	f44f 5370 	mov.w	r3, #15360	; 0x3c00
 80072cc:	f2c4 0302 	movt	r3, #16386	; 0x4002
 80072d0:	6958      	ldr	r0, [r3, #20]
 80072d2:	f3c0 1047 	ubfx	r0, r0, #5, #8
 80072d6:	4770      	bx	lr

080072d8 <FLASH_OB_GetWRP>:
 80072d8:	f643 4316 	movw	r3, #15382	; 0x3c16
 80072dc:	f2c4 0302 	movt	r3, #16386	; 0x4002
 80072e0:	8818      	ldrh	r0, [r3, #0]
 80072e2:	b280      	uxth	r0, r0
 80072e4:	4770      	bx	lr
 80072e6:	bf00      	nop

080072e8 <FLASH_OB_GetRDP>:
 80072e8:	f643 4315 	movw	r3, #15381	; 0x3c15
 80072ec:	f2c4 0302 	movt	r3, #16386	; 0x4002
 80072f0:	7818      	ldrb	r0, [r3, #0]
 80072f2:	38aa      	subs	r0, #170	; 0xaa
 80072f4:	bf18      	it	ne
 80072f6:	2001      	movne	r0, #1
 80072f8:	4770      	bx	lr
 80072fa:	bf00      	nop

080072fc <FLASH_OB_GetBOR>:
 80072fc:	f643 4314 	movw	r3, #15380	; 0x3c14
 8007300:	f2c4 0302 	movt	r3, #16386	; 0x4002
 8007304:	7818      	ldrb	r0, [r3, #0]
 8007306:	f000 000c 	and.w	r0, r0, #12
 800730a:	4770      	bx	lr

0800730c <FLASH_ITConfig>:
 800730c:	f44f 5370 	mov.w	r3, #15360	; 0x3c00
 8007310:	f2c4 0302 	movt	r3, #16386	; 0x4002
 8007314:	691a      	ldr	r2, [r3, #16]
 8007316:	b919      	cbnz	r1, 8007320 <FLASH_ITConfig+0x14>
 8007318:	ea22 0100 	bic.w	r1, r2, r0
 800731c:	6119      	str	r1, [r3, #16]
 800731e:	4770      	bx	lr
 8007320:	4310      	orrs	r0, r2
 8007322:	6118      	str	r0, [r3, #16]
 8007324:	4770      	bx	lr
 8007326:	bf00      	nop

08007328 <FLASH_GetFlagStatus>:
 8007328:	f44f 5170 	mov.w	r1, #15360	; 0x3c00
 800732c:	f2c4 0102 	movt	r1, #16386	; 0x4002
 8007330:	68cb      	ldr	r3, [r1, #12]
 8007332:	4218      	tst	r0, r3
 8007334:	bf0c      	ite	eq
 8007336:	2000      	moveq	r0, #0
 8007338:	2001      	movne	r0, #1
 800733a:	4770      	bx	lr

0800733c <FLASH_ClearFlag>:
 800733c:	f44f 5370 	mov.w	r3, #15360	; 0x3c00
 8007340:	f2c4 0302 	movt	r3, #16386	; 0x4002
 8007344:	60d8      	str	r0, [r3, #12]
 8007346:	4770      	bx	lr

08007348 <FLASH_GetStatus>:
 8007348:	f44f 5370 	mov.w	r3, #15360	; 0x3c00
 800734c:	f2c4 0302 	movt	r3, #16386	; 0x4002
 8007350:	68da      	ldr	r2, [r3, #12]
 8007352:	03d0      	lsls	r0, r2, #15
 8007354:	d40a      	bmi.n	800736c <FLASH_GetStatus+0x24>
 8007356:	68d8      	ldr	r0, [r3, #12]
 8007358:	06c1      	lsls	r1, r0, #27
 800735a:	d501      	bpl.n	8007360 <FLASH_GetStatus+0x18>
 800735c:	2005      	movs	r0, #5
 800735e:	4770      	bx	lr
 8007360:	68d9      	ldr	r1, [r3, #12]
 8007362:	f011 0fef 	tst.w	r1, #239	; 0xef
 8007366:	d003      	beq.n	8007370 <FLASH_GetStatus+0x28>
 8007368:	2006      	movs	r0, #6
 800736a:	4770      	bx	lr
 800736c:	2001      	movs	r0, #1
 800736e:	4770      	bx	lr
 8007370:	68db      	ldr	r3, [r3, #12]
 8007372:	f013 0f02 	tst.w	r3, #2
 8007376:	bf0c      	ite	eq
 8007378:	2008      	moveq	r0, #8
 800737a:	2007      	movne	r0, #7
 800737c:	4770      	bx	lr
 800737e:	bf00      	nop

08007380 <FLASH_WaitForLastOperation>:
 8007380:	b500      	push	{lr}
 8007382:	b083      	sub	sp, #12
 8007384:	2308      	movs	r3, #8
 8007386:	f88d 3007 	strb.w	r3, [sp, #7]
 800738a:	f7ff ffdd 	bl	8007348 <FLASH_GetStatus>
 800738e:	f88d 0007 	strb.w	r0, [sp, #7]
 8007392:	f89d 0007 	ldrb.w	r0, [sp, #7]
 8007396:	2801      	cmp	r0, #1
 8007398:	d0f7      	beq.n	800738a <FLASH_WaitForLastOperation+0xa>
 800739a:	f89d 0007 	ldrb.w	r0, [sp, #7]
 800739e:	b003      	add	sp, #12
 80073a0:	bd00      	pop	{pc}
 80073a2:	bf00      	nop

080073a4 <FLASH_OB_Launch>:
 80073a4:	f643 4314 	movw	r3, #15380	; 0x3c14
 80073a8:	f2c4 0302 	movt	r3, #16386	; 0x4002
 80073ac:	7818      	ldrb	r0, [r3, #0]
 80073ae:	f040 0202 	orr.w	r2, r0, #2
 80073b2:	701a      	strb	r2, [r3, #0]
 80073b4:	e7e4      	b.n	8007380 <FLASH_WaitForLastOperation>
 80073b6:	bf00      	nop

080073b8 <FLASH_OB_UserConfig>:
 80073b8:	b570      	push	{r4, r5, r6, lr}
 80073ba:	4604      	mov	r4, r0
 80073bc:	460d      	mov	r5, r1
 80073be:	4616      	mov	r6, r2
 80073c0:	f7ff ffde 	bl	8007380 <FLASH_WaitForLastOperation>
 80073c4:	2808      	cmp	r0, #8
 80073c6:	d10a      	bne.n	80073de <FLASH_OB_UserConfig+0x26>
 80073c8:	f643 4314 	movw	r3, #15380	; 0x3c14
 80073cc:	f2c4 0302 	movt	r3, #16386	; 0x4002
 80073d0:	7818      	ldrb	r0, [r3, #0]
 80073d2:	f000 020f 	and.w	r2, r0, #15
 80073d6:	4314      	orrs	r4, r2
 80073d8:	4325      	orrs	r5, r4
 80073da:	432e      	orrs	r6, r5
 80073dc:	701e      	strb	r6, [r3, #0]
 80073de:	bd70      	pop	{r4, r5, r6, pc}

080073e0 <FLASH_OB_RDPConfig>:
 80073e0:	b510      	push	{r4, lr}
 80073e2:	4604      	mov	r4, r0
 80073e4:	f7ff ffcc 	bl	8007380 <FLASH_WaitForLastOperation>
 80073e8:	2808      	cmp	r0, #8
 80073ea:	d104      	bne.n	80073f6 <FLASH_OB_RDPConfig+0x16>
 80073ec:	f643 4315 	movw	r3, #15381	; 0x3c15
 80073f0:	f2c4 0302 	movt	r3, #16386	; 0x4002
 80073f4:	701c      	strb	r4, [r3, #0]
 80073f6:	bd10      	pop	{r4, pc}

080073f8 <FLASH_OB_WRPConfig>:
 80073f8:	b538      	push	{r3, r4, r5, lr}
 80073fa:	4604      	mov	r4, r0
 80073fc:	460d      	mov	r5, r1
 80073fe:	f7ff ffbf 	bl	8007380 <FLASH_WaitForLastOperation>
 8007402:	2808      	cmp	r0, #8
 8007404:	d000      	beq.n	8007408 <FLASH_OB_WRPConfig+0x10>
 8007406:	bd38      	pop	{r3, r4, r5, pc}
 8007408:	f643 4316 	movw	r3, #15382	; 0x3c16
 800740c:	f2c4 0302 	movt	r3, #16386	; 0x4002
 8007410:	881a      	ldrh	r2, [r3, #0]
 8007412:	b91d      	cbnz	r5, 800741c <FLASH_OB_WRPConfig+0x24>
 8007414:	4314      	orrs	r4, r2
 8007416:	b2a4      	uxth	r4, r4
 8007418:	801c      	strh	r4, [r3, #0]
 800741a:	bd38      	pop	{r3, r4, r5, pc}
 800741c:	b292      	uxth	r2, r2
 800741e:	ea22 0404 	bic.w	r4, r2, r4
 8007422:	801c      	strh	r4, [r3, #0]
 8007424:	bd38      	pop	{r3, r4, r5, pc}
 8007426:	bf00      	nop

08007428 <FLASH_ProgramByte>:
 8007428:	b570      	push	{r4, r5, r6, lr}
 800742a:	4604      	mov	r4, r0
 800742c:	460e      	mov	r6, r1
 800742e:	f7ff ffa7 	bl	8007380 <FLASH_WaitForLastOperation>
 8007432:	2808      	cmp	r0, #8
 8007434:	d000      	beq.n	8007438 <FLASH_ProgramByte+0x10>
 8007436:	bd70      	pop	{r4, r5, r6, pc}
 8007438:	f44f 5570 	mov.w	r5, #15360	; 0x3c00
 800743c:	f2c4 0502 	movt	r5, #16386	; 0x4002
 8007440:	6928      	ldr	r0, [r5, #16]
 8007442:	f420 7140 	bic.w	r1, r0, #768	; 0x300
 8007446:	6129      	str	r1, [r5, #16]
 8007448:	692b      	ldr	r3, [r5, #16]
 800744a:	612b      	str	r3, [r5, #16]
 800744c:	692a      	ldr	r2, [r5, #16]
 800744e:	f042 0001 	orr.w	r0, r2, #1
 8007452:	6128      	str	r0, [r5, #16]
 8007454:	7026      	strb	r6, [r4, #0]
 8007456:	f7ff ff93 	bl	8007380 <FLASH_WaitForLastOperation>
 800745a:	6929      	ldr	r1, [r5, #16]
 800745c:	f021 0301 	bic.w	r3, r1, #1
 8007460:	612b      	str	r3, [r5, #16]
 8007462:	bd70      	pop	{r4, r5, r6, pc}

08007464 <FLASH_ProgramHalfWord>:
 8007464:	b570      	push	{r4, r5, r6, lr}
 8007466:	4604      	mov	r4, r0
 8007468:	460e      	mov	r6, r1
 800746a:	f7ff ff89 	bl	8007380 <FLASH_WaitForLastOperation>
 800746e:	2808      	cmp	r0, #8
 8007470:	d000      	beq.n	8007474 <FLASH_ProgramHalfWord+0x10>
 8007472:	bd70      	pop	{r4, r5, r6, pc}
 8007474:	f44f 5570 	mov.w	r5, #15360	; 0x3c00
 8007478:	f2c4 0502 	movt	r5, #16386	; 0x4002
 800747c:	692a      	ldr	r2, [r5, #16]
 800747e:	f422 7040 	bic.w	r0, r2, #768	; 0x300
 8007482:	6128      	str	r0, [r5, #16]
 8007484:	6929      	ldr	r1, [r5, #16]
 8007486:	f441 7380 	orr.w	r3, r1, #256	; 0x100
 800748a:	612b      	str	r3, [r5, #16]
 800748c:	692a      	ldr	r2, [r5, #16]
 800748e:	f042 0001 	orr.w	r0, r2, #1
 8007492:	6128      	str	r0, [r5, #16]
 8007494:	8026      	strh	r6, [r4, #0]
 8007496:	f7ff ff73 	bl	8007380 <FLASH_WaitForLastOperation>
 800749a:	6929      	ldr	r1, [r5, #16]
 800749c:	f021 0301 	bic.w	r3, r1, #1
 80074a0:	612b      	str	r3, [r5, #16]
 80074a2:	bd70      	pop	{r4, r5, r6, pc}

080074a4 <FLASH_ProgramWord>:
 80074a4:	b570      	push	{r4, r5, r6, lr}
 80074a6:	4604      	mov	r4, r0
 80074a8:	460e      	mov	r6, r1
 80074aa:	f7ff ff69 	bl	8007380 <FLASH_WaitForLastOperation>
 80074ae:	2808      	cmp	r0, #8
 80074b0:	d000      	beq.n	80074b4 <FLASH_ProgramWord+0x10>
 80074b2:	bd70      	pop	{r4, r5, r6, pc}
 80074b4:	f44f 5570 	mov.w	r5, #15360	; 0x3c00
 80074b8:	f2c4 0502 	movt	r5, #16386	; 0x4002
 80074bc:	692a      	ldr	r2, [r5, #16]
 80074be:	f422 7040 	bic.w	r0, r2, #768	; 0x300
 80074c2:	6128      	str	r0, [r5, #16]
 80074c4:	6929      	ldr	r1, [r5, #16]
 80074c6:	f441 7300 	orr.w	r3, r1, #512	; 0x200
 80074ca:	612b      	str	r3, [r5, #16]
 80074cc:	692a      	ldr	r2, [r5, #16]
 80074ce:	f042 0001 	orr.w	r0, r2, #1
 80074d2:	6128      	str	r0, [r5, #16]
 80074d4:	6026      	str	r6, [r4, #0]
 80074d6:	f7ff ff53 	bl	8007380 <FLASH_WaitForLastOperation>
 80074da:	6929      	ldr	r1, [r5, #16]
 80074dc:	f021 0301 	bic.w	r3, r1, #1
 80074e0:	612b      	str	r3, [r5, #16]
 80074e2:	bd70      	pop	{r4, r5, r6, pc}

080074e4 <FLASH_ProgramDoubleWord>:
 80074e4:	b5f8      	push	{r3, r4, r5, r6, r7, lr}
 80074e6:	4606      	mov	r6, r0
 80074e8:	4614      	mov	r4, r2
 80074ea:	461d      	mov	r5, r3
 80074ec:	f7ff ff48 	bl	8007380 <FLASH_WaitForLastOperation>
 80074f0:	2808      	cmp	r0, #8
 80074f2:	d000      	beq.n	80074f6 <FLASH_ProgramDoubleWord+0x12>
 80074f4:	bdf8      	pop	{r3, r4, r5, r6, r7, pc}
 80074f6:	f44f 5770 	mov.w	r7, #15360	; 0x3c00
 80074fa:	f2c4 0702 	movt	r7, #16386	; 0x4002
 80074fe:	693a      	ldr	r2, [r7, #16]
 8007500:	f422 7040 	bic.w	r0, r2, #768	; 0x300
 8007504:	6138      	str	r0, [r7, #16]
 8007506:	6939      	ldr	r1, [r7, #16]
 8007508:	f441 7340 	orr.w	r3, r1, #768	; 0x300
 800750c:	613b      	str	r3, [r7, #16]
 800750e:	693a      	ldr	r2, [r7, #16]
 8007510:	f042 0001 	orr.w	r0, r2, #1
 8007514:	6138      	str	r0, [r7, #16]
 8007516:	e9c6 4500 	strd	r4, r5, [r6]
 800751a:	f7ff ff31 	bl	8007380 <FLASH_WaitForLastOperation>
 800751e:	6939      	ldr	r1, [r7, #16]
 8007520:	f021 0301 	bic.w	r3, r1, #1
 8007524:	613b      	str	r3, [r7, #16]
 8007526:	bdf8      	pop	{r3, r4, r5, r6, r7, pc}

08007528 <FLASH_EraseAllSectors>:
 8007528:	b538      	push	{r3, r4, r5, lr}
 800752a:	4604      	mov	r4, r0
 800752c:	f7ff ff28 	bl	8007380 <FLASH_WaitForLastOperation>
 8007530:	4603      	mov	r3, r0
 8007532:	b13c      	cbz	r4, 8007544 <FLASH_EraseAllSectors+0x1c>
 8007534:	2c01      	cmp	r4, #1
 8007536:	d008      	beq.n	800754a <FLASH_EraseAllSectors+0x22>
 8007538:	2c02      	cmp	r4, #2
 800753a:	bf14      	ite	ne
 800753c:	f44f 7440 	movne.w	r4, #768	; 0x300
 8007540:	f44f 7400 	moveq.w	r4, #512	; 0x200
 8007544:	2b08      	cmp	r3, #8
 8007546:	d004      	beq.n	8007552 <FLASH_EraseAllSectors+0x2a>
 8007548:	bd38      	pop	{r3, r4, r5, pc}
 800754a:	2b08      	cmp	r3, #8
 800754c:	f44f 7480 	mov.w	r4, #256	; 0x100
 8007550:	d1fa      	bne.n	8007548 <FLASH_EraseAllSectors+0x20>
 8007552:	f44f 5570 	mov.w	r5, #15360	; 0x3c00
 8007556:	f2c4 0502 	movt	r5, #16386	; 0x4002
 800755a:	692b      	ldr	r3, [r5, #16]
 800755c:	f423 7240 	bic.w	r2, r3, #768	; 0x300
 8007560:	612a      	str	r2, [r5, #16]
 8007562:	6928      	ldr	r0, [r5, #16]
 8007564:	4304      	orrs	r4, r0
 8007566:	612c      	str	r4, [r5, #16]
 8007568:	6929      	ldr	r1, [r5, #16]
 800756a:	f041 0304 	orr.w	r3, r1, #4
 800756e:	612b      	str	r3, [r5, #16]
 8007570:	692a      	ldr	r2, [r5, #16]
 8007572:	f442 3080 	orr.w	r0, r2, #65536	; 0x10000
 8007576:	6128      	str	r0, [r5, #16]
 8007578:	f7ff ff02 	bl	8007380 <FLASH_WaitForLastOperation>
 800757c:	6929      	ldr	r1, [r5, #16]
 800757e:	f021 0304 	bic.w	r3, r1, #4
 8007582:	612b      	str	r3, [r5, #16]
 8007584:	bd38      	pop	{r3, r4, r5, pc}
 8007586:	bf00      	nop

08007588 <FLASH_EraseSector>:
 8007588:	b570      	push	{r4, r5, r6, lr}
 800758a:	4605      	mov	r5, r0
 800758c:	2900      	cmp	r1, #0
 800758e:	d02e      	beq.n	80075ee <FLASH_EraseSector+0x66>
 8007590:	2901      	cmp	r1, #1
 8007592:	d032      	beq.n	80075fa <FLASH_EraseSector+0x72>
 8007594:	2902      	cmp	r1, #2
 8007596:	bf14      	ite	ne
 8007598:	f44f 7640 	movne.w	r6, #768	; 0x300
 800759c:	f44f 7600 	moveq.w	r6, #512	; 0x200
 80075a0:	f7ff feee 	bl	8007380 <FLASH_WaitForLastOperation>
 80075a4:	2808      	cmp	r0, #8
 80075a6:	d127      	bne.n	80075f8 <FLASH_EraseSector+0x70>
 80075a8:	f44f 5470 	mov.w	r4, #15360	; 0x3c00
 80075ac:	f2c4 0402 	movt	r4, #16386	; 0x4002
 80075b0:	6920      	ldr	r0, [r4, #16]
 80075b2:	f420 7340 	bic.w	r3, r0, #768	; 0x300
 80075b6:	6123      	str	r3, [r4, #16]
 80075b8:	6922      	ldr	r2, [r4, #16]
 80075ba:	4316      	orrs	r6, r2
 80075bc:	6126      	str	r6, [r4, #16]
 80075be:	6921      	ldr	r1, [r4, #16]
 80075c0:	f021 00f8 	bic.w	r0, r1, #248	; 0xf8
 80075c4:	6120      	str	r0, [r4, #16]
 80075c6:	6923      	ldr	r3, [r4, #16]
 80075c8:	f043 0202 	orr.w	r2, r3, #2
 80075cc:	4315      	orrs	r5, r2
 80075ce:	6125      	str	r5, [r4, #16]
 80075d0:	6921      	ldr	r1, [r4, #16]
 80075d2:	f441 3080 	orr.w	r0, r1, #65536	; 0x10000
 80075d6:	6120      	str	r0, [r4, #16]
 80075d8:	f7ff fed2 	bl	8007380 <FLASH_WaitForLastOperation>
 80075dc:	6923      	ldr	r3, [r4, #16]
 80075de:	f023 0202 	bic.w	r2, r3, #2
 80075e2:	6122      	str	r2, [r4, #16]
 80075e4:	6921      	ldr	r1, [r4, #16]
 80075e6:	f021 03f8 	bic.w	r3, r1, #248	; 0xf8
 80075ea:	6123      	str	r3, [r4, #16]
 80075ec:	bd70      	pop	{r4, r5, r6, pc}
 80075ee:	460e      	mov	r6, r1
 80075f0:	f7ff fec6 	bl	8007380 <FLASH_WaitForLastOperation>
 80075f4:	2808      	cmp	r0, #8
 80075f6:	d0d7      	beq.n	80075a8 <FLASH_EraseSector+0x20>
 80075f8:	bd70      	pop	{r4, r5, r6, pc}
 80075fa:	f44f 7680 	mov.w	r6, #256	; 0x100
 80075fe:	e7f7      	b.n	80075f0 <FLASH_EraseSector+0x68>

08007600 <NVIC_PriorityGroupConfig>:
 8007600:	f44f 436d 	mov.w	r3, #60672	; 0xed00
 8007604:	f040 61be 	orr.w	r1, r0, #99614720	; 0x5f00000
 8007608:	f2ce 0300 	movt	r3, #57344	; 0xe000
 800760c:	f441 2020 	orr.w	r0, r1, #655360	; 0xa0000
 8007610:	60d8      	str	r0, [r3, #12]
 8007612:	4770      	bx	lr

08007614 <NVIC_Init>:
 8007614:	78c3      	ldrb	r3, [r0, #3]
 8007616:	b430      	push	{r4, r5}
 8007618:	b97b      	cbnz	r3, 800763a <NVIC_Init+0x26>
 800761a:	7800      	ldrb	r0, [r0, #0]
 800761c:	f44f 4c61 	mov.w	ip, #57600	; 0xe100
 8007620:	0941      	lsrs	r1, r0, #5
 8007622:	f000 021f 	and.w	r2, r0, #31
 8007626:	f2ce 0c00 	movt	ip, #57344	; 0xe000
 800762a:	3120      	adds	r1, #32
 800762c:	2301      	movs	r3, #1
 800762e:	fa03 f002 	lsl.w	r0, r3, r2
 8007632:	f84c 0021 	str.w	r0, [ip, r1, lsl #2]
 8007636:	bc30      	pop	{r4, r5}
 8007638:	4770      	bx	lr
 800763a:	f44f 456d 	mov.w	r5, #60672	; 0xed00
 800763e:	f2ce 0500 	movt	r5, #57344	; 0xe000
 8007642:	7842      	ldrb	r2, [r0, #1]
 8007644:	68ec      	ldr	r4, [r5, #12]
 8007646:	7885      	ldrb	r5, [r0, #2]
 8007648:	7801      	ldrb	r1, [r0, #0]
 800764a:	43e3      	mvns	r3, r4
 800764c:	f3c3 2c02 	ubfx	ip, r3, #8, #3
 8007650:	f1cc 0404 	rsb	r4, ip, #4
 8007654:	b2e3      	uxtb	r3, r4
 8007656:	fa02 f403 	lsl.w	r4, r2, r3
 800765a:	220f      	movs	r2, #15
 800765c:	fa42 f30c 	asr.w	r3, r2, ip
 8007660:	ea03 0c05 	and.w	ip, r3, r5
 8007664:	b2e4      	uxtb	r4, r4
 8007666:	f44f 4361 	mov.w	r3, #57600	; 0xe100
 800766a:	ea4c 0204 	orr.w	r2, ip, r4
 800766e:	f2ce 0300 	movt	r3, #57344	; 0xe000
 8007672:	eb01 0c03 	add.w	ip, r1, r3
 8007676:	0112      	lsls	r2, r2, #4
 8007678:	b2d1      	uxtb	r1, r2
 800767a:	f88c 1300 	strb.w	r1, [ip, #768]	; 0x300
 800767e:	7802      	ldrb	r2, [r0, #0]
 8007680:	f44f 4c61 	mov.w	ip, #57600	; 0xe100
 8007684:	0951      	lsrs	r1, r2, #5
 8007686:	f2ce 0c00 	movt	ip, #57344	; 0xe000
 800768a:	f002 031f 	and.w	r3, r2, #31
 800768e:	2001      	movs	r0, #1
 8007690:	fa00 f203 	lsl.w	r2, r0, r3
 8007694:	f84c 2021 	str.w	r2, [ip, r1, lsl #2]
 8007698:	e7cd      	b.n	8007636 <NVIC_Init+0x22>
 800769a:	bf00      	nop

0800769c <NVIC_SetVectorTable>:
 800769c:	f021 4c60 	bic.w	ip, r1, #3758096384	; 0xe0000000
 80076a0:	f44f 436d 	mov.w	r3, #60672	; 0xed00
 80076a4:	f02c 027f 	bic.w	r2, ip, #127	; 0x7f
 80076a8:	f2ce 0300 	movt	r3, #57344	; 0xe000
 80076ac:	ea42 0100 	orr.w	r1, r2, r0
 80076b0:	6099      	str	r1, [r3, #8]
 80076b2:	4770      	bx	lr

080076b4 <NVIC_SystemLPConfig>:
 80076b4:	f44f 436d 	mov.w	r3, #60672	; 0xed00
 80076b8:	f2ce 0300 	movt	r3, #57344	; 0xe000
 80076bc:	691a      	ldr	r2, [r3, #16]
 80076be:	b919      	cbnz	r1, 80076c8 <NVIC_SystemLPConfig+0x14>
 80076c0:	ea22 0100 	bic.w	r1, r2, r0
 80076c4:	6119      	str	r1, [r3, #16]
 80076c6:	4770      	bx	lr
 80076c8:	4310      	orrs	r0, r2
 80076ca:	6118      	str	r0, [r3, #16]
 80076cc:	4770      	bx	lr
 80076ce:	bf00      	nop

080076d0 <SysTick_CLKSourceConfig>:
 80076d0:	f24e 0310 	movw	r3, #57360	; 0xe010
 80076d4:	f2ce 0300 	movt	r3, #57344	; 0xe000
 80076d8:	2804      	cmp	r0, #4
 80076da:	681a      	ldr	r2, [r3, #0]
 80076dc:	bf0c      	ite	eq
 80076de:	f042 0204 	orreq.w	r2, r2, #4
 80076e2:	f022 0204 	bicne.w	r2, r2, #4
 80076e6:	601a      	str	r2, [r3, #0]
 80076e8:	4770      	bx	lr
 80076ea:	bf00      	nop

080076ec <USBD_cdc_GetCfgDesc>:
 80076ec:	2343      	movs	r3, #67	; 0x43
 80076ee:	f240 00b8 	movw	r0, #184	; 0xb8
 80076f2:	f2c2 0000 	movt	r0, #8192	; 0x2000
 80076f6:	800b      	strh	r3, [r1, #0]
 80076f8:	4770      	bx	lr
 80076fa:	bf00      	nop

080076fc <usbd_cdc_SOF>:
 80076fc:	491e      	ldr	r1, [pc, #120]	; (8007778 <usbd_cdc_SOF+0x7c>)
 80076fe:	b538      	push	{r3, r4, r5, lr}
 8007700:	680b      	ldr	r3, [r1, #0]
 8007702:	1c5a      	adds	r2, r3, #1
 8007704:	2b05      	cmp	r3, #5
 8007706:	600a      	str	r2, [r1, #0]
 8007708:	d001      	beq.n	800770e <usbd_cdc_SOF+0x12>
 800770a:	2000      	movs	r0, #0
 800770c:	bd38      	pop	{r3, r4, r5, pc}
 800770e:	f891 c004 	ldrb.w	ip, [r1, #4]
 8007712:	2300      	movs	r3, #0
 8007714:	f1bc 0f01 	cmp.w	ip, #1
 8007718:	600b      	str	r3, [r1, #0]
 800771a:	d0f6      	beq.n	800770a <usbd_cdc_SOF+0xe>
 800771c:	688a      	ldr	r2, [r1, #8]
 800771e:	4c16      	ldr	r4, [pc, #88]	; (8007778 <usbd_cdc_SOF+0x7c>)
 8007720:	f5b2 6f80 	cmp.w	r2, #1024	; 0x400
 8007724:	bf04      	itt	eq
 8007726:	608b      	streq	r3, [r1, #8]
 8007728:	461a      	moveq	r2, r3
 800772a:	68cb      	ldr	r3, [r1, #12]
 800772c:	4293      	cmp	r3, r2
 800772e:	d020      	beq.n	8007772 <usbd_cdc_SOF+0x76>
 8007730:	bf2c      	ite	cs
 8007732:	ebc2 0503 	rsbcs	r5, r2, r3
 8007736:	f5c2 6580 	rsbcc	r5, r2, #1024	; 0x400
 800773a:	6125      	str	r5, [r4, #16]
 800773c:	f8d0 45ec 	ldr.w	r4, [r0, #1516]	; 0x5ec
 8007740:	f8b4 3039 	ldrh.w	r3, [r4, #57]	; 0x39
 8007744:	42ab      	cmp	r3, r5
 8007746:	d20d      	bcs.n	8007764 <usbd_cdc_SOF+0x68>
 8007748:	18d4      	adds	r4, r2, r3
 800774a:	1aed      	subs	r5, r5, r3
 800774c:	b292      	uxth	r2, r2
 800774e:	608c      	str	r4, [r1, #8]
 8007750:	610d      	str	r5, [r1, #16]
 8007752:	4c0a      	ldr	r4, [pc, #40]	; (800777c <usbd_cdc_SOF+0x80>)
 8007754:	1912      	adds	r2, r2, r4
 8007756:	2401      	movs	r4, #1
 8007758:	710c      	strb	r4, [r1, #4]
 800775a:	2181      	movs	r1, #129	; 0x81
 800775c:	f001 fc14 	bl	8008f88 <DCD_EP_Tx>
 8007760:	2000      	movs	r0, #0
 8007762:	bd38      	pop	{r3, r4, r5, pc}
 8007764:	18ac      	adds	r4, r5, r2
 8007766:	2300      	movs	r3, #0
 8007768:	610b      	str	r3, [r1, #16]
 800776a:	b292      	uxth	r2, r2
 800776c:	608c      	str	r4, [r1, #8]
 800776e:	b2ab      	uxth	r3, r5
 8007770:	e7ef      	b.n	8007752 <usbd_cdc_SOF+0x56>
 8007772:	2000      	movs	r0, #0
 8007774:	7120      	strb	r0, [r4, #4]
 8007776:	e7c8      	b.n	800770a <usbd_cdc_SOF+0xe>
 8007778:	200006bc 			; <UNDEFINED> instruction: 0x200006bc
 800777c:	20001244 	andcs	r1, r0, r4, asr #4

08007780 <usbd_cdc_DataOut>:
 8007780:	b538      	push	{r3, r4, r5, lr}
 8007782:	eb01 0481 	add.w	r4, r1, r1, lsl #2
 8007786:	4605      	mov	r5, r0
 8007788:	eb00 01c4 	add.w	r1, r0, r4, lsl #3
 800778c:	f240 0030 	movw	r0, #48	; 0x30
 8007790:	f2c2 0000 	movt	r0, #8192	; 0x2000
 8007794:	f241 14fc 	movw	r4, #4604	; 0x11fc
 8007798:	f2c2 0400 	movt	r4, #8192	; 0x2000
 800779c:	6902      	ldr	r2, [r0, #16]
 800779e:	f8b1 1388 	ldrh.w	r1, [r1, #904]	; 0x388
 80077a2:	4620      	mov	r0, r4
 80077a4:	4790      	blx	r2
 80077a6:	f8d5 35ec 	ldr.w	r3, [r5, #1516]	; 0x5ec
 80077aa:	4628      	mov	r0, r5
 80077ac:	f8b3 3040 	ldrh.w	r3, [r3, #64]	; 0x40
 80077b0:	2101      	movs	r1, #1
 80077b2:	4622      	mov	r2, r4
 80077b4:	f001 fbca 	bl	8008f4c <DCD_EP_PrepareRx>
 80077b8:	2000      	movs	r0, #0
 80077ba:	bd38      	pop	{r3, r4, r5, pc}

080077bc <usbd_cdc_Setup>:
 80077bc:	b570      	push	{r4, r5, r6, lr}
 80077be:	780b      	ldrb	r3, [r1, #0]
 80077c0:	f013 0660 	ands.w	r6, r3, #96	; 0x60
 80077c4:	460c      	mov	r4, r1
 80077c6:	4605      	mov	r5, r0
 80077c8:	d108      	bne.n	80077dc <usbd_cdc_Setup+0x20>
 80077ca:	784b      	ldrb	r3, [r1, #1]
 80077cc:	2b0a      	cmp	r3, #10
 80077ce:	d01c      	beq.n	800780a <usbd_cdc_Setup+0x4e>
 80077d0:	2b0b      	cmp	r3, #11
 80077d2:	d02d      	beq.n	8007830 <usbd_cdc_Setup+0x74>
 80077d4:	2b06      	cmp	r3, #6
 80077d6:	d031      	beq.n	800783c <usbd_cdc_Setup+0x80>
 80077d8:	4630      	mov	r0, r6
 80077da:	bd70      	pop	{r4, r5, r6, pc}
 80077dc:	2e20      	cmp	r6, #32
 80077de:	d003      	beq.n	80077e8 <usbd_cdc_Setup+0x2c>
 80077e0:	f000 fa94 	bl	8007d0c <USBD_CtlError>
 80077e4:	2002      	movs	r0, #2
 80077e6:	bd70      	pop	{r4, r5, r6, pc}
 80077e8:	88ce      	ldrh	r6, [r1, #6]
 80077ea:	2e00      	cmp	r6, #0
 80077ec:	d034      	beq.n	8007858 <usbd_cdc_Setup+0x9c>
 80077ee:	061b      	lsls	r3, r3, #24
 80077f0:	d411      	bmi.n	8007816 <usbd_cdc_Setup+0x5a>
 80077f2:	7848      	ldrb	r0, [r1, #1]
 80077f4:	4a1e      	ldr	r2, [pc, #120]	; (8007870 <usbd_cdc_Setup+0xb4>)
 80077f6:	4b1f      	ldr	r3, [pc, #124]	; (8007874 <usbd_cdc_Setup+0xb8>)
 80077f8:	6450      	str	r0, [r2, #68]	; 0x44
 80077fa:	491f      	ldr	r1, [pc, #124]	; (8007878 <usbd_cdc_Setup+0xbc>)
 80077fc:	615e      	str	r6, [r3, #20]
 80077fe:	4628      	mov	r0, r5
 8007800:	4632      	mov	r2, r6
 8007802:	f000 fa1b 	bl	8007c3c <USBD_CtlPrepareRx>
 8007806:	2000      	movs	r0, #0
 8007808:	bd70      	pop	{r4, r5, r6, pc}
 800780a:	491c      	ldr	r1, [pc, #112]	; (800787c <usbd_cdc_Setup+0xc0>)
 800780c:	2201      	movs	r2, #1
 800780e:	f000 f9fb 	bl	8007c08 <USBD_CtlSendData>
 8007812:	4630      	mov	r0, r6
 8007814:	bd70      	pop	{r4, r5, r6, pc}
 8007816:	4a1a      	ldr	r2, [pc, #104]	; (8007880 <usbd_cdc_Setup+0xc4>)
 8007818:	7848      	ldrb	r0, [r1, #1]
 800781a:	6893      	ldr	r3, [r2, #8]
 800781c:	4916      	ldr	r1, [pc, #88]	; (8007878 <usbd_cdc_Setup+0xbc>)
 800781e:	4632      	mov	r2, r6
 8007820:	4798      	blx	r3
 8007822:	88e2      	ldrh	r2, [r4, #6]
 8007824:	4914      	ldr	r1, [pc, #80]	; (8007878 <usbd_cdc_Setup+0xbc>)
 8007826:	4628      	mov	r0, r5
 8007828:	f000 f9ee 	bl	8007c08 <USBD_CtlSendData>
 800782c:	2000      	movs	r0, #0
 800782e:	bd70      	pop	{r4, r5, r6, pc}
 8007830:	788b      	ldrb	r3, [r1, #2]
 8007832:	b9cb      	cbnz	r3, 8007868 <usbd_cdc_Setup+0xac>
 8007834:	4a0f      	ldr	r2, [pc, #60]	; (8007874 <usbd_cdc_Setup+0xb8>)
 8007836:	4618      	mov	r0, r3
 8007838:	6193      	str	r3, [r2, #24]
 800783a:	bd70      	pop	{r4, r5, r6, pc}
 800783c:	884b      	ldrh	r3, [r1, #2]
 800783e:	0a18      	lsrs	r0, r3, #8
 8007840:	2821      	cmp	r0, #33	; 0x21
 8007842:	d103      	bne.n	800784c <usbd_cdc_Setup+0x90>
 8007844:	88ca      	ldrh	r2, [r1, #6]
 8007846:	2a3a      	cmp	r2, #58	; 0x3a
 8007848:	bf28      	it	cs
 800784a:	223a      	movcs	r2, #58	; 0x3a
 800784c:	4628      	mov	r0, r5
 800784e:	490d      	ldr	r1, [pc, #52]	; (8007884 <usbd_cdc_Setup+0xc8>)
 8007850:	f000 f9da 	bl	8007c08 <USBD_CtlSendData>
 8007854:	2000      	movs	r0, #0
 8007856:	bd70      	pop	{r4, r5, r6, pc}
 8007858:	7848      	ldrb	r0, [r1, #1]
 800785a:	4909      	ldr	r1, [pc, #36]	; (8007880 <usbd_cdc_Setup+0xc4>)
 800785c:	4632      	mov	r2, r6
 800785e:	688b      	ldr	r3, [r1, #8]
 8007860:	4631      	mov	r1, r6
 8007862:	4798      	blx	r3
 8007864:	4630      	mov	r0, r6
 8007866:	bd70      	pop	{r4, r5, r6, pc}
 8007868:	f000 fa50 	bl	8007d0c <USBD_CtlError>
 800786c:	4630      	mov	r0, r6
 800786e:	bd70      	pop	{r4, r5, r6, pc}
 8007870:	200000b8 	strhcs	r0, [r0], -r8
 8007874:	200006bc 			; <UNDEFINED> instruction: 0x200006bc
 8007878:	2000123c 	andcs	r1, r0, ip, lsr r2
 800787c:	200006d4 	ldrdcs	r0, [r0], -r4
 8007880:	20000030 	andcs	r0, r0, r0, lsr r0
 8007884:	200000ca 	andcs	r0, r0, sl, asr #1

08007888 <usbd_cdc_DeInit>:
 8007888:	b510      	push	{r4, lr}
 800788a:	2181      	movs	r1, #129	; 0x81
 800788c:	4604      	mov	r4, r0
 800788e:	f001 fb47 	bl	8008f20 <DCD_EP_Close>
 8007892:	2101      	movs	r1, #1
 8007894:	4620      	mov	r0, r4
 8007896:	f001 fb43 	bl	8008f20 <DCD_EP_Close>
 800789a:	2182      	movs	r1, #130	; 0x82
 800789c:	4620      	mov	r0, r4
 800789e:	f001 fb3f 	bl	8008f20 <DCD_EP_Close>
 80078a2:	f240 0030 	movw	r0, #48	; 0x30
 80078a6:	f2c2 0000 	movt	r0, #8192	; 0x2000
 80078aa:	6843      	ldr	r3, [r0, #4]
 80078ac:	4798      	blx	r3
 80078ae:	2000      	movs	r0, #0
 80078b0:	bd10      	pop	{r4, pc}
 80078b2:	bf00      	nop

080078b4 <usbd_cdc_Init>:
 80078b4:	b538      	push	{r3, r4, r5, lr}
 80078b6:	f8d0 35ec 	ldr.w	r3, [r0, #1516]	; 0x5ec
 80078ba:	4604      	mov	r4, r0
 80078bc:	2181      	movs	r1, #129	; 0x81
 80078be:	f8b3 2039 	ldrh.w	r2, [r3, #57]	; 0x39
 80078c2:	2302      	movs	r3, #2
 80078c4:	f001 fb0c 	bl	8008ee0 <DCD_EP_Open>
 80078c8:	f8d4 55ec 	ldr.w	r5, [r4, #1516]	; 0x5ec
 80078cc:	2101      	movs	r1, #1
 80078ce:	f8b5 2040 	ldrh.w	r2, [r5, #64]	; 0x40
 80078d2:	2302      	movs	r3, #2
 80078d4:	4620      	mov	r0, r4
 80078d6:	f001 fb03 	bl	8008ee0 <DCD_EP_Open>
 80078da:	2303      	movs	r3, #3
 80078dc:	2182      	movs	r1, #130	; 0x82
 80078de:	2208      	movs	r2, #8
 80078e0:	4620      	mov	r0, r4
 80078e2:	f001 fafd 	bl	8008ee0 <DCD_EP_Open>
 80078e6:	f240 0c44 	movw	ip, #68	; 0x44
 80078ea:	f240 0230 	movw	r2, #48	; 0x30
 80078ee:	f2c2 0c00 	movt	ip, #8192	; 0x2000
 80078f2:	f2c2 0200 	movt	r2, #8192	; 0x2000
 80078f6:	2102      	movs	r1, #2
 80078f8:	2500      	movs	r5, #0
 80078fa:	f88c 1004 	strb.w	r1, [ip, #4]
 80078fe:	f88c 5005 	strb.w	r5, [ip, #5]
 8007902:	6810      	ldr	r0, [r2, #0]
 8007904:	4780      	blx	r0
 8007906:	f8d4 35ec 	ldr.w	r3, [r4, #1516]	; 0x5ec
 800790a:	f241 12fc 	movw	r2, #4604	; 0x11fc
 800790e:	f8b3 3040 	ldrh.w	r3, [r3, #64]	; 0x40
 8007912:	f2c2 0200 	movt	r2, #8192	; 0x2000
 8007916:	4620      	mov	r0, r4
 8007918:	2101      	movs	r1, #1
 800791a:	f001 fb17 	bl	8008f4c <DCD_EP_PrepareRx>
 800791e:	4628      	mov	r0, r5
 8007920:	bd38      	pop	{r3, r4, r5, pc}
 8007922:	bf00      	nop

08007924 <usbd_cdc_EP0_RxReady>:
 8007924:	b510      	push	{r4, lr}
 8007926:	4c07      	ldr	r4, [pc, #28]	; (8007944 <usbd_cdc_EP0_RxReady+0x20>)
 8007928:	6c60      	ldr	r0, [r4, #68]	; 0x44
 800792a:	28ff      	cmp	r0, #255	; 0xff
 800792c:	d007      	beq.n	800793e <usbd_cdc_EP0_RxReady+0x1a>
 800792e:	4906      	ldr	r1, [pc, #24]	; (8007948 <usbd_cdc_EP0_RxReady+0x24>)
 8007930:	4a06      	ldr	r2, [pc, #24]	; (800794c <usbd_cdc_EP0_RxReady+0x28>)
 8007932:	688b      	ldr	r3, [r1, #8]
 8007934:	6952      	ldr	r2, [r2, #20]
 8007936:	4906      	ldr	r1, [pc, #24]	; (8007950 <usbd_cdc_EP0_RxReady+0x2c>)
 8007938:	4798      	blx	r3
 800793a:	23ff      	movs	r3, #255	; 0xff
 800793c:	6463      	str	r3, [r4, #68]	; 0x44
 800793e:	2000      	movs	r0, #0
 8007940:	bd10      	pop	{r4, pc}
 8007942:	bf00      	nop
 8007944:	200000b8 	strhcs	r0, [r0], -r8
 8007948:	20000030 	andcs	r0, r0, r0, lsr r0
 800794c:	200006bc 			; <UNDEFINED> instruction: 0x200006bc
 8007950:	2000123c 	andcs	r1, r0, ip, lsr r2

08007954 <usbd_cdc_DataIn>:
 8007954:	b538      	push	{r3, r4, r5, lr}
 8007956:	4912      	ldr	r1, [pc, #72]	; (80079a0 <usbd_cdc_DataIn+0x4c>)
 8007958:	790b      	ldrb	r3, [r1, #4]
 800795a:	2b01      	cmp	r3, #1
 800795c:	d001      	beq.n	8007962 <usbd_cdc_DataIn+0xe>
 800795e:	2000      	movs	r0, #0
 8007960:	bd38      	pop	{r3, r4, r5, pc}
 8007962:	690c      	ldr	r4, [r1, #16]
 8007964:	b1cc      	cbz	r4, 800799a <usbd_cdc_DataIn+0x46>
 8007966:	f8d0 25ec 	ldr.w	r2, [r0, #1516]	; 0x5ec
 800796a:	f8b2 3039 	ldrh.w	r3, [r2, #57]	; 0x39
 800796e:	688a      	ldr	r2, [r1, #8]
 8007970:	429c      	cmp	r4, r3
 8007972:	d80c      	bhi.n	800798e <usbd_cdc_DataIn+0x3a>
 8007974:	1913      	adds	r3, r2, r4
 8007976:	608b      	str	r3, [r1, #8]
 8007978:	2300      	movs	r3, #0
 800797a:	610b      	str	r3, [r1, #16]
 800797c:	b292      	uxth	r2, r2
 800797e:	b2a3      	uxth	r3, r4
 8007980:	4908      	ldr	r1, [pc, #32]	; (80079a4 <usbd_cdc_DataIn+0x50>)
 8007982:	1852      	adds	r2, r2, r1
 8007984:	2181      	movs	r1, #129	; 0x81
 8007986:	f001 faff 	bl	8008f88 <DCD_EP_Tx>
 800798a:	2000      	movs	r0, #0
 800798c:	bd38      	pop	{r3, r4, r5, pc}
 800798e:	189d      	adds	r5, r3, r2
 8007990:	1ae4      	subs	r4, r4, r3
 8007992:	b292      	uxth	r2, r2
 8007994:	608d      	str	r5, [r1, #8]
 8007996:	610c      	str	r4, [r1, #16]
 8007998:	e7f2      	b.n	8007980 <usbd_cdc_DataIn+0x2c>
 800799a:	710c      	strb	r4, [r1, #4]
 800799c:	2000      	movs	r0, #0
 800799e:	bd38      	pop	{r3, r4, r5, pc}
 80079a0:	200006bc 			; <UNDEFINED> instruction: 0x200006bc
 80079a4:	20001244 	andcs	r1, r0, r4, asr #4

080079a8 <USBD_Resume>:
 80079a8:	f8d0 15e4 	ldr.w	r1, [r0, #1508]	; 0x5e4
 80079ac:	b510      	push	{r4, lr}
 80079ae:	4604      	mov	r4, r0
 80079b0:	6908      	ldr	r0, [r1, #16]
 80079b2:	4780      	blx	r0
 80079b4:	2303      	movs	r3, #3
 80079b6:	f884 3112 	strb.w	r3, [r4, #274]	; 0x112
 80079ba:	2000      	movs	r0, #0
 80079bc:	bd10      	pop	{r4, pc}
 80079be:	bf00      	nop

080079c0 <USBD_Suspend>:
 80079c0:	f8d0 15e4 	ldr.w	r1, [r0, #1508]	; 0x5e4
 80079c4:	2204      	movs	r2, #4
 80079c6:	b508      	push	{r3, lr}
 80079c8:	f880 2112 	strb.w	r2, [r0, #274]	; 0x112
 80079cc:	68cb      	ldr	r3, [r1, #12]
 80079ce:	4798      	blx	r3
 80079d0:	2000      	movs	r0, #0
 80079d2:	bd08      	pop	{r3, pc}

080079d4 <USBD_SOF>:
 80079d4:	b508      	push	{r3, lr}
 80079d6:	f8d0 35e0 	ldr.w	r3, [r0, #1504]	; 0x5e0
 80079da:	69db      	ldr	r3, [r3, #28]
 80079dc:	b103      	cbz	r3, 80079e0 <USBD_SOF+0xc>
 80079de:	4798      	blx	r3
 80079e0:	2000      	movs	r0, #0
 80079e2:	bd08      	pop	{r3, pc}

080079e4 <USBD_IsoINIncomplete>:
 80079e4:	4602      	mov	r2, r0
 80079e6:	b508      	push	{r3, lr}
 80079e8:	f8d2 15e0 	ldr.w	r1, [r2, #1504]	; 0x5e0
 80079ec:	6a0b      	ldr	r3, [r1, #32]
 80079ee:	4798      	blx	r3
 80079f0:	2000      	movs	r0, #0
 80079f2:	bd08      	pop	{r3, pc}

080079f4 <USBD_IsoOUTIncomplete>:
 80079f4:	4602      	mov	r2, r0
 80079f6:	b508      	push	{r3, lr}
 80079f8:	f8d2 15e0 	ldr.w	r1, [r2, #1504]	; 0x5e0
 80079fc:	6a4b      	ldr	r3, [r1, #36]	; 0x24
 80079fe:	4798      	blx	r3
 8007a00:	2000      	movs	r0, #0
 8007a02:	bd08      	pop	{r3, pc}

08007a04 <USBD_Reset>:
 8007a04:	2100      	movs	r1, #0
 8007a06:	b510      	push	{r4, lr}
 8007a08:	2208      	movs	r2, #8
 8007a0a:	4604      	mov	r4, r0
 8007a0c:	460b      	mov	r3, r1
 8007a0e:	f001 fa67 	bl	8008ee0 <DCD_EP_Open>
 8007a12:	2180      	movs	r1, #128	; 0x80
 8007a14:	2208      	movs	r2, #8
 8007a16:	2300      	movs	r3, #0
 8007a18:	4620      	mov	r0, r4
 8007a1a:	f001 fa61 	bl	8008ee0 <DCD_EP_Open>
 8007a1e:	f8d4 15e4 	ldr.w	r1, [r4, #1508]	; 0x5e4
 8007a22:	78a0      	ldrb	r0, [r4, #2]
 8007a24:	2201      	movs	r2, #1
 8007a26:	f884 2112 	strb.w	r2, [r4, #274]	; 0x112
 8007a2a:	684b      	ldr	r3, [r1, #4]
 8007a2c:	4798      	blx	r3
 8007a2e:	2000      	movs	r0, #0
 8007a30:	bd10      	pop	{r4, pc}
 8007a32:	bf00      	nop

08007a34 <USBD_SetupStage>:
 8007a34:	b510      	push	{r4, lr}
 8007a36:	b082      	sub	sp, #8
 8007a38:	4669      	mov	r1, sp
 8007a3a:	4604      	mov	r4, r0
 8007a3c:	f000 f940 	bl	8007cc0 <USBD_ParseSetupRequest>
 8007a40:	f89d 1000 	ldrb.w	r1, [sp]
 8007a44:	f001 031f 	and.w	r3, r1, #31
 8007a48:	2b01      	cmp	r3, #1
 8007a4a:	d015      	beq.n	8007a78 <USBD_SetupStage+0x44>
 8007a4c:	2b02      	cmp	r3, #2
 8007a4e:	d00e      	beq.n	8007a6e <USBD_SetupStage+0x3a>
 8007a50:	b143      	cbz	r3, 8007a64 <USBD_SetupStage+0x30>
 8007a52:	f021 017f 	bic.w	r1, r1, #127	; 0x7f
 8007a56:	b2c9      	uxtb	r1, r1
 8007a58:	4620      	mov	r0, r4
 8007a5a:	f001 fab1 	bl	8008fc0 <DCD_EP_Stall>
 8007a5e:	2000      	movs	r0, #0
 8007a60:	b002      	add	sp, #8
 8007a62:	bd10      	pop	{r4, pc}
 8007a64:	4620      	mov	r0, r4
 8007a66:	4669      	mov	r1, sp
 8007a68:	f000 f9f6 	bl	8007e58 <USBD_StdDevReq>
 8007a6c:	e7f7      	b.n	8007a5e <USBD_SetupStage+0x2a>
 8007a6e:	4620      	mov	r0, r4
 8007a70:	4669      	mov	r1, sp
 8007a72:	f000 f963 	bl	8007d3c <USBD_StdEPReq>
 8007a76:	e7f2      	b.n	8007a5e <USBD_SetupStage+0x2a>
 8007a78:	4620      	mov	r0, r4
 8007a7a:	4669      	mov	r1, sp
 8007a7c:	f000 f9d0 	bl	8007e20 <USBD_StdItfReq>
 8007a80:	e7ed      	b.n	8007a5e <USBD_SetupStage+0x2a>
 8007a82:	bf00      	nop

08007a84 <USBD_DataInStage>:
 8007a84:	b538      	push	{r3, r4, r5, lr}
 8007a86:	4604      	mov	r4, r0
 8007a88:	b929      	cbnz	r1, 8007a96 <USBD_DataInStage+0x12>
 8007a8a:	f890 3111 	ldrb.w	r3, [r0, #273]	; 0x111
 8007a8e:	2b02      	cmp	r3, #2
 8007a90:	d00d      	beq.n	8007aae <USBD_DataInStage+0x2a>
 8007a92:	2000      	movs	r0, #0
 8007a94:	bd38      	pop	{r3, r4, r5, pc}
 8007a96:	f8d0 25e0 	ldr.w	r2, [r0, #1504]	; 0x5e0
 8007a9a:	6953      	ldr	r3, [r2, #20]
 8007a9c:	2b00      	cmp	r3, #0
 8007a9e:	d0f8      	beq.n	8007a92 <USBD_DataInStage+0xe>
 8007aa0:	f890 0112 	ldrb.w	r0, [r0, #274]	; 0x112
 8007aa4:	2803      	cmp	r0, #3
 8007aa6:	d1f4      	bne.n	8007a92 <USBD_DataInStage+0xe>
 8007aa8:	4620      	mov	r0, r4
 8007aaa:	4798      	blx	r3
 8007aac:	e7f1      	b.n	8007a92 <USBD_DataInStage+0xe>
 8007aae:	f8d0 2134 	ldr.w	r2, [r0, #308]	; 0x134
 8007ab2:	f8d0 3120 	ldr.w	r3, [r0, #288]	; 0x120
 8007ab6:	429a      	cmp	r2, r3
 8007ab8:	d910      	bls.n	8007adc <USBD_DataInStage+0x58>
 8007aba:	78c1      	ldrb	r1, [r0, #3]
 8007abc:	2901      	cmp	r1, #1
 8007abe:	f8d0 1124 	ldr.w	r1, [r0, #292]	; 0x124
 8007ac2:	ebc3 0202 	rsb	r2, r3, r2
 8007ac6:	bf08      	it	eq
 8007ac8:	18c9      	addeq	r1, r1, r3
 8007aca:	f8c0 2134 	str.w	r2, [r0, #308]	; 0x134
 8007ace:	bf08      	it	eq
 8007ad0:	f8c0 1124 	streq.w	r1, [r0, #292]	; 0x124
 8007ad4:	b292      	uxth	r2, r2
 8007ad6:	f000 f8a7 	bl	8007c28 <USBD_CtlContinueSendData>
 8007ada:	e7da      	b.n	8007a92 <USBD_DataInStage+0xe>
 8007adc:	f8d0 2138 	ldr.w	r2, [r0, #312]	; 0x138
 8007ae0:	fbb2 f5f3 	udiv	r5, r2, r3
 8007ae4:	fb03 2515 	mls	r5, r3, r5, r2
 8007ae8:	b96d      	cbnz	r5, 8007b06 <USBD_DataInStage+0x82>
 8007aea:	4293      	cmp	r3, r2
 8007aec:	d80b      	bhi.n	8007b06 <USBD_DataInStage+0x82>
 8007aee:	f8d0 013c 	ldr.w	r0, [r0, #316]	; 0x13c
 8007af2:	4282      	cmp	r2, r0
 8007af4:	d207      	bcs.n	8007b06 <USBD_DataInStage+0x82>
 8007af6:	4620      	mov	r0, r4
 8007af8:	4629      	mov	r1, r5
 8007afa:	462a      	mov	r2, r5
 8007afc:	f000 f894 	bl	8007c28 <USBD_CtlContinueSendData>
 8007b00:	f8c4 513c 	str.w	r5, [r4, #316]	; 0x13c
 8007b04:	e7c5      	b.n	8007a92 <USBD_DataInStage+0xe>
 8007b06:	f8d4 35e0 	ldr.w	r3, [r4, #1504]	; 0x5e0
 8007b0a:	68db      	ldr	r3, [r3, #12]
 8007b0c:	b123      	cbz	r3, 8007b18 <USBD_DataInStage+0x94>
 8007b0e:	f894 c112 	ldrb.w	ip, [r4, #274]	; 0x112
 8007b12:	f1bc 0f03 	cmp.w	ip, #3
 8007b16:	d003      	beq.n	8007b20 <USBD_DataInStage+0x9c>
 8007b18:	4620      	mov	r0, r4
 8007b1a:	f000 f8b9 	bl	8007c90 <USBD_CtlReceiveStatus>
 8007b1e:	e7b8      	b.n	8007a92 <USBD_DataInStage+0xe>
 8007b20:	4620      	mov	r0, r4
 8007b22:	4798      	blx	r3
 8007b24:	e7f8      	b.n	8007b18 <USBD_DataInStage+0x94>
 8007b26:	bf00      	nop

08007b28 <USBD_DataOutStage>:
 8007b28:	b510      	push	{r4, lr}
 8007b2a:	4604      	mov	r4, r0
 8007b2c:	b929      	cbnz	r1, 8007b3a <USBD_DataOutStage+0x12>
 8007b2e:	f890 3111 	ldrb.w	r3, [r0, #273]	; 0x111
 8007b32:	2b03      	cmp	r3, #3
 8007b34:	d00c      	beq.n	8007b50 <USBD_DataOutStage+0x28>
 8007b36:	2000      	movs	r0, #0
 8007b38:	bd10      	pop	{r4, pc}
 8007b3a:	f8d0 35e0 	ldr.w	r3, [r0, #1504]	; 0x5e0
 8007b3e:	699b      	ldr	r3, [r3, #24]
 8007b40:	2b00      	cmp	r3, #0
 8007b42:	d0f8      	beq.n	8007b36 <USBD_DataOutStage+0xe>
 8007b44:	f890 2112 	ldrb.w	r2, [r0, #274]	; 0x112
 8007b48:	2a03      	cmp	r2, #3
 8007b4a:	d1f4      	bne.n	8007b36 <USBD_DataOutStage+0xe>
 8007b4c:	4798      	blx	r3
 8007b4e:	e7f2      	b.n	8007b36 <USBD_DataOutStage+0xe>
 8007b50:	f8d0 238c 	ldr.w	r2, [r0, #908]	; 0x38c
 8007b54:	f8d0 3378 	ldr.w	r3, [r0, #888]	; 0x378
 8007b58:	429a      	cmp	r2, r3
 8007b5a:	d912      	bls.n	8007b82 <USBD_DataOutStage+0x5a>
 8007b5c:	78c1      	ldrb	r1, [r0, #3]
 8007b5e:	2901      	cmp	r1, #1
 8007b60:	f8d0 137c 	ldr.w	r1, [r0, #892]	; 0x37c
 8007b64:	ebc3 0202 	rsb	r2, r3, r2
 8007b68:	bf04      	itt	eq
 8007b6a:	18c9      	addeq	r1, r1, r3
 8007b6c:	f8c0 137c 	streq.w	r1, [r0, #892]	; 0x37c
 8007b70:	f8c0 238c 	str.w	r2, [r0, #908]	; 0x38c
 8007b74:	429a      	cmp	r2, r3
 8007b76:	bf28      	it	cs
 8007b78:	461a      	movcs	r2, r3
 8007b7a:	b292      	uxth	r2, r2
 8007b7c:	f000 f86e 	bl	8007c5c <USBD_CtlContinueRx>
 8007b80:	e7d9      	b.n	8007b36 <USBD_DataOutStage+0xe>
 8007b82:	f8d0 05e0 	ldr.w	r0, [r0, #1504]	; 0x5e0
 8007b86:	6903      	ldr	r3, [r0, #16]
 8007b88:	b123      	cbz	r3, 8007b94 <USBD_DataOutStage+0x6c>
 8007b8a:	f894 c112 	ldrb.w	ip, [r4, #274]	; 0x112
 8007b8e:	f1bc 0f03 	cmp.w	ip, #3
 8007b92:	d003      	beq.n	8007b9c <USBD_DataOutStage+0x74>
 8007b94:	4620      	mov	r0, r4
 8007b96:	f000 f86b 	bl	8007c70 <USBD_CtlSendStatus>
 8007b9a:	e7cc      	b.n	8007b36 <USBD_DataOutStage+0xe>
 8007b9c:	4620      	mov	r0, r4
 8007b9e:	4798      	blx	r3
 8007ba0:	e7f8      	b.n	8007b94 <USBD_DataOutStage+0x6c>
 8007ba2:	bf00      	nop

08007ba4 <USBD_Init>:
 8007ba4:	e92d 41f0 	stmdb	sp!, {r4, r5, r6, r7, r8, lr}
 8007ba8:	9d06      	ldr	r5, [sp, #24]
 8007baa:	4604      	mov	r4, r0
 8007bac:	4616      	mov	r6, r2
 8007bae:	461f      	mov	r7, r3
 8007bb0:	4688      	mov	r8, r1
 8007bb2:	f7fb fcd5 	bl	8003560 <USB_OTG_BSP_Init>
 8007bb6:	4641      	mov	r1, r8
 8007bb8:	4620      	mov	r0, r4
 8007bba:	f8c4 75e0 	str.w	r7, [r4, #1504]	; 0x5e0
 8007bbe:	f8c4 55e4 	str.w	r5, [r4, #1508]	; 0x5e4
 8007bc2:	f8c4 65e8 	str.w	r6, [r4, #1512]	; 0x5e8
 8007bc6:	f001 f935 	bl	8008e34 <DCD_Init>
 8007bca:	f8d4 05e4 	ldr.w	r0, [r4, #1508]	; 0x5e4
 8007bce:	6803      	ldr	r3, [r0, #0]
 8007bd0:	4798      	blx	r3
 8007bd2:	4620      	mov	r0, r4
 8007bd4:	e8bd 41f0 	ldmia.w	sp!, {r4, r5, r6, r7, r8, lr}
 8007bd8:	f7fb bd14 	b.w	8003604 <USB_OTG_BSP_EnableInterrupt>

08007bdc <USBD_DeInit>:
 8007bdc:	2000      	movs	r0, #0
 8007bde:	4770      	bx	lr

08007be0 <USBD_SetCfg>:
 8007be0:	f8d0 35e0 	ldr.w	r3, [r0, #1504]	; 0x5e0
 8007be4:	b510      	push	{r4, lr}
 8007be6:	4604      	mov	r4, r0
 8007be8:	681a      	ldr	r2, [r3, #0]
 8007bea:	4790      	blx	r2
 8007bec:	f8d4 05e4 	ldr.w	r0, [r4, #1508]	; 0x5e4
 8007bf0:	6883      	ldr	r3, [r0, #8]
 8007bf2:	4798      	blx	r3
 8007bf4:	2000      	movs	r0, #0
 8007bf6:	bd10      	pop	{r4, pc}

08007bf8 <USBD_ClrCfg>:
 8007bf8:	f8d0 25e0 	ldr.w	r2, [r0, #1504]	; 0x5e0
 8007bfc:	b508      	push	{r3, lr}
 8007bfe:	6853      	ldr	r3, [r2, #4]
 8007c00:	4798      	blx	r3
 8007c02:	2000      	movs	r0, #0
 8007c04:	bd08      	pop	{r3, pc}
 8007c06:	bf00      	nop

08007c08 <USBD_CtlSendData>:
 8007c08:	b508      	push	{r3, lr}
 8007c0a:	4613      	mov	r3, r2
 8007c0c:	460a      	mov	r2, r1
 8007c0e:	2102      	movs	r1, #2
 8007c10:	f8c0 3138 	str.w	r3, [r0, #312]	; 0x138
 8007c14:	f8c0 3134 	str.w	r3, [r0, #308]	; 0x134
 8007c18:	f880 1111 	strb.w	r1, [r0, #273]	; 0x111
 8007c1c:	2100      	movs	r1, #0
 8007c1e:	f001 f9b3 	bl	8008f88 <DCD_EP_Tx>
 8007c22:	2000      	movs	r0, #0
 8007c24:	bd08      	pop	{r3, pc}
 8007c26:	bf00      	nop

08007c28 <USBD_CtlContinueSendData>:
 8007c28:	b510      	push	{r4, lr}
 8007c2a:	460c      	mov	r4, r1
 8007c2c:	4613      	mov	r3, r2
 8007c2e:	2100      	movs	r1, #0
 8007c30:	4622      	mov	r2, r4
 8007c32:	f001 f9a9 	bl	8008f88 <DCD_EP_Tx>
 8007c36:	2000      	movs	r0, #0
 8007c38:	bd10      	pop	{r4, pc}
 8007c3a:	bf00      	nop

08007c3c <USBD_CtlPrepareRx>:
 8007c3c:	b508      	push	{r3, lr}
 8007c3e:	4613      	mov	r3, r2
 8007c40:	460a      	mov	r2, r1
 8007c42:	2103      	movs	r1, #3
 8007c44:	f8c0 3390 	str.w	r3, [r0, #912]	; 0x390
 8007c48:	f8c0 338c 	str.w	r3, [r0, #908]	; 0x38c
 8007c4c:	f880 1111 	strb.w	r1, [r0, #273]	; 0x111
 8007c50:	2100      	movs	r1, #0
 8007c52:	f001 f97b 	bl	8008f4c <DCD_EP_PrepareRx>
 8007c56:	2000      	movs	r0, #0
 8007c58:	bd08      	pop	{r3, pc}
 8007c5a:	bf00      	nop

08007c5c <USBD_CtlContinueRx>:
 8007c5c:	b510      	push	{r4, lr}
 8007c5e:	460c      	mov	r4, r1
 8007c60:	4613      	mov	r3, r2
 8007c62:	2100      	movs	r1, #0
 8007c64:	4622      	mov	r2, r4
 8007c66:	f001 f971 	bl	8008f4c <DCD_EP_PrepareRx>
 8007c6a:	2000      	movs	r0, #0
 8007c6c:	bd10      	pop	{r4, pc}
 8007c6e:	bf00      	nop

08007c70 <USBD_CtlSendStatus>:
 8007c70:	b510      	push	{r4, lr}
 8007c72:	4604      	mov	r4, r0
 8007c74:	2100      	movs	r1, #0
 8007c76:	2004      	movs	r0, #4
 8007c78:	460a      	mov	r2, r1
 8007c7a:	460b      	mov	r3, r1
 8007c7c:	f884 0111 	strb.w	r0, [r4, #273]	; 0x111
 8007c80:	4620      	mov	r0, r4
 8007c82:	f001 f981 	bl	8008f88 <DCD_EP_Tx>
 8007c86:	4620      	mov	r0, r4
 8007c88:	f000 fff6 	bl	8008c78 <USB_OTG_EP0_OutStart>
 8007c8c:	2000      	movs	r0, #0
 8007c8e:	bd10      	pop	{r4, pc}

08007c90 <USBD_CtlReceiveStatus>:
 8007c90:	b510      	push	{r4, lr}
 8007c92:	4604      	mov	r4, r0
 8007c94:	2100      	movs	r1, #0
 8007c96:	2005      	movs	r0, #5
 8007c98:	460a      	mov	r2, r1
 8007c9a:	460b      	mov	r3, r1
 8007c9c:	f884 0111 	strb.w	r0, [r4, #273]	; 0x111
 8007ca0:	4620      	mov	r0, r4
 8007ca2:	f001 f953 	bl	8008f4c <DCD_EP_PrepareRx>
 8007ca6:	4620      	mov	r0, r4
 8007ca8:	f000 ffe6 	bl	8008c78 <USB_OTG_EP0_OutStart>
 8007cac:	2000      	movs	r0, #0
 8007cae:	bd10      	pop	{r4, pc}

08007cb0 <USBD_GetRxCount>:
 8007cb0:	eb01 0281 	add.w	r2, r1, r1, lsl #2
 8007cb4:	eb00 01c2 	add.w	r1, r0, r2, lsl #3
 8007cb8:	f8b1 0388 	ldrh.w	r0, [r1, #904]	; 0x388
 8007cbc:	4770      	bx	lr
 8007cbe:	bf00      	nop

08007cc0 <USBD_ParseSetupRequest>:
 8007cc0:	f890 25c8 	ldrb.w	r2, [r0, #1480]	; 0x5c8
 8007cc4:	700a      	strb	r2, [r1, #0]
 8007cc6:	f890 35c9 	ldrb.w	r3, [r0, #1481]	; 0x5c9
 8007cca:	704b      	strb	r3, [r1, #1]
 8007ccc:	f890 25cb 	ldrb.w	r2, [r0, #1483]	; 0x5cb
 8007cd0:	f890 35ca 	ldrb.w	r3, [r0, #1482]	; 0x5ca
 8007cd4:	eb03 2c02 	add.w	ip, r3, r2, lsl #8
 8007cd8:	f8a1 c002 	strh.w	ip, [r1, #2]
 8007cdc:	f890 25cd 	ldrb.w	r2, [r0, #1485]	; 0x5cd
 8007ce0:	f890 35cc 	ldrb.w	r3, [r0, #1484]	; 0x5cc
 8007ce4:	eb03 2c02 	add.w	ip, r3, r2, lsl #8
 8007ce8:	f8a1 c004 	strh.w	ip, [r1, #4]
 8007cec:	f890 25cf 	ldrb.w	r2, [r0, #1487]	; 0x5cf
 8007cf0:	f890 35ce 	ldrb.w	r3, [r0, #1486]	; 0x5ce
 8007cf4:	eb03 2c02 	add.w	ip, r3, r2, lsl #8
 8007cf8:	fa1f f28c 	uxth.w	r2, ip
 8007cfc:	2301      	movs	r3, #1
 8007cfe:	80ca      	strh	r2, [r1, #6]
 8007d00:	f8c0 213c 	str.w	r2, [r0, #316]	; 0x13c
 8007d04:	f880 3111 	strb.w	r3, [r0, #273]	; 0x111
 8007d08:	4770      	bx	lr
 8007d0a:	bf00      	nop

08007d0c <USBD_CtlError>:
 8007d0c:	b510      	push	{r4, lr}
 8007d0e:	f991 3000 	ldrsb.w	r3, [r1]
 8007d12:	2b00      	cmp	r3, #0
 8007d14:	4604      	mov	r4, r0
 8007d16:	db0d      	blt.n	8007d34 <USBD_CtlError+0x28>
 8007d18:	88c9      	ldrh	r1, [r1, #6]
 8007d1a:	b139      	cbz	r1, 8007d2c <USBD_CtlError+0x20>
 8007d1c:	2100      	movs	r1, #0
 8007d1e:	f001 f94f 	bl	8008fc0 <DCD_EP_Stall>
 8007d22:	4620      	mov	r0, r4
 8007d24:	e8bd 4010 	ldmia.w	sp!, {r4, lr}
 8007d28:	f000 bfa6 	b.w	8008c78 <USB_OTG_EP0_OutStart>
 8007d2c:	2180      	movs	r1, #128	; 0x80
 8007d2e:	f001 f947 	bl	8008fc0 <DCD_EP_Stall>
 8007d32:	e7f6      	b.n	8007d22 <USBD_CtlError+0x16>
 8007d34:	2180      	movs	r1, #128	; 0x80
 8007d36:	f001 f943 	bl	8008fc0 <DCD_EP_Stall>
 8007d3a:	e7f2      	b.n	8007d22 <USBD_CtlError+0x16>

08007d3c <USBD_StdEPReq>:
 8007d3c:	b538      	push	{r3, r4, r5, lr}
 8007d3e:	784b      	ldrb	r3, [r1, #1]
 8007d40:	2b01      	cmp	r3, #1
 8007d42:	460c      	mov	r4, r1
 8007d44:	4605      	mov	r5, r0
 8007d46:	7909      	ldrb	r1, [r1, #4]
 8007d48:	d01c      	beq.n	8007d84 <USBD_StdEPReq+0x48>
 8007d4a:	d303      	bcc.n	8007d54 <USBD_StdEPReq+0x18>
 8007d4c:	2b03      	cmp	r3, #3
 8007d4e:	d025      	beq.n	8007d9c <USBD_StdEPReq+0x60>
 8007d50:	2000      	movs	r0, #0
 8007d52:	bd38      	pop	{r3, r4, r5, pc}
 8007d54:	f890 3112 	ldrb.w	r3, [r0, #274]	; 0x112
 8007d58:	2b02      	cmp	r3, #2
 8007d5a:	d017      	beq.n	8007d8c <USBD_StdEPReq+0x50>
 8007d5c:	2b03      	cmp	r3, #3
 8007d5e:	d123      	bne.n	8007da8 <USBD_StdEPReq+0x6c>
 8007d60:	060b      	lsls	r3, r1, #24
 8007d62:	d44c      	bmi.n	8007dfe <USBD_StdEPReq+0xc2>
 8007d64:	eb01 0281 	add.w	r2, r1, r1, lsl #2
 8007d68:	eb00 03c2 	add.w	r3, r0, r2, lsl #3
 8007d6c:	f893 3372 	ldrb.w	r3, [r3, #882]	; 0x372
 8007d70:	2b00      	cmp	r3, #0
 8007d72:	d14e      	bne.n	8007e12 <USBD_StdEPReq+0xd6>
 8007d74:	4a29      	ldr	r2, [pc, #164]	; (8007e1c <USBD_StdEPReq+0xe0>)
 8007d76:	6013      	str	r3, [r2, #0]
 8007d78:	4628      	mov	r0, r5
 8007d7a:	4928      	ldr	r1, [pc, #160]	; (8007e1c <USBD_StdEPReq+0xe0>)
 8007d7c:	2202      	movs	r2, #2
 8007d7e:	f7ff ff43 	bl	8007c08 <USBD_CtlSendData>
 8007d82:	e7e5      	b.n	8007d50 <USBD_StdEPReq+0x14>
 8007d84:	f890 3112 	ldrb.w	r3, [r0, #274]	; 0x112
 8007d88:	2b02      	cmp	r3, #2
 8007d8a:	d113      	bne.n	8007db4 <USBD_StdEPReq+0x78>
 8007d8c:	2900      	cmp	r1, #0
 8007d8e:	d0df      	beq.n	8007d50 <USBD_StdEPReq+0x14>
 8007d90:	2980      	cmp	r1, #128	; 0x80
 8007d92:	d0dd      	beq.n	8007d50 <USBD_StdEPReq+0x14>
 8007d94:	4628      	mov	r0, r5
 8007d96:	f001 f913 	bl	8008fc0 <DCD_EP_Stall>
 8007d9a:	e7d9      	b.n	8007d50 <USBD_StdEPReq+0x14>
 8007d9c:	f890 3112 	ldrb.w	r3, [r0, #274]	; 0x112
 8007da0:	2b02      	cmp	r3, #2
 8007da2:	d0f3      	beq.n	8007d8c <USBD_StdEPReq+0x50>
 8007da4:	2b03      	cmp	r3, #3
 8007da6:	d019      	beq.n	8007ddc <USBD_StdEPReq+0xa0>
 8007da8:	4628      	mov	r0, r5
 8007daa:	4621      	mov	r1, r4
 8007dac:	f7ff ffae 	bl	8007d0c <USBD_CtlError>
 8007db0:	2000      	movs	r0, #0
 8007db2:	bd38      	pop	{r3, r4, r5, pc}
 8007db4:	2b03      	cmp	r3, #3
 8007db6:	d1f7      	bne.n	8007da8 <USBD_StdEPReq+0x6c>
 8007db8:	8863      	ldrh	r3, [r4, #2]
 8007dba:	2b00      	cmp	r3, #0
 8007dbc:	d1c8      	bne.n	8007d50 <USBD_StdEPReq+0x14>
 8007dbe:	b149      	cbz	r1, 8007dd4 <USBD_StdEPReq+0x98>
 8007dc0:	2980      	cmp	r1, #128	; 0x80
 8007dc2:	d007      	beq.n	8007dd4 <USBD_StdEPReq+0x98>
 8007dc4:	f001 f924 	bl	8009010 <DCD_EP_ClrStall>
 8007dc8:	f8d5 15e0 	ldr.w	r1, [r5, #1504]	; 0x5e0
 8007dcc:	4628      	mov	r0, r5
 8007dce:	688a      	ldr	r2, [r1, #8]
 8007dd0:	4621      	mov	r1, r4
 8007dd2:	4790      	blx	r2
 8007dd4:	4628      	mov	r0, r5
 8007dd6:	f7ff ff4b 	bl	8007c70 <USBD_CtlSendStatus>
 8007dda:	e7b9      	b.n	8007d50 <USBD_StdEPReq+0x14>
 8007ddc:	8863      	ldrh	r3, [r4, #2]
 8007dde:	b923      	cbnz	r3, 8007dea <USBD_StdEPReq+0xae>
 8007de0:	b119      	cbz	r1, 8007dea <USBD_StdEPReq+0xae>
 8007de2:	2980      	cmp	r1, #128	; 0x80
 8007de4:	d001      	beq.n	8007dea <USBD_StdEPReq+0xae>
 8007de6:	f001 f8eb 	bl	8008fc0 <DCD_EP_Stall>
 8007dea:	f8d5 05e0 	ldr.w	r0, [r5, #1504]	; 0x5e0
 8007dee:	4621      	mov	r1, r4
 8007df0:	6882      	ldr	r2, [r0, #8]
 8007df2:	4628      	mov	r0, r5
 8007df4:	4790      	blx	r2
 8007df6:	4628      	mov	r0, r5
 8007df8:	f7ff ff3a 	bl	8007c70 <USBD_CtlSendStatus>
 8007dfc:	e7a8      	b.n	8007d50 <USBD_StdEPReq+0x14>
 8007dfe:	f001 0e7f 	and.w	lr, r1, #127	; 0x7f
 8007e02:	eb0e 008e 	add.w	r0, lr, lr, lsl #2
 8007e06:	eb05 0cc0 	add.w	ip, r5, r0, lsl #3
 8007e0a:	f89c 311a 	ldrb.w	r3, [ip, #282]	; 0x11a
 8007e0e:	2b00      	cmp	r3, #0
 8007e10:	d0b0      	beq.n	8007d74 <USBD_StdEPReq+0x38>
 8007e12:	4802      	ldr	r0, [pc, #8]	; (8007e1c <USBD_StdEPReq+0xe0>)
 8007e14:	2101      	movs	r1, #1
 8007e16:	6001      	str	r1, [r0, #0]
 8007e18:	e7ae      	b.n	8007d78 <USBD_StdEPReq+0x3c>
 8007e1a:	bf00      	nop
 8007e1c:	200006d8 	ldrdcs	r0, [r0], -r8

08007e20 <USBD_StdItfReq>:
 8007e20:	b538      	push	{r3, r4, r5, lr}
 8007e22:	f890 3112 	ldrb.w	r3, [r0, #274]	; 0x112
 8007e26:	2b03      	cmp	r3, #3
 8007e28:	4604      	mov	r4, r0
 8007e2a:	460d      	mov	r5, r1
 8007e2c:	d005      	beq.n	8007e3a <USBD_StdItfReq+0x1a>
 8007e2e:	4620      	mov	r0, r4
 8007e30:	4629      	mov	r1, r5
 8007e32:	f7ff ff6b 	bl	8007d0c <USBD_CtlError>
 8007e36:	2000      	movs	r0, #0
 8007e38:	bd38      	pop	{r3, r4, r5, pc}
 8007e3a:	7908      	ldrb	r0, [r1, #4]
 8007e3c:	2801      	cmp	r0, #1
 8007e3e:	d8f6      	bhi.n	8007e2e <USBD_StdItfReq+0xe>
 8007e40:	f8d4 35e0 	ldr.w	r3, [r4, #1504]	; 0x5e0
 8007e44:	4620      	mov	r0, r4
 8007e46:	689a      	ldr	r2, [r3, #8]
 8007e48:	4790      	blx	r2
 8007e4a:	88e9      	ldrh	r1, [r5, #6]
 8007e4c:	2900      	cmp	r1, #0
 8007e4e:	d1f2      	bne.n	8007e36 <USBD_StdItfReq+0x16>
 8007e50:	4620      	mov	r0, r4
 8007e52:	f7ff ff0d 	bl	8007c70 <USBD_CtlSendStatus>
 8007e56:	e7ee      	b.n	8007e36 <USBD_StdItfReq+0x16>

08007e58 <USBD_StdDevReq>:
 8007e58:	b570      	push	{r4, r5, r6, lr}
 8007e5a:	784b      	ldrb	r3, [r1, #1]
 8007e5c:	b082      	sub	sp, #8
 8007e5e:	460c      	mov	r4, r1
 8007e60:	4605      	mov	r5, r0
 8007e62:	2b09      	cmp	r3, #9
 8007e64:	d811      	bhi.n	8007e8a <USBD_StdDevReq+0x32>
 8007e66:	e8df f003 	tbb	[pc, r3]
 8007e6a:	5f104a37 	svcpl	0x00104a37
 8007e6e:	10927510 	addsne	r7, r2, r0, lsl r5
 8007e72:	88e21705 	stmiahi	r2!, {r0, r2, r8, r9, sl, ip}^
 8007e76:	2a01      	cmp	r2, #1
 8007e78:	d107      	bne.n	8007e8a <USBD_StdDevReq+0x32>
 8007e7a:	f890 3112 	ldrb.w	r3, [r0, #274]	; 0x112
 8007e7e:	2b02      	cmp	r3, #2
 8007e80:	f000 8130 	beq.w	80080e4 <USBD_StdDevReq+0x28c>
 8007e84:	2b03      	cmp	r3, #3
 8007e86:	f000 80d1 	beq.w	800802c <USBD_StdDevReq+0x1d4>
 8007e8a:	4628      	mov	r0, r5
 8007e8c:	4621      	mov	r1, r4
 8007e8e:	f7ff ff3d 	bl	8007d0c <USBD_CtlError>
 8007e92:	2000      	movs	r0, #0
 8007e94:	b002      	add	sp, #8
 8007e96:	bd70      	pop	{r4, r5, r6, pc}
 8007e98:	78a1      	ldrb	r1, [r4, #2]
 8007e9a:	4ea6      	ldr	r6, [pc, #664]	; (8008134 <USBD_StdDevReq+0x2dc>)
 8007e9c:	2901      	cmp	r1, #1
 8007e9e:	7131      	strb	r1, [r6, #4]
 8007ea0:	d8f3      	bhi.n	8007e8a <USBD_StdDevReq+0x32>
 8007ea2:	f890 3112 	ldrb.w	r3, [r0, #274]	; 0x112
 8007ea6:	2b02      	cmp	r3, #2
 8007ea8:	f000 8120 	beq.w	80080ec <USBD_StdDevReq+0x294>
 8007eac:	2b03      	cmp	r3, #3
 8007eae:	d1ec      	bne.n	8007e8a <USBD_StdDevReq+0x32>
 8007eb0:	2900      	cmp	r1, #0
 8007eb2:	f000 8133 	beq.w	800811c <USBD_StdDevReq+0x2c4>
 8007eb6:	f890 1110 	ldrb.w	r1, [r0, #272]	; 0x110
 8007eba:	2901      	cmp	r1, #1
 8007ebc:	f000 80c1 	beq.w	8008042 <USBD_StdDevReq+0x1ea>
 8007ec0:	f7ff fe9a 	bl	8007bf8 <USBD_ClrCfg>
 8007ec4:	7931      	ldrb	r1, [r6, #4]
 8007ec6:	4628      	mov	r0, r5
 8007ec8:	f885 1110 	strb.w	r1, [r5, #272]	; 0x110
 8007ecc:	f7ff fe88 	bl	8007be0 <USBD_SetCfg>
 8007ed0:	4628      	mov	r0, r5
 8007ed2:	f7ff fecd 	bl	8007c70 <USBD_CtlSendStatus>
 8007ed6:	e7dc      	b.n	8007e92 <USBD_StdDevReq+0x3a>
 8007ed8:	f890 0112 	ldrb.w	r0, [r0, #274]	; 0x112
 8007edc:	1e81      	subs	r1, r0, #2
 8007ede:	2901      	cmp	r1, #1
 8007ee0:	d8d3      	bhi.n	8007e8a <USBD_StdDevReq+0x32>
 8007ee2:	f8d5 2114 	ldr.w	r2, [r5, #276]	; 0x114
 8007ee6:	4993      	ldr	r1, [pc, #588]	; (8008134 <USBD_StdDevReq+0x2dc>)
 8007ee8:	2a00      	cmp	r2, #0
 8007eea:	bf0c      	ite	eq
 8007eec:	2301      	moveq	r3, #1
 8007eee:	2303      	movne	r3, #3
 8007ef0:	f841 3f0c 	str.w	r3, [r1, #12]!
 8007ef4:	4628      	mov	r0, r5
 8007ef6:	2201      	movs	r2, #1
 8007ef8:	f7ff fe86 	bl	8007c08 <USBD_CtlSendData>
 8007efc:	e7c9      	b.n	8007e92 <USBD_StdDevReq+0x3a>
 8007efe:	f890 1112 	ldrb.w	r1, [r0, #274]	; 0x112
 8007f02:	1e88      	subs	r0, r1, #2
 8007f04:	2801      	cmp	r0, #1
 8007f06:	d8c0      	bhi.n	8007e8a <USBD_StdDevReq+0x32>
 8007f08:	8862      	ldrh	r2, [r4, #2]
 8007f0a:	2a01      	cmp	r2, #1
 8007f0c:	d1c1      	bne.n	8007e92 <USBD_StdDevReq+0x3a>
 8007f0e:	f8d5 35e0 	ldr.w	r3, [r5, #1504]	; 0x5e0
 8007f12:	2000      	movs	r0, #0
 8007f14:	689b      	ldr	r3, [r3, #8]
 8007f16:	f8c5 0114 	str.w	r0, [r5, #276]	; 0x114
 8007f1a:	4628      	mov	r0, r5
 8007f1c:	4621      	mov	r1, r4
 8007f1e:	4798      	blx	r3
 8007f20:	4628      	mov	r0, r5
 8007f22:	f7ff fea5 	bl	8007c70 <USBD_CtlSendStatus>
 8007f26:	e7b4      	b.n	8007e92 <USBD_StdDevReq+0x3a>
 8007f28:	8863      	ldrh	r3, [r4, #2]
 8007f2a:	2b01      	cmp	r3, #1
 8007f2c:	f000 80f0 	beq.w	8008110 <USBD_StdDevReq+0x2b8>
 8007f30:	2b02      	cmp	r3, #2
 8007f32:	d1ae      	bne.n	8007e92 <USBD_StdDevReq+0x3a>
 8007f34:	88a3      	ldrh	r3, [r4, #4]
 8007f36:	f013 0fff 	tst.w	r3, #255	; 0xff
 8007f3a:	d1aa      	bne.n	8007e92 <USBD_StdDevReq+0x3a>
 8007f3c:	6901      	ldr	r1, [r0, #16]
 8007f3e:	0a1c      	lsrs	r4, r3, #8
 8007f40:	684a      	ldr	r2, [r1, #4]
 8007f42:	1e63      	subs	r3, r4, #1
 8007f44:	4610      	mov	r0, r2
 8007f46:	2b04      	cmp	r3, #4
 8007f48:	d879      	bhi.n	800803e <USBD_StdDevReq+0x1e6>
 8007f4a:	e8df f003 	tbb	[pc, r3]
 8007f4e:	8f83897d 	svchi	0x0083897d
 8007f52:	88a00074 	stmiahi	r0!, {r2, r4, r5, r6}
 8007f56:	2800      	cmp	r0, #0
 8007f58:	d197      	bne.n	8007e8a <USBD_StdDevReq+0x32>
 8007f5a:	88e3      	ldrh	r3, [r4, #6]
 8007f5c:	2b00      	cmp	r3, #0
 8007f5e:	d194      	bne.n	8007e8a <USBD_StdDevReq+0x32>
 8007f60:	f895 1112 	ldrb.w	r1, [r5, #274]	; 0x112
 8007f64:	8862      	ldrh	r2, [r4, #2]
 8007f66:	2903      	cmp	r1, #3
 8007f68:	d08f      	beq.n	8007e8a <USBD_StdDevReq+0x32>
 8007f6a:	f002 047f 	and.w	r4, r2, #127	; 0x7f
 8007f6e:	4628      	mov	r0, r5
 8007f70:	f885 4113 	strb.w	r4, [r5, #275]	; 0x113
 8007f74:	4621      	mov	r1, r4
 8007f76:	f001 f879 	bl	800906c <DCD_EP_SetAddress>
 8007f7a:	4628      	mov	r0, r5
 8007f7c:	f7ff fe78 	bl	8007c70 <USBD_CtlSendStatus>
 8007f80:	2c00      	cmp	r4, #0
 8007f82:	f000 80c1 	beq.w	8008108 <USBD_StdDevReq+0x2b0>
 8007f86:	2202      	movs	r2, #2
 8007f88:	f885 2112 	strb.w	r2, [r5, #274]	; 0x112
 8007f8c:	e781      	b.n	8007e92 <USBD_StdDevReq+0x3a>
 8007f8e:	8862      	ldrh	r2, [r4, #2]
 8007f90:	0a11      	lsrs	r1, r2, #8
 8007f92:	1e48      	subs	r0, r1, #1
 8007f94:	2806      	cmp	r0, #6
 8007f96:	f63f af78 	bhi.w	8007e8a <USBD_StdDevReq+0x32>
 8007f9a:	a101      	add	r1, pc, #4	; (adr r1, 8007fa0 <USBD_StdDevReq+0x148>)
 8007f9c:	f851 f020 	ldr.w	pc, [r1, r0, lsl #2]
 8007fa0:	0800800b 	stmdaeq	r0, {r0, r1, r3, pc}
 8007fa4:	08007fcf 	stmdaeq	r0, {r0, r1, r2, r3, r6, r7, r8, r9, sl, fp, ip, sp, lr}
 8007fa8:	08007fbd 	stmdaeq	r0, {r0, r2, r3, r4, r5, r7, r8, r9, sl, fp, ip, sp, lr}
 8007fac:	08007e8b 	stmdaeq	r0, {r0, r1, r3, r7, r9, sl, fp, ip, sp, lr}
 8007fb0:	08007e8b 	stmdaeq	r0, {r0, r1, r3, r7, r9, sl, fp, ip, sp, lr}
 8007fb4:	08007e8b 	stmdaeq	r0, {r0, r1, r3, r7, r9, sl, fp, ip, sp, lr}
 8007fb8:	08007e8b 	stmdaeq	r0, {r0, r1, r3, r7, r9, sl, fp, ip, sp, lr}
 8007fbc:	b2d0      	uxtb	r0, r2
 8007fbe:	2805      	cmp	r0, #5
 8007fc0:	f63f af63 	bhi.w	8007e8a <USBD_StdDevReq+0x32>
 8007fc4:	e8df f000 	tbb	[pc, r0]
 8007fc8:	6a737c85 	bvs	9ce71e4 <_sidata+0x1cdc43c>
 8007fcc:	f8d55861 			; <UNDEFINED> instruction: 0xf8d55861
 8007fd0:	15e0      	asrs	r0, r4, #23
 8007fd2:	78a8      	ldrb	r0, [r5, #2]
 8007fd4:	6a8b      	ldr	r3, [r1, #40]	; 0x28
 8007fd6:	f10d 0106 	add.w	r1, sp, #6
 8007fda:	4798      	blx	r3
 8007fdc:	2202      	movs	r2, #2
 8007fde:	7042      	strb	r2, [r0, #1]
 8007fe0:	4601      	mov	r1, r0
 8007fe2:	f8c5 05ec 	str.w	r0, [r5, #1516]	; 0x5ec
 8007fe6:	f8bd 3006 	ldrh.w	r3, [sp, #6]
 8007fea:	2b00      	cmp	r3, #0
 8007fec:	f43f af51 	beq.w	8007e92 <USBD_StdDevReq+0x3a>
 8007ff0:	88e2      	ldrh	r2, [r4, #6]
 8007ff2:	2a00      	cmp	r2, #0
 8007ff4:	f43f af4d 	beq.w	8007e92 <USBD_StdDevReq+0x3a>
 8007ff8:	4293      	cmp	r3, r2
 8007ffa:	bf38      	it	cc
 8007ffc:	461a      	movcc	r2, r3
 8007ffe:	4628      	mov	r0, r5
 8008000:	f8ad 2006 	strh.w	r2, [sp, #6]
 8008004:	f7ff fe00 	bl	8007c08 <USBD_CtlSendData>
 8008008:	e743      	b.n	8007e92 <USBD_StdDevReq+0x3a>
 800800a:	f8d5 35e8 	ldr.w	r3, [r5, #1512]	; 0x5e8
 800800e:	78a8      	ldrb	r0, [r5, #2]
 8008010:	681a      	ldr	r2, [r3, #0]
 8008012:	f10d 0106 	add.w	r1, sp, #6
 8008016:	4790      	blx	r2
 8008018:	88e2      	ldrh	r2, [r4, #6]
 800801a:	2a40      	cmp	r2, #64	; 0x40
 800801c:	4601      	mov	r1, r0
 800801e:	d003      	beq.n	8008028 <USBD_StdDevReq+0x1d0>
 8008020:	f895 0112 	ldrb.w	r0, [r5, #274]	; 0x112
 8008024:	2801      	cmp	r0, #1
 8008026:	d1de      	bne.n	8007fe6 <USBD_StdDevReq+0x18e>
 8008028:	2308      	movs	r3, #8
 800802a:	e7e2      	b.n	8007ff2 <USBD_StdDevReq+0x19a>
 800802c:	f500 7188 	add.w	r1, r0, #272	; 0x110
 8008030:	f7ff fdea 	bl	8007c08 <USBD_CtlSendData>
 8008034:	e72d      	b.n	8007e92 <USBD_StdDevReq+0x3a>
 8008036:	2305      	movs	r3, #5
 8008038:	f363 1006 	bfi	r0, r3, #4, #3
 800803c:	4602      	mov	r2, r0
 800803e:	604a      	str	r2, [r1, #4]
 8008040:	4628      	mov	r0, r5
 8008042:	f7ff fe15 	bl	8007c70 <USBD_CtlSendStatus>
 8008046:	e724      	b.n	8007e92 <USBD_StdDevReq+0x3a>
 8008048:	2201      	movs	r2, #1
 800804a:	f362 1006 	bfi	r0, r2, #4, #3
 800804e:	4602      	mov	r2, r0
 8008050:	604a      	str	r2, [r1, #4]
 8008052:	e7f5      	b.n	8008040 <USBD_StdDevReq+0x1e8>
 8008054:	2403      	movs	r4, #3
 8008056:	f364 1006 	bfi	r0, r4, #4, #3
 800805a:	4602      	mov	r2, r0
 800805c:	604a      	str	r2, [r1, #4]
 800805e:	e7ef      	b.n	8008040 <USBD_StdDevReq+0x1e8>
 8008060:	2302      	movs	r3, #2
 8008062:	f363 1006 	bfi	r0, r3, #4, #3
 8008066:	4602      	mov	r2, r0
 8008068:	604a      	str	r2, [r1, #4]
 800806a:	e7e9      	b.n	8008040 <USBD_StdDevReq+0x1e8>
 800806c:	2204      	movs	r2, #4
 800806e:	f362 1006 	bfi	r0, r2, #4, #3
 8008072:	4602      	mov	r2, r0
 8008074:	604a      	str	r2, [r1, #4]
 8008076:	e7e3      	b.n	8008040 <USBD_StdDevReq+0x1e8>
 8008078:	f8d5 15e8 	ldr.w	r1, [r5, #1512]	; 0x5e8
 800807c:	78a8      	ldrb	r0, [r5, #2]
 800807e:	698a      	ldr	r2, [r1, #24]
 8008080:	f10d 0106 	add.w	r1, sp, #6
 8008084:	4790      	blx	r2
 8008086:	4601      	mov	r1, r0
 8008088:	e7ad      	b.n	8007fe6 <USBD_StdDevReq+0x18e>
 800808a:	f8d5 35e8 	ldr.w	r3, [r5, #1512]	; 0x5e8
 800808e:	78a8      	ldrb	r0, [r5, #2]
 8008090:	695a      	ldr	r2, [r3, #20]
 8008092:	f10d 0106 	add.w	r1, sp, #6
 8008096:	4790      	blx	r2
 8008098:	4601      	mov	r1, r0
 800809a:	e7a4      	b.n	8007fe6 <USBD_StdDevReq+0x18e>
 800809c:	f8d5 15e8 	ldr.w	r1, [r5, #1512]	; 0x5e8
 80080a0:	78a8      	ldrb	r0, [r5, #2]
 80080a2:	690b      	ldr	r3, [r1, #16]
 80080a4:	f10d 0106 	add.w	r1, sp, #6
 80080a8:	4798      	blx	r3
 80080aa:	4601      	mov	r1, r0
 80080ac:	e79b      	b.n	8007fe6 <USBD_StdDevReq+0x18e>
 80080ae:	f8d5 25e8 	ldr.w	r2, [r5, #1512]	; 0x5e8
 80080b2:	78a8      	ldrb	r0, [r5, #2]
 80080b4:	68d3      	ldr	r3, [r2, #12]
 80080b6:	f10d 0106 	add.w	r1, sp, #6
 80080ba:	4798      	blx	r3
 80080bc:	4601      	mov	r1, r0
 80080be:	e792      	b.n	8007fe6 <USBD_StdDevReq+0x18e>
 80080c0:	f8d5 15e8 	ldr.w	r1, [r5, #1512]	; 0x5e8
 80080c4:	78a8      	ldrb	r0, [r5, #2]
 80080c6:	688a      	ldr	r2, [r1, #8]
 80080c8:	f10d 0106 	add.w	r1, sp, #6
 80080cc:	4790      	blx	r2
 80080ce:	4601      	mov	r1, r0
 80080d0:	e789      	b.n	8007fe6 <USBD_StdDevReq+0x18e>
 80080d2:	f8d5 35e8 	ldr.w	r3, [r5, #1512]	; 0x5e8
 80080d6:	78a8      	ldrb	r0, [r5, #2]
 80080d8:	685a      	ldr	r2, [r3, #4]
 80080da:	f10d 0106 	add.w	r1, sp, #6
 80080de:	4790      	blx	r2
 80080e0:	4601      	mov	r1, r0
 80080e2:	e780      	b.n	8007fe6 <USBD_StdDevReq+0x18e>
 80080e4:	4914      	ldr	r1, [pc, #80]	; (8008138 <USBD_StdDevReq+0x2e0>)
 80080e6:	f7ff fd8f 	bl	8007c08 <USBD_CtlSendData>
 80080ea:	e6d2      	b.n	8007e92 <USBD_StdDevReq+0x3a>
 80080ec:	2900      	cmp	r1, #0
 80080ee:	d0a7      	beq.n	8008040 <USBD_StdDevReq+0x1e8>
 80080f0:	2101      	movs	r1, #1
 80080f2:	2303      	movs	r3, #3
 80080f4:	f880 1110 	strb.w	r1, [r0, #272]	; 0x110
 80080f8:	f880 3112 	strb.w	r3, [r0, #274]	; 0x112
 80080fc:	f7ff fd70 	bl	8007be0 <USBD_SetCfg>
 8008100:	4628      	mov	r0, r5
 8008102:	f7ff fdb5 	bl	8007c70 <USBD_CtlSendStatus>
 8008106:	e6c4      	b.n	8007e92 <USBD_StdDevReq+0x3a>
 8008108:	2001      	movs	r0, #1
 800810a:	f885 0112 	strb.w	r0, [r5, #274]	; 0x112
 800810e:	e6c0      	b.n	8007e92 <USBD_StdDevReq+0x3a>
 8008110:	f8d0 15e0 	ldr.w	r1, [r0, #1504]	; 0x5e0
 8008114:	f8c0 3114 	str.w	r3, [r0, #276]	; 0x114
 8008118:	688b      	ldr	r3, [r1, #8]
 800811a:	e6fe      	b.n	8007f1a <USBD_StdDevReq+0xc2>
 800811c:	2202      	movs	r2, #2
 800811e:	f880 2112 	strb.w	r2, [r0, #274]	; 0x112
 8008122:	f880 1110 	strb.w	r1, [r0, #272]	; 0x110
 8008126:	f7ff fd67 	bl	8007bf8 <USBD_ClrCfg>
 800812a:	4628      	mov	r0, r5
 800812c:	f7ff fda0 	bl	8007c70 <USBD_CtlSendStatus>
 8008130:	e6af      	b.n	8007e92 <USBD_StdDevReq+0x3a>
 8008132:	bf00      	nop
 8008134:	200006d8 	ldrdcs	r0, [r0], -r8
 8008138:	200006e0 	andcs	r0, r0, r0, ror #13

0800813c <USBD_GetString>:
 800813c:	b430      	push	{r4, r5}
 800813e:	b1f0      	cbz	r0, 800817e <USBD_GetString+0x42>
 8008140:	7803      	ldrb	r3, [r0, #0]
 8008142:	b1f3      	cbz	r3, 8008182 <USBD_GetString+0x46>
 8008144:	4604      	mov	r4, r0
 8008146:	2300      	movs	r3, #0
 8008148:	f814 5f01 	ldrb.w	r5, [r4, #1]!
 800814c:	3301      	adds	r3, #1
 800814e:	b2db      	uxtb	r3, r3
 8008150:	2d00      	cmp	r5, #0
 8008152:	d1f9      	bne.n	8008148 <USBD_GetString+0xc>
 8008154:	005c      	lsls	r4, r3, #1
 8008156:	1ca3      	adds	r3, r4, #2
 8008158:	b2dc      	uxtb	r4, r3
 800815a:	8013      	strh	r3, [r2, #0]
 800815c:	2203      	movs	r2, #3
 800815e:	700c      	strb	r4, [r1, #0]
 8008160:	704a      	strb	r2, [r1, #1]
 8008162:	7802      	ldrb	r2, [r0, #0]
 8008164:	b15a      	cbz	r2, 800817e <USBD_GetString+0x42>
 8008166:	2302      	movs	r3, #2
 8008168:	2500      	movs	r5, #0
 800816a:	1c5c      	adds	r4, r3, #1
 800816c:	b2e4      	uxtb	r4, r4
 800816e:	54ca      	strb	r2, [r1, r3]
 8008170:	550d      	strb	r5, [r1, r4]
 8008172:	f810 2f01 	ldrb.w	r2, [r0, #1]!
 8008176:	3302      	adds	r3, #2
 8008178:	b2db      	uxtb	r3, r3
 800817a:	2a00      	cmp	r2, #0
 800817c:	d1f5      	bne.n	800816a <USBD_GetString+0x2e>
 800817e:	bc30      	pop	{r4, r5}
 8008180:	4770      	bx	lr
 8008182:	2402      	movs	r4, #2
 8008184:	4623      	mov	r3, r4
 8008186:	e7e8      	b.n	800815a <USBD_GetString+0x1e>

08008188 <USB_OTG_CoreReset>:
 8008188:	b530      	push	{r4, r5, lr}
 800818a:	4605      	mov	r5, r0
 800818c:	b083      	sub	sp, #12
 800818e:	2300      	movs	r3, #0
 8008190:	2003      	movs	r0, #3
 8008192:	9301      	str	r3, [sp, #4]
 8008194:	f7fb fa46 	bl	8003624 <USB_OTG_BSP_uDelay>
 8008198:	68eb      	ldr	r3, [r5, #12]
 800819a:	691a      	ldr	r2, [r3, #16]
 800819c:	f44f 6454 	mov.w	r4, #3392	; 0xd40
 80081a0:	9201      	str	r2, [sp, #4]
 80081a2:	f2c0 0403 	movt	r4, #3
 80081a6:	e00f      	b.n	80081c8 <USB_OTG_CoreReset+0x40>
 80081a8:	f7fb fa3c 	bl	8003624 <USB_OTG_BSP_uDelay>
 80081ac:	68eb      	ldr	r3, [r5, #12]
 80081ae:	691a      	ldr	r2, [r3, #16]
 80081b0:	9201      	str	r2, [sp, #4]
 80081b2:	9901      	ldr	r1, [sp, #4]
 80081b4:	2003      	movs	r0, #3
 80081b6:	2900      	cmp	r1, #0
 80081b8:	db0c      	blt.n	80081d4 <USB_OTG_CoreReset+0x4c>
 80081ba:	f7fb fa33 	bl	8003624 <USB_OTG_BSP_uDelay>
 80081be:	68eb      	ldr	r3, [r5, #12]
 80081c0:	691a      	ldr	r2, [r3, #16]
 80081c2:	3c01      	subs	r4, #1
 80081c4:	9201      	str	r2, [sp, #4]
 80081c6:	d024      	beq.n	8008212 <USB_OTG_CoreReset+0x8a>
 80081c8:	9901      	ldr	r1, [sp, #4]
 80081ca:	2003      	movs	r0, #3
 80081cc:	2900      	cmp	r1, #0
 80081ce:	f104 34ff 	add.w	r4, r4, #4294967295
 80081d2:	dae9      	bge.n	80081a8 <USB_OTG_CoreReset+0x20>
 80081d4:	9801      	ldr	r0, [sp, #4]
 80081d6:	f040 0101 	orr.w	r1, r0, #1
 80081da:	9101      	str	r1, [sp, #4]
 80081dc:	9a01      	ldr	r2, [sp, #4]
 80081de:	611a      	str	r2, [r3, #16]
 80081e0:	6918      	ldr	r0, [r3, #16]
 80081e2:	f44f 6254 	mov.w	r2, #3392	; 0xd40
 80081e6:	9001      	str	r0, [sp, #4]
 80081e8:	f2c0 0203 	movt	r2, #3
 80081ec:	e008      	b.n	8008200 <USB_OTG_CoreReset+0x78>
 80081ee:	6918      	ldr	r0, [r3, #16]
 80081f0:	9001      	str	r0, [sp, #4]
 80081f2:	9901      	ldr	r1, [sp, #4]
 80081f4:	07c9      	lsls	r1, r1, #31
 80081f6:	d509      	bpl.n	800820c <USB_OTG_CoreReset+0x84>
 80081f8:	6918      	ldr	r0, [r3, #16]
 80081fa:	3a01      	subs	r2, #1
 80081fc:	9001      	str	r0, [sp, #4]
 80081fe:	d005      	beq.n	800820c <USB_OTG_CoreReset+0x84>
 8008200:	9901      	ldr	r1, [sp, #4]
 8008202:	f011 0f01 	tst.w	r1, #1
 8008206:	f102 32ff 	add.w	r2, r2, #4294967295
 800820a:	d1f0      	bne.n	80081ee <USB_OTG_CoreReset+0x66>
 800820c:	2003      	movs	r0, #3
 800820e:	f7fb fa09 	bl	8003624 <USB_OTG_BSP_uDelay>
 8008212:	2000      	movs	r0, #0
 8008214:	b003      	add	sp, #12
 8008216:	bd30      	pop	{r4, r5, pc}

08008218 <USB_OTG_WritePacket>:
 8008218:	b410      	push	{r4}
 800821a:	78c4      	ldrb	r4, [r0, #3]
 800821c:	b9f4      	cbnz	r4, 800825c <USB_OTG_WritePacket+0x44>
 800821e:	eb00 0082 	add.w	r0, r0, r2, lsl #2
 8008222:	3303      	adds	r3, #3
 8008224:	109b      	asrs	r3, r3, #2
 8008226:	f8d0 00d0 	ldr.w	r0, [r0, #208]	; 0xd0
 800822a:	d017      	beq.n	800825c <USB_OTG_WritePacket+0x44>
 800822c:	680c      	ldr	r4, [r1, #0]
 800822e:	1e5a      	subs	r2, r3, #1
 8008230:	6004      	str	r4, [r0, #0]
 8008232:	f002 0401 	and.w	r4, r2, #1
 8008236:	2201      	movs	r2, #1
 8008238:	4293      	cmp	r3, r2
 800823a:	d00f      	beq.n	800825c <USB_OTG_WritePacket+0x44>
 800823c:	b124      	cbz	r4, 8008248 <USB_OTG_WritePacket+0x30>
 800823e:	684c      	ldr	r4, [r1, #4]
 8008240:	2202      	movs	r2, #2
 8008242:	4293      	cmp	r3, r2
 8008244:	6004      	str	r4, [r0, #0]
 8008246:	d009      	beq.n	800825c <USB_OTG_WritePacket+0x44>
 8008248:	f851 4022 	ldr.w	r4, [r1, r2, lsl #2]
 800824c:	3201      	adds	r2, #1
 800824e:	6004      	str	r4, [r0, #0]
 8008250:	f851 4022 	ldr.w	r4, [r1, r2, lsl #2]
 8008254:	3201      	adds	r2, #1
 8008256:	4293      	cmp	r3, r2
 8008258:	6004      	str	r4, [r0, #0]
 800825a:	d1f5      	bne.n	8008248 <USB_OTG_WritePacket+0x30>
 800825c:	2000      	movs	r0, #0
 800825e:	bc10      	pop	{r4}
 8008260:	4770      	bx	lr
 8008262:	bf00      	nop

08008264 <USB_OTG_ReadPacket>:
 8008264:	3203      	adds	r2, #3
 8008266:	1092      	asrs	r2, r2, #2
 8008268:	b430      	push	{r4, r5}
 800826a:	f8d0 40d0 	ldr.w	r4, [r0, #208]	; 0xd0
 800826e:	d019      	beq.n	80082a4 <USB_OTG_ReadPacket+0x40>
 8008270:	6820      	ldr	r0, [r4, #0]
 8008272:	1e53      	subs	r3, r2, #1
 8008274:	6008      	str	r0, [r1, #0]
 8008276:	f003 0001 	and.w	r0, r3, #1
 800827a:	2301      	movs	r3, #1
 800827c:	429a      	cmp	r2, r3
 800827e:	d00f      	beq.n	80082a0 <USB_OTG_ReadPacket+0x3c>
 8008280:	b120      	cbz	r0, 800828c <USB_OTG_ReadPacket+0x28>
 8008282:	6820      	ldr	r0, [r4, #0]
 8008284:	2302      	movs	r3, #2
 8008286:	429a      	cmp	r2, r3
 8008288:	6048      	str	r0, [r1, #4]
 800828a:	d009      	beq.n	80082a0 <USB_OTG_ReadPacket+0x3c>
 800828c:	6825      	ldr	r5, [r4, #0]
 800828e:	f841 5023 	str.w	r5, [r1, r3, lsl #2]
 8008292:	1c58      	adds	r0, r3, #1
 8008294:	6825      	ldr	r5, [r4, #0]
 8008296:	3302      	adds	r3, #2
 8008298:	429a      	cmp	r2, r3
 800829a:	f841 5020 	str.w	r5, [r1, r0, lsl #2]
 800829e:	d1f5      	bne.n	800828c <USB_OTG_ReadPacket+0x28>
 80082a0:	eb01 0182 	add.w	r1, r1, r2, lsl #2
 80082a4:	4608      	mov	r0, r1
 80082a6:	bc30      	pop	{r4, r5}
 80082a8:	4770      	bx	lr
 80082aa:	bf00      	nop

080082ac <USB_OTG_SelectCore>:
 80082ac:	e92d 0ff0 	stmdb	sp!, {r4, r5, r6, r7, r8, r9, sl, fp}
 80082b0:	2201      	movs	r2, #1
 80082b2:	2300      	movs	r3, #0
 80082b4:	7082      	strb	r2, [r0, #2]
 80082b6:	2240      	movs	r2, #64	; 0x40
 80082b8:	2901      	cmp	r1, #1
 80082ba:	b082      	sub	sp, #8
 80082bc:	70c3      	strb	r3, [r0, #3]
 80082be:	8082      	strh	r2, [r0, #4]
 80082c0:	f000 80b6 	beq.w	8008430 <USB_OTG_SelectCore+0x184>
 80082c4:	2900      	cmp	r1, #0
 80082c6:	f000 8090 	beq.w	80083ea <USB_OTG_SelectCore+0x13e>
 80082ca:	7802      	ldrb	r2, [r0, #0]
 80082cc:	7841      	ldrb	r1, [r0, #1]
 80082ce:	9201      	str	r2, [sp, #4]
 80082d0:	f44f 6200 	mov.w	r2, #2048	; 0x800
 80082d4:	60c3      	str	r3, [r0, #12]
 80082d6:	6102      	str	r2, [r0, #16]
 80082d8:	f44f 6a60 	mov.w	sl, #3584	; 0xe00
 80082dc:	f44f 6988 	mov.w	r9, #1088	; 0x440
 80082e0:	f44f 6b80 	mov.w	fp, #1024	; 0x400
 80082e4:	2900      	cmp	r1, #0
 80082e6:	f000 80c6 	beq.w	8008476 <USB_OTG_SelectCore+0x1ca>
 80082ea:	4698      	mov	r8, r3
 80082ec:	4602      	mov	r2, r0
 80082ee:	f508 6410 	add.w	r4, r8, #2304	; 0x900
 80082f2:	ea4f 1c41 	mov.w	ip, r1, lsl #5
 80082f6:	f842 4f18 	str.w	r4, [r2, #24]!
 80082fa:	2420      	movs	r4, #32
 80082fc:	f1ac 0320 	sub.w	r3, ip, #32
 8008300:	f508 6130 	add.w	r1, r8, #2816	; 0xb00
 8008304:	4564      	cmp	r4, ip
 8008306:	63d1      	str	r1, [r2, #60]	; 0x3c
 8008308:	f3c3 1140 	ubfx	r1, r3, #5, #1
 800830c:	f508 6312 	add.w	r3, r8, #2336	; 0x920
 8008310:	d01b      	beq.n	800834a <USB_OTG_SelectCore+0x9e>
 8008312:	b151      	cbz	r1, 800832a <USB_OTG_SelectCore+0x7e>
 8008314:	4602      	mov	r2, r0
 8008316:	2440      	movs	r4, #64	; 0x40
 8008318:	f842 3f1c 	str.w	r3, [r2, #28]!
 800831c:	f508 6132 	add.w	r1, r8, #2848	; 0xb20
 8008320:	4564      	cmp	r4, ip
 8008322:	63d1      	str	r1, [r2, #60]	; 0x3c
 8008324:	f508 6314 	add.w	r3, r8, #2368	; 0x940
 8008328:	d00f      	beq.n	800834a <USB_OTG_SelectCore+0x9e>
 800832a:	1d11      	adds	r1, r2, #4
 800832c:	6053      	str	r3, [r2, #4]
 800832e:	3440      	adds	r4, #64	; 0x40
 8008330:	3208      	adds	r2, #8
 8008332:	f503 7700 	add.w	r7, r3, #512	; 0x200
 8008336:	f103 0520 	add.w	r5, r3, #32
 800833a:	f503 7608 	add.w	r6, r3, #544	; 0x220
 800833e:	3340      	adds	r3, #64	; 0x40
 8008340:	4564      	cmp	r4, ip
 8008342:	63cf      	str	r7, [r1, #60]	; 0x3c
 8008344:	604d      	str	r5, [r1, #4]
 8008346:	63d6      	str	r6, [r2, #60]	; 0x3c
 8008348:	d1ef      	bne.n	800832a <USB_OTG_SelectCore+0x7e>
 800834a:	9b01      	ldr	r3, [sp, #4]
 800834c:	f8c0 b014 	str.w	fp, [r0, #20]
 8008350:	f8c0 90cc 	str.w	r9, [r0, #204]	; 0xcc
 8008354:	2b00      	cmp	r3, #0
 8008356:	d041      	beq.n	80083dc <USB_OTG_SelectCore+0x130>
 8008358:	f508 61a0 	add.w	r1, r8, #1280	; 0x500
 800835c:	eb01 1543 	add.w	r5, r1, r3, lsl #5
 8008360:	1a6c      	subs	r4, r5, r1
 8008362:	4602      	mov	r2, r0
 8008364:	f508 63a4 	add.w	r3, r8, #1312	; 0x520
 8008368:	3c20      	subs	r4, #32
 800836a:	42ab      	cmp	r3, r5
 800836c:	f842 1f90 	str.w	r1, [r2, #144]!
 8008370:	f3c4 1440 	ubfx	r4, r4, #5, #1
 8008374:	d00f      	beq.n	8008396 <USB_OTG_SelectCore+0xea>
 8008376:	b134      	cbz	r4, 8008386 <USB_OTG_SelectCore+0xda>
 8008378:	4602      	mov	r2, r0
 800837a:	f842 3f94 	str.w	r3, [r2, #148]!
 800837e:	f508 63a8 	add.w	r3, r8, #1344	; 0x540
 8008382:	42ab      	cmp	r3, r5
 8008384:	d007      	beq.n	8008396 <USB_OTG_SelectCore+0xea>
 8008386:	f103 0420 	add.w	r4, r3, #32
 800838a:	6053      	str	r3, [r2, #4]
 800838c:	3340      	adds	r3, #64	; 0x40
 800838e:	6094      	str	r4, [r2, #8]
 8008390:	3208      	adds	r2, #8
 8008392:	42ab      	cmp	r3, r5
 8008394:	d1f7      	bne.n	8008386 <USB_OTG_SelectCore+0xda>
 8008396:	9d01      	ldr	r5, [sp, #4]
 8008398:	f508 5180 	add.w	r1, r8, #4096	; 0x1000
 800839c:	eb01 3505 	add.w	r5, r1, r5, lsl #12
 80083a0:	1a6b      	subs	r3, r5, r1
 80083a2:	f5a3 5c80 	sub.w	ip, r3, #4096	; 0x1000
 80083a6:	4602      	mov	r2, r0
 80083a8:	f508 5300 	add.w	r3, r8, #8192	; 0x2000
 80083ac:	42ab      	cmp	r3, r5
 80083ae:	f842 1fd0 	str.w	r1, [r2, #208]!
 80083b2:	f3cc 3400 	ubfx	r4, ip, #12, #1
 80083b6:	d011      	beq.n	80083dc <USB_OTG_SelectCore+0x130>
 80083b8:	b134      	cbz	r4, 80083c8 <USB_OTG_SelectCore+0x11c>
 80083ba:	4602      	mov	r2, r0
 80083bc:	f842 3fd4 	str.w	r3, [r2, #212]!
 80083c0:	f503 5380 	add.w	r3, r3, #4096	; 0x1000
 80083c4:	42ab      	cmp	r3, r5
 80083c6:	d009      	beq.n	80083dc <USB_OTG_SelectCore+0x130>
 80083c8:	1d11      	adds	r1, r2, #4
 80083ca:	6053      	str	r3, [r2, #4]
 80083cc:	f503 5480 	add.w	r4, r3, #4096	; 0x1000
 80083d0:	f503 5300 	add.w	r3, r3, #8192	; 0x2000
 80083d4:	1d0a      	adds	r2, r1, #4
 80083d6:	42ab      	cmp	r3, r5
 80083d8:	604c      	str	r4, [r1, #4]
 80083da:	d1f5      	bne.n	80083c8 <USB_OTG_SelectCore+0x11c>
 80083dc:	f8c0 a10c 	str.w	sl, [r0, #268]	; 0x10c
 80083e0:	2000      	movs	r0, #0
 80083e2:	b002      	add	sp, #8
 80083e4:	e8bd 0ff0 	ldmia.w	sp!, {r4, r5, r6, r7, r8, r9, sl, fp}
 80083e8:	4770      	bx	lr
 80083ea:	2300      	movs	r3, #0
 80083ec:	240c      	movs	r4, #12
 80083ee:	f04f 0c06 	mov.w	ip, #6
 80083f2:	f44f 6a60 	mov.w	sl, #3584	; 0xe00
 80083f6:	f44f 6988 	mov.w	r9, #1088	; 0x440
 80083fa:	f44f 6b80 	mov.w	fp, #1024	; 0x400
 80083fe:	f44f 6200 	mov.w	r2, #2048	; 0x800
 8008402:	f2c4 0304 	movt	r3, #16388	; 0x4004
 8008406:	72c1      	strb	r1, [r0, #11]
 8008408:	f44f 61a0 	mov.w	r1, #1280	; 0x500
 800840c:	80c1      	strh	r1, [r0, #6]
 800840e:	7004      	strb	r4, [r0, #0]
 8008410:	f880 c001 	strb.w	ip, [r0, #1]
 8008414:	f2c4 0a04 	movt	sl, #16388	; 0x4004
 8008418:	9401      	str	r4, [sp, #4]
 800841a:	f2c4 0904 	movt	r9, #16388	; 0x4004
 800841e:	f2c4 0b04 	movt	fp, #16388	; 0x4004
 8008422:	4661      	mov	r1, ip
 8008424:	f2c4 0204 	movt	r2, #16388	; 0x4004
 8008428:	4698      	mov	r8, r3
 800842a:	60c3      	str	r3, [r0, #12]
 800842c:	6102      	str	r2, [r0, #16]
 800842e:	e75d      	b.n	80082ec <USB_OTG_SelectCore+0x40>
 8008430:	2408      	movs	r4, #8
 8008432:	f04f 0c04 	mov.w	ip, #4
 8008436:	f44f 78a0 	mov.w	r8, #320	; 0x140
 800843a:	f44f 6a60 	mov.w	sl, #3584	; 0xe00
 800843e:	f44f 6988 	mov.w	r9, #1088	; 0x440
 8008442:	f44f 6b80 	mov.w	fp, #1024	; 0x400
 8008446:	f44f 6200 	mov.w	r2, #2048	; 0x800
 800844a:	f04f 43a0 	mov.w	r3, #1342177280	; 0x50000000
 800844e:	72c1      	strb	r1, [r0, #11]
 8008450:	2102      	movs	r1, #2
 8008452:	f8a0 8006 	strh.w	r8, [r0, #6]
 8008456:	7201      	strb	r1, [r0, #8]
 8008458:	7004      	strb	r4, [r0, #0]
 800845a:	f880 c001 	strb.w	ip, [r0, #1]
 800845e:	f2c5 0a00 	movt	sl, #20480	; 0x5000
 8008462:	9401      	str	r4, [sp, #4]
 8008464:	f2c5 0900 	movt	r9, #20480	; 0x5000
 8008468:	f2c5 0b00 	movt	fp, #20480	; 0x5000
 800846c:	4661      	mov	r1, ip
 800846e:	f2c5 0200 	movt	r2, #20480	; 0x5000
 8008472:	4698      	mov	r8, r3
 8008474:	e7d9      	b.n	800842a <USB_OTG_SelectCore+0x17e>
 8008476:	4688      	mov	r8, r1
 8008478:	e767      	b.n	800834a <USB_OTG_SelectCore+0x9e>
 800847a:	bf00      	nop

0800847c <USB_OTG_CoreInit>:
 800847c:	b538      	push	{r3, r4, r5, lr}
 800847e:	7a03      	ldrb	r3, [r0, #8]
 8008480:	2500      	movs	r5, #0
 8008482:	2b01      	cmp	r3, #1
 8008484:	4604      	mov	r4, r0
 8008486:	d034      	beq.n	80084f2 <USB_OTG_CoreInit+0x76>
 8008488:	68c1      	ldr	r1, [r0, #12]
 800848a:	68c8      	ldr	r0, [r1, #12]
 800848c:	f040 0240 	orr.w	r2, r0, #64	; 0x40
 8008490:	60ca      	str	r2, [r1, #12]
 8008492:	4620      	mov	r0, r4
 8008494:	f7ff fe78 	bl	8008188 <USB_OTG_CoreReset>
 8008498:	7a23      	ldrb	r3, [r4, #8]
 800849a:	7a60      	ldrb	r0, [r4, #9]
 800849c:	2b03      	cmp	r3, #3
 800849e:	bf14      	ite	ne
 80084a0:	f44f 3280 	movne.w	r2, #65536	; 0x10000
 80084a4:	f44f 3240 	moveq.w	r2, #196608	; 0x30000
 80084a8:	f442 1330 	orr.w	r3, r2, #2883584	; 0x2c0000
 80084ac:	b108      	cbz	r0, 80084b2 <USB_OTG_CoreInit+0x36>
 80084ae:	f442 1370 	orr.w	r3, r2, #3932160	; 0x3c0000
 80084b2:	68e2      	ldr	r2, [r4, #12]
 80084b4:	2014      	movs	r0, #20
 80084b6:	6393      	str	r3, [r2, #56]	; 0x38
 80084b8:	f7fb f8d0 	bl	800365c <USB_OTG_BSP_mDelay>
 80084bc:	68e3      	ldr	r3, [r4, #12]
 80084be:	7a21      	ldrb	r1, [r4, #8]
 80084c0:	68da      	ldr	r2, [r3, #12]
 80084c2:	2903      	cmp	r1, #3
 80084c4:	bf08      	it	eq
 80084c6:	f442 3280 	orreq.w	r2, r2, #65536	; 0x10000
 80084ca:	60da      	str	r2, [r3, #12]
 80084cc:	f894 c008 	ldrb.w	ip, [r4, #8]
 80084d0:	f1bc 0f03 	cmp.w	ip, #3
 80084d4:	d039      	beq.n	800854a <USB_OTG_CoreInit+0xce>
 80084d6:	f894 e003 	ldrb.w	lr, [r4, #3]
 80084da:	f1be 0f01 	cmp.w	lr, #1
 80084de:	d106      	bne.n	80084ee <USB_OTG_CoreInit+0x72>
 80084e0:	68e3      	ldr	r3, [r4, #12]
 80084e2:	689a      	ldr	r2, [r3, #8]
 80084e4:	f022 013e 	bic.w	r1, r2, #62	; 0x3e
 80084e8:	f041 002a 	orr.w	r0, r1, #42	; 0x2a
 80084ec:	6098      	str	r0, [r3, #8]
 80084ee:	2000      	movs	r0, #0
 80084f0:	bd38      	pop	{r3, r4, r5, pc}
 80084f2:	68c2      	ldr	r2, [r0, #12]
 80084f4:	7a41      	ldrb	r1, [r0, #9]
 80084f6:	6b93      	ldr	r3, [r2, #56]	; 0x38
 80084f8:	f365 4310 	bfi	r3, r5, #16, #1
 80084fc:	b109      	cbz	r1, 8008502 <USB_OTG_CoreInit+0x86>
 80084fe:	f443 1380 	orr.w	r3, r3, #1048576	; 0x100000
 8008502:	6393      	str	r3, [r2, #56]	; 0x38
 8008504:	68d3      	ldr	r3, [r2, #12]
 8008506:	f423 0080 	bic.w	r0, r3, #4194304	; 0x400000
 800850a:	f020 0150 	bic.w	r1, r0, #80	; 0x50
 800850e:	f041 0310 	orr.w	r3, r1, #16
 8008512:	f36f 03c3 	bfc	r3, #3, #1
 8008516:	f36f 13c7 	bfc	r3, #7, #1
 800851a:	f36f 4351 	bfc	r3, #17, #1
 800851e:	f36f 43d3 	bfc	r3, #19, #1
 8008522:	60d3      	str	r3, [r2, #12]
 8008524:	4620      	mov	r0, r4
 8008526:	f7ff fe2f 	bl	8008188 <USB_OTG_CoreReset>
 800852a:	78e0      	ldrb	r0, [r4, #3]
 800852c:	2801      	cmp	r0, #1
 800852e:	d1de      	bne.n	80084ee <USB_OTG_CoreInit+0x72>
 8008530:	2105      	movs	r1, #5
 8008532:	f361 0544 	bfi	r5, r1, #1, #4
 8008536:	68e2      	ldr	r2, [r4, #12]
 8008538:	f045 0520 	orr.w	r5, r5, #32
 800853c:	6095      	str	r5, [r2, #8]
 800853e:	f894 e003 	ldrb.w	lr, [r4, #3]
 8008542:	f1be 0f01 	cmp.w	lr, #1
 8008546:	d0cb      	beq.n	80084e0 <USB_OTG_CoreInit+0x64>
 8008548:	e7d1      	b.n	80084ee <USB_OTG_CoreInit+0x72>
 800854a:	6b19      	ldr	r1, [r3, #48]	; 0x30
 800854c:	2201      	movs	r2, #1
 800854e:	f362 619b 	bfi	r1, r2, #26, #2
 8008552:	f36f 51d7 	bfc	r1, #23, #1
 8008556:	f041 5580 	orr.w	r5, r1, #268435456	; 0x10000000
 800855a:	202d      	movs	r0, #45	; 0x2d
 800855c:	f360 4516 	bfi	r5, r0, #16, #7
 8008560:	631d      	str	r5, [r3, #48]	; 0x30
 8008562:	20c8      	movs	r0, #200	; 0xc8
 8008564:	f7fb f87a 	bl	800365c <USB_OTG_BSP_mDelay>
 8008568:	68e3      	ldr	r3, [r4, #12]
 800856a:	f445 0500 	orr.w	r5, r5, #8388608	; 0x800000
 800856e:	631d      	str	r5, [r3, #48]	; 0x30
 8008570:	20c8      	movs	r0, #200	; 0xc8
 8008572:	f7fb f873 	bl	800365c <USB_OTG_BSP_mDelay>
 8008576:	e7ae      	b.n	80084d6 <USB_OTG_CoreInit+0x5a>

08008578 <USB_OTG_EnableGlobalInt>:
 8008578:	68c3      	ldr	r3, [r0, #12]
 800857a:	6898      	ldr	r0, [r3, #8]
 800857c:	f040 0201 	orr.w	r2, r0, #1
 8008580:	609a      	str	r2, [r3, #8]
 8008582:	2000      	movs	r0, #0
 8008584:	4770      	bx	lr
 8008586:	bf00      	nop

08008588 <USB_OTG_DisableGlobalInt>:
 8008588:	68c3      	ldr	r3, [r0, #12]
 800858a:	6898      	ldr	r0, [r3, #8]
 800858c:	f020 0201 	bic.w	r2, r0, #1
 8008590:	609a      	str	r2, [r3, #8]
 8008592:	2000      	movs	r0, #0
 8008594:	4770      	bx	lr
 8008596:	bf00      	nop

08008598 <USB_OTG_FlushTxFifo>:
 8008598:	b500      	push	{lr}
 800859a:	b083      	sub	sp, #12
 800859c:	2300      	movs	r3, #0
 800859e:	9301      	str	r3, [sp, #4]
 80085a0:	9a01      	ldr	r2, [sp, #4]
 80085a2:	f042 0320 	orr.w	r3, r2, #32
 80085a6:	9301      	str	r3, [sp, #4]
 80085a8:	9a01      	ldr	r2, [sp, #4]
 80085aa:	f361 128a 	bfi	r2, r1, #6, #5
 80085ae:	9201      	str	r2, [sp, #4]
 80085b0:	9b01      	ldr	r3, [sp, #4]
 80085b2:	68c2      	ldr	r2, [r0, #12]
 80085b4:	6113      	str	r3, [r2, #16]
 80085b6:	6911      	ldr	r1, [r2, #16]
 80085b8:	f44f 6354 	mov.w	r3, #3392	; 0xd40
 80085bc:	9101      	str	r1, [sp, #4]
 80085be:	f2c0 0303 	movt	r3, #3
 80085c2:	e008      	b.n	80085d6 <USB_OTG_FlushTxFifo+0x3e>
 80085c4:	6911      	ldr	r1, [r2, #16]
 80085c6:	9101      	str	r1, [sp, #4]
 80085c8:	9801      	ldr	r0, [sp, #4]
 80085ca:	0680      	lsls	r0, r0, #26
 80085cc:	d509      	bpl.n	80085e2 <USB_OTG_FlushTxFifo+0x4a>
 80085ce:	6911      	ldr	r1, [r2, #16]
 80085d0:	3b01      	subs	r3, #1
 80085d2:	9101      	str	r1, [sp, #4]
 80085d4:	d005      	beq.n	80085e2 <USB_OTG_FlushTxFifo+0x4a>
 80085d6:	9801      	ldr	r0, [sp, #4]
 80085d8:	f010 0f20 	tst.w	r0, #32
 80085dc:	f103 33ff 	add.w	r3, r3, #4294967295
 80085e0:	d1f0      	bne.n	80085c4 <USB_OTG_FlushTxFifo+0x2c>
 80085e2:	2003      	movs	r0, #3
 80085e4:	f7fb f81e 	bl	8003624 <USB_OTG_BSP_uDelay>
 80085e8:	2000      	movs	r0, #0
 80085ea:	b003      	add	sp, #12
 80085ec:	bd00      	pop	{pc}
 80085ee:	bf00      	nop

080085f0 <USB_OTG_FlushRxFifo>:
 80085f0:	b500      	push	{lr}
 80085f2:	b083      	sub	sp, #12
 80085f4:	2300      	movs	r3, #0
 80085f6:	9301      	str	r3, [sp, #4]
 80085f8:	9901      	ldr	r1, [sp, #4]
 80085fa:	f041 0210 	orr.w	r2, r1, #16
 80085fe:	9201      	str	r2, [sp, #4]
 8008600:	9b01      	ldr	r3, [sp, #4]
 8008602:	68c2      	ldr	r2, [r0, #12]
 8008604:	6113      	str	r3, [r2, #16]
 8008606:	6911      	ldr	r1, [r2, #16]
 8008608:	f44f 6354 	mov.w	r3, #3392	; 0xd40
 800860c:	9101      	str	r1, [sp, #4]
 800860e:	f2c0 0303 	movt	r3, #3
 8008612:	e008      	b.n	8008626 <USB_OTG_FlushRxFifo+0x36>
 8008614:	6911      	ldr	r1, [r2, #16]
 8008616:	9101      	str	r1, [sp, #4]
 8008618:	9801      	ldr	r0, [sp, #4]
 800861a:	06c1      	lsls	r1, r0, #27
 800861c:	d509      	bpl.n	8008632 <USB_OTG_FlushRxFifo+0x42>
 800861e:	6911      	ldr	r1, [r2, #16]
 8008620:	3b01      	subs	r3, #1
 8008622:	9101      	str	r1, [sp, #4]
 8008624:	d005      	beq.n	8008632 <USB_OTG_FlushRxFifo+0x42>
 8008626:	9801      	ldr	r0, [sp, #4]
 8008628:	f010 0f10 	tst.w	r0, #16
 800862c:	f103 33ff 	add.w	r3, r3, #4294967295
 8008630:	d1f0      	bne.n	8008614 <USB_OTG_FlushRxFifo+0x24>
 8008632:	2003      	movs	r0, #3
 8008634:	f7fa fff6 	bl	8003624 <USB_OTG_BSP_uDelay>
 8008638:	2000      	movs	r0, #0
 800863a:	b003      	add	sp, #12
 800863c:	bd00      	pop	{pc}
 800863e:	bf00      	nop

08008640 <USB_OTG_SetCurrentMode>:
 8008640:	b508      	push	{r3, lr}
 8008642:	68c2      	ldr	r2, [r0, #12]
 8008644:	68d3      	ldr	r3, [r2, #12]
 8008646:	2901      	cmp	r1, #1
 8008648:	f36f 735d 	bfc	r3, #29, #1
 800864c:	f36f 739e 	bfc	r3, #30, #1
 8008650:	d008      	beq.n	8008664 <USB_OTG_SetCurrentMode+0x24>
 8008652:	b909      	cbnz	r1, 8008658 <USB_OTG_SetCurrentMode+0x18>
 8008654:	f043 4380 	orr.w	r3, r3, #1073741824	; 0x40000000
 8008658:	2032      	movs	r0, #50	; 0x32
 800865a:	60d3      	str	r3, [r2, #12]
 800865c:	f7fa fffe 	bl	800365c <USB_OTG_BSP_mDelay>
 8008660:	2000      	movs	r0, #0
 8008662:	bd08      	pop	{r3, pc}
 8008664:	f043 5300 	orr.w	r3, r3, #536870912	; 0x20000000
 8008668:	2032      	movs	r0, #50	; 0x32
 800866a:	60d3      	str	r3, [r2, #12]
 800866c:	f7fa fff6 	bl	800365c <USB_OTG_BSP_mDelay>
 8008670:	2000      	movs	r0, #0
 8008672:	bd08      	pop	{r3, pc}

08008674 <USB_OTG_GetMode>:
 8008674:	68c3      	ldr	r3, [r0, #12]
 8008676:	6958      	ldr	r0, [r3, #20]
 8008678:	f000 0001 	and.w	r0, r0, #1
 800867c:	4770      	bx	lr
 800867e:	bf00      	nop

08008680 <USB_OTG_IsDeviceMode>:
 8008680:	68c0      	ldr	r0, [r0, #12]
 8008682:	6943      	ldr	r3, [r0, #20]
 8008684:	f013 0f01 	tst.w	r3, #1
 8008688:	bf14      	ite	ne
 800868a:	2000      	movne	r0, #0
 800868c:	2001      	moveq	r0, #1
 800868e:	4770      	bx	lr

08008690 <USB_OTG_IsHostMode>:
 8008690:	68c3      	ldr	r3, [r0, #12]
 8008692:	6958      	ldr	r0, [r3, #20]
 8008694:	f000 0001 	and.w	r0, r0, #1
 8008698:	4770      	bx	lr
 800869a:	bf00      	nop

0800869c <USB_OTG_ReadCoreItr>:
 800869c:	68c3      	ldr	r3, [r0, #12]
 800869e:	695a      	ldr	r2, [r3, #20]
 80086a0:	6998      	ldr	r0, [r3, #24]
 80086a2:	4010      	ands	r0, r2
 80086a4:	4770      	bx	lr
 80086a6:	bf00      	nop

080086a8 <USB_OTG_ReadOtgItr>:
 80086a8:	68c3      	ldr	r3, [r0, #12]
 80086aa:	6858      	ldr	r0, [r3, #4]
 80086ac:	4770      	bx	lr
 80086ae:	bf00      	nop

080086b0 <USB_OTG_InitDevSpeed>:
 80086b0:	6903      	ldr	r3, [r0, #16]
 80086b2:	681a      	ldr	r2, [r3, #0]
 80086b4:	f361 0201 	bfi	r2, r1, #0, #2
 80086b8:	601a      	str	r2, [r3, #0]
 80086ba:	4770      	bx	lr

080086bc <USB_OTG_EnableDevInt>:
 80086bc:	b410      	push	{r4}
 80086be:	68c3      	ldr	r3, [r0, #12]
 80086c0:	f44f 6400 	mov.w	r4, #2048	; 0x800
 80086c4:	2200      	movs	r2, #0
 80086c6:	f04f 31ff 	mov.w	r1, #4294967295
 80086ca:	f2c8 0400 	movt	r4, #32768	; 0x8000
 80086ce:	619a      	str	r2, [r3, #24]
 80086d0:	6159      	str	r1, [r3, #20]
 80086d2:	6059      	str	r1, [r3, #4]
 80086d4:	6159      	str	r1, [r3, #20]
 80086d6:	619c      	str	r4, [r3, #24]
 80086d8:	f890 c003 	ldrb.w	ip, [r0, #3]
 80086dc:	6998      	ldr	r0, [r3, #24]
 80086de:	4594      	cmp	ip, r2
 80086e0:	bf14      	ite	ne
 80086e2:	4611      	movne	r1, r2
 80086e4:	2110      	moveq	r1, #16
 80086e6:	f441 2c87 	orr.w	ip, r1, #276480	; 0x43800
 80086ea:	f04c 1108 	orr.w	r1, ip, #524296	; 0x80008
 80086ee:	f441 1c40 	orr.w	ip, r1, #3145728	; 0x300000
 80086f2:	ea20 000c 	bic.w	r0, r0, ip
 80086f6:	ea40 010c 	orr.w	r1, r0, ip
 80086fa:	6199      	str	r1, [r3, #24]
 80086fc:	4610      	mov	r0, r2
 80086fe:	bc10      	pop	{r4}
 8008700:	4770      	bx	lr
 8008702:	bf00      	nop

08008704 <USB_OTG_CoreInitDev>:
 8008704:	b5f8      	push	{r3, r4, r5, r6, r7, lr}
 8008706:	f8d0 510c 	ldr.w	r5, [r0, #268]	; 0x10c
 800870a:	6902      	ldr	r2, [r0, #16]
 800870c:	2300      	movs	r3, #0
 800870e:	602b      	str	r3, [r5, #0]
 8008710:	4604      	mov	r4, r0
 8008712:	6810      	ldr	r0, [r2, #0]
 8008714:	f363 20cc 	bfi	r0, r3, #11, #2
 8008718:	6010      	str	r0, [r2, #0]
 800871a:	7ae1      	ldrb	r1, [r4, #11]
 800871c:	2901      	cmp	r1, #1
 800871e:	d057      	beq.n	80087d0 <USB_OTG_CoreInitDev+0xcc>
 8008720:	2110      	movs	r1, #16
 8008722:	4620      	mov	r0, r4
 8008724:	f7ff ff38 	bl	8008598 <USB_OTG_FlushTxFifo>
 8008728:	4620      	mov	r0, r4
 800872a:	f7ff ff61 	bl	80085f0 <USB_OTG_FlushRxFifo>
 800872e:	6925      	ldr	r5, [r4, #16]
 8008730:	2200      	movs	r2, #0
 8008732:	f04f 30ff 	mov.w	r0, #4294967295
 8008736:	612a      	str	r2, [r5, #16]
 8008738:	616a      	str	r2, [r5, #20]
 800873a:	61a8      	str	r0, [r5, #24]
 800873c:	61ea      	str	r2, [r5, #28]
 800873e:	7863      	ldrb	r3, [r4, #1]
 8008740:	2b00      	cmp	r3, #0
 8008742:	d031      	beq.n	80087a8 <USB_OTG_CoreInitDev+0xa4>
 8008744:	f104 0014 	add.w	r0, r4, #20
 8008748:	4617      	mov	r7, r2
 800874a:	26ff      	movs	r6, #255	; 0xff
 800874c:	f850 3f04 	ldr.w	r3, [r0, #4]!
 8008750:	6819      	ldr	r1, [r3, #0]
 8008752:	f3c1 6e07 	ubfx	lr, r1, #24, #8
 8008756:	f00e 0c80 	and.w	ip, lr, #128	; 0x80
 800875a:	fa5f f18c 	uxtb.w	r1, ip
 800875e:	2900      	cmp	r1, #0
 8008760:	bf18      	it	ne
 8008762:	f04f 4190 	movne.w	r1, #1207959552	; 0x48000000
 8008766:	6019      	str	r1, [r3, #0]
 8008768:	611f      	str	r7, [r3, #16]
 800876a:	609e      	str	r6, [r3, #8]
 800876c:	7863      	ldrb	r3, [r4, #1]
 800876e:	3201      	adds	r2, #1
 8008770:	4293      	cmp	r3, r2
 8008772:	d8eb      	bhi.n	800874c <USB_OTG_CoreInitDev+0x48>
 8008774:	b1c3      	cbz	r3, 80087a8 <USB_OTG_CoreInitDev+0xa4>
 8008776:	2200      	movs	r2, #0
 8008778:	f104 0050 	add.w	r0, r4, #80	; 0x50
 800877c:	4617      	mov	r7, r2
 800877e:	26ff      	movs	r6, #255	; 0xff
 8008780:	f850 3f04 	ldr.w	r3, [r0, #4]!
 8008784:	6819      	ldr	r1, [r3, #0]
 8008786:	f3c1 6e07 	ubfx	lr, r1, #24, #8
 800878a:	f00e 0c80 	and.w	ip, lr, #128	; 0x80
 800878e:	fa5f f18c 	uxtb.w	r1, ip
 8008792:	2900      	cmp	r1, #0
 8008794:	bf18      	it	ne
 8008796:	f04f 4190 	movne.w	r1, #1207959552	; 0x48000000
 800879a:	6019      	str	r1, [r3, #0]
 800879c:	611f      	str	r7, [r3, #16]
 800879e:	609e      	str	r6, [r3, #8]
 80087a0:	7863      	ldrb	r3, [r4, #1]
 80087a2:	3201      	adds	r2, #1
 80087a4:	4293      	cmp	r3, r2
 80087a6:	d8eb      	bhi.n	8008780 <USB_OTG_CoreInitDev+0x7c>
 80087a8:	6928      	ldr	r0, [r5, #16]
 80087aa:	f440 7280 	orr.w	r2, r0, #256	; 0x100
 80087ae:	612a      	str	r2, [r5, #16]
 80087b0:	78e3      	ldrb	r3, [r4, #3]
 80087b2:	2b01      	cmp	r3, #1
 80087b4:	d107      	bne.n	80087c6 <USB_OTG_CoreInitDev+0xc2>
 80087b6:	f503 7381 	add.w	r3, r3, #258	; 0x102
 80087ba:	f2c0 0301 	movt	r3, #1
 80087be:	2140      	movs	r1, #64	; 0x40
 80087c0:	f361 4359 	bfi	r3, r1, #17, #9
 80087c4:	632b      	str	r3, [r5, #48]	; 0x30
 80087c6:	4620      	mov	r0, r4
 80087c8:	f7ff ff78 	bl	80086bc <USB_OTG_EnableDevInt>
 80087cc:	2000      	movs	r0, #0
 80087ce:	bdf8      	pop	{r3, r4, r5, r6, r7, pc}
 80087d0:	6816      	ldr	r6, [r2, #0]
 80087d2:	68e0      	ldr	r0, [r4, #12]
 80087d4:	2580      	movs	r5, #128	; 0x80
 80087d6:	f44f 1100 	mov.w	r1, #2097152	; 0x200000
 80087da:	27a0      	movs	r7, #160	; 0xa0
 80087dc:	f365 010f 	bfi	r1, r5, #0, #16
 80087e0:	f367 030f 	bfi	r3, r7, #0, #16
 80087e4:	f046 0603 	orr.w	r6, r6, #3
 80087e8:	6016      	str	r6, [r2, #0]
 80087ea:	f365 431f 	bfi	r3, r5, #16, #16
 80087ee:	6245      	str	r5, [r0, #36]	; 0x24
 80087f0:	6281      	str	r1, [r0, #40]	; 0x28
 80087f2:	f44f 7190 	mov.w	r1, #288	; 0x120
 80087f6:	f8c0 3104 	str.w	r3, [r0, #260]	; 0x104
 80087fa:	f361 030f 	bfi	r3, r1, #0, #16
 80087fe:	f2c0 0320 	movt	r3, #32
 8008802:	f44f 72a0 	mov.w	r2, #320	; 0x140
 8008806:	f8c0 3108 	str.w	r3, [r0, #264]	; 0x108
 800880a:	f362 030f 	bfi	r3, r2, #0, #16
 800880e:	f36f 431f 	bfc	r3, #16, #16
 8008812:	f8c0 310c 	str.w	r3, [r0, #268]	; 0x10c
 8008816:	e783      	b.n	8008720 <USB_OTG_CoreInitDev+0x1c>

08008818 <USB_OTG_GetDeviceSpeed>:
 8008818:	6901      	ldr	r1, [r0, #16]
 800881a:	688b      	ldr	r3, [r1, #8]
 800881c:	f3c3 0141 	ubfx	r1, r3, #1, #2
 8008820:	1e4b      	subs	r3, r1, #1
 8008822:	2b02      	cmp	r3, #2
 8008824:	bf9a      	itte	ls
 8008826:	4a02      	ldrls	r2, [pc, #8]	; (8008830 <USB_OTG_GetDeviceSpeed+0x18>)
 8008828:	5cd0      	ldrbls	r0, [r2, r3]
 800882a:	2003      	movhi	r0, #3
 800882c:	4770      	bx	lr
 800882e:	bf00      	nop
 8008830:	0800ac44 	stmdaeq	r0, {r2, r6, sl, fp, sp, pc}

08008834 <USB_OTG_EP0Activate>:
 8008834:	6903      	ldr	r3, [r0, #16]
 8008836:	6982      	ldr	r2, [r0, #24]
 8008838:	6898      	ldr	r0, [r3, #8]
 800883a:	6811      	ldr	r1, [r2, #0]
 800883c:	f3c0 0041 	ubfx	r0, r0, #1, #2
 8008840:	2802      	cmp	r0, #2
 8008842:	d008      	beq.n	8008856 <USB_OTG_EP0Activate+0x22>
 8008844:	f36f 010a 	bfc	r1, #0, #11
 8008848:	6011      	str	r1, [r2, #0]
 800884a:	6859      	ldr	r1, [r3, #4]
 800884c:	f441 7280 	orr.w	r2, r1, #256	; 0x100
 8008850:	605a      	str	r2, [r3, #4]
 8008852:	2000      	movs	r0, #0
 8008854:	4770      	bx	lr
 8008856:	2003      	movs	r0, #3
 8008858:	f360 010a 	bfi	r1, r0, #0, #11
 800885c:	6011      	str	r1, [r2, #0]
 800885e:	6859      	ldr	r1, [r3, #4]
 8008860:	f441 7280 	orr.w	r2, r1, #256	; 0x100
 8008864:	605a      	str	r2, [r3, #4]
 8008866:	2000      	movs	r0, #0
 8008868:	4770      	bx	lr
 800886a:	bf00      	nop

0800886c <USB_OTG_EPActivate>:
 800886c:	b470      	push	{r4, r5, r6}
 800886e:	784b      	ldrb	r3, [r1, #1]
 8008870:	2200      	movs	r2, #0
 8008872:	2b01      	cmp	r3, #1
 8008874:	d026      	beq.n	80088c4 <USB_OTG_EPActivate+0x58>
 8008876:	780b      	ldrb	r3, [r1, #0]
 8008878:	eb00 0483 	add.w	r4, r0, r3, lsl #2
 800887c:	2501      	movs	r5, #1
 800887e:	fa05 fc03 	lsl.w	ip, r5, r3
 8008882:	6d64      	ldr	r4, [r4, #84]	; 0x54
 8008884:	f36c 421f 	bfi	r2, ip, #16, #16
 8008888:	6823      	ldr	r3, [r4, #0]
 800888a:	f3c3 2507 	ubfx	r5, r3, #8, #8
 800888e:	f005 0c80 	and.w	ip, r5, #128	; 0x80
 8008892:	fa5f f58c 	uxtb.w	r5, ip
 8008896:	b975      	cbnz	r5, 80088b6 <USB_OTG_EPActivate+0x4a>
 8008898:	688e      	ldr	r6, [r1, #8]
 800889a:	78cd      	ldrb	r5, [r1, #3]
 800889c:	f8b1 c006 	ldrh.w	ip, [r1, #6]
 80088a0:	f366 030a 	bfi	r3, r6, #0, #11
 80088a4:	f365 4393 	bfi	r3, r5, #18, #2
 80088a8:	f36c 5399 	bfi	r3, ip, #22, #4
 80088ac:	f043 5380 	orr.w	r3, r3, #268435456	; 0x10000000
 80088b0:	f443 4100 	orr.w	r1, r3, #32768	; 0x8000
 80088b4:	6021      	str	r1, [r4, #0]
 80088b6:	6900      	ldr	r0, [r0, #16]
 80088b8:	69c1      	ldr	r1, [r0, #28]
 80088ba:	430a      	orrs	r2, r1
 80088bc:	61c2      	str	r2, [r0, #28]
 80088be:	2000      	movs	r0, #0
 80088c0:	bc70      	pop	{r4, r5, r6}
 80088c2:	4770      	bx	lr
 80088c4:	780c      	ldrb	r4, [r1, #0]
 80088c6:	eb00 0584 	add.w	r5, r0, r4, lsl #2
 80088ca:	fa03 f304 	lsl.w	r3, r3, r4
 80088ce:	f363 020f 	bfi	r2, r3, #0, #16
 80088d2:	69ac      	ldr	r4, [r5, #24]
 80088d4:	e7d8      	b.n	8008888 <USB_OTG_EPActivate+0x1c>
 80088d6:	bf00      	nop

080088d8 <USB_OTG_EPDeactivate>:
 80088d8:	b430      	push	{r4, r5}
 80088da:	784a      	ldrb	r2, [r1, #1]
 80088dc:	2300      	movs	r3, #0
 80088de:	2a01      	cmp	r2, #1
 80088e0:	461c      	mov	r4, r3
 80088e2:	d013      	beq.n	800890c <USB_OTG_EPDeactivate+0x34>
 80088e4:	780a      	ldrb	r2, [r1, #0]
 80088e6:	eb00 0182 	add.w	r1, r0, r2, lsl #2
 80088ea:	2501      	movs	r5, #1
 80088ec:	fa05 fc02 	lsl.w	ip, r5, r2
 80088f0:	6d49      	ldr	r1, [r1, #84]	; 0x54
 80088f2:	f36c 441f 	bfi	r4, ip, #16, #16
 80088f6:	6900      	ldr	r0, [r0, #16]
 80088f8:	f36f 33cf 	bfc	r3, #15, #1
 80088fc:	600b      	str	r3, [r1, #0]
 80088fe:	69c3      	ldr	r3, [r0, #28]
 8008900:	ea23 0404 	bic.w	r4, r3, r4
 8008904:	61c4      	str	r4, [r0, #28]
 8008906:	2000      	movs	r0, #0
 8008908:	bc30      	pop	{r4, r5}
 800890a:	4770      	bx	lr
 800890c:	7809      	ldrb	r1, [r1, #0]
 800890e:	eb00 0581 	add.w	r5, r0, r1, lsl #2
 8008912:	fa02 f201 	lsl.w	r2, r2, r1
 8008916:	f362 040f 	bfi	r4, r2, #0, #16
 800891a:	69a9      	ldr	r1, [r5, #24]
 800891c:	e7eb      	b.n	80088f6 <USB_OTG_EPDeactivate+0x1e>
 800891e:	bf00      	nop

08008920 <USB_OTG_EPStartXfer>:
 8008920:	e92d 01f0 	stmdb	sp!, {r4, r5, r6, r7, r8}
 8008924:	784b      	ldrb	r3, [r1, #1]
 8008926:	2b01      	cmp	r3, #1
 8008928:	d044      	beq.n	80089b4 <USB_OTG_EPStartXfer+0x94>
 800892a:	780c      	ldrb	r4, [r1, #0]
 800892c:	694d      	ldr	r5, [r1, #20]
 800892e:	eb00 0784 	add.w	r7, r0, r4, lsl #2
 8008932:	6d7b      	ldr	r3, [r7, #84]	; 0x54
 8008934:	681f      	ldr	r7, [r3, #0]
 8008936:	691a      	ldr	r2, [r3, #16]
 8008938:	463e      	mov	r6, r7
 800893a:	b30d      	cbz	r5, 8008980 <USB_OTG_EPStartXfer+0x60>
 800893c:	f8d1 c008 	ldr.w	ip, [r1, #8]
 8008940:	eb05 040c 	add.w	r4, r5, ip
 8008944:	3c01      	subs	r4, #1
 8008946:	fbb4 f4fc 	udiv	r4, r4, ip
 800894a:	05a4      	lsls	r4, r4, #22
 800894c:	0da4      	lsrs	r4, r4, #22
 800894e:	f364 42dc 	bfi	r2, r4, #19, #10
 8008952:	fb0c f404 	mul.w	r4, ip, r4
 8008956:	f364 0212 	bfi	r2, r4, #0, #19
 800895a:	611a      	str	r2, [r3, #16]
 800895c:	78c2      	ldrb	r2, [r0, #3]
 800895e:	2a01      	cmp	r2, #1
 8008960:	d018      	beq.n	8008994 <USB_OTG_EPStartXfer+0x74>
 8008962:	78ca      	ldrb	r2, [r1, #3]
 8008964:	2a01      	cmp	r2, #1
 8008966:	d01f      	beq.n	80089a8 <USB_OTG_EPStartXfer+0x88>
 8008968:	f891 c000 	ldrb.w	ip, [r1]
 800896c:	eb00 008c 	add.w	r0, r0, ip, lsl #2
 8008970:	f046 4604 	orr.w	r6, r6, #2214592512	; 0x84000000
 8008974:	6d41      	ldr	r1, [r0, #84]	; 0x54
 8008976:	600e      	str	r6, [r1, #0]
 8008978:	2000      	movs	r0, #0
 800897a:	e8bd 01f0 	ldmia.w	sp!, {r4, r5, r6, r7, r8}
 800897e:	4770      	bx	lr
 8008980:	688c      	ldr	r4, [r1, #8]
 8008982:	f364 0212 	bfi	r2, r4, #0, #19
 8008986:	2401      	movs	r4, #1
 8008988:	f364 42dc 	bfi	r2, r4, #19, #10
 800898c:	611a      	str	r2, [r3, #16]
 800898e:	78c2      	ldrb	r2, [r0, #3]
 8008990:	2a01      	cmp	r2, #1
 8008992:	d1e6      	bne.n	8008962 <USB_OTG_EPStartXfer+0x42>
 8008994:	780b      	ldrb	r3, [r1, #0]
 8008996:	690a      	ldr	r2, [r1, #16]
 8008998:	eb00 0c83 	add.w	ip, r0, r3, lsl #2
 800899c:	f8dc 3054 	ldr.w	r3, [ip, #84]	; 0x54
 80089a0:	615a      	str	r2, [r3, #20]
 80089a2:	78ca      	ldrb	r2, [r1, #3]
 80089a4:	2a01      	cmp	r2, #1
 80089a6:	d1df      	bne.n	8008968 <USB_OTG_EPStartXfer+0x48>
 80089a8:	794e      	ldrb	r6, [r1, #5]
 80089aa:	2e00      	cmp	r6, #0
 80089ac:	d076      	beq.n	8008a9c <USB_OTG_EPStartXfer+0x17c>
 80089ae:	f047 5600 	orr.w	r6, r7, #536870912	; 0x20000000
 80089b2:	e7d9      	b.n	8008968 <USB_OTG_EPStartXfer+0x48>
 80089b4:	780d      	ldrb	r5, [r1, #0]
 80089b6:	694a      	ldr	r2, [r1, #20]
 80089b8:	eb00 0485 	add.w	r4, r0, r5, lsl #2
 80089bc:	69a5      	ldr	r5, [r4, #24]
 80089be:	682f      	ldr	r7, [r5, #0]
 80089c0:	692c      	ldr	r4, [r5, #16]
 80089c2:	463e      	mov	r6, r7
 80089c4:	2a00      	cmp	r2, #0
 80089c6:	d064      	beq.n	8008a92 <USB_OTG_EPStartXfer+0x172>
 80089c8:	688b      	ldr	r3, [r1, #8]
 80089ca:	f891 c003 	ldrb.w	ip, [r1, #3]
 80089ce:	eb02 0803 	add.w	r8, r2, r3
 80089d2:	f108 38ff 	add.w	r8, r8, #4294967295
 80089d6:	f362 0412 	bfi	r4, r2, #0, #19
 80089da:	fbb8 f3f3 	udiv	r3, r8, r3
 80089de:	f363 44dc 	bfi	r4, r3, #19, #10
 80089e2:	f1bc 0f01 	cmp.w	ip, #1
 80089e6:	bf08      	it	eq
 80089e8:	f36c 745e 	bfieq	r4, ip, #29, #2
 80089ec:	612c      	str	r4, [r5, #16]
 80089ee:	f890 c003 	ldrb.w	ip, [r0, #3]
 80089f2:	f1bc 0f01 	cmp.w	ip, #1
 80089f6:	d05d      	beq.n	8008ab4 <USB_OTG_EPStartXfer+0x194>
 80089f8:	f891 c003 	ldrb.w	ip, [r1, #3]
 80089fc:	f1bc 0f01 	cmp.w	ip, #1
 8008a00:	d04f      	beq.n	8008aa2 <USB_OTG_EPStartXfer+0x182>
 8008a02:	b15a      	cbz	r2, 8008a1c <USB_OTG_EPStartXfer+0xfc>
 8008a04:	6903      	ldr	r3, [r0, #16]
 8008a06:	780c      	ldrb	r4, [r1, #0]
 8008a08:	6b5d      	ldr	r5, [r3, #52]	; 0x34
 8008a0a:	f04f 0c01 	mov.w	ip, #1
 8008a0e:	fa0c f404 	lsl.w	r4, ip, r4
 8008a12:	432c      	orrs	r4, r5
 8008a14:	635c      	str	r4, [r3, #52]	; 0x34
 8008a16:	78cb      	ldrb	r3, [r1, #3]
 8008a18:	2b01      	cmp	r3, #1
 8008a1a:	d042      	beq.n	8008aa2 <USB_OTG_EPStartXfer+0x182>
 8008a1c:	780b      	ldrb	r3, [r1, #0]
 8008a1e:	eb00 0c83 	add.w	ip, r0, r3, lsl #2
 8008a22:	f046 4604 	orr.w	r6, r6, #2214592512	; 0x84000000
 8008a26:	f8dc 3018 	ldr.w	r3, [ip, #24]
 8008a2a:	601e      	str	r6, [r3, #0]
 8008a2c:	78cb      	ldrb	r3, [r1, #3]
 8008a2e:	2b01      	cmp	r3, #1
 8008a30:	d1a2      	bne.n	8008978 <USB_OTG_EPStartXfer+0x58>
 8008a32:	78c5      	ldrb	r5, [r0, #3]
 8008a34:	68cc      	ldr	r4, [r1, #12]
 8008a36:	7809      	ldrb	r1, [r1, #0]
 8008a38:	2d00      	cmp	r5, #0
 8008a3a:	d19d      	bne.n	8008978 <USB_OTG_EPStartXfer+0x58>
 8008a3c:	b292      	uxth	r2, r2
 8008a3e:	eb00 0081 	add.w	r0, r0, r1, lsl #2
 8008a42:	3203      	adds	r2, #3
 8008a44:	1092      	asrs	r2, r2, #2
 8008a46:	f8d0 10d0 	ldr.w	r1, [r0, #208]	; 0xd0
 8008a4a:	d095      	beq.n	8008978 <USB_OTG_EPStartXfer+0x58>
 8008a4c:	6825      	ldr	r5, [r4, #0]
 8008a4e:	1e50      	subs	r0, r2, #1
 8008a50:	2a01      	cmp	r2, #1
 8008a52:	600d      	str	r5, [r1, #0]
 8008a54:	f000 0001 	and.w	r0, r0, #1
 8008a58:	d08e      	beq.n	8008978 <USB_OTG_EPStartXfer+0x58>
 8008a5a:	b120      	cbz	r0, 8008a66 <USB_OTG_EPStartXfer+0x146>
 8008a5c:	6860      	ldr	r0, [r4, #4]
 8008a5e:	2302      	movs	r3, #2
 8008a60:	429a      	cmp	r2, r3
 8008a62:	6008      	str	r0, [r1, #0]
 8008a64:	d088      	beq.n	8008978 <USB_OTG_EPStartXfer+0x58>
 8008a66:	f854 0023 	ldr.w	r0, [r4, r3, lsl #2]
 8008a6a:	3301      	adds	r3, #1
 8008a6c:	6008      	str	r0, [r1, #0]
 8008a6e:	f854 0023 	ldr.w	r0, [r4, r3, lsl #2]
 8008a72:	3301      	adds	r3, #1
 8008a74:	429a      	cmp	r2, r3
 8008a76:	6008      	str	r0, [r1, #0]
 8008a78:	f43f af7e 	beq.w	8008978 <USB_OTG_EPStartXfer+0x58>
 8008a7c:	f854 0023 	ldr.w	r0, [r4, r3, lsl #2]
 8008a80:	3301      	adds	r3, #1
 8008a82:	6008      	str	r0, [r1, #0]
 8008a84:	f854 0023 	ldr.w	r0, [r4, r3, lsl #2]
 8008a88:	3301      	adds	r3, #1
 8008a8a:	429a      	cmp	r2, r3
 8008a8c:	6008      	str	r0, [r1, #0]
 8008a8e:	d1ea      	bne.n	8008a66 <USB_OTG_EPStartXfer+0x146>
 8008a90:	e772      	b.n	8008978 <USB_OTG_EPStartXfer+0x58>
 8008a92:	f362 0412 	bfi	r4, r2, #0, #19
 8008a96:	f363 44dc 	bfi	r4, r3, #19, #10
 8008a9a:	e7a7      	b.n	80089ec <USB_OTG_EPStartXfer+0xcc>
 8008a9c:	f047 5680 	orr.w	r6, r7, #268435456	; 0x10000000
 8008aa0:	e762      	b.n	8008968 <USB_OTG_EPStartXfer+0x48>
 8008aa2:	6903      	ldr	r3, [r0, #16]
 8008aa4:	689e      	ldr	r6, [r3, #8]
 8008aa6:	05f6      	lsls	r6, r6, #23
 8008aa8:	bf54      	ite	pl
 8008aaa:	f047 5600 	orrpl.w	r6, r7, #536870912	; 0x20000000
 8008aae:	f047 5680 	orrmi.w	r6, r7, #268435456	; 0x10000000
 8008ab2:	e7b3      	b.n	8008a1c <USB_OTG_EPStartXfer+0xfc>
 8008ab4:	780b      	ldrb	r3, [r1, #0]
 8008ab6:	690c      	ldr	r4, [r1, #16]
 8008ab8:	eb00 0c83 	add.w	ip, r0, r3, lsl #2
 8008abc:	f8dc 3018 	ldr.w	r3, [ip, #24]
 8008ac0:	615c      	str	r4, [r3, #20]
 8008ac2:	e7a8      	b.n	8008a16 <USB_OTG_EPStartXfer+0xf6>

08008ac4 <USB_OTG_EP0StartXfer>:
 8008ac4:	b4f0      	push	{r4, r5, r6, r7}
 8008ac6:	784b      	ldrb	r3, [r1, #1]
 8008ac8:	2b01      	cmp	r3, #1
 8008aca:	b082      	sub	sp, #8
 8008acc:	d030      	beq.n	8008b30 <USB_OTG_EP0StartXfer+0x6c>
 8008ace:	780b      	ldrb	r3, [r1, #0]
 8008ad0:	694e      	ldr	r6, [r1, #20]
 8008ad2:	eb00 0483 	add.w	r4, r0, r3, lsl #2
 8008ad6:	6d63      	ldr	r3, [r4, #84]	; 0x54
 8008ad8:	681a      	ldr	r2, [r3, #0]
 8008ada:	691d      	ldr	r5, [r3, #16]
 8008adc:	9500      	str	r5, [sp, #0]
 8008ade:	b30e      	cbz	r6, 8008b24 <USB_OTG_EP0StartXfer+0x60>
 8008ae0:	688e      	ldr	r6, [r1, #8]
 8008ae2:	f89d 5000 	ldrb.w	r5, [sp]
 8008ae6:	f89d 4002 	ldrb.w	r4, [sp, #2]
 8008aea:	614e      	str	r6, [r1, #20]
 8008aec:	f366 0506 	bfi	r5, r6, #0, #7
 8008af0:	2601      	movs	r6, #1
 8008af2:	f366 04c4 	bfi	r4, r6, #3, #2
 8008af6:	f88d 5000 	strb.w	r5, [sp]
 8008afa:	f88d 4002 	strb.w	r4, [sp, #2]
 8008afe:	9c00      	ldr	r4, [sp, #0]
 8008b00:	611c      	str	r4, [r3, #16]
 8008b02:	f890 c003 	ldrb.w	ip, [r0, #3]
 8008b06:	f1bc 0f01 	cmp.w	ip, #1
 8008b0a:	d041      	beq.n	8008b90 <USB_OTG_EP0StartXfer+0xcc>
 8008b0c:	f891 c000 	ldrb.w	ip, [r1]
 8008b10:	eb00 008c 	add.w	r0, r0, ip, lsl #2
 8008b14:	f042 4104 	orr.w	r1, r2, #2214592512	; 0x84000000
 8008b18:	6d42      	ldr	r2, [r0, #84]	; 0x54
 8008b1a:	6011      	str	r1, [r2, #0]
 8008b1c:	2000      	movs	r0, #0
 8008b1e:	b002      	add	sp, #8
 8008b20:	bcf0      	pop	{r4, r5, r6, r7}
 8008b22:	4770      	bx	lr
 8008b24:	f89d 5000 	ldrb.w	r5, [sp]
 8008b28:	f89d 4002 	ldrb.w	r4, [sp, #2]
 8008b2c:	688e      	ldr	r6, [r1, #8]
 8008b2e:	e7dd      	b.n	8008aec <USB_OTG_EP0StartXfer+0x28>
 8008b30:	6982      	ldr	r2, [r0, #24]
 8008b32:	694c      	ldr	r4, [r1, #20]
 8008b34:	6815      	ldr	r5, [r2, #0]
 8008b36:	6916      	ldr	r6, [r2, #16]
 8008b38:	9600      	str	r6, [sp, #0]
 8008b3a:	2c00      	cmp	r4, #0
 8008b3c:	d030      	beq.n	8008ba0 <USB_OTG_EP0StartXfer+0xdc>
 8008b3e:	688b      	ldr	r3, [r1, #8]
 8008b40:	429c      	cmp	r4, r3
 8008b42:	d942      	bls.n	8008bca <USB_OTG_EP0StartXfer+0x106>
 8008b44:	f89d 4000 	ldrb.w	r4, [sp]
 8008b48:	614b      	str	r3, [r1, #20]
 8008b4a:	f363 0406 	bfi	r4, r3, #0, #7
 8008b4e:	f88d 4000 	strb.w	r4, [sp]
 8008b52:	f89d c002 	ldrb.w	ip, [sp, #2]
 8008b56:	2401      	movs	r4, #1
 8008b58:	f364 0cc4 	bfi	ip, r4, #3, #2
 8008b5c:	f88d c002 	strb.w	ip, [sp, #2]
 8008b60:	9b00      	ldr	r3, [sp, #0]
 8008b62:	6113      	str	r3, [r2, #16]
 8008b64:	78c3      	ldrb	r3, [r0, #3]
 8008b66:	2b01      	cmp	r3, #1
 8008b68:	d027      	beq.n	8008bba <USB_OTG_EP0StartXfer+0xf6>
 8008b6a:	f045 4304 	orr.w	r3, r5, #2214592512	; 0x84000000
 8008b6e:	6013      	str	r3, [r2, #0]
 8008b70:	78c2      	ldrb	r2, [r0, #3]
 8008b72:	2a00      	cmp	r2, #0
 8008b74:	d1d2      	bne.n	8008b1c <USB_OTG_EP0StartXfer+0x58>
 8008b76:	694a      	ldr	r2, [r1, #20]
 8008b78:	2a00      	cmp	r2, #0
 8008b7a:	d0cf      	beq.n	8008b1c <USB_OTG_EP0StartXfer+0x58>
 8008b7c:	6903      	ldr	r3, [r0, #16]
 8008b7e:	780a      	ldrb	r2, [r1, #0]
 8008b80:	6b59      	ldr	r1, [r3, #52]	; 0x34
 8008b82:	2001      	movs	r0, #1
 8008b84:	fa00 fc02 	lsl.w	ip, r0, r2
 8008b88:	ea4c 0001 	orr.w	r0, ip, r1
 8008b8c:	6358      	str	r0, [r3, #52]	; 0x34
 8008b8e:	e7c5      	b.n	8008b1c <USB_OTG_EP0StartXfer+0x58>
 8008b90:	780b      	ldrb	r3, [r1, #0]
 8008b92:	690c      	ldr	r4, [r1, #16]
 8008b94:	eb00 0c83 	add.w	ip, r0, r3, lsl #2
 8008b98:	f8dc 3054 	ldr.w	r3, [ip, #84]	; 0x54
 8008b9c:	615c      	str	r4, [r3, #20]
 8008b9e:	e7b5      	b.n	8008b0c <USB_OTG_EP0StartXfer+0x48>
 8008ba0:	f89d 7000 	ldrb.w	r7, [sp]
 8008ba4:	f89d 6002 	ldrb.w	r6, [sp, #2]
 8008ba8:	f364 0706 	bfi	r7, r4, #0, #7
 8008bac:	f363 06c4 	bfi	r6, r3, #3, #2
 8008bb0:	f88d 7000 	strb.w	r7, [sp]
 8008bb4:	f88d 6002 	strb.w	r6, [sp, #2]
 8008bb8:	e7d2      	b.n	8008b60 <USB_OTG_EP0StartXfer+0x9c>
 8008bba:	780b      	ldrb	r3, [r1, #0]
 8008bbc:	690c      	ldr	r4, [r1, #16]
 8008bbe:	eb00 0c83 	add.w	ip, r0, r3, lsl #2
 8008bc2:	f8dc 3018 	ldr.w	r3, [ip, #24]
 8008bc6:	615c      	str	r4, [r3, #20]
 8008bc8:	e7cf      	b.n	8008b6a <USB_OTG_EP0StartXfer+0xa6>
 8008bca:	f89d 3000 	ldrb.w	r3, [sp]
 8008bce:	f364 0306 	bfi	r3, r4, #0, #7
 8008bd2:	f88d 3000 	strb.w	r3, [sp]
 8008bd6:	e7bc      	b.n	8008b52 <USB_OTG_EP0StartXfer+0x8e>

08008bd8 <USB_OTG_EPSetStall>:
 8008bd8:	784a      	ldrb	r2, [r1, #1]
 8008bda:	780b      	ldrb	r3, [r1, #0]
 8008bdc:	2a01      	cmp	r2, #1
 8008bde:	eb00 0083 	add.w	r0, r0, r3, lsl #2
 8008be2:	d006      	beq.n	8008bf2 <USB_OTG_EPSetStall+0x1a>
 8008be4:	6d41      	ldr	r1, [r0, #84]	; 0x54
 8008be6:	6808      	ldr	r0, [r1, #0]
 8008be8:	f440 1200 	orr.w	r2, r0, #2097152	; 0x200000
 8008bec:	600a      	str	r2, [r1, #0]
 8008bee:	2000      	movs	r0, #0
 8008bf0:	4770      	bx	lr
 8008bf2:	6982      	ldr	r2, [r0, #24]
 8008bf4:	6813      	ldr	r3, [r2, #0]
 8008bf6:	f3c3 6c07 	ubfx	ip, r3, #24, #8
 8008bfa:	f00c 0080 	and.w	r0, ip, #128	; 0x80
 8008bfe:	b2c1      	uxtb	r1, r0
 8008c00:	b109      	cbz	r1, 8008c06 <USB_OTG_EPSetStall+0x2e>
 8008c02:	f043 4380 	orr.w	r3, r3, #1073741824	; 0x40000000
 8008c06:	f443 1300 	orr.w	r3, r3, #2097152	; 0x200000
 8008c0a:	6013      	str	r3, [r2, #0]
 8008c0c:	2000      	movs	r0, #0
 8008c0e:	4770      	bx	lr

08008c10 <USB_OTG_EPClearStall>:
 8008c10:	f891 c001 	ldrb.w	ip, [r1, #1]
 8008c14:	780b      	ldrb	r3, [r1, #0]
 8008c16:	78c9      	ldrb	r1, [r1, #3]
 8008c18:	f1bc 0f01 	cmp.w	ip, #1
 8008c1c:	eb00 0c83 	add.w	ip, r0, r3, lsl #2
 8008c20:	bf0c      	ite	eq
 8008c22:	f8dc 2018 	ldreq.w	r2, [ip, #24]
 8008c26:	f8dc 2054 	ldrne.w	r2, [ip, #84]	; 0x54
 8008c2a:	1e88      	subs	r0, r1, #2
 8008c2c:	6813      	ldr	r3, [r2, #0]
 8008c2e:	b2c1      	uxtb	r1, r0
 8008c30:	f36f 5355 	bfc	r3, #21, #1
 8008c34:	2901      	cmp	r1, #1
 8008c36:	bf98      	it	ls
 8008c38:	f043 5380 	orrls.w	r3, r3, #268435456	; 0x10000000
 8008c3c:	6013      	str	r3, [r2, #0]
 8008c3e:	2000      	movs	r0, #0
 8008c40:	4770      	bx	lr
 8008c42:	bf00      	nop

08008c44 <USB_OTG_ReadDevAllOutEp_itr>:
 8008c44:	6903      	ldr	r3, [r0, #16]
 8008c46:	699a      	ldr	r2, [r3, #24]
 8008c48:	69d9      	ldr	r1, [r3, #28]
 8008c4a:	ea01 0002 	and.w	r0, r1, r2
 8008c4e:	0c00      	lsrs	r0, r0, #16
 8008c50:	4770      	bx	lr
 8008c52:	bf00      	nop

08008c54 <USB_OTG_ReadDevOutEP_itr>:
 8008c54:	eb00 0c81 	add.w	ip, r0, r1, lsl #2
 8008c58:	6902      	ldr	r2, [r0, #16]
 8008c5a:	f8dc 1054 	ldr.w	r1, [ip, #84]	; 0x54
 8008c5e:	688b      	ldr	r3, [r1, #8]
 8008c60:	6950      	ldr	r0, [r2, #20]
 8008c62:	4018      	ands	r0, r3
 8008c64:	4770      	bx	lr
 8008c66:	bf00      	nop

08008c68 <USB_OTG_ReadDevAllInEPItr>:
 8008c68:	6902      	ldr	r2, [r0, #16]
 8008c6a:	6991      	ldr	r1, [r2, #24]
 8008c6c:	69d3      	ldr	r3, [r2, #28]
 8008c6e:	ea01 0003 	and.w	r0, r1, r3
 8008c72:	b280      	uxth	r0, r0
 8008c74:	4770      	bx	lr
 8008c76:	bf00      	nop

08008c78 <USB_OTG_EP0_OutStart>:
 8008c78:	b082      	sub	sp, #8
 8008c7a:	2201      	movs	r2, #1
 8008c7c:	2300      	movs	r3, #0
 8008c7e:	2100      	movs	r1, #0
 8008c80:	9300      	str	r3, [sp, #0]
 8008c82:	f362 01c4 	bfi	r1, r2, #3, #2
 8008c86:	2318      	movs	r3, #24
 8008c88:	22c0      	movs	r2, #192	; 0xc0
 8008c8a:	f88d 2003 	strb.w	r2, [sp, #3]
 8008c8e:	f88d 1002 	strb.w	r1, [sp, #2]
 8008c92:	f88d 3000 	strb.w	r3, [sp]
 8008c96:	6d43      	ldr	r3, [r0, #84]	; 0x54
 8008c98:	9900      	ldr	r1, [sp, #0]
 8008c9a:	6119      	str	r1, [r3, #16]
 8008c9c:	78c2      	ldrb	r2, [r0, #3]
 8008c9e:	2a01      	cmp	r2, #1
 8008ca0:	d106      	bne.n	8008cb0 <USB_OTG_EP0_OutStart+0x38>
 8008ca2:	f500 61b9 	add.w	r1, r0, #1480	; 0x5c8
 8008ca6:	6159      	str	r1, [r3, #20]
 8008ca8:	f04f 2080 	mov.w	r0, #2147516416	; 0x80008000
 8008cac:	681a      	ldr	r2, [r3, #0]
 8008cae:	6018      	str	r0, [r3, #0]
 8008cb0:	b002      	add	sp, #8
 8008cb2:	4770      	bx	lr

08008cb4 <USB_OTG_ActiveRemoteWakeup>:
 8008cb4:	f8d0 3114 	ldr.w	r3, [r0, #276]	; 0x114
 8008cb8:	b510      	push	{r4, lr}
 8008cba:	4604      	mov	r4, r0
 8008cbc:	b1d3      	cbz	r3, 8008cf4 <USB_OTG_ActiveRemoteWakeup+0x40>
 8008cbe:	6903      	ldr	r3, [r0, #16]
 8008cc0:	689a      	ldr	r2, [r3, #8]
 8008cc2:	07d2      	lsls	r2, r2, #31
 8008cc4:	d516      	bpl.n	8008cf4 <USB_OTG_ActiveRemoteWakeup+0x40>
 8008cc6:	7a80      	ldrb	r0, [r0, #10]
 8008cc8:	b140      	cbz	r0, 8008cdc <USB_OTG_ActiveRemoteWakeup+0x28>
 8008cca:	f8d4 210c 	ldr.w	r2, [r4, #268]	; 0x10c
 8008cce:	f8d4 110c 	ldr.w	r1, [r4, #268]	; 0x10c
 8008cd2:	f36f 0241 	bfc	r2, #1, #1
 8008cd6:	f36f 0200 	bfc	r2, #0, #1
 8008cda:	600a      	str	r2, [r1, #0]
 8008cdc:	6858      	ldr	r0, [r3, #4]
 8008cde:	f040 0201 	orr.w	r2, r0, #1
 8008ce2:	605a      	str	r2, [r3, #4]
 8008ce4:	2005      	movs	r0, #5
 8008ce6:	f7fa fcb9 	bl	800365c <USB_OTG_BSP_mDelay>
 8008cea:	6923      	ldr	r3, [r4, #16]
 8008cec:	6859      	ldr	r1, [r3, #4]
 8008cee:	f021 0001 	bic.w	r0, r1, #1
 8008cf2:	6058      	str	r0, [r3, #4]
 8008cf4:	bd10      	pop	{r4, pc}
 8008cf6:	bf00      	nop

08008cf8 <USB_OTG_UngateClock>:
 8008cf8:	7a83      	ldrb	r3, [r0, #10]
 8008cfa:	b163      	cbz	r3, 8008d16 <USB_OTG_UngateClock+0x1e>
 8008cfc:	6902      	ldr	r2, [r0, #16]
 8008cfe:	6891      	ldr	r1, [r2, #8]
 8008d00:	07c9      	lsls	r1, r1, #31
 8008d02:	d508      	bpl.n	8008d16 <USB_OTG_UngateClock+0x1e>
 8008d04:	f8d0 310c 	ldr.w	r3, [r0, #268]	; 0x10c
 8008d08:	f8d0 010c 	ldr.w	r0, [r0, #268]	; 0x10c
 8008d0c:	f36f 0341 	bfc	r3, #1, #1
 8008d10:	f36f 0300 	bfc	r3, #0, #1
 8008d14:	6003      	str	r3, [r0, #0]
 8008d16:	4770      	bx	lr

08008d18 <USB_OTG_StopDevice>:
 8008d18:	b510      	push	{r4, lr}
 8008d1a:	7843      	ldrb	r3, [r0, #1]
 8008d1c:	2201      	movs	r2, #1
 8008d1e:	4604      	mov	r4, r0
 8008d20:	f880 2112 	strb.w	r2, [r0, #274]	; 0x112
 8008d24:	b163      	cbz	r3, 8008d40 <USB_OTG_StopDevice+0x28>
 8008d26:	f100 0214 	add.w	r2, r0, #20
 8008d2a:	2300      	movs	r3, #0
 8008d2c:	21ff      	movs	r1, #255	; 0xff
 8008d2e:	f852 0f04 	ldr.w	r0, [r2, #4]!
 8008d32:	6081      	str	r1, [r0, #8]
 8008d34:	6bd0      	ldr	r0, [r2, #60]	; 0x3c
 8008d36:	6081      	str	r1, [r0, #8]
 8008d38:	7860      	ldrb	r0, [r4, #1]
 8008d3a:	3301      	adds	r3, #1
 8008d3c:	4298      	cmp	r0, r3
 8008d3e:	d8f6      	bhi.n	8008d2e <USB_OTG_StopDevice+0x16>
 8008d40:	6923      	ldr	r3, [r4, #16]
 8008d42:	2200      	movs	r2, #0
 8008d44:	f04f 31ff 	mov.w	r1, #4294967295
 8008d48:	611a      	str	r2, [r3, #16]
 8008d4a:	4620      	mov	r0, r4
 8008d4c:	615a      	str	r2, [r3, #20]
 8008d4e:	61da      	str	r2, [r3, #28]
 8008d50:	6199      	str	r1, [r3, #24]
 8008d52:	f7ff fc4d 	bl	80085f0 <USB_OTG_FlushRxFifo>
 8008d56:	4620      	mov	r0, r4
 8008d58:	2110      	movs	r1, #16
 8008d5a:	e8bd 4010 	ldmia.w	sp!, {r4, lr}
 8008d5e:	e41b      	b.n	8008598 <USB_OTG_FlushTxFifo>

08008d60 <USB_OTG_GetEPStatus>:
 8008d60:	784a      	ldrb	r2, [r1, #1]
 8008d62:	780b      	ldrb	r3, [r1, #0]
 8008d64:	2a01      	cmp	r2, #1
 8008d66:	eb00 0083 	add.w	r0, r0, r3, lsl #2
 8008d6a:	d014      	beq.n	8008d96 <USB_OTG_GetEPStatus+0x36>
 8008d6c:	6d41      	ldr	r1, [r0, #84]	; 0x54
 8008d6e:	6808      	ldr	r0, [r1, #0]
 8008d70:	f3c0 4007 	ubfx	r0, r0, #16, #8
 8008d74:	f000 0220 	and.w	r2, r0, #32
 8008d78:	b2d3      	uxtb	r3, r2
 8008d7a:	b94b      	cbnz	r3, 8008d90 <USB_OTG_GetEPStatus+0x30>
 8008d7c:	f000 0202 	and.w	r2, r0, #2
 8008d80:	b2d3      	uxtb	r3, r2
 8008d82:	2b00      	cmp	r3, #0
 8008d84:	bf0c      	ite	eq
 8008d86:	f44f 5040 	moveq.w	r0, #12288	; 0x3000
 8008d8a:	f44f 5000 	movne.w	r0, #8192	; 0x2000
 8008d8e:	4770      	bx	lr
 8008d90:	f44f 5080 	mov.w	r0, #4096	; 0x1000
 8008d94:	4770      	bx	lr
 8008d96:	6983      	ldr	r3, [r0, #24]
 8008d98:	6818      	ldr	r0, [r3, #0]
 8008d9a:	f3c0 4007 	ubfx	r0, r0, #16, #8
 8008d9e:	f000 0c20 	and.w	ip, r0, #32
 8008da2:	fa5f f18c 	uxtb.w	r1, ip
 8008da6:	b939      	cbnz	r1, 8008db8 <USB_OTG_GetEPStatus+0x58>
 8008da8:	f000 0102 	and.w	r1, r0, #2
 8008dac:	b2ca      	uxtb	r2, r1
 8008dae:	2a00      	cmp	r2, #0
 8008db0:	bf0c      	ite	eq
 8008db2:	2030      	moveq	r0, #48	; 0x30
 8008db4:	2020      	movne	r0, #32
 8008db6:	4770      	bx	lr
 8008db8:	2010      	movs	r0, #16
 8008dba:	4770      	bx	lr

08008dbc <USB_OTG_SetEPStatus>:
 8008dbc:	b430      	push	{r4, r5}
 8008dbe:	784c      	ldrb	r4, [r1, #1]
 8008dc0:	780b      	ldrb	r3, [r1, #0]
 8008dc2:	2c01      	cmp	r4, #1
 8008dc4:	eb00 0383 	add.w	r3, r0, r3, lsl #2
 8008dc8:	d012      	beq.n	8008df0 <USB_OTG_SetEPStatus+0x34>
 8008dca:	6d5c      	ldr	r4, [r3, #84]	; 0x54
 8008dcc:	6823      	ldr	r3, [r4, #0]
 8008dce:	f5b2 5f80 	cmp.w	r2, #4096	; 0x1000
 8008dd2:	461d      	mov	r5, r3
 8008dd4:	d016      	beq.n	8008e04 <USB_OTG_SetEPStatus+0x48>
 8008dd6:	f5b2 5f00 	cmp.w	r2, #8192	; 0x2000
 8008dda:	d010      	beq.n	8008dfe <USB_OTG_SetEPStatus+0x42>
 8008ddc:	f5b2 5f40 	cmp.w	r2, #12288	; 0x3000
 8008de0:	d015      	beq.n	8008e0e <USB_OTG_SetEPStatus+0x52>
 8008de2:	b912      	cbnz	r2, 8008dea <USB_OTG_SetEPStatus+0x2e>
 8008de4:	f362 35cf 	bfi	r5, r2, #15, #1
 8008de8:	462b      	mov	r3, r5
 8008dea:	6023      	str	r3, [r4, #0]
 8008dec:	bc30      	pop	{r4, r5}
 8008dee:	4770      	bx	lr
 8008df0:	699c      	ldr	r4, [r3, #24]
 8008df2:	6823      	ldr	r3, [r4, #0]
 8008df4:	2a10      	cmp	r2, #16
 8008df6:	461d      	mov	r5, r3
 8008df8:	d019      	beq.n	8008e2e <USB_OTG_SetEPStatus+0x72>
 8008dfa:	2a20      	cmp	r2, #32
 8008dfc:	d105      	bne.n	8008e0a <USB_OTG_SetEPStatus+0x4e>
 8008dfe:	f043 6300 	orr.w	r3, r3, #134217728	; 0x8000000
 8008e02:	e7f2      	b.n	8008dea <USB_OTG_SetEPStatus+0x2e>
 8008e04:	f443 1300 	orr.w	r3, r3, #2097152	; 0x200000
 8008e08:	e7ef      	b.n	8008dea <USB_OTG_SetEPStatus+0x2e>
 8008e0a:	2a30      	cmp	r2, #48	; 0x30
 8008e0c:	d1e9      	bne.n	8008de2 <USB_OTG_SetEPStatus+0x26>
 8008e0e:	f3c3 4207 	ubfx	r2, r3, #16, #8
 8008e12:	f002 0c20 	and.w	ip, r2, #32
 8008e16:	fa5f f28c 	uxtb.w	r2, ip
 8008e1a:	b922      	cbnz	r2, 8008e26 <USB_OTG_SetEPStatus+0x6a>
 8008e1c:	f043 6080 	orr.w	r0, r3, #67108864	; 0x4000000
 8008e20:	f040 2380 	orr.w	r3, r0, #2147516416	; 0x80008000
 8008e24:	e7e1      	b.n	8008dea <USB_OTG_SetEPStatus+0x2e>
 8008e26:	2300      	movs	r3, #0
 8008e28:	714b      	strb	r3, [r1, #5]
 8008e2a:	bc30      	pop	{r4, r5}
 8008e2c:	e6f0      	b.n	8008c10 <USB_OTG_EPClearStall>
 8008e2e:	bc30      	pop	{r4, r5}
 8008e30:	e6d2      	b.n	8008bd8 <USB_OTG_EPSetStall>
 8008e32:	bf00      	nop

08008e34 <DCD_Init>:
 8008e34:	b570      	push	{r4, r5, r6, lr}
 8008e36:	4604      	mov	r4, r0
 8008e38:	f7ff fa38 	bl	80082ac <USB_OTG_SelectCore>
 8008e3c:	7862      	ldrb	r2, [r4, #1]
 8008e3e:	2601      	movs	r6, #1
 8008e40:	2300      	movs	r3, #0
 8008e42:	f884 6112 	strb.w	r6, [r4, #274]	; 0x112
 8008e46:	f884 3113 	strb.w	r3, [r4, #275]	; 0x113
 8008e4a:	b3b2      	cbz	r2, 8008eba <DCD_Init+0x86>
 8008e4c:	4619      	mov	r1, r3
 8008e4e:	2508      	movs	r5, #8
 8008e50:	eb03 0083 	add.w	r0, r3, r3, lsl #2
 8008e54:	00c2      	lsls	r2, r0, #3
 8008e56:	f502 708c 	add.w	r0, r2, #280	; 0x118
 8008e5a:	eb04 0c00 	add.w	ip, r4, r0
 8008e5e:	5423      	strb	r3, [r4, r0]
 8008e60:	f8ac 3006 	strh.w	r3, [ip, #6]
 8008e64:	f88c 6001 	strb.w	r6, [ip, #1]
 8008e68:	f88c 1003 	strb.w	r1, [ip, #3]
 8008e6c:	f8cc 5008 	str.w	r5, [ip, #8]
 8008e70:	f8cc 100c 	str.w	r1, [ip, #12]
 8008e74:	f8cc 1014 	str.w	r1, [ip, #20]
 8008e78:	7862      	ldrb	r2, [r4, #1]
 8008e7a:	3301      	adds	r3, #1
 8008e7c:	429a      	cmp	r2, r3
 8008e7e:	d8e7      	bhi.n	8008e50 <DCD_Init+0x1c>
 8008e80:	b1da      	cbz	r2, 8008eba <DCD_Init+0x86>
 8008e82:	2300      	movs	r3, #0
 8008e84:	4619      	mov	r1, r3
 8008e86:	2508      	movs	r5, #8
 8008e88:	eb03 0283 	add.w	r2, r3, r3, lsl #2
 8008e8c:	00d0      	lsls	r0, r2, #3
 8008e8e:	f500 725c 	add.w	r2, r0, #880	; 0x370
 8008e92:	eb04 0c02 	add.w	ip, r4, r2
 8008e96:	54a3      	strb	r3, [r4, r2]
 8008e98:	f8ac 3006 	strh.w	r3, [ip, #6]
 8008e9c:	f88c 1001 	strb.w	r1, [ip, #1]
 8008ea0:	f88c 1003 	strb.w	r1, [ip, #3]
 8008ea4:	f8cc 5008 	str.w	r5, [ip, #8]
 8008ea8:	f8cc 100c 	str.w	r1, [ip, #12]
 8008eac:	f8cc 1014 	str.w	r1, [ip, #20]
 8008eb0:	f894 e001 	ldrb.w	lr, [r4, #1]
 8008eb4:	3301      	adds	r3, #1
 8008eb6:	459e      	cmp	lr, r3
 8008eb8:	d8e6      	bhi.n	8008e88 <DCD_Init+0x54>
 8008eba:	4620      	mov	r0, r4
 8008ebc:	f7ff fb64 	bl	8008588 <USB_OTG_DisableGlobalInt>
 8008ec0:	4620      	mov	r0, r4
 8008ec2:	f7ff fadb 	bl	800847c <USB_OTG_CoreInit>
 8008ec6:	2100      	movs	r1, #0
 8008ec8:	4620      	mov	r0, r4
 8008eca:	f7ff fbb9 	bl	8008640 <USB_OTG_SetCurrentMode>
 8008ece:	4620      	mov	r0, r4
 8008ed0:	f7ff fc18 	bl	8008704 <USB_OTG_CoreInitDev>
 8008ed4:	4620      	mov	r0, r4
 8008ed6:	e8bd 4070 	ldmia.w	sp!, {r4, r5, r6, lr}
 8008eda:	f7ff bb4d 	b.w	8008578 <USB_OTG_EnableGlobalInt>
 8008ede:	bf00      	nop

08008ee0 <DCD_EP_Open>:
 8008ee0:	b538      	push	{r3, r4, r5, lr}
 8008ee2:	f001 057f 	and.w	r5, r1, #127	; 0x7f
 8008ee6:	b2cc      	uxtb	r4, r1
 8008ee8:	eb05 0185 	add.w	r1, r5, r5, lsl #2
 8008eec:	eb00 01c1 	add.w	r1, r0, r1, lsl #3
 8008ef0:	f014 0f80 	tst.w	r4, #128	; 0x80
 8008ef4:	bf14      	ite	ne
 8008ef6:	f501 718c 	addne.w	r1, r1, #280	; 0x118
 8008efa:	f501 715c 	addeq.w	r1, r1, #880	; 0x370
 8008efe:	b2ed      	uxtb	r5, r5
 8008f00:	09e4      	lsrs	r4, r4, #7
 8008f02:	700d      	strb	r5, [r1, #0]
 8008f04:	704c      	strb	r4, [r1, #1]
 8008f06:	608a      	str	r2, [r1, #8]
 8008f08:	70cb      	strb	r3, [r1, #3]
 8008f0a:	b104      	cbz	r4, 8008f0e <DCD_EP_Open+0x2e>
 8008f0c:	80cd      	strh	r5, [r1, #6]
 8008f0e:	2b02      	cmp	r3, #2
 8008f10:	d101      	bne.n	8008f16 <DCD_EP_Open+0x36>
 8008f12:	2300      	movs	r3, #0
 8008f14:	710b      	strb	r3, [r1, #4]
 8008f16:	f7ff fca9 	bl	800886c <USB_OTG_EPActivate>
 8008f1a:	2000      	movs	r0, #0
 8008f1c:	bd38      	pop	{r3, r4, r5, pc}
 8008f1e:	bf00      	nop

08008f20 <DCD_EP_Close>:
 8008f20:	f001 027f 	and.w	r2, r1, #127	; 0x7f
 8008f24:	b508      	push	{r3, lr}
 8008f26:	b2cb      	uxtb	r3, r1
 8008f28:	eb02 0182 	add.w	r1, r2, r2, lsl #2
 8008f2c:	eb00 01c1 	add.w	r1, r0, r1, lsl #3
 8008f30:	f013 0f80 	tst.w	r3, #128	; 0x80
 8008f34:	bf14      	ite	ne
 8008f36:	f501 718c 	addne.w	r1, r1, #280	; 0x118
 8008f3a:	f501 715c 	addeq.w	r1, r1, #880	; 0x370
 8008f3e:	09db      	lsrs	r3, r3, #7
 8008f40:	700a      	strb	r2, [r1, #0]
 8008f42:	704b      	strb	r3, [r1, #1]
 8008f44:	f7ff fcc8 	bl	80088d8 <USB_OTG_EPDeactivate>
 8008f48:	2000      	movs	r0, #0
 8008f4a:	bd08      	pop	{r3, pc}

08008f4c <DCD_EP_PrepareRx>:
 8008f4c:	b570      	push	{r4, r5, r6, lr}
 8008f4e:	f001 047f 	and.w	r4, r1, #127	; 0x7f
 8008f52:	eb04 0584 	add.w	r5, r4, r4, lsl #2
 8008f56:	00e9      	lsls	r1, r5, #3
 8008f58:	f501 765c 	add.w	r6, r1, #880	; 0x370
 8008f5c:	1981      	adds	r1, r0, r6
 8008f5e:	b2e4      	uxtb	r4, r4
 8008f60:	2500      	movs	r5, #0
 8008f62:	5584      	strb	r4, [r0, r6]
 8008f64:	60ca      	str	r2, [r1, #12]
 8008f66:	614b      	str	r3, [r1, #20]
 8008f68:	618d      	str	r5, [r1, #24]
 8008f6a:	704d      	strb	r5, [r1, #1]
 8008f6c:	78c3      	ldrb	r3, [r0, #3]
 8008f6e:	2b01      	cmp	r3, #1
 8008f70:	bf08      	it	eq
 8008f72:	610a      	streq	r2, [r1, #16]
 8008f74:	b11c      	cbz	r4, 8008f7e <DCD_EP_PrepareRx+0x32>
 8008f76:	f7ff fcd3 	bl	8008920 <USB_OTG_EPStartXfer>
 8008f7a:	2000      	movs	r0, #0
 8008f7c:	bd70      	pop	{r4, r5, r6, pc}
 8008f7e:	f7ff fda1 	bl	8008ac4 <USB_OTG_EP0StartXfer>
 8008f82:	2000      	movs	r0, #0
 8008f84:	bd70      	pop	{r4, r5, r6, pc}
 8008f86:	bf00      	nop

08008f88 <DCD_EP_Tx>:
 8008f88:	b570      	push	{r4, r5, r6, lr}
 8008f8a:	f001 047f 	and.w	r4, r1, #127	; 0x7f
 8008f8e:	eb04 0584 	add.w	r5, r4, r4, lsl #2
 8008f92:	00e9      	lsls	r1, r5, #3
 8008f94:	f501 758c 	add.w	r5, r1, #280	; 0x118
 8008f98:	1941      	adds	r1, r0, r5
 8008f9a:	b2e4      	uxtb	r4, r4
 8008f9c:	2601      	movs	r6, #1
 8008f9e:	60ca      	str	r2, [r1, #12]
 8008fa0:	610a      	str	r2, [r1, #16]
 8008fa2:	2200      	movs	r2, #0
 8008fa4:	704e      	strb	r6, [r1, #1]
 8008fa6:	5544      	strb	r4, [r0, r5]
 8008fa8:	618a      	str	r2, [r1, #24]
 8008faa:	614b      	str	r3, [r1, #20]
 8008fac:	b11c      	cbz	r4, 8008fb6 <DCD_EP_Tx+0x2e>
 8008fae:	f7ff fcb7 	bl	8008920 <USB_OTG_EPStartXfer>
 8008fb2:	2000      	movs	r0, #0
 8008fb4:	bd70      	pop	{r4, r5, r6, pc}
 8008fb6:	f7ff fd85 	bl	8008ac4 <USB_OTG_EP0StartXfer>
 8008fba:	2000      	movs	r0, #0
 8008fbc:	bd70      	pop	{r4, r5, r6, pc}
 8008fbe:	bf00      	nop

08008fc0 <DCD_EP_Stall>:
 8008fc0:	b2ca      	uxtb	r2, r1
 8008fc2:	0613      	lsls	r3, r2, #24
 8008fc4:	b510      	push	{r4, lr}
 8008fc6:	d411      	bmi.n	8008fec <DCD_EP_Stall+0x2c>
 8008fc8:	eb01 0e81 	add.w	lr, r1, r1, lsl #2
 8008fcc:	eb00 0cce 	add.w	ip, r0, lr, lsl #3
 8008fd0:	f50c 735c 	add.w	r3, ip, #880	; 0x370
 8008fd4:	09d2      	lsrs	r2, r2, #7
 8008fd6:	f001 017f 	and.w	r1, r1, #127	; 0x7f
 8008fda:	2401      	movs	r4, #1
 8008fdc:	7019      	strb	r1, [r3, #0]
 8008fde:	709c      	strb	r4, [r3, #2]
 8008fe0:	705a      	strb	r2, [r3, #1]
 8008fe2:	4619      	mov	r1, r3
 8008fe4:	f7ff fdf8 	bl	8008bd8 <USB_OTG_EPSetStall>
 8008fe8:	2000      	movs	r0, #0
 8008fea:	bd10      	pop	{r4, pc}
 8008fec:	f001 017f 	and.w	r1, r1, #127	; 0x7f
 8008ff0:	eb01 0481 	add.w	r4, r1, r1, lsl #2
 8008ff4:	eb00 03c4 	add.w	r3, r0, r4, lsl #3
 8008ff8:	f503 738c 	add.w	r3, r3, #280	; 0x118
 8008ffc:	09d2      	lsrs	r2, r2, #7
 8008ffe:	2401      	movs	r4, #1
 8009000:	7019      	strb	r1, [r3, #0]
 8009002:	709c      	strb	r4, [r3, #2]
 8009004:	705a      	strb	r2, [r3, #1]
 8009006:	4619      	mov	r1, r3
 8009008:	f7ff fde6 	bl	8008bd8 <USB_OTG_EPSetStall>
 800900c:	2000      	movs	r0, #0
 800900e:	bd10      	pop	{r4, pc}

08009010 <DCD_EP_ClrStall>:
 8009010:	b2ca      	uxtb	r2, r1
 8009012:	b510      	push	{r4, lr}
 8009014:	0614      	lsls	r4, r2, #24
 8009016:	d411      	bmi.n	800903c <DCD_EP_ClrStall+0x2c>
 8009018:	eb01 0e81 	add.w	lr, r1, r1, lsl #2
 800901c:	eb00 0cce 	add.w	ip, r0, lr, lsl #3
 8009020:	f50c 735c 	add.w	r3, ip, #880	; 0x370
 8009024:	f001 017f 	and.w	r1, r1, #127	; 0x7f
 8009028:	2400      	movs	r4, #0
 800902a:	09d2      	lsrs	r2, r2, #7
 800902c:	7019      	strb	r1, [r3, #0]
 800902e:	709c      	strb	r4, [r3, #2]
 8009030:	705a      	strb	r2, [r3, #1]
 8009032:	4619      	mov	r1, r3
 8009034:	f7ff fdec 	bl	8008c10 <USB_OTG_EPClearStall>
 8009038:	4620      	mov	r0, r4
 800903a:	bd10      	pop	{r4, pc}
 800903c:	f001 017f 	and.w	r1, r1, #127	; 0x7f
 8009040:	eb01 0481 	add.w	r4, r1, r1, lsl #2
 8009044:	eb00 03c4 	add.w	r3, r0, r4, lsl #3
 8009048:	f503 738c 	add.w	r3, r3, #280	; 0x118
 800904c:	e7ec      	b.n	8009028 <DCD_EP_ClrStall+0x18>
 800904e:	bf00      	nop

08009050 <DCD_EP_Flush>:
 8009050:	b508      	push	{r3, lr}
 8009052:	060b      	lsls	r3, r1, #24
 8009054:	d403      	bmi.n	800905e <DCD_EP_Flush+0xe>
 8009056:	f7ff facb 	bl	80085f0 <USB_OTG_FlushRxFifo>
 800905a:	2000      	movs	r0, #0
 800905c:	bd08      	pop	{r3, pc}
 800905e:	f001 017f 	and.w	r1, r1, #127	; 0x7f
 8009062:	f7ff fa99 	bl	8008598 <USB_OTG_FlushTxFifo>
 8009066:	2000      	movs	r0, #0
 8009068:	bd08      	pop	{r3, pc}
 800906a:	bf00      	nop

0800906c <DCD_EP_SetAddress>:
 800906c:	6903      	ldr	r3, [r0, #16]
 800906e:	2200      	movs	r2, #0
 8009070:	6818      	ldr	r0, [r3, #0]
 8009072:	f361 120a 	bfi	r2, r1, #4, #7
 8009076:	4302      	orrs	r2, r0
 8009078:	601a      	str	r2, [r3, #0]
 800907a:	4770      	bx	lr

0800907c <DCD_DevConnect>:
 800907c:	6903      	ldr	r3, [r0, #16]
 800907e:	685a      	ldr	r2, [r3, #4]
 8009080:	2003      	movs	r0, #3
 8009082:	f36f 0241 	bfc	r2, #1, #1
 8009086:	605a      	str	r2, [r3, #4]
 8009088:	f7fa bae8 	b.w	800365c <USB_OTG_BSP_mDelay>

0800908c <DCD_DevDisconnect>:
 800908c:	6903      	ldr	r3, [r0, #16]
 800908e:	6858      	ldr	r0, [r3, #4]
 8009090:	f040 0202 	orr.w	r2, r0, #2
 8009094:	2003      	movs	r0, #3
 8009096:	605a      	str	r2, [r3, #4]
 8009098:	f7fa bae0 	b.w	800365c <USB_OTG_BSP_mDelay>

0800909c <DCD_GetEPStatus>:
 800909c:	060a      	lsls	r2, r1, #24
 800909e:	d407      	bmi.n	80090b0 <DCD_GetEPStatus+0x14>
 80090a0:	eb01 0181 	add.w	r1, r1, r1, lsl #2
 80090a4:	eb00 0cc1 	add.w	ip, r0, r1, lsl #3
 80090a8:	f50c 715c 	add.w	r1, ip, #880	; 0x370
 80090ac:	f7ff be58 	b.w	8008d60 <USB_OTG_GetEPStatus>
 80090b0:	f001 037f 	and.w	r3, r1, #127	; 0x7f
 80090b4:	eb03 0283 	add.w	r2, r3, r3, lsl #2
 80090b8:	eb00 01c2 	add.w	r1, r0, r2, lsl #3
 80090bc:	f501 718c 	add.w	r1, r1, #280	; 0x118
 80090c0:	e7f4      	b.n	80090ac <DCD_GetEPStatus+0x10>
 80090c2:	bf00      	nop

080090c4 <DCD_SetEPStatus>:
 80090c4:	060b      	lsls	r3, r1, #24
 80090c6:	d407      	bmi.n	80090d8 <DCD_SetEPStatus+0x14>
 80090c8:	eb01 0381 	add.w	r3, r1, r1, lsl #2
 80090cc:	eb00 01c3 	add.w	r1, r0, r3, lsl #3
 80090d0:	f501 715c 	add.w	r1, r1, #880	; 0x370
 80090d4:	f7ff be72 	b.w	8008dbc <USB_OTG_SetEPStatus>
 80090d8:	f001 0c7f 	and.w	ip, r1, #127	; 0x7f
 80090dc:	eb0c 038c 	add.w	r3, ip, ip, lsl #2
 80090e0:	eb00 01c3 	add.w	r1, r0, r3, lsl #3
 80090e4:	f501 718c 	add.w	r1, r1, #280	; 0x118
 80090e8:	e7f4      	b.n	80090d4 <DCD_SetEPStatus+0x10>
 80090ea:	bf00      	nop

080090ec <USBD_OTG_ISR_Handler>:
 80090ec:	e92d 4ff0 	stmdb	sp!, {r4, r5, r6, r7, r8, r9, sl, fp, lr}
 80090f0:	b083      	sub	sp, #12
 80090f2:	4604      	mov	r4, r0
 80090f4:	f7ff fac4 	bl	8008680 <USB_OTG_IsDeviceMode>
 80090f8:	b910      	cbnz	r0, 8009100 <USBD_OTG_ISR_Handler+0x14>
 80090fa:	b003      	add	sp, #12
 80090fc:	e8bd 8ff0 	ldmia.w	sp!, {r4, r5, r6, r7, r8, r9, sl, fp, pc}
 8009100:	4620      	mov	r0, r4
 8009102:	f7ff facb 	bl	800869c <USB_OTG_ReadCoreItr>
 8009106:	4680      	mov	r8, r0
 8009108:	2800      	cmp	r0, #0
 800910a:	d0f6      	beq.n	80090fa <USBD_OTG_ISR_Handler+0xe>
 800910c:	f3c0 4107 	ubfx	r1, r0, #16, #8
 8009110:	f001 0008 	and.w	r0, r1, #8
 8009114:	b2c0      	uxtb	r0, r0
 8009116:	2800      	cmp	r0, #0
 8009118:	f040 80e5 	bne.w	80092e6 <USBD_OTG_ISR_Handler+0x1fa>
 800911c:	f3c8 4e07 	ubfx	lr, r8, #16, #8
 8009120:	f00e 0c04 	and.w	ip, lr, #4
 8009124:	fa5f f28c 	uxtb.w	r2, ip
 8009128:	2a00      	cmp	r2, #0
 800912a:	d15d      	bne.n	80091e8 <USBD_OTG_ISR_Handler+0xfc>
 800912c:	f008 0102 	and.w	r1, r8, #2
 8009130:	b2ca      	uxtb	r2, r1
 8009132:	b112      	cbz	r2, 800913a <USBD_OTG_ISR_Handler+0x4e>
 8009134:	68e3      	ldr	r3, [r4, #12]
 8009136:	2202      	movs	r2, #2
 8009138:	615a      	str	r2, [r3, #20]
 800913a:	f3c8 6e07 	ubfx	lr, r8, #24, #8
 800913e:	f00e 0280 	and.w	r2, lr, #128	; 0x80
 8009142:	b2d1      	uxtb	r1, r2
 8009144:	b191      	cbz	r1, 800916c <USBD_OTG_ISR_Handler+0x80>
 8009146:	7aa0      	ldrb	r0, [r4, #10]
 8009148:	2800      	cmp	r0, #0
 800914a:	f040 81d1 	bne.w	80094f0 <USBD_OTG_ISR_Handler+0x404>
 800914e:	6923      	ldr	r3, [r4, #16]
 8009150:	4aa5      	ldr	r2, [pc, #660]	; (80093e8 <USBD_OTG_ISR_Handler+0x2fc>)
 8009152:	6859      	ldr	r1, [r3, #4]
 8009154:	6812      	ldr	r2, [r2, #0]
 8009156:	f021 0001 	bic.w	r0, r1, #1
 800915a:	6058      	str	r0, [r3, #4]
 800915c:	6991      	ldr	r1, [r2, #24]
 800915e:	4620      	mov	r0, r4
 8009160:	4788      	blx	r1
 8009162:	68e0      	ldr	r0, [r4, #12]
 8009164:	f04f 4200 	mov.w	r2, #2147483648	; 0x80000000
 8009168:	6142      	str	r2, [r0, #20]
 800916a:	2001      	movs	r0, #1
 800916c:	f3c8 2207 	ubfx	r2, r8, #8, #8
 8009170:	f002 0108 	and.w	r1, r2, #8
 8009174:	b2cb      	uxtb	r3, r1
 8009176:	2b00      	cmp	r3, #0
 8009178:	f040 8138 	bne.w	80093ec <USBD_OTG_ISR_Handler+0x300>
 800917c:	f008 0108 	and.w	r1, r8, #8
 8009180:	b2cb      	uxtb	r3, r1
 8009182:	2b00      	cmp	r3, #0
 8009184:	f040 8126 	bne.w	80093d4 <USBD_OTG_ISR_Handler+0x2e8>
 8009188:	f008 0110 	and.w	r1, r8, #16
 800918c:	b2cb      	uxtb	r3, r1
 800918e:	2b00      	cmp	r3, #0
 8009190:	f040 80f9 	bne.w	8009386 <USBD_OTG_ISR_Handler+0x29a>
 8009194:	f3c8 2207 	ubfx	r2, r8, #8, #8
 8009198:	f002 0110 	and.w	r1, r2, #16
 800919c:	b2cb      	uxtb	r3, r1
 800919e:	2b00      	cmp	r3, #0
 80091a0:	f040 814a 	bne.w	8009438 <USBD_OTG_ISR_Handler+0x34c>
 80091a4:	f3c8 2107 	ubfx	r1, r8, #8, #8
 80091a8:	f001 0220 	and.w	r2, r1, #32
 80091ac:	b2d3      	uxtb	r3, r2
 80091ae:	2b00      	cmp	r3, #0
 80091b0:	f040 8186 	bne.w	80094c0 <USBD_OTG_ISR_Handler+0x3d4>
 80091b4:	f3c8 4e07 	ubfx	lr, r8, #16, #8
 80091b8:	f00e 0210 	and.w	r2, lr, #16
 80091bc:	b2d1      	uxtb	r1, r2
 80091be:	2900      	cmp	r1, #0
 80091c0:	f040 8173 	bne.w	80094aa <USBD_OTG_ISR_Handler+0x3be>
 80091c4:	f3c8 4207 	ubfx	r2, r8, #16, #8
 80091c8:	f002 0120 	and.w	r1, r2, #32
 80091cc:	b2cb      	uxtb	r3, r1
 80091ce:	2b00      	cmp	r3, #0
 80091d0:	d093      	beq.n	80090fa <USBD_OTG_ISR_Handler+0xe>
 80091d2:	4885      	ldr	r0, [pc, #532]	; (80093e8 <USBD_OTG_ISR_Handler+0x2fc>)
 80091d4:	6802      	ldr	r2, [r0, #0]
 80091d6:	4620      	mov	r0, r4
 80091d8:	6a11      	ldr	r1, [r2, #32]
 80091da:	4788      	blx	r1
 80091dc:	68e3      	ldr	r3, [r4, #12]
 80091de:	f44f 1000 	mov.w	r0, #2097152	; 0x200000
 80091e2:	6158      	str	r0, [r3, #20]
 80091e4:	2001      	movs	r0, #1
 80091e6:	e788      	b.n	80090fa <USBD_OTG_ISR_Handler+0xe>
 80091e8:	4620      	mov	r0, r4
 80091ea:	f7ff fd3d 	bl	8008c68 <USB_OTG_ReadDevAllInEPItr>
 80091ee:	4682      	mov	sl, r0
 80091f0:	2800      	cmp	r0, #0
 80091f2:	f000 81ab 	beq.w	800954c <USBD_OTG_ISR_Handler+0x460>
 80091f6:	4627      	mov	r7, r4
 80091f8:	f04f 0b00 	mov.w	fp, #0
 80091fc:	f8cd 8004 	str.w	r8, [sp, #4]
 8009200:	e038      	b.n	8009274 <USBD_OTG_ISR_Handler+0x188>
 8009202:	f005 0104 	and.w	r1, r5, #4
 8009206:	b2cb      	uxtb	r3, r1
 8009208:	b113      	cbz	r3, 8009210 <USBD_OTG_ISR_Handler+0x124>
 800920a:	69b8      	ldr	r0, [r7, #24]
 800920c:	2504      	movs	r5, #4
 800920e:	6085      	str	r5, [r0, #8]
 8009210:	f005 0e08 	and.w	lr, r5, #8
 8009214:	fa5f f28e 	uxtb.w	r2, lr
 8009218:	b112      	cbz	r2, 8009220 <USBD_OTG_ISR_Handler+0x134>
 800921a:	69bb      	ldr	r3, [r7, #24]
 800921c:	2508      	movs	r5, #8
 800921e:	609d      	str	r5, [r3, #8]
 8009220:	f005 0010 	and.w	r0, r5, #16
 8009224:	b2c1      	uxtb	r1, r0
 8009226:	b111      	cbz	r1, 800922e <USBD_OTG_ISR_Handler+0x142>
 8009228:	69ba      	ldr	r2, [r7, #24]
 800922a:	2510      	movs	r5, #16
 800922c:	6095      	str	r5, [r2, #8]
 800922e:	f005 0120 	and.w	r1, r5, #32
 8009232:	b2cb      	uxtb	r3, r1
 8009234:	b113      	cbz	r3, 800923c <USBD_OTG_ISR_Handler+0x150>
 8009236:	69b8      	ldr	r0, [r7, #24]
 8009238:	2520      	movs	r5, #32
 800923a:	6085      	str	r5, [r0, #8]
 800923c:	f005 0c40 	and.w	ip, r5, #64	; 0x40
 8009240:	fa5f f28c 	uxtb.w	r2, ip
 8009244:	b112      	cbz	r2, 800924c <USBD_OTG_ISR_Handler+0x160>
 8009246:	69bb      	ldr	r3, [r7, #24]
 8009248:	2540      	movs	r5, #64	; 0x40
 800924a:	609d      	str	r5, [r3, #8]
 800924c:	f005 0002 	and.w	r0, r5, #2
 8009250:	b2c1      	uxtb	r1, r0
 8009252:	b111      	cbz	r1, 800925a <USBD_OTG_ISR_Handler+0x16e>
 8009254:	69ba      	ldr	r2, [r7, #24]
 8009256:	2502      	movs	r5, #2
 8009258:	6095      	str	r5, [r2, #8]
 800925a:	f005 0580 	and.w	r5, r5, #128	; 0x80
 800925e:	b2ed      	uxtb	r5, r5
 8009260:	2d00      	cmp	r5, #0
 8009262:	f040 817a 	bne.w	800955a <USBD_OTG_ISR_Handler+0x46e>
 8009266:	3704      	adds	r7, #4
 8009268:	ea5f 0a5a 	movs.w	sl, sl, lsr #1
 800926c:	f10b 0b01 	add.w	fp, fp, #1
 8009270:	f000 81ae 	beq.w	80095d0 <USBD_OTG_ISR_Handler+0x4e4>
 8009274:	f01a 0f01 	tst.w	sl, #1
 8009278:	d0f5      	beq.n	8009266 <USBD_OTG_ISR_Handler+0x17a>
 800927a:	6923      	ldr	r3, [r4, #16]
 800927c:	fa5f f88b 	uxtb.w	r8, fp
 8009280:	6919      	ldr	r1, [r3, #16]
 8009282:	6b5a      	ldr	r2, [r3, #52]	; 0x34
 8009284:	eb04 0e88 	add.w	lr, r4, r8, lsl #2
 8009288:	fa22 f508 	lsr.w	r5, r2, r8
 800928c:	f8de 0018 	ldr.w	r0, [lr, #24]
 8009290:	01ed      	lsls	r5, r5, #7
 8009292:	6882      	ldr	r2, [r0, #8]
 8009294:	fa5f fc85 	uxtb.w	ip, r5
 8009298:	ea4c 0001 	orr.w	r0, ip, r1
 800929c:	ea00 0502 	and.w	r5, r0, r2
 80092a0:	b2ed      	uxtb	r5, r5
 80092a2:	07ea      	lsls	r2, r5, #31
 80092a4:	d5ad      	bpl.n	8009202 <USBD_OTG_ISR_Handler+0x116>
 80092a6:	6b5a      	ldr	r2, [r3, #52]	; 0x34
 80092a8:	2501      	movs	r5, #1
 80092aa:	fa05 f60b 	lsl.w	r6, r5, fp
 80092ae:	f240 1c2c 	movw	ip, #300	; 0x12c
 80092b2:	ea22 0006 	bic.w	r0, r2, r6
 80092b6:	f2c2 0c00 	movt	ip, #8192	; 0x2000
 80092ba:	6358      	str	r0, [r3, #52]	; 0x34
 80092bc:	f8dc 1000 	ldr.w	r1, [ip]
 80092c0:	69bb      	ldr	r3, [r7, #24]
 80092c2:	684e      	ldr	r6, [r1, #4]
 80092c4:	609d      	str	r5, [r3, #8]
 80092c6:	4620      	mov	r0, r4
 80092c8:	4641      	mov	r1, r8
 80092ca:	47b0      	blx	r6
 80092cc:	78e6      	ldrb	r6, [r4, #3]
 80092ce:	42ae      	cmp	r6, r5
 80092d0:	d197      	bne.n	8009202 <USBD_OTG_ISR_Handler+0x116>
 80092d2:	f1bb 0f00 	cmp.w	fp, #0
 80092d6:	d104      	bne.n	80092e2 <USBD_OTG_ISR_Handler+0x1f6>
 80092d8:	f894 5111 	ldrb.w	r5, [r4, #273]	; 0x111
 80092dc:	2d04      	cmp	r5, #4
 80092de:	f000 8137 	beq.w	8009550 <USBD_OTG_ISR_Handler+0x464>
 80092e2:	4635      	mov	r5, r6
 80092e4:	e78d      	b.n	8009202 <USBD_OTG_ISR_Handler+0x116>
 80092e6:	4620      	mov	r0, r4
 80092e8:	f7ff fcac 	bl	8008c44 <USB_OTG_ReadDevAllOutEp_itr>
 80092ec:	4605      	mov	r5, r0
 80092ee:	2800      	cmp	r0, #0
 80092f0:	f000 812a 	beq.w	8009548 <USBD_OTG_ISR_Handler+0x45c>
 80092f4:	f8df b0f0 	ldr.w	fp, [pc, #240]	; 80093e8 <USBD_OTG_ISR_Handler+0x2fc>
 80092f8:	4626      	mov	r6, r4
 80092fa:	46a1      	mov	r9, r4
 80092fc:	2700      	movs	r7, #0
 80092fe:	46c2      	mov	sl, r8
 8009300:	e006      	b.n	8009310 <USBD_OTG_ISR_Handler+0x224>
 8009302:	3701      	adds	r7, #1
 8009304:	3604      	adds	r6, #4
 8009306:	086d      	lsrs	r5, r5, #1
 8009308:	f109 0928 	add.w	r9, r9, #40	; 0x28
 800930c:	f000 8164 	beq.w	80095d8 <USBD_OTG_ISR_Handler+0x4ec>
 8009310:	07e8      	lsls	r0, r5, #31
 8009312:	d5f6      	bpl.n	8009302 <USBD_OTG_ISR_Handler+0x216>
 8009314:	fa5f f887 	uxtb.w	r8, r7
 8009318:	4641      	mov	r1, r8
 800931a:	4620      	mov	r0, r4
 800931c:	f7ff fc9a 	bl	8008c54 <USB_OTG_ReadDevOutEP_itr>
 8009320:	b2c0      	uxtb	r0, r0
 8009322:	07c1      	lsls	r1, r0, #31
 8009324:	d513      	bpl.n	800934e <USBD_OTG_ISR_Handler+0x262>
 8009326:	6d73      	ldr	r3, [r6, #84]	; 0x54
 8009328:	2001      	movs	r0, #1
 800932a:	6098      	str	r0, [r3, #8]
 800932c:	78e2      	ldrb	r2, [r4, #3]
 800932e:	2a01      	cmp	r2, #1
 8009330:	f000 8161 	beq.w	80095f6 <USBD_OTG_ISR_Handler+0x50a>
 8009334:	f8db 1000 	ldr.w	r1, [fp]
 8009338:	4620      	mov	r0, r4
 800933a:	680b      	ldr	r3, [r1, #0]
 800933c:	4641      	mov	r1, r8
 800933e:	4798      	blx	r3
 8009340:	f894 8003 	ldrb.w	r8, [r4, #3]
 8009344:	f1b8 0f01 	cmp.w	r8, #1
 8009348:	f000 8149 	beq.w	80095de <USBD_OTG_ISR_Handler+0x4f2>
 800934c:	2001      	movs	r0, #1
 800934e:	f000 0102 	and.w	r1, r0, #2
 8009352:	b2cb      	uxtb	r3, r1
 8009354:	b113      	cbz	r3, 800935c <USBD_OTG_ISR_Handler+0x270>
 8009356:	6d72      	ldr	r2, [r6, #84]	; 0x54
 8009358:	2002      	movs	r0, #2
 800935a:	6090      	str	r0, [r2, #8]
 800935c:	f000 0104 	and.w	r1, r0, #4
 8009360:	b2cb      	uxtb	r3, r1
 8009362:	b113      	cbz	r3, 800936a <USBD_OTG_ISR_Handler+0x27e>
 8009364:	6d72      	ldr	r2, [r6, #84]	; 0x54
 8009366:	2004      	movs	r0, #4
 8009368:	6090      	str	r0, [r2, #8]
 800936a:	f000 0308 	and.w	r3, r0, #8
 800936e:	b2d8      	uxtb	r0, r3
 8009370:	2800      	cmp	r0, #0
 8009372:	d0c6      	beq.n	8009302 <USBD_OTG_ISR_Handler+0x216>
 8009374:	f8db 1000 	ldr.w	r1, [fp]
 8009378:	4620      	mov	r0, r4
 800937a:	688b      	ldr	r3, [r1, #8]
 800937c:	4798      	blx	r3
 800937e:	6d72      	ldr	r2, [r6, #84]	; 0x54
 8009380:	2108      	movs	r1, #8
 8009382:	6091      	str	r1, [r2, #8]
 8009384:	e7bd      	b.n	8009302 <USBD_OTG_ISR_Handler+0x216>
 8009386:	68e3      	ldr	r3, [r4, #12]
 8009388:	699a      	ldr	r2, [r3, #24]
 800938a:	f022 0510 	bic.w	r5, r2, #16
 800938e:	619d      	str	r5, [r3, #24]
 8009390:	6a1d      	ldr	r5, [r3, #32]
 8009392:	f005 0e0f 	and.w	lr, r5, #15
 8009396:	eb0e 008e 	add.w	r0, lr, lr, lsl #2
 800939a:	f3c5 4243 	ubfx	r2, r5, #17, #4
 800939e:	eb04 06c0 	add.w	r6, r4, r0, lsl #3
 80093a2:	2a02      	cmp	r2, #2
 80093a4:	f506 765c 	add.w	r6, r6, #880	; 0x370
 80093a8:	f000 80ae 	beq.w	8009508 <USBD_OTG_ISR_Handler+0x41c>
 80093ac:	2a06      	cmp	r2, #6
 80093ae:	d10b      	bne.n	80093c8 <USBD_OTG_ISR_Handler+0x2dc>
 80093b0:	f504 61b9 	add.w	r1, r4, #1480	; 0x5c8
 80093b4:	2208      	movs	r2, #8
 80093b6:	4620      	mov	r0, r4
 80093b8:	f7fe ff54 	bl	8008264 <USB_OTG_ReadPacket>
 80093bc:	69b1      	ldr	r1, [r6, #24]
 80093be:	68e3      	ldr	r3, [r4, #12]
 80093c0:	f3c5 150a 	ubfx	r5, r5, #4, #11
 80093c4:	194a      	adds	r2, r1, r5
 80093c6:	61b2      	str	r2, [r6, #24]
 80093c8:	699a      	ldr	r2, [r3, #24]
 80093ca:	f042 0010 	orr.w	r0, r2, #16
 80093ce:	6198      	str	r0, [r3, #24]
 80093d0:	2001      	movs	r0, #1
 80093d2:	e6df      	b.n	8009194 <USBD_OTG_ISR_Handler+0xa8>
 80093d4:	4a04      	ldr	r2, [pc, #16]	; (80093e8 <USBD_OTG_ISR_Handler+0x2fc>)
 80093d6:	6811      	ldr	r1, [r2, #0]
 80093d8:	4620      	mov	r0, r4
 80093da:	68cb      	ldr	r3, [r1, #12]
 80093dc:	4798      	blx	r3
 80093de:	68e0      	ldr	r0, [r4, #12]
 80093e0:	2208      	movs	r2, #8
 80093e2:	6142      	str	r2, [r0, #20]
 80093e4:	2001      	movs	r0, #1
 80093e6:	e6cf      	b.n	8009188 <USBD_OTG_ISR_Handler+0x9c>
 80093e8:	2000012c 	andcs	r0, r0, ip, lsr #2
 80093ec:	4886      	ldr	r0, [pc, #536]	; (8009608 <USBD_OTG_ISR_Handler+0x51c>)
 80093ee:	6803      	ldr	r3, [r0, #0]
 80093f0:	4620      	mov	r0, r4
 80093f2:	695a      	ldr	r2, [r3, #20]
 80093f4:	4790      	blx	r2
 80093f6:	6921      	ldr	r1, [r4, #16]
 80093f8:	68e3      	ldr	r3, [r4, #12]
 80093fa:	6889      	ldr	r1, [r1, #8]
 80093fc:	f44f 6200 	mov.w	r2, #2048	; 0x800
 8009400:	615a      	str	r2, [r3, #20]
 8009402:	7aa0      	ldrb	r0, [r4, #10]
 8009404:	2800      	cmp	r0, #0
 8009406:	d07d      	beq.n	8009504 <USBD_OTG_ISR_Handler+0x418>
 8009408:	07cb      	lsls	r3, r1, #31
 800940a:	d57b      	bpl.n	8009504 <USBD_OTG_ISR_Handler+0x418>
 800940c:	f8d4 310c 	ldr.w	r3, [r4, #268]	; 0x10c
 8009410:	6818      	ldr	r0, [r3, #0]
 8009412:	f040 0201 	orr.w	r2, r0, #1
 8009416:	601a      	str	r2, [r3, #0]
 8009418:	6819      	ldr	r1, [r3, #0]
 800941a:	f44f 4c6d 	mov.w	ip, #60672	; 0xed00
 800941e:	f041 0003 	orr.w	r0, r1, #3
 8009422:	f2ce 0c00 	movt	ip, #57344	; 0xe000
 8009426:	6018      	str	r0, [r3, #0]
 8009428:	f8dc 2010 	ldr.w	r2, [ip, #16]
 800942c:	f042 0106 	orr.w	r1, r2, #6
 8009430:	f8cc 1010 	str.w	r1, [ip, #16]
 8009434:	2001      	movs	r0, #1
 8009436:	e6a1      	b.n	800917c <USBD_OTG_ISR_Handler+0x90>
 8009438:	6923      	ldr	r3, [r4, #16]
 800943a:	6859      	ldr	r1, [r3, #4]
 800943c:	2500      	movs	r5, #0
 800943e:	f021 0001 	bic.w	r0, r1, #1
 8009442:	6058      	str	r0, [r3, #4]
 8009444:	4629      	mov	r1, r5
 8009446:	4620      	mov	r0, r4
 8009448:	f7ff f8a6 	bl	8008598 <USB_OTG_FlushTxFifo>
 800944c:	7866      	ldrb	r6, [r4, #1]
 800944e:	b166      	cbz	r6, 800946a <USBD_OTG_ISR_Handler+0x37e>
 8009450:	f104 0214 	add.w	r2, r4, #20
 8009454:	462b      	mov	r3, r5
 8009456:	21ff      	movs	r1, #255	; 0xff
 8009458:	f852 6f04 	ldr.w	r6, [r2, #4]!
 800945c:	60b1      	str	r1, [r6, #8]
 800945e:	6bd0      	ldr	r0, [r2, #60]	; 0x3c
 8009460:	6081      	str	r1, [r0, #8]
 8009462:	7866      	ldrb	r6, [r4, #1]
 8009464:	3301      	adds	r3, #1
 8009466:	42b3      	cmp	r3, r6
 8009468:	d3f6      	bcc.n	8009458 <USBD_OTG_ISR_Handler+0x36c>
 800946a:	2601      	movs	r6, #1
 800946c:	6923      	ldr	r3, [r4, #16]
 800946e:	f366 050f 	bfi	r5, r6, #0, #16
 8009472:	220f      	movs	r2, #15
 8009474:	f04f 31ff 	mov.w	r1, #4294967295
 8009478:	202f      	movs	r0, #47	; 0x2f
 800947a:	f366 451f 	bfi	r5, r6, #16, #16
 800947e:	6199      	str	r1, [r3, #24]
 8009480:	61dd      	str	r5, [r3, #28]
 8009482:	615a      	str	r2, [r3, #20]
 8009484:	6118      	str	r0, [r3, #16]
 8009486:	6819      	ldr	r1, [r3, #0]
 8009488:	f36f 110a 	bfc	r1, #4, #7
 800948c:	6019      	str	r1, [r3, #0]
 800948e:	4620      	mov	r0, r4
 8009490:	f7ff fbf2 	bl	8008c78 <USB_OTG_EP0_OutStart>
 8009494:	4a5c      	ldr	r2, [pc, #368]	; (8009608 <USBD_OTG_ISR_Handler+0x51c>)
 8009496:	68e0      	ldr	r0, [r4, #12]
 8009498:	6813      	ldr	r3, [r2, #0]
 800949a:	f44f 5180 	mov.w	r1, #4096	; 0x1000
 800949e:	6141      	str	r1, [r0, #20]
 80094a0:	691a      	ldr	r2, [r3, #16]
 80094a2:	4620      	mov	r0, r4
 80094a4:	4790      	blx	r2
 80094a6:	4630      	mov	r0, r6
 80094a8:	e67c      	b.n	80091a4 <USBD_OTG_ISR_Handler+0xb8>
 80094aa:	4857      	ldr	r0, [pc, #348]	; (8009608 <USBD_OTG_ISR_Handler+0x51c>)
 80094ac:	6802      	ldr	r2, [r0, #0]
 80094ae:	4620      	mov	r0, r4
 80094b0:	69d1      	ldr	r1, [r2, #28]
 80094b2:	4788      	blx	r1
 80094b4:	68e3      	ldr	r3, [r4, #12]
 80094b6:	f44f 1080 	mov.w	r0, #1048576	; 0x100000
 80094ba:	6158      	str	r0, [r3, #20]
 80094bc:	2001      	movs	r0, #1
 80094be:	e681      	b.n	80091c4 <USBD_OTG_ISR_Handler+0xd8>
 80094c0:	4620      	mov	r0, r4
 80094c2:	f7ff f9b7 	bl	8008834 <USB_OTG_EP0Activate>
 80094c6:	68e5      	ldr	r5, [r4, #12]
 80094c8:	4620      	mov	r0, r4
 80094ca:	68ed      	ldr	r5, [r5, #12]
 80094cc:	f7ff f9a4 	bl	8008818 <USB_OTG_GetDeviceSpeed>
 80094d0:	2803      	cmp	r0, #3
 80094d2:	d02f      	beq.n	8009534 <USBD_OTG_ISR_Handler+0x448>
 80094d4:	2001      	movs	r0, #1
 80094d6:	2140      	movs	r1, #64	; 0x40
 80094d8:	2205      	movs	r2, #5
 80094da:	70a0      	strb	r0, [r4, #2]
 80094dc:	80a1      	strh	r1, [r4, #4]
 80094de:	f362 258d 	bfi	r5, r2, #10, #4
 80094e2:	68e3      	ldr	r3, [r4, #12]
 80094e4:	f44f 5200 	mov.w	r2, #8192	; 0x2000
 80094e8:	60dd      	str	r5, [r3, #12]
 80094ea:	2001      	movs	r0, #1
 80094ec:	615a      	str	r2, [r3, #20]
 80094ee:	e661      	b.n	80091b4 <USBD_OTG_ISR_Handler+0xc8>
 80094f0:	f8d4 310c 	ldr.w	r3, [r4, #268]	; 0x10c
 80094f4:	f8d4 110c 	ldr.w	r1, [r4, #268]	; 0x10c
 80094f8:	f36f 0341 	bfc	r3, #1, #1
 80094fc:	f36f 0300 	bfc	r3, #0, #1
 8009500:	600b      	str	r3, [r1, #0]
 8009502:	e624      	b.n	800914e <USBD_OTG_ISR_Handler+0x62>
 8009504:	2001      	movs	r0, #1
 8009506:	e639      	b.n	800917c <USBD_OTG_ISR_Handler+0x90>
 8009508:	f647 70f0 	movw	r0, #32752	; 0x7ff0
 800950c:	ea05 0100 	and.w	r1, r5, r0
 8009510:	2900      	cmp	r1, #0
 8009512:	f43f af59 	beq.w	80093c8 <USBD_OTG_ISR_Handler+0x2dc>
 8009516:	f3c5 150a 	ubfx	r5, r5, #4, #11
 800951a:	462a      	mov	r2, r5
 800951c:	68f1      	ldr	r1, [r6, #12]
 800951e:	4620      	mov	r0, r4
 8009520:	f7fe fea0 	bl	8008264 <USB_OTG_ReadPacket>
 8009524:	68f0      	ldr	r0, [r6, #12]
 8009526:	69b1      	ldr	r1, [r6, #24]
 8009528:	68e3      	ldr	r3, [r4, #12]
 800952a:	1942      	adds	r2, r0, r5
 800952c:	194d      	adds	r5, r1, r5
 800952e:	60f2      	str	r2, [r6, #12]
 8009530:	61b5      	str	r5, [r6, #24]
 8009532:	e749      	b.n	80093c8 <USBD_OTG_ISR_Handler+0x2dc>
 8009534:	2300      	movs	r3, #0
 8009536:	f44f 7c00 	mov.w	ip, #512	; 0x200
 800953a:	2009      	movs	r0, #9
 800953c:	70a3      	strb	r3, [r4, #2]
 800953e:	f8a4 c004 	strh.w	ip, [r4, #4]
 8009542:	f360 258d 	bfi	r5, r0, #10, #4
 8009546:	e7cc      	b.n	80094e2 <USBD_OTG_ISR_Handler+0x3f6>
 8009548:	2001      	movs	r0, #1
 800954a:	e5e7      	b.n	800911c <USBD_OTG_ISR_Handler+0x30>
 800954c:	2001      	movs	r0, #1
 800954e:	e5ed      	b.n	800912c <USBD_OTG_ISR_Handler+0x40>
 8009550:	4620      	mov	r0, r4
 8009552:	f7ff fb91 	bl	8008c78 <USB_OTG_EP0_OutStart>
 8009556:	4635      	mov	r5, r6
 8009558:	e653      	b.n	8009202 <USBD_OTG_ISR_Handler+0x116>
 800955a:	eb0b 038b 	add.w	r3, fp, fp, lsl #2
 800955e:	eb04 06c3 	add.w	r6, r4, r3, lsl #3
 8009562:	f506 758c 	add.w	r5, r6, #280	; 0x118
 8009566:	69b9      	ldr	r1, [r7, #24]
 8009568:	696a      	ldr	r2, [r5, #20]
 800956a:	69a8      	ldr	r0, [r5, #24]
 800956c:	68ab      	ldr	r3, [r5, #8]
 800956e:	f8d1 9018 	ldr.w	r9, [r1, #24]
 8009572:	1a16      	subs	r6, r2, r0
 8009574:	429e      	cmp	r6, r3
 8009576:	bf34      	ite	cc
 8009578:	46b4      	movcc	ip, r6
 800957a:	469c      	movcs	ip, r3
 800957c:	f10c 0e03 	add.w	lr, ip, #3
 8009580:	fa1f f989 	uxth.w	r9, r9
 8009584:	ebb9 0f9e 	cmp.w	r9, lr, lsr #2
 8009588:	d91f      	bls.n	80095ca <USBD_OTG_ISR_Handler+0x4de>
 800958a:	4282      	cmp	r2, r0
 800958c:	d91d      	bls.n	80095ca <USBD_OTG_ISR_Handler+0x4de>
 800958e:	b1e2      	cbz	r2, 80095ca <USBD_OTG_ISR_Handler+0x4de>
 8009590:	68e9      	ldr	r1, [r5, #12]
 8009592:	e004      	b.n	800959e <USBD_OTG_ISR_Handler+0x4b2>
 8009594:	696e      	ldr	r6, [r5, #20]
 8009596:	42b3      	cmp	r3, r6
 8009598:	d216      	bcs.n	80095c8 <USBD_OTG_ISR_Handler+0x4dc>
 800959a:	1af6      	subs	r6, r6, r3
 800959c:	68ab      	ldr	r3, [r5, #8]
 800959e:	429e      	cmp	r6, r3
 80095a0:	bf28      	it	cs
 80095a2:	461e      	movcs	r6, r3
 80095a4:	b2b3      	uxth	r3, r6
 80095a6:	4642      	mov	r2, r8
 80095a8:	4620      	mov	r0, r4
 80095aa:	f7fe fe35 	bl	8008218 <USB_OTG_WritePacket>
 80095ae:	69aa      	ldr	r2, [r5, #24]
 80095b0:	68e9      	ldr	r1, [r5, #12]
 80095b2:	18b3      	adds	r3, r6, r2
 80095b4:	1989      	adds	r1, r1, r6
 80095b6:	60e9      	str	r1, [r5, #12]
 80095b8:	61ab      	str	r3, [r5, #24]
 80095ba:	69ba      	ldr	r2, [r7, #24]
 80095bc:	6990      	ldr	r0, [r2, #24]
 80095be:	3603      	adds	r6, #3
 80095c0:	b280      	uxth	r0, r0
 80095c2:	ebb0 0f96 	cmp.w	r0, r6, lsr #2
 80095c6:	d8e5      	bhi.n	8009594 <USBD_OTG_ISR_Handler+0x4a8>
 80095c8:	4611      	mov	r1, r2
 80095ca:	2380      	movs	r3, #128	; 0x80
 80095cc:	608b      	str	r3, [r1, #8]
 80095ce:	e64a      	b.n	8009266 <USBD_OTG_ISR_Handler+0x17a>
 80095d0:	f8dd 8004 	ldr.w	r8, [sp, #4]
 80095d4:	2001      	movs	r0, #1
 80095d6:	e5a9      	b.n	800912c <USBD_OTG_ISR_Handler+0x40>
 80095d8:	46d0      	mov	r8, sl
 80095da:	2001      	movs	r0, #1
 80095dc:	e59e      	b.n	800911c <USBD_OTG_ISR_Handler+0x30>
 80095de:	b91f      	cbnz	r7, 80095e8 <USBD_OTG_ISR_Handler+0x4fc>
 80095e0:	f894 2111 	ldrb.w	r2, [r4, #273]	; 0x111
 80095e4:	2a05      	cmp	r2, #5
 80095e6:	d001      	beq.n	80095ec <USBD_OTG_ISR_Handler+0x500>
 80095e8:	4640      	mov	r0, r8
 80095ea:	e6b0      	b.n	800934e <USBD_OTG_ISR_Handler+0x262>
 80095ec:	4620      	mov	r0, r4
 80095ee:	f7ff fb43 	bl	8008c78 <USB_OTG_EP0_OutStart>
 80095f2:	4640      	mov	r0, r8
 80095f4:	e6ab      	b.n	800934e <USBD_OTG_ISR_Handler+0x262>
 80095f6:	6918      	ldr	r0, [r3, #16]
 80095f8:	f8d9 2378 	ldr.w	r2, [r9, #888]	; 0x378
 80095fc:	f3c0 0112 	ubfx	r1, r0, #0, #19
 8009600:	1a53      	subs	r3, r2, r1
 8009602:	f8c9 3388 	str.w	r3, [r9, #904]	; 0x388
 8009606:	e695      	b.n	8009334 <USBD_OTG_ISR_Handler+0x248>
 8009608:	2000012c 	andcs	r0, r0, ip, lsr #2

0800960c <__aeabi_drsub>:
 800960c:	f081 4100 	eor.w	r1, r1, #2147483648	; 0x80000000
 8009610:	e002      	b.n	8009618 <__adddf3>
 8009612:	bf00      	nop

08009614 <__aeabi_dsub>:
 8009614:	f083 4300 	eor.w	r3, r3, #2147483648	; 0x80000000

08009618 <__adddf3>:
 8009618:	b530      	push	{r4, r5, lr}
 800961a:	ea4f 0441 	mov.w	r4, r1, lsl #1
 800961e:	ea4f 0543 	mov.w	r5, r3, lsl #1
 8009622:	ea94 0f05 	teq	r4, r5
 8009626:	bf08      	it	eq
 8009628:	ea90 0f02 	teqeq	r0, r2
 800962c:	bf1f      	itttt	ne
 800962e:	ea54 0c00 	orrsne.w	ip, r4, r0
 8009632:	ea55 0c02 	orrsne.w	ip, r5, r2
 8009636:	ea7f 5c64 	mvnsne.w	ip, r4, asr #21
 800963a:	ea7f 5c65 	mvnsne.w	ip, r5, asr #21
 800963e:	f000 80e2 	beq.w	8009806 <__adddf3+0x1ee>
 8009642:	ea4f 5454 	mov.w	r4, r4, lsr #21
 8009646:	ebd4 5555 	rsbs	r5, r4, r5, lsr #21
 800964a:	bfb8      	it	lt
 800964c:	426d      	neglt	r5, r5
 800964e:	dd0c      	ble.n	800966a <__adddf3+0x52>
 8009650:	442c      	add	r4, r5
 8009652:	ea80 0202 	eor.w	r2, r0, r2
 8009656:	ea81 0303 	eor.w	r3, r1, r3
 800965a:	ea82 0000 	eor.w	r0, r2, r0
 800965e:	ea83 0101 	eor.w	r1, r3, r1
 8009662:	ea80 0202 	eor.w	r2, r0, r2
 8009666:	ea81 0303 	eor.w	r3, r1, r3
 800966a:	2d36      	cmp	r5, #54	; 0x36
 800966c:	bf88      	it	hi
 800966e:	bd30      	pophi	{r4, r5, pc}
 8009670:	f011 4f00 	tst.w	r1, #2147483648	; 0x80000000
 8009674:	ea4f 3101 	mov.w	r1, r1, lsl #12
 8009678:	f44f 1c80 	mov.w	ip, #1048576	; 0x100000
 800967c:	ea4c 3111 	orr.w	r1, ip, r1, lsr #12
 8009680:	d002      	beq.n	8009688 <__adddf3+0x70>
 8009682:	4240      	negs	r0, r0
 8009684:	eb61 0141 	sbc.w	r1, r1, r1, lsl #1
 8009688:	f013 4f00 	tst.w	r3, #2147483648	; 0x80000000
 800968c:	ea4f 3303 	mov.w	r3, r3, lsl #12
 8009690:	ea4c 3313 	orr.w	r3, ip, r3, lsr #12
 8009694:	d002      	beq.n	800969c <__adddf3+0x84>
 8009696:	4252      	negs	r2, r2
 8009698:	eb63 0343 	sbc.w	r3, r3, r3, lsl #1
 800969c:	ea94 0f05 	teq	r4, r5
 80096a0:	f000 80a7 	beq.w	80097f2 <__adddf3+0x1da>
 80096a4:	f1a4 0401 	sub.w	r4, r4, #1
 80096a8:	f1d5 0e20 	rsbs	lr, r5, #32
 80096ac:	db0d      	blt.n	80096ca <__adddf3+0xb2>
 80096ae:	fa02 fc0e 	lsl.w	ip, r2, lr
 80096b2:	fa22 f205 	lsr.w	r2, r2, r5
 80096b6:	1880      	adds	r0, r0, r2
 80096b8:	f141 0100 	adc.w	r1, r1, #0
 80096bc:	fa03 f20e 	lsl.w	r2, r3, lr
 80096c0:	1880      	adds	r0, r0, r2
 80096c2:	fa43 f305 	asr.w	r3, r3, r5
 80096c6:	4159      	adcs	r1, r3
 80096c8:	e00e      	b.n	80096e8 <__adddf3+0xd0>
 80096ca:	f1a5 0520 	sub.w	r5, r5, #32
 80096ce:	f10e 0e20 	add.w	lr, lr, #32
 80096d2:	2a01      	cmp	r2, #1
 80096d4:	fa03 fc0e 	lsl.w	ip, r3, lr
 80096d8:	bf28      	it	cs
 80096da:	f04c 0c02 	orrcs.w	ip, ip, #2
 80096de:	fa43 f305 	asr.w	r3, r3, r5
 80096e2:	18c0      	adds	r0, r0, r3
 80096e4:	eb51 71e3 	adcs.w	r1, r1, r3, asr #31
 80096e8:	f001 4500 	and.w	r5, r1, #2147483648	; 0x80000000
 80096ec:	d507      	bpl.n	80096fe <__adddf3+0xe6>
 80096ee:	f04f 0e00 	mov.w	lr, #0
 80096f2:	f1dc 0c00 	rsbs	ip, ip, #0
 80096f6:	eb7e 0000 	sbcs.w	r0, lr, r0
 80096fa:	eb6e 0101 	sbc.w	r1, lr, r1
 80096fe:	f5b1 1f80 	cmp.w	r1, #1048576	; 0x100000
 8009702:	d31b      	bcc.n	800973c <__adddf3+0x124>
 8009704:	f5b1 1f00 	cmp.w	r1, #2097152	; 0x200000
 8009708:	d30c      	bcc.n	8009724 <__adddf3+0x10c>
 800970a:	0849      	lsrs	r1, r1, #1
 800970c:	ea5f 0030 	movs.w	r0, r0, rrx
 8009710:	ea4f 0c3c 	mov.w	ip, ip, rrx
 8009714:	f104 0401 	add.w	r4, r4, #1
 8009718:	ea4f 5244 	mov.w	r2, r4, lsl #21
 800971c:	f512 0f80 	cmn.w	r2, #4194304	; 0x400000
 8009720:	f080 809a 	bcs.w	8009858 <__adddf3+0x240>
 8009724:	f1bc 4f00 	cmp.w	ip, #2147483648	; 0x80000000
 8009728:	bf08      	it	eq
 800972a:	ea5f 0c50 	movseq.w	ip, r0, lsr #1
 800972e:	f150 0000 	adcs.w	r0, r0, #0
 8009732:	eb41 5104 	adc.w	r1, r1, r4, lsl #20
 8009736:	ea41 0105 	orr.w	r1, r1, r5
 800973a:	bd30      	pop	{r4, r5, pc}
 800973c:	ea5f 0c4c 	movs.w	ip, ip, lsl #1
 8009740:	4140      	adcs	r0, r0
 8009742:	eb41 0101 	adc.w	r1, r1, r1
 8009746:	f411 1f80 	tst.w	r1, #1048576	; 0x100000
 800974a:	f1a4 0401 	sub.w	r4, r4, #1
 800974e:	d1e9      	bne.n	8009724 <__adddf3+0x10c>
 8009750:	f091 0f00 	teq	r1, #0
 8009754:	bf04      	itt	eq
 8009756:	4601      	moveq	r1, r0
 8009758:	2000      	moveq	r0, #0
 800975a:	fab1 f381 	clz	r3, r1
 800975e:	bf08      	it	eq
 8009760:	3320      	addeq	r3, #32
 8009762:	f1a3 030b 	sub.w	r3, r3, #11
 8009766:	f1b3 0220 	subs.w	r2, r3, #32
 800976a:	da0c      	bge.n	8009786 <__adddf3+0x16e>
 800976c:	320c      	adds	r2, #12
 800976e:	dd08      	ble.n	8009782 <__adddf3+0x16a>
 8009770:	f102 0c14 	add.w	ip, r2, #20
 8009774:	f1c2 020c 	rsb	r2, r2, #12
 8009778:	fa01 f00c 	lsl.w	r0, r1, ip
 800977c:	fa21 f102 	lsr.w	r1, r1, r2
 8009780:	e00c      	b.n	800979c <__adddf3+0x184>
 8009782:	f102 0214 	add.w	r2, r2, #20
 8009786:	bfd8      	it	le
 8009788:	f1c2 0c20 	rsble	ip, r2, #32
 800978c:	fa01 f102 	lsl.w	r1, r1, r2
 8009790:	fa20 fc0c 	lsr.w	ip, r0, ip
 8009794:	bfdc      	itt	le
 8009796:	ea41 010c 	orrle.w	r1, r1, ip
 800979a:	4090      	lslle	r0, r2
 800979c:	1ae4      	subs	r4, r4, r3
 800979e:	bfa2      	ittt	ge
 80097a0:	eb01 5104 	addge.w	r1, r1, r4, lsl #20
 80097a4:	4329      	orrge	r1, r5
 80097a6:	bd30      	popge	{r4, r5, pc}
 80097a8:	ea6f 0404 	mvn.w	r4, r4
 80097ac:	3c1f      	subs	r4, #31
 80097ae:	da1c      	bge.n	80097ea <__adddf3+0x1d2>
 80097b0:	340c      	adds	r4, #12
 80097b2:	dc0e      	bgt.n	80097d2 <__adddf3+0x1ba>
 80097b4:	f104 0414 	add.w	r4, r4, #20
 80097b8:	f1c4 0220 	rsb	r2, r4, #32
 80097bc:	fa20 f004 	lsr.w	r0, r0, r4
 80097c0:	fa01 f302 	lsl.w	r3, r1, r2
 80097c4:	ea40 0003 	orr.w	r0, r0, r3
 80097c8:	fa21 f304 	lsr.w	r3, r1, r4
 80097cc:	ea45 0103 	orr.w	r1, r5, r3
 80097d0:	bd30      	pop	{r4, r5, pc}
 80097d2:	f1c4 040c 	rsb	r4, r4, #12
 80097d6:	f1c4 0220 	rsb	r2, r4, #32
 80097da:	fa20 f002 	lsr.w	r0, r0, r2
 80097de:	fa01 f304 	lsl.w	r3, r1, r4
 80097e2:	ea40 0003 	orr.w	r0, r0, r3
 80097e6:	4629      	mov	r1, r5
 80097e8:	bd30      	pop	{r4, r5, pc}
 80097ea:	fa21 f004 	lsr.w	r0, r1, r4
 80097ee:	4629      	mov	r1, r5
 80097f0:	bd30      	pop	{r4, r5, pc}
 80097f2:	f094 0f00 	teq	r4, #0
 80097f6:	f483 1380 	eor.w	r3, r3, #1048576	; 0x100000
 80097fa:	bf06      	itte	eq
 80097fc:	f481 1180 	eoreq.w	r1, r1, #1048576	; 0x100000
 8009800:	3401      	addeq	r4, #1
 8009802:	3d01      	subne	r5, #1
 8009804:	e74e      	b.n	80096a4 <__adddf3+0x8c>
 8009806:	ea7f 5c64 	mvns.w	ip, r4, asr #21
 800980a:	bf18      	it	ne
 800980c:	ea7f 5c65 	mvnsne.w	ip, r5, asr #21
 8009810:	d029      	beq.n	8009866 <__adddf3+0x24e>
 8009812:	ea94 0f05 	teq	r4, r5
 8009816:	bf08      	it	eq
 8009818:	ea90 0f02 	teqeq	r0, r2
 800981c:	d005      	beq.n	800982a <__adddf3+0x212>
 800981e:	ea54 0c00 	orrs.w	ip, r4, r0
 8009822:	bf04      	itt	eq
 8009824:	4619      	moveq	r1, r3
 8009826:	4610      	moveq	r0, r2
 8009828:	bd30      	pop	{r4, r5, pc}
 800982a:	ea91 0f03 	teq	r1, r3
 800982e:	bf1e      	ittt	ne
 8009830:	2100      	movne	r1, #0
 8009832:	2000      	movne	r0, #0
 8009834:	bd30      	popne	{r4, r5, pc}
 8009836:	ea5f 5c54 	movs.w	ip, r4, lsr #21
 800983a:	d105      	bne.n	8009848 <__adddf3+0x230>
 800983c:	0040      	lsls	r0, r0, #1
 800983e:	4149      	adcs	r1, r1
 8009840:	bf28      	it	cs
 8009842:	f041 4100 	orrcs.w	r1, r1, #2147483648	; 0x80000000
 8009846:	bd30      	pop	{r4, r5, pc}
 8009848:	f514 0480 	adds.w	r4, r4, #4194304	; 0x400000
 800984c:	bf3c      	itt	cc
 800984e:	f501 1180 	addcc.w	r1, r1, #1048576	; 0x100000
 8009852:	bd30      	popcc	{r4, r5, pc}
 8009854:	f001 4500 	and.w	r5, r1, #2147483648	; 0x80000000
 8009858:	f045 41fe 	orr.w	r1, r5, #2130706432	; 0x7f000000
 800985c:	f441 0170 	orr.w	r1, r1, #15728640	; 0xf00000
 8009860:	f04f 0000 	mov.w	r0, #0
 8009864:	bd30      	pop	{r4, r5, pc}
 8009866:	ea7f 5c64 	mvns.w	ip, r4, asr #21
 800986a:	bf1a      	itte	ne
 800986c:	4619      	movne	r1, r3
 800986e:	4610      	movne	r0, r2
 8009870:	ea7f 5c65 	mvnseq.w	ip, r5, asr #21
 8009874:	bf1c      	itt	ne
 8009876:	460b      	movne	r3, r1
 8009878:	4602      	movne	r2, r0
 800987a:	ea50 3401 	orrs.w	r4, r0, r1, lsl #12
 800987e:	bf06      	itte	eq
 8009880:	ea52 3503 	orrseq.w	r5, r2, r3, lsl #12
 8009884:	ea91 0f03 	teqeq	r1, r3
 8009888:	f441 2100 	orrne.w	r1, r1, #524288	; 0x80000
 800988c:	bd30      	pop	{r4, r5, pc}
 800988e:	bf00      	nop

08009890 <__aeabi_ui2d>:
 8009890:	f090 0f00 	teq	r0, #0
 8009894:	bf04      	itt	eq
 8009896:	2100      	moveq	r1, #0
 8009898:	4770      	bxeq	lr
 800989a:	b530      	push	{r4, r5, lr}
 800989c:	f44f 6480 	mov.w	r4, #1024	; 0x400
 80098a0:	f104 0432 	add.w	r4, r4, #50	; 0x32
 80098a4:	f04f 0500 	mov.w	r5, #0
 80098a8:	f04f 0100 	mov.w	r1, #0
 80098ac:	e750      	b.n	8009750 <__adddf3+0x138>
 80098ae:	bf00      	nop

080098b0 <__aeabi_i2d>:
 80098b0:	f090 0f00 	teq	r0, #0
 80098b4:	bf04      	itt	eq
 80098b6:	2100      	moveq	r1, #0
 80098b8:	4770      	bxeq	lr
 80098ba:	b530      	push	{r4, r5, lr}
 80098bc:	f44f 6480 	mov.w	r4, #1024	; 0x400
 80098c0:	f104 0432 	add.w	r4, r4, #50	; 0x32
 80098c4:	f010 4500 	ands.w	r5, r0, #2147483648	; 0x80000000
 80098c8:	bf48      	it	mi
 80098ca:	4240      	negmi	r0, r0
 80098cc:	f04f 0100 	mov.w	r1, #0
 80098d0:	e73e      	b.n	8009750 <__adddf3+0x138>
 80098d2:	bf00      	nop

080098d4 <__aeabi_f2d>:
 80098d4:	0042      	lsls	r2, r0, #1
 80098d6:	ea4f 01e2 	mov.w	r1, r2, asr #3
 80098da:	ea4f 0131 	mov.w	r1, r1, rrx
 80098de:	ea4f 7002 	mov.w	r0, r2, lsl #28
 80098e2:	bf1f      	itttt	ne
 80098e4:	f012 437f 	andsne.w	r3, r2, #4278190080	; 0xff000000
 80098e8:	f093 4f7f 	teqne	r3, #4278190080	; 0xff000000
 80098ec:	f081 5160 	eorne.w	r1, r1, #939524096	; 0x38000000
 80098f0:	4770      	bxne	lr
 80098f2:	f092 0f00 	teq	r2, #0
 80098f6:	bf14      	ite	ne
 80098f8:	f093 4f7f 	teqne	r3, #4278190080	; 0xff000000
 80098fc:	4770      	bxeq	lr
 80098fe:	b530      	push	{r4, r5, lr}
 8009900:	f44f 7460 	mov.w	r4, #896	; 0x380
 8009904:	f001 4500 	and.w	r5, r1, #2147483648	; 0x80000000
 8009908:	f021 4100 	bic.w	r1, r1, #2147483648	; 0x80000000
 800990c:	e720      	b.n	8009750 <__adddf3+0x138>
 800990e:	bf00      	nop

08009910 <__aeabi_ul2d>:
 8009910:	ea50 0201 	orrs.w	r2, r0, r1
 8009914:	bf08      	it	eq
 8009916:	4770      	bxeq	lr
 8009918:	b530      	push	{r4, r5, lr}
 800991a:	f04f 0500 	mov.w	r5, #0
 800991e:	e00a      	b.n	8009936 <__aeabi_l2d+0x16>

08009920 <__aeabi_l2d>:
 8009920:	ea50 0201 	orrs.w	r2, r0, r1
 8009924:	bf08      	it	eq
 8009926:	4770      	bxeq	lr
 8009928:	b530      	push	{r4, r5, lr}
 800992a:	f011 4500 	ands.w	r5, r1, #2147483648	; 0x80000000
 800992e:	d502      	bpl.n	8009936 <__aeabi_l2d+0x16>
 8009930:	4240      	negs	r0, r0
 8009932:	eb61 0141 	sbc.w	r1, r1, r1, lsl #1
 8009936:	f44f 6480 	mov.w	r4, #1024	; 0x400
 800993a:	f104 0432 	add.w	r4, r4, #50	; 0x32
 800993e:	ea5f 5c91 	movs.w	ip, r1, lsr #22
 8009942:	f43f aedc 	beq.w	80096fe <__adddf3+0xe6>
 8009946:	f04f 0203 	mov.w	r2, #3
 800994a:	ea5f 0cdc 	movs.w	ip, ip, lsr #3
 800994e:	bf18      	it	ne
 8009950:	3203      	addne	r2, #3
 8009952:	ea5f 0cdc 	movs.w	ip, ip, lsr #3
 8009956:	bf18      	it	ne
 8009958:	3203      	addne	r2, #3
 800995a:	eb02 02dc 	add.w	r2, r2, ip, lsr #3
 800995e:	f1c2 0320 	rsb	r3, r2, #32
 8009962:	fa00 fc03 	lsl.w	ip, r0, r3
 8009966:	fa20 f002 	lsr.w	r0, r0, r2
 800996a:	fa01 fe03 	lsl.w	lr, r1, r3
 800996e:	ea40 000e 	orr.w	r0, r0, lr
 8009972:	fa21 f102 	lsr.w	r1, r1, r2
 8009976:	4414      	add	r4, r2
 8009978:	e6c1      	b.n	80096fe <__adddf3+0xe6>
 800997a:	bf00      	nop

0800997c <__aeabi_dmul>:
 800997c:	b570      	push	{r4, r5, r6, lr}
 800997e:	f04f 0cff 	mov.w	ip, #255	; 0xff
 8009982:	f44c 6ce0 	orr.w	ip, ip, #1792	; 0x700
 8009986:	ea1c 5411 	ands.w	r4, ip, r1, lsr #20
 800998a:	bf1d      	ittte	ne
 800998c:	ea1c 5513 	andsne.w	r5, ip, r3, lsr #20
 8009990:	ea94 0f0c 	teqne	r4, ip
 8009994:	ea95 0f0c 	teqne	r5, ip
 8009998:	f000 f8de 	bleq	8009b58 <__aeabi_dmul+0x1dc>
 800999c:	442c      	add	r4, r5
 800999e:	ea81 0603 	eor.w	r6, r1, r3
 80099a2:	ea21 514c 	bic.w	r1, r1, ip, lsl #21
 80099a6:	ea23 534c 	bic.w	r3, r3, ip, lsl #21
 80099aa:	ea50 3501 	orrs.w	r5, r0, r1, lsl #12
 80099ae:	bf18      	it	ne
 80099b0:	ea52 3503 	orrsne.w	r5, r2, r3, lsl #12
 80099b4:	f441 1180 	orr.w	r1, r1, #1048576	; 0x100000
 80099b8:	f443 1380 	orr.w	r3, r3, #1048576	; 0x100000
 80099bc:	d038      	beq.n	8009a30 <__aeabi_dmul+0xb4>
 80099be:	fba0 ce02 	umull	ip, lr, r0, r2
 80099c2:	f04f 0500 	mov.w	r5, #0
 80099c6:	fbe1 e502 	umlal	lr, r5, r1, r2
 80099ca:	f006 4200 	and.w	r2, r6, #2147483648	; 0x80000000
 80099ce:	fbe0 e503 	umlal	lr, r5, r0, r3
 80099d2:	f04f 0600 	mov.w	r6, #0
 80099d6:	fbe1 5603 	umlal	r5, r6, r1, r3
 80099da:	f09c 0f00 	teq	ip, #0
 80099de:	bf18      	it	ne
 80099e0:	f04e 0e01 	orrne.w	lr, lr, #1
 80099e4:	f1a4 04ff 	sub.w	r4, r4, #255	; 0xff
 80099e8:	f5b6 7f00 	cmp.w	r6, #512	; 0x200
 80099ec:	f564 7440 	sbc.w	r4, r4, #768	; 0x300
 80099f0:	d204      	bcs.n	80099fc <__aeabi_dmul+0x80>
 80099f2:	ea5f 0e4e 	movs.w	lr, lr, lsl #1
 80099f6:	416d      	adcs	r5, r5
 80099f8:	eb46 0606 	adc.w	r6, r6, r6
 80099fc:	ea42 21c6 	orr.w	r1, r2, r6, lsl #11
 8009a00:	ea41 5155 	orr.w	r1, r1, r5, lsr #21
 8009a04:	ea4f 20c5 	mov.w	r0, r5, lsl #11
 8009a08:	ea40 505e 	orr.w	r0, r0, lr, lsr #21
 8009a0c:	ea4f 2ece 	mov.w	lr, lr, lsl #11
 8009a10:	f1b4 0cfd 	subs.w	ip, r4, #253	; 0xfd
 8009a14:	bf88      	it	hi
 8009a16:	f5bc 6fe0 	cmphi.w	ip, #1792	; 0x700
 8009a1a:	d81e      	bhi.n	8009a5a <__aeabi_dmul+0xde>
 8009a1c:	f1be 4f00 	cmp.w	lr, #2147483648	; 0x80000000
 8009a20:	bf08      	it	eq
 8009a22:	ea5f 0e50 	movseq.w	lr, r0, lsr #1
 8009a26:	f150 0000 	adcs.w	r0, r0, #0
 8009a2a:	eb41 5104 	adc.w	r1, r1, r4, lsl #20
 8009a2e:	bd70      	pop	{r4, r5, r6, pc}
 8009a30:	f006 4600 	and.w	r6, r6, #2147483648	; 0x80000000
 8009a34:	ea46 0101 	orr.w	r1, r6, r1
 8009a38:	ea40 0002 	orr.w	r0, r0, r2
 8009a3c:	ea81 0103 	eor.w	r1, r1, r3
 8009a40:	ebb4 045c 	subs.w	r4, r4, ip, lsr #1
 8009a44:	bfc2      	ittt	gt
 8009a46:	ebd4 050c 	rsbsgt	r5, r4, ip
 8009a4a:	ea41 5104 	orrgt.w	r1, r1, r4, lsl #20
 8009a4e:	bd70      	popgt	{r4, r5, r6, pc}
 8009a50:	f441 1180 	orr.w	r1, r1, #1048576	; 0x100000
 8009a54:	f04f 0e00 	mov.w	lr, #0
 8009a58:	3c01      	subs	r4, #1
 8009a5a:	f300 80ab 	bgt.w	8009bb4 <__aeabi_dmul+0x238>
 8009a5e:	f114 0f36 	cmn.w	r4, #54	; 0x36
 8009a62:	bfde      	ittt	le
 8009a64:	2000      	movle	r0, #0
 8009a66:	f001 4100 	andle.w	r1, r1, #2147483648	; 0x80000000
 8009a6a:	bd70      	pople	{r4, r5, r6, pc}
 8009a6c:	f1c4 0400 	rsb	r4, r4, #0
 8009a70:	3c20      	subs	r4, #32
 8009a72:	da35      	bge.n	8009ae0 <__aeabi_dmul+0x164>
 8009a74:	340c      	adds	r4, #12
 8009a76:	dc1b      	bgt.n	8009ab0 <__aeabi_dmul+0x134>
 8009a78:	f104 0414 	add.w	r4, r4, #20
 8009a7c:	f1c4 0520 	rsb	r5, r4, #32
 8009a80:	fa00 f305 	lsl.w	r3, r0, r5
 8009a84:	fa20 f004 	lsr.w	r0, r0, r4
 8009a88:	fa01 f205 	lsl.w	r2, r1, r5
 8009a8c:	ea40 0002 	orr.w	r0, r0, r2
 8009a90:	f001 4200 	and.w	r2, r1, #2147483648	; 0x80000000
 8009a94:	f021 4100 	bic.w	r1, r1, #2147483648	; 0x80000000
 8009a98:	eb10 70d3 	adds.w	r0, r0, r3, lsr #31
 8009a9c:	fa21 f604 	lsr.w	r6, r1, r4
 8009aa0:	eb42 0106 	adc.w	r1, r2, r6
 8009aa4:	ea5e 0e43 	orrs.w	lr, lr, r3, lsl #1
 8009aa8:	bf08      	it	eq
 8009aaa:	ea20 70d3 	biceq.w	r0, r0, r3, lsr #31
 8009aae:	bd70      	pop	{r4, r5, r6, pc}
 8009ab0:	f1c4 040c 	rsb	r4, r4, #12
 8009ab4:	f1c4 0520 	rsb	r5, r4, #32
 8009ab8:	fa00 f304 	lsl.w	r3, r0, r4
 8009abc:	fa20 f005 	lsr.w	r0, r0, r5
 8009ac0:	fa01 f204 	lsl.w	r2, r1, r4
 8009ac4:	ea40 0002 	orr.w	r0, r0, r2
 8009ac8:	f001 4100 	and.w	r1, r1, #2147483648	; 0x80000000
 8009acc:	eb10 70d3 	adds.w	r0, r0, r3, lsr #31
 8009ad0:	f141 0100 	adc.w	r1, r1, #0
 8009ad4:	ea5e 0e43 	orrs.w	lr, lr, r3, lsl #1
 8009ad8:	bf08      	it	eq
 8009ada:	ea20 70d3 	biceq.w	r0, r0, r3, lsr #31
 8009ade:	bd70      	pop	{r4, r5, r6, pc}
 8009ae0:	f1c4 0520 	rsb	r5, r4, #32
 8009ae4:	fa00 f205 	lsl.w	r2, r0, r5
 8009ae8:	ea4e 0e02 	orr.w	lr, lr, r2
 8009aec:	fa20 f304 	lsr.w	r3, r0, r4
 8009af0:	fa01 f205 	lsl.w	r2, r1, r5
 8009af4:	ea43 0302 	orr.w	r3, r3, r2
 8009af8:	fa21 f004 	lsr.w	r0, r1, r4
 8009afc:	f001 4100 	and.w	r1, r1, #2147483648	; 0x80000000
 8009b00:	fa21 f204 	lsr.w	r2, r1, r4
 8009b04:	ea20 0002 	bic.w	r0, r0, r2
 8009b08:	eb00 70d3 	add.w	r0, r0, r3, lsr #31
 8009b0c:	ea5e 0e43 	orrs.w	lr, lr, r3, lsl #1
 8009b10:	bf08      	it	eq
 8009b12:	ea20 70d3 	biceq.w	r0, r0, r3, lsr #31
 8009b16:	bd70      	pop	{r4, r5, r6, pc}
 8009b18:	f094 0f00 	teq	r4, #0
 8009b1c:	d10f      	bne.n	8009b3e <__aeabi_dmul+0x1c2>
 8009b1e:	f001 4600 	and.w	r6, r1, #2147483648	; 0x80000000
 8009b22:	0040      	lsls	r0, r0, #1
 8009b24:	eb41 0101 	adc.w	r1, r1, r1
 8009b28:	f411 1f80 	tst.w	r1, #1048576	; 0x100000
 8009b2c:	bf08      	it	eq
 8009b2e:	3c01      	subeq	r4, #1
 8009b30:	d0f7      	beq.n	8009b22 <__aeabi_dmul+0x1a6>
 8009b32:	ea41 0106 	orr.w	r1, r1, r6
 8009b36:	f095 0f00 	teq	r5, #0
 8009b3a:	bf18      	it	ne
 8009b3c:	4770      	bxne	lr
 8009b3e:	f003 4600 	and.w	r6, r3, #2147483648	; 0x80000000
 8009b42:	0052      	lsls	r2, r2, #1
 8009b44:	eb43 0303 	adc.w	r3, r3, r3
 8009b48:	f413 1f80 	tst.w	r3, #1048576	; 0x100000
 8009b4c:	bf08      	it	eq
 8009b4e:	3d01      	subeq	r5, #1
 8009b50:	d0f7      	beq.n	8009b42 <__aeabi_dmul+0x1c6>
 8009b52:	ea43 0306 	orr.w	r3, r3, r6
 8009b56:	4770      	bx	lr
 8009b58:	ea94 0f0c 	teq	r4, ip
 8009b5c:	ea0c 5513 	and.w	r5, ip, r3, lsr #20
 8009b60:	bf18      	it	ne
 8009b62:	ea95 0f0c 	teqne	r5, ip
 8009b66:	d00c      	beq.n	8009b82 <__aeabi_dmul+0x206>
 8009b68:	ea50 0641 	orrs.w	r6, r0, r1, lsl #1
 8009b6c:	bf18      	it	ne
 8009b6e:	ea52 0643 	orrsne.w	r6, r2, r3, lsl #1
 8009b72:	d1d1      	bne.n	8009b18 <__aeabi_dmul+0x19c>
 8009b74:	ea81 0103 	eor.w	r1, r1, r3
 8009b78:	f001 4100 	and.w	r1, r1, #2147483648	; 0x80000000
 8009b7c:	f04f 0000 	mov.w	r0, #0
 8009b80:	bd70      	pop	{r4, r5, r6, pc}
 8009b82:	ea50 0641 	orrs.w	r6, r0, r1, lsl #1
 8009b86:	bf06      	itte	eq
 8009b88:	4610      	moveq	r0, r2
 8009b8a:	4619      	moveq	r1, r3
 8009b8c:	ea52 0643 	orrsne.w	r6, r2, r3, lsl #1
 8009b90:	d019      	beq.n	8009bc6 <__aeabi_dmul+0x24a>
 8009b92:	ea94 0f0c 	teq	r4, ip
 8009b96:	d102      	bne.n	8009b9e <__aeabi_dmul+0x222>
 8009b98:	ea50 3601 	orrs.w	r6, r0, r1, lsl #12
 8009b9c:	d113      	bne.n	8009bc6 <__aeabi_dmul+0x24a>
 8009b9e:	ea95 0f0c 	teq	r5, ip
 8009ba2:	d105      	bne.n	8009bb0 <__aeabi_dmul+0x234>
 8009ba4:	ea52 3603 	orrs.w	r6, r2, r3, lsl #12
 8009ba8:	bf1c      	itt	ne
 8009baa:	4610      	movne	r0, r2
 8009bac:	4619      	movne	r1, r3
 8009bae:	d10a      	bne.n	8009bc6 <__aeabi_dmul+0x24a>
 8009bb0:	ea81 0103 	eor.w	r1, r1, r3
 8009bb4:	f001 4100 	and.w	r1, r1, #2147483648	; 0x80000000
 8009bb8:	f041 41fe 	orr.w	r1, r1, #2130706432	; 0x7f000000
 8009bbc:	f441 0170 	orr.w	r1, r1, #15728640	; 0xf00000
 8009bc0:	f04f 0000 	mov.w	r0, #0
 8009bc4:	bd70      	pop	{r4, r5, r6, pc}
 8009bc6:	f041 41fe 	orr.w	r1, r1, #2130706432	; 0x7f000000
 8009bca:	f441 0178 	orr.w	r1, r1, #16252928	; 0xf80000
 8009bce:	bd70      	pop	{r4, r5, r6, pc}

08009bd0 <__aeabi_ddiv>:
 8009bd0:	b570      	push	{r4, r5, r6, lr}
 8009bd2:	f04f 0cff 	mov.w	ip, #255	; 0xff
 8009bd6:	f44c 6ce0 	orr.w	ip, ip, #1792	; 0x700
 8009bda:	ea1c 5411 	ands.w	r4, ip, r1, lsr #20
 8009bde:	bf1d      	ittte	ne
 8009be0:	ea1c 5513 	andsne.w	r5, ip, r3, lsr #20
 8009be4:	ea94 0f0c 	teqne	r4, ip
 8009be8:	ea95 0f0c 	teqne	r5, ip
 8009bec:	f000 f8a7 	bleq	8009d3e <__aeabi_ddiv+0x16e>
 8009bf0:	eba4 0405 	sub.w	r4, r4, r5
 8009bf4:	ea81 0e03 	eor.w	lr, r1, r3
 8009bf8:	ea52 3503 	orrs.w	r5, r2, r3, lsl #12
 8009bfc:	ea4f 3101 	mov.w	r1, r1, lsl #12
 8009c00:	f000 8088 	beq.w	8009d14 <__aeabi_ddiv+0x144>
 8009c04:	ea4f 3303 	mov.w	r3, r3, lsl #12
 8009c08:	f04f 5580 	mov.w	r5, #268435456	; 0x10000000
 8009c0c:	ea45 1313 	orr.w	r3, r5, r3, lsr #4
 8009c10:	ea43 6312 	orr.w	r3, r3, r2, lsr #24
 8009c14:	ea4f 2202 	mov.w	r2, r2, lsl #8
 8009c18:	ea45 1511 	orr.w	r5, r5, r1, lsr #4
 8009c1c:	ea45 6510 	orr.w	r5, r5, r0, lsr #24
 8009c20:	ea4f 2600 	mov.w	r6, r0, lsl #8
 8009c24:	f00e 4100 	and.w	r1, lr, #2147483648	; 0x80000000
 8009c28:	429d      	cmp	r5, r3
 8009c2a:	bf08      	it	eq
 8009c2c:	4296      	cmpeq	r6, r2
 8009c2e:	f144 04fd 	adc.w	r4, r4, #253	; 0xfd
 8009c32:	f504 7440 	add.w	r4, r4, #768	; 0x300
 8009c36:	d202      	bcs.n	8009c3e <__aeabi_ddiv+0x6e>
 8009c38:	085b      	lsrs	r3, r3, #1
 8009c3a:	ea4f 0232 	mov.w	r2, r2, rrx
 8009c3e:	1ab6      	subs	r6, r6, r2
 8009c40:	eb65 0503 	sbc.w	r5, r5, r3
 8009c44:	085b      	lsrs	r3, r3, #1
 8009c46:	ea4f 0232 	mov.w	r2, r2, rrx
 8009c4a:	f44f 1080 	mov.w	r0, #1048576	; 0x100000
 8009c4e:	f44f 2c00 	mov.w	ip, #524288	; 0x80000
 8009c52:	ebb6 0e02 	subs.w	lr, r6, r2
 8009c56:	eb75 0e03 	sbcs.w	lr, r5, r3
 8009c5a:	bf22      	ittt	cs
 8009c5c:	1ab6      	subcs	r6, r6, r2
 8009c5e:	4675      	movcs	r5, lr
 8009c60:	ea40 000c 	orrcs.w	r0, r0, ip
 8009c64:	085b      	lsrs	r3, r3, #1
 8009c66:	ea4f 0232 	mov.w	r2, r2, rrx
 8009c6a:	ebb6 0e02 	subs.w	lr, r6, r2
 8009c6e:	eb75 0e03 	sbcs.w	lr, r5, r3
 8009c72:	bf22      	ittt	cs
 8009c74:	1ab6      	subcs	r6, r6, r2
 8009c76:	4675      	movcs	r5, lr
 8009c78:	ea40 005c 	orrcs.w	r0, r0, ip, lsr #1
 8009c7c:	085b      	lsrs	r3, r3, #1
 8009c7e:	ea4f 0232 	mov.w	r2, r2, rrx
 8009c82:	ebb6 0e02 	subs.w	lr, r6, r2
 8009c86:	eb75 0e03 	sbcs.w	lr, r5, r3
 8009c8a:	bf22      	ittt	cs
 8009c8c:	1ab6      	subcs	r6, r6, r2
 8009c8e:	4675      	movcs	r5, lr
 8009c90:	ea40 009c 	orrcs.w	r0, r0, ip, lsr #2
 8009c94:	085b      	lsrs	r3, r3, #1
 8009c96:	ea4f 0232 	mov.w	r2, r2, rrx
 8009c9a:	ebb6 0e02 	subs.w	lr, r6, r2
 8009c9e:	eb75 0e03 	sbcs.w	lr, r5, r3
 8009ca2:	bf22      	ittt	cs
 8009ca4:	1ab6      	subcs	r6, r6, r2
 8009ca6:	4675      	movcs	r5, lr
 8009ca8:	ea40 00dc 	orrcs.w	r0, r0, ip, lsr #3
 8009cac:	ea55 0e06 	orrs.w	lr, r5, r6
 8009cb0:	d018      	beq.n	8009ce4 <__aeabi_ddiv+0x114>
 8009cb2:	ea4f 1505 	mov.w	r5, r5, lsl #4
 8009cb6:	ea45 7516 	orr.w	r5, r5, r6, lsr #28
 8009cba:	ea4f 1606 	mov.w	r6, r6, lsl #4
 8009cbe:	ea4f 03c3 	mov.w	r3, r3, lsl #3
 8009cc2:	ea43 7352 	orr.w	r3, r3, r2, lsr #29
 8009cc6:	ea4f 02c2 	mov.w	r2, r2, lsl #3
 8009cca:	ea5f 1c1c 	movs.w	ip, ip, lsr #4
 8009cce:	d1c0      	bne.n	8009c52 <__aeabi_ddiv+0x82>
 8009cd0:	f411 1f80 	tst.w	r1, #1048576	; 0x100000
 8009cd4:	d10b      	bne.n	8009cee <__aeabi_ddiv+0x11e>
 8009cd6:	ea41 0100 	orr.w	r1, r1, r0
 8009cda:	f04f 0000 	mov.w	r0, #0
 8009cde:	f04f 4c00 	mov.w	ip, #2147483648	; 0x80000000
 8009ce2:	e7b6      	b.n	8009c52 <__aeabi_ddiv+0x82>
 8009ce4:	f411 1f80 	tst.w	r1, #1048576	; 0x100000
 8009ce8:	bf04      	itt	eq
 8009cea:	4301      	orreq	r1, r0
 8009cec:	2000      	moveq	r0, #0
 8009cee:	f1b4 0cfd 	subs.w	ip, r4, #253	; 0xfd
 8009cf2:	bf88      	it	hi
 8009cf4:	f5bc 6fe0 	cmphi.w	ip, #1792	; 0x700
 8009cf8:	f63f aeaf 	bhi.w	8009a5a <__aeabi_dmul+0xde>
 8009cfc:	ebb5 0c03 	subs.w	ip, r5, r3
 8009d00:	bf04      	itt	eq
 8009d02:	ebb6 0c02 	subseq.w	ip, r6, r2
 8009d06:	ea5f 0c50 	movseq.w	ip, r0, lsr #1
 8009d0a:	f150 0000 	adcs.w	r0, r0, #0
 8009d0e:	eb41 5104 	adc.w	r1, r1, r4, lsl #20
 8009d12:	bd70      	pop	{r4, r5, r6, pc}
 8009d14:	f00e 4e00 	and.w	lr, lr, #2147483648	; 0x80000000
 8009d18:	ea4e 3111 	orr.w	r1, lr, r1, lsr #12
 8009d1c:	eb14 045c 	adds.w	r4, r4, ip, lsr #1
 8009d20:	bfc2      	ittt	gt
 8009d22:	ebd4 050c 	rsbsgt	r5, r4, ip
 8009d26:	ea41 5104 	orrgt.w	r1, r1, r4, lsl #20
 8009d2a:	bd70      	popgt	{r4, r5, r6, pc}
 8009d2c:	f441 1180 	orr.w	r1, r1, #1048576	; 0x100000
 8009d30:	f04f 0e00 	mov.w	lr, #0
 8009d34:	3c01      	subs	r4, #1
 8009d36:	e690      	b.n	8009a5a <__aeabi_dmul+0xde>
 8009d38:	ea45 0e06 	orr.w	lr, r5, r6
 8009d3c:	e68d      	b.n	8009a5a <__aeabi_dmul+0xde>
 8009d3e:	ea0c 5513 	and.w	r5, ip, r3, lsr #20
 8009d42:	ea94 0f0c 	teq	r4, ip
 8009d46:	bf08      	it	eq
 8009d48:	ea95 0f0c 	teqeq	r5, ip
 8009d4c:	f43f af3b 	beq.w	8009bc6 <__aeabi_dmul+0x24a>
 8009d50:	ea94 0f0c 	teq	r4, ip
 8009d54:	d10a      	bne.n	8009d6c <__aeabi_ddiv+0x19c>
 8009d56:	ea50 3401 	orrs.w	r4, r0, r1, lsl #12
 8009d5a:	f47f af34 	bne.w	8009bc6 <__aeabi_dmul+0x24a>
 8009d5e:	ea95 0f0c 	teq	r5, ip
 8009d62:	f47f af25 	bne.w	8009bb0 <__aeabi_dmul+0x234>
 8009d66:	4610      	mov	r0, r2
 8009d68:	4619      	mov	r1, r3
 8009d6a:	e72c      	b.n	8009bc6 <__aeabi_dmul+0x24a>
 8009d6c:	ea95 0f0c 	teq	r5, ip
 8009d70:	d106      	bne.n	8009d80 <__aeabi_ddiv+0x1b0>
 8009d72:	ea52 3503 	orrs.w	r5, r2, r3, lsl #12
 8009d76:	f43f aefd 	beq.w	8009b74 <__aeabi_dmul+0x1f8>
 8009d7a:	4610      	mov	r0, r2
 8009d7c:	4619      	mov	r1, r3
 8009d7e:	e722      	b.n	8009bc6 <__aeabi_dmul+0x24a>
 8009d80:	ea50 0641 	orrs.w	r6, r0, r1, lsl #1
 8009d84:	bf18      	it	ne
 8009d86:	ea52 0643 	orrsne.w	r6, r2, r3, lsl #1
 8009d8a:	f47f aec5 	bne.w	8009b18 <__aeabi_dmul+0x19c>
 8009d8e:	ea50 0441 	orrs.w	r4, r0, r1, lsl #1
 8009d92:	f47f af0d 	bne.w	8009bb0 <__aeabi_dmul+0x234>
 8009d96:	ea52 0543 	orrs.w	r5, r2, r3, lsl #1
 8009d9a:	f47f aeeb 	bne.w	8009b74 <__aeabi_dmul+0x1f8>
 8009d9e:	e712      	b.n	8009bc6 <__aeabi_dmul+0x24a>

08009da0 <__gedf2>:
 8009da0:	f04f 3cff 	mov.w	ip, #4294967295
 8009da4:	e006      	b.n	8009db4 <__cmpdf2+0x4>
 8009da6:	bf00      	nop

08009da8 <__ledf2>:
 8009da8:	f04f 0c01 	mov.w	ip, #1
 8009dac:	e002      	b.n	8009db4 <__cmpdf2+0x4>
 8009dae:	bf00      	nop

08009db0 <__cmpdf2>:
 8009db0:	f04f 0c01 	mov.w	ip, #1
 8009db4:	f84d cd04 	str.w	ip, [sp, #-4]!
 8009db8:	ea4f 0c41 	mov.w	ip, r1, lsl #1
 8009dbc:	ea7f 5c6c 	mvns.w	ip, ip, asr #21
 8009dc0:	ea4f 0c43 	mov.w	ip, r3, lsl #1
 8009dc4:	bf18      	it	ne
 8009dc6:	ea7f 5c6c 	mvnsne.w	ip, ip, asr #21
 8009dca:	d01b      	beq.n	8009e04 <__cmpdf2+0x54>
 8009dcc:	b001      	add	sp, #4
 8009dce:	ea50 0c41 	orrs.w	ip, r0, r1, lsl #1
 8009dd2:	bf0c      	ite	eq
 8009dd4:	ea52 0c43 	orrseq.w	ip, r2, r3, lsl #1
 8009dd8:	ea91 0f03 	teqne	r1, r3
 8009ddc:	bf02      	ittt	eq
 8009dde:	ea90 0f02 	teqeq	r0, r2
 8009de2:	2000      	moveq	r0, #0
 8009de4:	4770      	bxeq	lr
 8009de6:	f110 0f00 	cmn.w	r0, #0
 8009dea:	ea91 0f03 	teq	r1, r3
 8009dee:	bf58      	it	pl
 8009df0:	4299      	cmppl	r1, r3
 8009df2:	bf08      	it	eq
 8009df4:	4290      	cmpeq	r0, r2
 8009df6:	bf2c      	ite	cs
 8009df8:	17d8      	asrcs	r0, r3, #31
 8009dfa:	ea6f 70e3 	mvncc.w	r0, r3, asr #31
 8009dfe:	f040 0001 	orr.w	r0, r0, #1
 8009e02:	4770      	bx	lr
 8009e04:	ea4f 0c41 	mov.w	ip, r1, lsl #1
 8009e08:	ea7f 5c6c 	mvns.w	ip, ip, asr #21
 8009e0c:	d102      	bne.n	8009e14 <__cmpdf2+0x64>
 8009e0e:	ea50 3c01 	orrs.w	ip, r0, r1, lsl #12
 8009e12:	d107      	bne.n	8009e24 <__cmpdf2+0x74>
 8009e14:	ea4f 0c43 	mov.w	ip, r3, lsl #1
 8009e18:	ea7f 5c6c 	mvns.w	ip, ip, asr #21
 8009e1c:	d1d6      	bne.n	8009dcc <__cmpdf2+0x1c>
 8009e1e:	ea52 3c03 	orrs.w	ip, r2, r3, lsl #12
 8009e22:	d0d3      	beq.n	8009dcc <__cmpdf2+0x1c>
 8009e24:	f85d 0b04 	ldr.w	r0, [sp], #4
 8009e28:	4770      	bx	lr
 8009e2a:	bf00      	nop

08009e2c <__aeabi_cdrcmple>:
 8009e2c:	4684      	mov	ip, r0
 8009e2e:	4610      	mov	r0, r2
 8009e30:	4662      	mov	r2, ip
 8009e32:	468c      	mov	ip, r1
 8009e34:	4619      	mov	r1, r3
 8009e36:	4663      	mov	r3, ip
 8009e38:	e000      	b.n	8009e3c <__aeabi_cdcmpeq>
 8009e3a:	bf00      	nop

08009e3c <__aeabi_cdcmpeq>:
 8009e3c:	b501      	push	{r0, lr}
 8009e3e:	f7ff ffb7 	bl	8009db0 <__cmpdf2>
 8009e42:	2800      	cmp	r0, #0
 8009e44:	bf48      	it	mi
 8009e46:	f110 0f00 	cmnmi.w	r0, #0
 8009e4a:	bd01      	pop	{r0, pc}

08009e4c <__aeabi_dcmpeq>:
 8009e4c:	f84d ed08 	str.w	lr, [sp, #-8]!
 8009e50:	f7ff fff4 	bl	8009e3c <__aeabi_cdcmpeq>
 8009e54:	bf0c      	ite	eq
 8009e56:	2001      	moveq	r0, #1
 8009e58:	2000      	movne	r0, #0
 8009e5a:	f85d fb08 	ldr.w	pc, [sp], #8
 8009e5e:	bf00      	nop

08009e60 <__aeabi_dcmplt>:
 8009e60:	f84d ed08 	str.w	lr, [sp, #-8]!
 8009e64:	f7ff ffea 	bl	8009e3c <__aeabi_cdcmpeq>
 8009e68:	bf34      	ite	cc
 8009e6a:	2001      	movcc	r0, #1
 8009e6c:	2000      	movcs	r0, #0
 8009e6e:	f85d fb08 	ldr.w	pc, [sp], #8
 8009e72:	bf00      	nop

08009e74 <__aeabi_dcmple>:
 8009e74:	f84d ed08 	str.w	lr, [sp, #-8]!
 8009e78:	f7ff ffe0 	bl	8009e3c <__aeabi_cdcmpeq>
 8009e7c:	bf94      	ite	ls
 8009e7e:	2001      	movls	r0, #1
 8009e80:	2000      	movhi	r0, #0
 8009e82:	f85d fb08 	ldr.w	pc, [sp], #8
 8009e86:	bf00      	nop

08009e88 <__aeabi_dcmpge>:
 8009e88:	f84d ed08 	str.w	lr, [sp, #-8]!
 8009e8c:	f7ff ffce 	bl	8009e2c <__aeabi_cdrcmple>
 8009e90:	bf94      	ite	ls
 8009e92:	2001      	movls	r0, #1
 8009e94:	2000      	movhi	r0, #0
 8009e96:	f85d fb08 	ldr.w	pc, [sp], #8
 8009e9a:	bf00      	nop

08009e9c <__aeabi_dcmpgt>:
 8009e9c:	f84d ed08 	str.w	lr, [sp, #-8]!
 8009ea0:	f7ff ffc4 	bl	8009e2c <__aeabi_cdrcmple>
 8009ea4:	bf34      	ite	cc
 8009ea6:	2001      	movcc	r0, #1
 8009ea8:	2000      	movcs	r0, #0
 8009eaa:	f85d fb08 	ldr.w	pc, [sp], #8
 8009eae:	bf00      	nop

08009eb0 <__aeabi_d2f>:
 8009eb0:	ea4f 0241 	mov.w	r2, r1, lsl #1
 8009eb4:	f1b2 43e0 	subs.w	r3, r2, #1879048192	; 0x70000000
 8009eb8:	bf24      	itt	cs
 8009eba:	f5b3 1c00 	subscs.w	ip, r3, #2097152	; 0x200000
 8009ebe:	f1dc 5cfe 	rsbscs	ip, ip, #532676608	; 0x1fc00000
 8009ec2:	d90d      	bls.n	8009ee0 <__aeabi_d2f+0x30>
 8009ec4:	f001 4c00 	and.w	ip, r1, #2147483648	; 0x80000000
 8009ec8:	ea4f 02c0 	mov.w	r2, r0, lsl #3
 8009ecc:	ea4c 7050 	orr.w	r0, ip, r0, lsr #29
 8009ed0:	f1b2 4f00 	cmp.w	r2, #2147483648	; 0x80000000
 8009ed4:	eb40 0083 	adc.w	r0, r0, r3, lsl #2
 8009ed8:	bf08      	it	eq
 8009eda:	f020 0001 	biceq.w	r0, r0, #1
 8009ede:	4770      	bx	lr
 8009ee0:	f011 4f80 	tst.w	r1, #1073741824	; 0x40000000
 8009ee4:	d121      	bne.n	8009f2a <__aeabi_d2f+0x7a>
 8009ee6:	f113 7238 	adds.w	r2, r3, #48234496	; 0x2e00000
 8009eea:	bfbc      	itt	lt
 8009eec:	f001 4000 	andlt.w	r0, r1, #2147483648	; 0x80000000
 8009ef0:	4770      	bxlt	lr
 8009ef2:	f441 1180 	orr.w	r1, r1, #1048576	; 0x100000
 8009ef6:	ea4f 5252 	mov.w	r2, r2, lsr #21
 8009efa:	f1c2 0218 	rsb	r2, r2, #24
 8009efe:	f1c2 0c20 	rsb	ip, r2, #32
 8009f02:	fa10 f30c 	lsls.w	r3, r0, ip
 8009f06:	fa20 f002 	lsr.w	r0, r0, r2
 8009f0a:	bf18      	it	ne
 8009f0c:	f040 0001 	orrne.w	r0, r0, #1
 8009f10:	ea4f 23c1 	mov.w	r3, r1, lsl #11
 8009f14:	ea4f 23d3 	mov.w	r3, r3, lsr #11
 8009f18:	fa03 fc0c 	lsl.w	ip, r3, ip
 8009f1c:	ea40 000c 	orr.w	r0, r0, ip
 8009f20:	fa23 f302 	lsr.w	r3, r3, r2
 8009f24:	ea4f 0343 	mov.w	r3, r3, lsl #1
 8009f28:	e7cc      	b.n	8009ec4 <__aeabi_d2f+0x14>
 8009f2a:	ea7f 5362 	mvns.w	r3, r2, asr #21
 8009f2e:	d107      	bne.n	8009f40 <__aeabi_d2f+0x90>
 8009f30:	ea50 3301 	orrs.w	r3, r0, r1, lsl #12
 8009f34:	bf1e      	ittt	ne
 8009f36:	f04f 40fe 	movne.w	r0, #2130706432	; 0x7f000000
 8009f3a:	f440 0040 	orrne.w	r0, r0, #12582912	; 0xc00000
 8009f3e:	4770      	bxne	lr
 8009f40:	f001 4000 	and.w	r0, r1, #2147483648	; 0x80000000
 8009f44:	f040 40fe 	orr.w	r0, r0, #2130706432	; 0x7f000000
 8009f48:	f440 0000 	orr.w	r0, r0, #8388608	; 0x800000
 8009f4c:	4770      	bx	lr
 8009f4e:	bf00      	nop

08009f50 <Reset_Handler>:
 8009f50:	2100      	movs	r1, #0
 8009f52:	e003      	b.n	8009f5c <LoopCopyDataInit>

08009f54 <CopyDataInit>:
 8009f54:	4b0d      	ldr	r3, [pc, #52]	; (8009f8c <LoopFillZerobss+0x1c>)
 8009f56:	585b      	ldr	r3, [r3, r1]
 8009f58:	5043      	str	r3, [r0, r1]
 8009f5a:	3104      	adds	r1, #4

08009f5c <LoopCopyDataInit>:
 8009f5c:	480c      	ldr	r0, [pc, #48]	; (8009f90 <LoopFillZerobss+0x20>)
 8009f5e:	4b0d      	ldr	r3, [pc, #52]	; (8009f94 <LoopFillZerobss+0x24>)
 8009f60:	1842      	adds	r2, r0, r1
 8009f62:	429a      	cmp	r2, r3
 8009f64:	d3f6      	bcc.n	8009f54 <CopyDataInit>
 8009f66:	4a0c      	ldr	r2, [pc, #48]	; (8009f98 <LoopFillZerobss+0x28>)
 8009f68:	e002      	b.n	8009f70 <LoopFillZerobss>

08009f6a <FillZerobss>:
 8009f6a:	2300      	movs	r3, #0
 8009f6c:	f842 3b04 	str.w	r3, [r2], #4

08009f70 <LoopFillZerobss>:
 8009f70:	4b0a      	ldr	r3, [pc, #40]	; (8009f9c <LoopFillZerobss+0x2c>)
 8009f72:	429a      	cmp	r2, r3
 8009f74:	d3f9      	bcc.n	8009f6a <FillZerobss>
 8009f76:	480a      	ldr	r0, [pc, #40]	; (8009fa0 <LoopFillZerobss+0x30>)
 8009f78:	6801      	ldr	r1, [r0, #0]
 8009f7a:	f441 0170 	orr.w	r1, r1, #15728640	; 0xf00000
 8009f7e:	6001      	str	r1, [r0, #0]
 8009f80:	f7f6 f9f4 	bl	800036c <SystemInit>
 8009f84:	f000 f810 	bl	8009fa8 <main>
 8009f88:	4770      	bx	lr
 8009f8a:	ada80000 	stcge	0, cr0, [r8]
 8009f8e:	00000800 	andeq	r0, r0, r0, lsl #16
 8009f92:	058c2000 	streq	r2, [ip]
 8009f96:	05902000 	ldreq	r2, [r0]
 8009f9a:	16782000 	ldrbtne	r2, [r8], -r0
 8009f9e:	ed882000 	stc	0, cr2, [r8]
 8009fa2:	e7fee000 	ldrb	lr, [lr, r0]!

08009fa4 <ADC_IRQHandler>:
 8009fa4:	e7fe      	b.n	8009fa4 <ADC_IRQHandler>
	...

08009fa8 <main>:
 8009fa8:	b500      	push	{lr}
 8009faa:	b087      	sub	sp, #28
 8009fac:	2300      	movs	r3, #0
 8009fae:	9305      	str	r3, [sp, #20]
 8009fb0:	9a05      	ldr	r2, [sp, #20]
 8009fb2:	f64f 73fe 	movw	r3, #65534	; 0xfffe
 8009fb6:	f2c0 03ff 	movt	r3, #255	; 0xff
 8009fba:	429a      	cmp	r2, r3
 8009fbc:	d805      	bhi.n	8009fca <main+0x22>
 8009fbe:	9a05      	ldr	r2, [sp, #20]
 8009fc0:	1c51      	adds	r1, r2, #1
 8009fc2:	9105      	str	r1, [sp, #20]
 8009fc4:	9805      	ldr	r0, [sp, #20]
 8009fc6:	4298      	cmp	r0, r3
 8009fc8:	d9f9      	bls.n	8009fbe <main+0x16>
 8009fca:	f44f 7040 	mov.w	r0, #768	; 0x300
 8009fce:	f7fd fb17 	bl	8007600 <NVIC_PriorityGroupConfig>
 8009fd2:	f7f8 fb31 	bl	8002638 <LEDInit>
 8009fd6:	f7f8 fc27 	bl	8002828 <PWMInit>
 8009fda:	f7f7 fa27 	bl	800142c <vUSBQueueInit>
 8009fde:	f7f9 fa8f 	bl	8003500 <FastCounterInit>
 8009fe2:	f7f7 fc33 	bl	800184c <SensorBusInit>
 8009fe6:	f7f8 fb77 	bl	80026d8 <MPU6050Init>
 8009fea:	f7f7 fbd5 	bl	8001798 <HMC5883LInit>
 8009fee:	f7f8 fe4f 	bl	8002c90 <SensorsInterruptReadInit>
 8009ff2:	f7f6 fc99 	bl	8000928 <EstimationInit>
 8009ff6:	490c      	ldr	r1, [pc, #48]	; (800a028 <main+0x80>)
 8009ff8:	4a0c      	ldr	r2, [pc, #48]	; (800a02c <main+0x84>)
 8009ffa:	4b0d      	ldr	r3, [pc, #52]	; (800a030 <main+0x88>)
 8009ffc:	480d      	ldr	r0, [pc, #52]	; (800a034 <main+0x8c>)
 8009ffe:	9100      	str	r1, [sp, #0]
 800a000:	2101      	movs	r1, #1
 800a002:	f7fd fdcf 	bl	8007ba4 <USBD_Init>
 800a006:	f7f9 f8fd 	bl	8003204 <vSerialManagerInit>
 800a00a:	2300      	movs	r3, #0
 800a00c:	2201      	movs	r2, #1
 800a00e:	e88d 000c 	stmia.w	sp, {r2, r3}
 800a012:	4909      	ldr	r1, [pc, #36]	; (800a038 <main+0x90>)
 800a014:	4809      	ldr	r0, [pc, #36]	; (800a03c <main+0x94>)
 800a016:	9302      	str	r3, [sp, #8]
 800a018:	f44f 7280 	mov.w	r2, #256	; 0x100
 800a01c:	9303      	str	r3, [sp, #12]
 800a01e:	f7fa f997 	bl	8004350 <xTaskGenericCreate>
 800a022:	f7fa fb0f 	bl	8004644 <vTaskStartScheduler>
 800a026:	e7fe      	b.n	800a026 <main+0x7e>
 800a028:	20000084 	andcs	r0, r0, r4, lsl #1
 800a02c:	20000068 	andcs	r0, r0, r8, rrx
 800a030:	20000100 	andcs	r0, r0, r0, lsl #2
 800a034:	20000730 	andcs	r0, r0, r0, lsr r7
 800a038:	0800ac54 	stmdaeq	r0, {r2, r4, r6, sl, fp, sp, pc}
 800a03c:	08001295 	stmdaeq	r0, {r0, r2, r4, r7, r9, ip}

0800a040 <prvCopyDataFromQueue>:
 800a040:	b430      	push	{r4, r5}
 800a042:	6804      	ldr	r4, [r0, #0]
 800a044:	b16c      	cbz	r4, 800a062 <prvCopyDataFromQueue+0x22>
 800a046:	68c3      	ldr	r3, [r0, #12]
 800a048:	6c02      	ldr	r2, [r0, #64]	; 0x40
 800a04a:	6845      	ldr	r5, [r0, #4]
 800a04c:	189b      	adds	r3, r3, r2
 800a04e:	42ab      	cmp	r3, r5
 800a050:	60c3      	str	r3, [r0, #12]
 800a052:	bf28      	it	cs
 800a054:	60c4      	strcs	r4, [r0, #12]
 800a056:	68c3      	ldr	r3, [r0, #12]
 800a058:	4608      	mov	r0, r1
 800a05a:	4619      	mov	r1, r3
 800a05c:	bc30      	pop	{r4, r5}
 800a05e:	f000 bacf 	b.w	800a600 <memcpy>
 800a062:	bc30      	pop	{r4, r5}
 800a064:	4770      	bx	lr
 800a066:	bf00      	nop

0800a068 <prvCopyDataToQueue>:
 800a068:	6c03      	ldr	r3, [r0, #64]	; 0x40
 800a06a:	b510      	push	{r4, lr}
 800a06c:	4604      	mov	r4, r0
 800a06e:	b1eb      	cbz	r3, 800a0ac <prvCopyDataToQueue+0x44>
 800a070:	b96a      	cbnz	r2, 800a08e <prvCopyDataToQueue+0x26>
 800a072:	461a      	mov	r2, r3
 800a074:	6880      	ldr	r0, [r0, #8]
 800a076:	f000 fac3 	bl	800a600 <memcpy>
 800a07a:	68a1      	ldr	r1, [r4, #8]
 800a07c:	6c20      	ldr	r0, [r4, #64]	; 0x40
 800a07e:	6862      	ldr	r2, [r4, #4]
 800a080:	180b      	adds	r3, r1, r0
 800a082:	4293      	cmp	r3, r2
 800a084:	60a3      	str	r3, [r4, #8]
 800a086:	d311      	bcc.n	800a0ac <prvCopyDataToQueue+0x44>
 800a088:	6822      	ldr	r2, [r4, #0]
 800a08a:	60a2      	str	r2, [r4, #8]
 800a08c:	e00e      	b.n	800a0ac <prvCopyDataToQueue+0x44>
 800a08e:	461a      	mov	r2, r3
 800a090:	68c0      	ldr	r0, [r0, #12]
 800a092:	f000 fab5 	bl	800a600 <memcpy>
 800a096:	6c22      	ldr	r2, [r4, #64]	; 0x40
 800a098:	68e1      	ldr	r1, [r4, #12]
 800a09a:	6820      	ldr	r0, [r4, #0]
 800a09c:	4252      	negs	r2, r2
 800a09e:	188b      	adds	r3, r1, r2
 800a0a0:	4283      	cmp	r3, r0
 800a0a2:	60e3      	str	r3, [r4, #12]
 800a0a4:	d202      	bcs.n	800a0ac <prvCopyDataToQueue+0x44>
 800a0a6:	6863      	ldr	r3, [r4, #4]
 800a0a8:	1898      	adds	r0, r3, r2
 800a0aa:	60e0      	str	r0, [r4, #12]
 800a0ac:	6ba2      	ldr	r2, [r4, #56]	; 0x38
 800a0ae:	1c51      	adds	r1, r2, #1
 800a0b0:	63a1      	str	r1, [r4, #56]	; 0x38
 800a0b2:	bd10      	pop	{r4, pc}

0800a0b4 <sqrt>:
 800a0b4:	b510      	push	{r4, lr}
 800a0b6:	ed2d 8b04 	vpush	{d8-d9}
 800a0ba:	eeb0 8a40 	vmov.f32	s16, s0
 800a0be:	eef0 8a60 	vmov.f32	s17, s1
 800a0c2:	4c29      	ldr	r4, [pc, #164]	; (800a168 <sqrt+0xb4>)
 800a0c4:	b08a      	sub	sp, #40	; 0x28
 800a0c6:	f000 f8ad 	bl	800a224 <__ieee754_sqrt>
 800a0ca:	f994 3000 	ldrsb.w	r3, [r4]
 800a0ce:	eeb0 9a40 	vmov.f32	s18, s0
 800a0d2:	eef0 9a60 	vmov.f32	s19, s1
 800a0d6:	3301      	adds	r3, #1
 800a0d8:	d02b      	beq.n	800a132 <sqrt+0x7e>
 800a0da:	eeb0 0a48 	vmov.f32	s0, s16
 800a0de:	eef0 0a68 	vmov.f32	s1, s17
 800a0e2:	f000 f9cf 	bl	800a484 <__fpclassifyd>
 800a0e6:	b320      	cbz	r0, 800a132 <sqrt+0x7e>
 800a0e8:	ec51 0b18 	vmov	r0, r1, d8
 800a0ec:	2200      	movs	r2, #0
 800a0ee:	2300      	movs	r3, #0
 800a0f0:	f7ff feb6 	bl	8009e60 <__aeabi_dcmplt>
 800a0f4:	b1e8      	cbz	r0, 800a132 <sqrt+0x7e>
 800a0f6:	4b1d      	ldr	r3, [pc, #116]	; (800a16c <sqrt+0xb8>)
 800a0f8:	7824      	ldrb	r4, [r4, #0]
 800a0fa:	9301      	str	r3, [sp, #4]
 800a0fc:	2301      	movs	r3, #1
 800a0fe:	9300      	str	r3, [sp, #0]
 800a100:	2300      	movs	r3, #0
 800a102:	9308      	str	r3, [sp, #32]
 800a104:	ed8d 8b04 	vstr	d8, [sp, #16]
 800a108:	ed8d 8b02 	vstr	d8, [sp, #8]
 800a10c:	b1cc      	cbz	r4, 800a142 <sqrt+0x8e>
 800a10e:	2000      	movs	r0, #0
 800a110:	2100      	movs	r1, #0
 800a112:	4602      	mov	r2, r0
 800a114:	460b      	mov	r3, r1
 800a116:	f7ff fd5b 	bl	8009bd0 <__aeabi_ddiv>
 800a11a:	2c02      	cmp	r4, #2
 800a11c:	e9cd 0106 	strd	r0, r1, [sp, #24]
 800a120:	d115      	bne.n	800a14e <sqrt+0x9a>
 800a122:	f000 fa1d 	bl	800a560 <__errno>
 800a126:	2321      	movs	r3, #33	; 0x21
 800a128:	6003      	str	r3, [r0, #0]
 800a12a:	9b08      	ldr	r3, [sp, #32]
 800a12c:	b9ab      	cbnz	r3, 800a15a <sqrt+0xa6>
 800a12e:	ed9d 9b06 	vldr	d9, [sp, #24]
 800a132:	eeb0 0a49 	vmov.f32	s0, s18
 800a136:	eef0 0a69 	vmov.f32	s1, s19
 800a13a:	b00a      	add	sp, #40	; 0x28
 800a13c:	ecbd 8b04 	vpop	{d8-d9}
 800a140:	bd10      	pop	{r4, pc}
 800a142:	2200      	movs	r2, #0
 800a144:	2300      	movs	r3, #0
 800a146:	ec43 2b17 	vmov	d7, r2, r3
 800a14a:	ed8d 7b06 	vstr	d7, [sp, #24]
 800a14e:	4668      	mov	r0, sp
 800a150:	f000 f9d0 	bl	800a4f4 <matherr>
 800a154:	2800      	cmp	r0, #0
 800a156:	d1e8      	bne.n	800a12a <sqrt+0x76>
 800a158:	e7e3      	b.n	800a122 <sqrt+0x6e>
 800a15a:	f000 fa01 	bl	800a560 <__errno>
 800a15e:	9b08      	ldr	r3, [sp, #32]
 800a160:	ed9d 9b06 	vldr	d9, [sp, #24]
 800a164:	6003      	str	r3, [r0, #0]
 800a166:	e7e4      	b.n	800a132 <sqrt+0x7e>
 800a168:	2000015c 	andcs	r0, r0, ip, asr r1
 800a16c:	0800ad60 	stmdaeq	r0, {r5, r6, r8, sl, fp, sp, pc}

0800a170 <sqrtf>:
 800a170:	b510      	push	{r4, lr}
 800a172:	ed2d 8b02 	vpush	{d8}
 800a176:	4c29      	ldr	r4, [pc, #164]	; (800a21c <sqrtf+0xac>)
 800a178:	b08a      	sub	sp, #40	; 0x28
 800a17a:	eeb0 8a40 	vmov.f32	s16, s0
 800a17e:	f000 f933 	bl	800a3e8 <__ieee754_sqrtf>
 800a182:	f994 3000 	ldrsb.w	r3, [r4]
 800a186:	3301      	adds	r3, #1
 800a188:	eef0 8a40 	vmov.f32	s17, s0
 800a18c:	d02f      	beq.n	800a1ee <sqrtf+0x7e>
 800a18e:	eeb0 0a48 	vmov.f32	s0, s16
 800a192:	f000 f9b1 	bl	800a4f8 <__fpclassifyf>
 800a196:	b350      	cbz	r0, 800a1ee <sqrtf+0x7e>
 800a198:	eeb5 8ac0 	vcmpe.f32	s16, #0.0
 800a19c:	eef1 fa10 	vmrs	APSR_nzcv, fpscr
 800a1a0:	d525      	bpl.n	800a1ee <sqrtf+0x7e>
 800a1a2:	2301      	movs	r3, #1
 800a1a4:	9300      	str	r3, [sp, #0]
 800a1a6:	4b1e      	ldr	r3, [pc, #120]	; (800a220 <sqrtf+0xb0>)
 800a1a8:	ee18 0a10 	vmov	r0, s16
 800a1ac:	9301      	str	r3, [sp, #4]
 800a1ae:	2300      	movs	r3, #0
 800a1b0:	9308      	str	r3, [sp, #32]
 800a1b2:	f7ff fb8f 	bl	80098d4 <__aeabi_f2d>
 800a1b6:	7824      	ldrb	r4, [r4, #0]
 800a1b8:	e9cd 0104 	strd	r0, r1, [sp, #16]
 800a1bc:	e9cd 0102 	strd	r0, r1, [sp, #8]
 800a1c0:	b1dc      	cbz	r4, 800a1fa <sqrtf+0x8a>
 800a1c2:	2000      	movs	r0, #0
 800a1c4:	2100      	movs	r1, #0
 800a1c6:	4602      	mov	r2, r0
 800a1c8:	460b      	mov	r3, r1
 800a1ca:	f7ff fd01 	bl	8009bd0 <__aeabi_ddiv>
 800a1ce:	2c02      	cmp	r4, #2
 800a1d0:	e9cd 0106 	strd	r0, r1, [sp, #24]
 800a1d4:	d117      	bne.n	800a206 <sqrtf+0x96>
 800a1d6:	f000 f9c3 	bl	800a560 <__errno>
 800a1da:	2321      	movs	r3, #33	; 0x21
 800a1dc:	6003      	str	r3, [r0, #0]
 800a1de:	9b08      	ldr	r3, [sp, #32]
 800a1e0:	b9bb      	cbnz	r3, 800a212 <sqrtf+0xa2>
 800a1e2:	e9dd 0106 	ldrd	r0, r1, [sp, #24]
 800a1e6:	f7ff fe63 	bl	8009eb0 <__aeabi_d2f>
 800a1ea:	ee08 0a90 	vmov	s17, r0
 800a1ee:	eeb0 0a68 	vmov.f32	s0, s17
 800a1f2:	b00a      	add	sp, #40	; 0x28
 800a1f4:	ecbd 8b02 	vpop	{d8}
 800a1f8:	bd10      	pop	{r4, pc}
 800a1fa:	2200      	movs	r2, #0
 800a1fc:	2300      	movs	r3, #0
 800a1fe:	ec43 2b17 	vmov	d7, r2, r3
 800a202:	ed8d 7b06 	vstr	d7, [sp, #24]
 800a206:	4668      	mov	r0, sp
 800a208:	f000 f974 	bl	800a4f4 <matherr>
 800a20c:	2800      	cmp	r0, #0
 800a20e:	d1e6      	bne.n	800a1de <sqrtf+0x6e>
 800a210:	e7e1      	b.n	800a1d6 <sqrtf+0x66>
 800a212:	f000 f9a5 	bl	800a560 <__errno>
 800a216:	9b08      	ldr	r3, [sp, #32]
 800a218:	6003      	str	r3, [r0, #0]
 800a21a:	e7e2      	b.n	800a1e2 <sqrtf+0x72>
 800a21c:	2000015c 	andcs	r0, r0, ip, asr r1
 800a220:	0800ad68 	stmdaeq	r0, {r3, r5, r6, r8, sl, fp, sp, pc}

0800a224 <__ieee754_sqrt>:
 800a224:	e92d 43f8 	stmdb	sp!, {r3, r4, r5, r6, r7, r8, r9, lr}
 800a228:	ec53 2b10 	vmov	r2, r3, d0
 800a22c:	2400      	movs	r4, #0
 800a22e:	4625      	mov	r5, r4
 800a230:	f6c7 74f0 	movt	r4, #32752	; 0x7ff0
 800a234:	f6c7 75f0 	movt	r5, #32752	; 0x7ff0
 800a238:	401c      	ands	r4, r3
 800a23a:	42ac      	cmp	r4, r5
 800a23c:	ed2d 8b02 	vpush	{d8}
 800a240:	eeb0 8a40 	vmov.f32	s16, s0
 800a244:	eef0 8a60 	vmov.f32	s17, s1
 800a248:	4619      	mov	r1, r3
 800a24a:	4610      	mov	r0, r2
 800a24c:	f000 80ab 	beq.w	800a3a6 <__ieee754_sqrt+0x182>
 800a250:	2b00      	cmp	r3, #0
 800a252:	dd7f      	ble.n	800a354 <__ieee754_sqrt+0x130>
 800a254:	151a      	asrs	r2, r3, #20
 800a256:	f000 8089 	beq.w	800a36c <__ieee754_sqrt+0x148>
 800a25a:	f5a2 777e 	sub.w	r7, r2, #1016	; 0x3f8
 800a25e:	f021 437f 	bic.w	r3, r1, #4278190080	; 0xff000000
 800a262:	f423 0370 	bic.w	r3, r3, #15728640	; 0xf00000
 800a266:	3f07      	subs	r7, #7
 800a268:	07d2      	lsls	r2, r2, #31
 800a26a:	f443 1380 	orr.w	r3, r3, #1048576	; 0x100000
 800a26e:	d566      	bpl.n	800a33e <__ieee754_sqrt+0x11a>
 800a270:	0fc2      	lsrs	r2, r0, #31
 800a272:	f04f 0c00 	mov.w	ip, #0
 800a276:	eb02 0343 	add.w	r3, r2, r3, lsl #1
 800a27a:	107f      	asrs	r7, r7, #1
 800a27c:	0042      	lsls	r2, r0, #1
 800a27e:	4665      	mov	r5, ip
 800a280:	2016      	movs	r0, #22
 800a282:	f44f 1100 	mov.w	r1, #2097152	; 0x200000
 800a286:	186c      	adds	r4, r5, r1
 800a288:	0fd6      	lsrs	r6, r2, #31
 800a28a:	429c      	cmp	r4, r3
 800a28c:	ea4f 0242 	mov.w	r2, r2, lsl #1
 800a290:	dc02      	bgt.n	800a298 <__ieee754_sqrt+0x74>
 800a292:	1865      	adds	r5, r4, r1
 800a294:	1b1b      	subs	r3, r3, r4
 800a296:	448c      	add	ip, r1
 800a298:	0849      	lsrs	r1, r1, #1
 800a29a:	3801      	subs	r0, #1
 800a29c:	eb06 0343 	add.w	r3, r6, r3, lsl #1
 800a2a0:	d1f1      	bne.n	800a286 <__ieee754_sqrt+0x62>
 800a2a2:	2620      	movs	r6, #32
 800a2a4:	4680      	mov	r8, r0
 800a2a6:	f04f 4100 	mov.w	r1, #2147483648	; 0x80000000
 800a2aa:	e007      	b.n	800a2bc <__ieee754_sqrt+0x98>
 800a2ac:	d043      	beq.n	800a336 <__ieee754_sqrt+0x112>
 800a2ae:	0fd4      	lsrs	r4, r2, #31
 800a2b0:	0849      	lsrs	r1, r1, #1
 800a2b2:	0052      	lsls	r2, r2, #1
 800a2b4:	3e01      	subs	r6, #1
 800a2b6:	eb04 0343 	add.w	r3, r4, r3, lsl #1
 800a2ba:	d01b      	beq.n	800a2f4 <__ieee754_sqrt+0xd0>
 800a2bc:	42ab      	cmp	r3, r5
 800a2be:	eb08 0401 	add.w	r4, r8, r1
 800a2c2:	ddf3      	ble.n	800a2ac <__ieee754_sqrt+0x88>
 800a2c4:	f004 4900 	and.w	r9, r4, #2147483648	; 0x80000000
 800a2c8:	f1b9 4f00 	cmp.w	r9, #2147483648	; 0x80000000
 800a2cc:	eb04 0801 	add.w	r8, r4, r1
 800a2d0:	d02b      	beq.n	800a32a <__ieee754_sqrt+0x106>
 800a2d2:	46a9      	mov	r9, r5
 800a2d4:	4294      	cmp	r4, r2
 800a2d6:	ebc5 0303 	rsb	r3, r5, r3
 800a2da:	ebc4 0202 	rsb	r2, r4, r2
 800a2de:	bf88      	it	hi
 800a2e0:	3b01      	subhi	r3, #1
 800a2e2:	1840      	adds	r0, r0, r1
 800a2e4:	0fd4      	lsrs	r4, r2, #31
 800a2e6:	0849      	lsrs	r1, r1, #1
 800a2e8:	0052      	lsls	r2, r2, #1
 800a2ea:	3e01      	subs	r6, #1
 800a2ec:	464d      	mov	r5, r9
 800a2ee:	eb04 0343 	add.w	r3, r4, r3, lsl #1
 800a2f2:	d1e3      	bne.n	800a2bc <__ieee754_sqrt+0x98>
 800a2f4:	431a      	orrs	r2, r3
 800a2f6:	d127      	bne.n	800a348 <__ieee754_sqrt+0x124>
 800a2f8:	0846      	lsrs	r6, r0, #1
 800a2fa:	ea4f 016c 	mov.w	r1, ip, asr #1
 800a2fe:	f101 517e 	add.w	r1, r1, #1065353216	; 0x3f800000
 800a302:	f01c 0f01 	tst.w	ip, #1
 800a306:	f501 01c0 	add.w	r1, r1, #6291456	; 0x600000
 800a30a:	bf18      	it	ne
 800a30c:	f046 4600 	orrne.w	r6, r6, #2147483648	; 0x80000000
 800a310:	eb01 5307 	add.w	r3, r1, r7, lsl #20
 800a314:	4632      	mov	r2, r6
 800a316:	ec43 2b18 	vmov	d8, r2, r3
 800a31a:	eeb0 0a48 	vmov.f32	s0, s16
 800a31e:	eef0 0a68 	vmov.f32	s1, s17
 800a322:	ecbd 8b02 	vpop	{d8}
 800a326:	e8bd 83f8 	ldmia.w	sp!, {r3, r4, r5, r6, r7, r8, r9, pc}
 800a32a:	f1b8 0f00 	cmp.w	r8, #0
 800a32e:	dbd0      	blt.n	800a2d2 <__ieee754_sqrt+0xae>
 800a330:	f105 0901 	add.w	r9, r5, #1
 800a334:	e7ce      	b.n	800a2d4 <__ieee754_sqrt+0xb0>
 800a336:	4294      	cmp	r4, r2
 800a338:	d9c4      	bls.n	800a2c4 <__ieee754_sqrt+0xa0>
 800a33a:	461d      	mov	r5, r3
 800a33c:	e7b7      	b.n	800a2ae <__ieee754_sqrt+0x8a>
 800a33e:	0fc2      	lsrs	r2, r0, #31
 800a340:	eb02 0343 	add.w	r3, r2, r3, lsl #1
 800a344:	0040      	lsls	r0, r0, #1
 800a346:	e793      	b.n	800a270 <__ieee754_sqrt+0x4c>
 800a348:	1c43      	adds	r3, r0, #1
 800a34a:	d039      	beq.n	800a3c0 <__ieee754_sqrt+0x19c>
 800a34c:	f000 0301 	and.w	r3, r0, #1
 800a350:	1818      	adds	r0, r3, r0
 800a352:	e7d1      	b.n	800a2f8 <__ieee754_sqrt+0xd4>
 800a354:	f023 4400 	bic.w	r4, r3, #2147483648	; 0x80000000
 800a358:	4314      	orrs	r4, r2
 800a35a:	d0de      	beq.n	800a31a <__ieee754_sqrt+0xf6>
 800a35c:	2b00      	cmp	r3, #0
 800a35e:	d136      	bne.n	800a3ce <__ieee754_sqrt+0x1aa>
 800a360:	461a      	mov	r2, r3
 800a362:	0ac1      	lsrs	r1, r0, #11
 800a364:	3a15      	subs	r2, #21
 800a366:	0540      	lsls	r0, r0, #21
 800a368:	2900      	cmp	r1, #0
 800a36a:	d0fa      	beq.n	800a362 <__ieee754_sqrt+0x13e>
 800a36c:	f411 1380 	ands.w	r3, r1, #1048576	; 0x100000
 800a370:	d129      	bne.n	800a3c6 <__ieee754_sqrt+0x1a2>
 800a372:	0049      	lsls	r1, r1, #1
 800a374:	3301      	adds	r3, #1
 800a376:	02cc      	lsls	r4, r1, #11
 800a378:	d5fb      	bpl.n	800a372 <__ieee754_sqrt+0x14e>
 800a37a:	f1c3 0501 	rsb	r5, r3, #1
 800a37e:	f1c3 0420 	rsb	r4, r3, #32
 800a382:	fa20 f404 	lsr.w	r4, r0, r4
 800a386:	1952      	adds	r2, r2, r5
 800a388:	4321      	orrs	r1, r4
 800a38a:	4098      	lsls	r0, r3
 800a38c:	f5a2 777e 	sub.w	r7, r2, #1016	; 0x3f8
 800a390:	f021 437f 	bic.w	r3, r1, #4278190080	; 0xff000000
 800a394:	f423 0370 	bic.w	r3, r3, #15728640	; 0xf00000
 800a398:	3f07      	subs	r7, #7
 800a39a:	07d2      	lsls	r2, r2, #31
 800a39c:	f443 1380 	orr.w	r3, r3, #1048576	; 0x100000
 800a3a0:	f53f af66 	bmi.w	800a270 <__ieee754_sqrt+0x4c>
 800a3a4:	e7cb      	b.n	800a33e <__ieee754_sqrt+0x11a>
 800a3a6:	ec51 0b10 	vmov	r0, r1, d0
 800a3aa:	f7ff fae7 	bl	800997c <__aeabi_dmul>
 800a3ae:	4602      	mov	r2, r0
 800a3b0:	460b      	mov	r3, r1
 800a3b2:	ec51 0b18 	vmov	r0, r1, d8
 800a3b6:	f7ff f92f 	bl	8009618 <__adddf3>
 800a3ba:	ec41 0b18 	vmov	d8, r0, r1
 800a3be:	e7ac      	b.n	800a31a <__ieee754_sqrt+0xf6>
 800a3c0:	f10c 0c01 	add.w	ip, ip, #1
 800a3c4:	e799      	b.n	800a2fa <__ieee754_sqrt+0xd6>
 800a3c6:	2420      	movs	r4, #32
 800a3c8:	2501      	movs	r5, #1
 800a3ca:	2300      	movs	r3, #0
 800a3cc:	e7d9      	b.n	800a382 <__ieee754_sqrt+0x15e>
 800a3ce:	ec51 0b10 	vmov	r0, r1, d0
 800a3d2:	460b      	mov	r3, r1
 800a3d4:	f7ff f91e 	bl	8009614 <__aeabi_dsub>
 800a3d8:	4602      	mov	r2, r0
 800a3da:	460b      	mov	r3, r1
 800a3dc:	f7ff fbf8 	bl	8009bd0 <__aeabi_ddiv>
 800a3e0:	ec41 0b18 	vmov	d8, r0, r1
 800a3e4:	e799      	b.n	800a31a <__ieee754_sqrt+0xf6>
 800a3e6:	bf00      	nop

0800a3e8 <__ieee754_sqrtf>:
 800a3e8:	ee10 3a10 	vmov	r3, s0
 800a3ec:	f023 4200 	bic.w	r2, r3, #2147483648	; 0x80000000
 800a3f0:	f1b2 4fff 	cmp.w	r2, #2139095040	; 0x7f800000
 800a3f4:	b470      	push	{r4, r5, r6}
 800a3f6:	d22f      	bcs.n	800a458 <__ieee754_sqrtf+0x70>
 800a3f8:	b362      	cbz	r2, 800a454 <__ieee754_sqrtf+0x6c>
 800a3fa:	2b00      	cmp	r3, #0
 800a3fc:	db3a      	blt.n	800a474 <__ieee754_sqrtf+0x8c>
 800a3fe:	15d9      	asrs	r1, r3, #23
 800a400:	f5b2 0f00 	cmp.w	r2, #8388608	; 0x800000
 800a404:	d32b      	bcc.n	800a45e <__ieee754_sqrtf+0x76>
 800a406:	f023 437f 	bic.w	r3, r3, #4278190080	; 0xff000000
 800a40a:	f1a1 027f 	sub.w	r2, r1, #127	; 0x7f
 800a40e:	f423 0300 	bic.w	r3, r3, #8388608	; 0x800000
 800a412:	07d1      	lsls	r1, r2, #31
 800a414:	f443 0300 	orr.w	r3, r3, #8388608	; 0x800000
 800a418:	bf48      	it	mi
 800a41a:	005b      	lslmi	r3, r3, #1
 800a41c:	2500      	movs	r5, #0
 800a41e:	1056      	asrs	r6, r2, #1
 800a420:	005b      	lsls	r3, r3, #1
 800a422:	2119      	movs	r1, #25
 800a424:	462c      	mov	r4, r5
 800a426:	f04f 7280 	mov.w	r2, #16777216	; 0x1000000
 800a42a:	18a0      	adds	r0, r4, r2
 800a42c:	4298      	cmp	r0, r3
 800a42e:	dc02      	bgt.n	800a436 <__ieee754_sqrtf+0x4e>
 800a430:	1884      	adds	r4, r0, r2
 800a432:	1a1b      	subs	r3, r3, r0
 800a434:	18ad      	adds	r5, r5, r2
 800a436:	005b      	lsls	r3, r3, #1
 800a438:	0852      	lsrs	r2, r2, #1
 800a43a:	3901      	subs	r1, #1
 800a43c:	d1f5      	bne.n	800a42a <__ieee754_sqrtf+0x42>
 800a43e:	b113      	cbz	r3, 800a446 <__ieee754_sqrtf+0x5e>
 800a440:	f005 0301 	and.w	r3, r5, #1
 800a444:	195d      	adds	r5, r3, r5
 800a446:	106d      	asrs	r5, r5, #1
 800a448:	f105 557c 	add.w	r5, r5, #1056964608	; 0x3f000000
 800a44c:	eb05 55c6 	add.w	r5, r5, r6, lsl #23
 800a450:	ee00 5a10 	vmov	s0, r5
 800a454:	bc70      	pop	{r4, r5, r6}
 800a456:	4770      	bx	lr
 800a458:	ee00 0a00 	vmla.f32	s0, s0, s0
 800a45c:	e7fa      	b.n	800a454 <__ieee754_sqrtf+0x6c>
 800a45e:	f413 0200 	ands.w	r2, r3, #8388608	; 0x800000
 800a462:	d10c      	bne.n	800a47e <__ieee754_sqrtf+0x96>
 800a464:	005b      	lsls	r3, r3, #1
 800a466:	3201      	adds	r2, #1
 800a468:	0218      	lsls	r0, r3, #8
 800a46a:	d5fb      	bpl.n	800a464 <__ieee754_sqrtf+0x7c>
 800a46c:	f1c2 0201 	rsb	r2, r2, #1
 800a470:	1889      	adds	r1, r1, r2
 800a472:	e7c8      	b.n	800a406 <__ieee754_sqrtf+0x1e>
 800a474:	ee30 0a40 	vsub.f32	s0, s0, s0
 800a478:	ee80 0a00 	vdiv.f32	s0, s0, s0
 800a47c:	e7ea      	b.n	800a454 <__ieee754_sqrtf+0x6c>
 800a47e:	2201      	movs	r2, #1
 800a480:	1889      	adds	r1, r1, r2
 800a482:	e7c0      	b.n	800a406 <__ieee754_sqrtf+0x1e>

0800a484 <__fpclassifyd>:
 800a484:	ec53 2b10 	vmov	r2, r3, d0
 800a488:	4610      	mov	r0, r2
 800a48a:	461a      	mov	r2, r3
 800a48c:	b163      	cbz	r3, 800a4a8 <__fpclassifyd+0x24>
 800a48e:	f1b3 4f00 	cmp.w	r3, #2147483648	; 0x80000000
 800a492:	d009      	beq.n	800a4a8 <__fpclassifyd+0x24>
 800a494:	f64f 73ff 	movw	r3, #65535	; 0xffff
 800a498:	f5a2 1180 	sub.w	r1, r2, #1048576	; 0x100000
 800a49c:	f6c7 73df 	movt	r3, #32735	; 0x7fdf
 800a4a0:	4299      	cmp	r1, r3
 800a4a2:	d805      	bhi.n	800a4b0 <__fpclassifyd+0x2c>
 800a4a4:	2004      	movs	r0, #4
 800a4a6:	4770      	bx	lr
 800a4a8:	2800      	cmp	r0, #0
 800a4aa:	d1f3      	bne.n	800a494 <__fpclassifyd+0x10>
 800a4ac:	2002      	movs	r0, #2
 800a4ae:	4770      	bx	lr
 800a4b0:	f102 41fe 	add.w	r1, r2, #2130706432	; 0x7f000000
 800a4b4:	f501 0170 	add.w	r1, r1, #15728640	; 0xf00000
 800a4b8:	4299      	cmp	r1, r3
 800a4ba:	d9f3      	bls.n	800a4a4 <__fpclassifyd+0x20>
 800a4bc:	f64f 73ff 	movw	r3, #65535	; 0xffff
 800a4c0:	f2c0 030f 	movt	r3, #15
 800a4c4:	429a      	cmp	r2, r3
 800a4c6:	d801      	bhi.n	800a4cc <__fpclassifyd+0x48>
 800a4c8:	2003      	movs	r0, #3
 800a4ca:	4770      	bx	lr
 800a4cc:	f102 4100 	add.w	r1, r2, #2147483648	; 0x80000000
 800a4d0:	4299      	cmp	r1, r3
 800a4d2:	d9f9      	bls.n	800a4c8 <__fpclassifyd+0x44>
 800a4d4:	2300      	movs	r3, #0
 800a4d6:	f6c7 73f0 	movt	r3, #32752	; 0x7ff0
 800a4da:	429a      	cmp	r2, r3
 800a4dc:	d004      	beq.n	800a4e8 <__fpclassifyd+0x64>
 800a4de:	f512 1f80 	cmn.w	r2, #1048576	; 0x100000
 800a4e2:	d001      	beq.n	800a4e8 <__fpclassifyd+0x64>
 800a4e4:	2000      	movs	r0, #0
 800a4e6:	4770      	bx	lr
 800a4e8:	f1d0 0001 	rsbs	r0, r0, #1
 800a4ec:	bf38      	it	cc
 800a4ee:	2000      	movcc	r0, #0
 800a4f0:	4770      	bx	lr
 800a4f2:	bf00      	nop

0800a4f4 <matherr>:
 800a4f4:	2000      	movs	r0, #0
 800a4f6:	4770      	bx	lr

0800a4f8 <__fpclassifyf>:
 800a4f8:	ee10 3a10 	vmov	r3, s0
 800a4fc:	b90b      	cbnz	r3, 800a502 <__fpclassifyf+0xa>
 800a4fe:	2002      	movs	r0, #2
 800a500:	4770      	bx	lr
 800a502:	f1b3 4f00 	cmp.w	r3, #2147483648	; 0x80000000
 800a506:	d0fa      	beq.n	800a4fe <__fpclassifyf+0x6>
 800a508:	f5a3 0100 	sub.w	r1, r3, #8388608	; 0x800000
 800a50c:	f06f 4201 	mvn.w	r2, #2164260864	; 0x81000000
 800a510:	4291      	cmp	r1, r2
 800a512:	d801      	bhi.n	800a518 <__fpclassifyf+0x20>
 800a514:	2004      	movs	r0, #4
 800a516:	4770      	bx	lr
 800a518:	f103 41ff 	add.w	r1, r3, #2139095040	; 0x7f800000
 800a51c:	4291      	cmp	r1, r2
 800a51e:	d9f9      	bls.n	800a514 <__fpclassifyf+0x1c>
 800a520:	f64f 72fe 	movw	r2, #65534	; 0xfffe
 800a524:	1e59      	subs	r1, r3, #1
 800a526:	f2c0 027f 	movt	r2, #127	; 0x7f
 800a52a:	4291      	cmp	r1, r2
 800a52c:	d801      	bhi.n	800a532 <__fpclassifyf+0x3a>
 800a52e:	2003      	movs	r0, #3
 800a530:	4770      	bx	lr
 800a532:	f103 4100 	add.w	r1, r3, #2147483648	; 0x80000000
 800a536:	3901      	subs	r1, #1
 800a538:	4291      	cmp	r1, r2
 800a53a:	d9f8      	bls.n	800a52e <__fpclassifyf+0x36>
 800a53c:	f1b3 4fff 	cmp.w	r3, #2139095040	; 0x7f800000
 800a540:	d005      	beq.n	800a54e <__fpclassifyf+0x56>
 800a542:	f513 0f00 	cmn.w	r3, #8388608	; 0x800000
 800a546:	bf14      	ite	ne
 800a548:	2000      	movne	r0, #0
 800a54a:	2001      	moveq	r0, #1
 800a54c:	4770      	bx	lr
 800a54e:	2001      	movs	r0, #1
 800a550:	4770      	bx	lr
 800a552:	bf00      	nop

0800a554 <atexit>:
 800a554:	4601      	mov	r1, r0
 800a556:	2000      	movs	r0, #0
 800a558:	4602      	mov	r2, r0
 800a55a:	4603      	mov	r3, r0
 800a55c:	f000 b90e 	b.w	800a77c <__register_exitproc>

0800a560 <__errno>:
 800a560:	f240 5388 	movw	r3, #1416	; 0x588
 800a564:	f2c2 0300 	movt	r3, #8192	; 0x2000
 800a568:	6818      	ldr	r0, [r3, #0]
 800a56a:	4770      	bx	lr

0800a56c <exit>:
 800a56c:	b508      	push	{r3, lr}
 800a56e:	2100      	movs	r1, #0
 800a570:	4604      	mov	r4, r0
 800a572:	f000 f963 	bl	800a83c <__call_exitprocs>
 800a576:	4b04      	ldr	r3, [pc, #16]	; (800a588 <exit+0x1c>)
 800a578:	6818      	ldr	r0, [r3, #0]
 800a57a:	6bc3      	ldr	r3, [r0, #60]	; 0x3c
 800a57c:	b103      	cbz	r3, 800a580 <exit+0x14>
 800a57e:	4798      	blx	r3
 800a580:	4620      	mov	r0, r4
 800a582:	f7f8 ffbb 	bl	80034fc <_exit>
 800a586:	bf00      	nop
 800a588:	0800ad74 	stmdaeq	r0, {r2, r4, r5, r6, r8, sl, fp, sp, pc}

0800a58c <__libc_fini_array>:
 800a58c:	b538      	push	{r3, r4, r5, lr}
 800a58e:	4d08      	ldr	r5, [pc, #32]	; (800a5b0 <__libc_fini_array+0x24>)
 800a590:	4c08      	ldr	r4, [pc, #32]	; (800a5b4 <__libc_fini_array+0x28>)
 800a592:	1b64      	subs	r4, r4, r5
 800a594:	10a4      	asrs	r4, r4, #2
 800a596:	d006      	beq.n	800a5a6 <__libc_fini_array+0x1a>
 800a598:	eb05 0584 	add.w	r5, r5, r4, lsl #2
 800a59c:	f855 3d04 	ldr.w	r3, [r5, #-4]!
 800a5a0:	4798      	blx	r3
 800a5a2:	3c01      	subs	r4, #1
 800a5a4:	d1fa      	bne.n	800a59c <__libc_fini_array+0x10>
 800a5a6:	e8bd 4038 	ldmia.w	sp!, {r3, r4, r5, lr}
 800a5aa:	f000 bbed 	b.w	800ad88 <_fini>
 800a5ae:	bf00      	nop
 800a5b0:	0800ada4 	stmdaeq	r0, {r2, r5, r7, r8, sl, fp, sp, pc}
 800a5b4:	0800ada8 	stmdaeq	r0, {r3, r5, r7, r8, sl, fp, sp, pc}

0800a5b8 <__libc_init_array>:
 800a5b8:	b570      	push	{r4, r5, r6, lr}
 800a5ba:	4d0d      	ldr	r5, [pc, #52]	; (800a5f0 <__libc_init_array+0x38>)
 800a5bc:	4e0d      	ldr	r6, [pc, #52]	; (800a5f4 <__libc_init_array+0x3c>)
 800a5be:	1b76      	subs	r6, r6, r5
 800a5c0:	10b6      	asrs	r6, r6, #2
 800a5c2:	d006      	beq.n	800a5d2 <__libc_init_array+0x1a>
 800a5c4:	2400      	movs	r4, #0
 800a5c6:	f855 3b04 	ldr.w	r3, [r5], #4
 800a5ca:	3401      	adds	r4, #1
 800a5cc:	4798      	blx	r3
 800a5ce:	42a6      	cmp	r6, r4
 800a5d0:	d1f9      	bne.n	800a5c6 <__libc_init_array+0xe>
 800a5d2:	4d09      	ldr	r5, [pc, #36]	; (800a5f8 <__libc_init_array+0x40>)
 800a5d4:	4e09      	ldr	r6, [pc, #36]	; (800a5fc <__libc_init_array+0x44>)
 800a5d6:	1b76      	subs	r6, r6, r5
 800a5d8:	f000 fbd0 	bl	800ad7c <_init>
 800a5dc:	10b6      	asrs	r6, r6, #2
 800a5de:	d006      	beq.n	800a5ee <__libc_init_array+0x36>
 800a5e0:	2400      	movs	r4, #0
 800a5e2:	f855 3b04 	ldr.w	r3, [r5], #4
 800a5e6:	3401      	adds	r4, #1
 800a5e8:	4798      	blx	r3
 800a5ea:	42a6      	cmp	r6, r4
 800a5ec:	d1f9      	bne.n	800a5e2 <__libc_init_array+0x2a>
 800a5ee:	bd70      	pop	{r4, r5, r6, pc}
 800a5f0:	0800ad9c 	stmdaeq	r0, {r2, r3, r4, r7, r8, sl, fp, sp, pc}
 800a5f4:	0800ad9c 	stmdaeq	r0, {r2, r3, r4, r7, r8, sl, fp, sp, pc}
 800a5f8:	0800ad9c 	stmdaeq	r0, {r2, r3, r4, r7, r8, sl, fp, sp, pc}
 800a5fc:	0800ada4 	stmdaeq	r0, {r2, r5, r7, r8, sl, fp, sp, pc}

0800a600 <memcpy>:
 800a600:	2a0f      	cmp	r2, #15
 800a602:	b4f0      	push	{r4, r5, r6, r7}
 800a604:	d93a      	bls.n	800a67c <memcpy+0x7c>
 800a606:	ea41 0300 	orr.w	r3, r1, r0
 800a60a:	079b      	lsls	r3, r3, #30
 800a60c:	d138      	bne.n	800a680 <memcpy+0x80>
 800a60e:	460c      	mov	r4, r1
 800a610:	4603      	mov	r3, r0
 800a612:	4615      	mov	r5, r2
 800a614:	6826      	ldr	r6, [r4, #0]
 800a616:	601e      	str	r6, [r3, #0]
 800a618:	6866      	ldr	r6, [r4, #4]
 800a61a:	605e      	str	r6, [r3, #4]
 800a61c:	68a6      	ldr	r6, [r4, #8]
 800a61e:	609e      	str	r6, [r3, #8]
 800a620:	68e6      	ldr	r6, [r4, #12]
 800a622:	3d10      	subs	r5, #16
 800a624:	60de      	str	r6, [r3, #12]
 800a626:	3410      	adds	r4, #16
 800a628:	3310      	adds	r3, #16
 800a62a:	2d0f      	cmp	r5, #15
 800a62c:	d8f2      	bhi.n	800a614 <memcpy+0x14>
 800a62e:	f1a2 0410 	sub.w	r4, r2, #16
 800a632:	f024 040f 	bic.w	r4, r4, #15
 800a636:	f002 020f 	and.w	r2, r2, #15
 800a63a:	3410      	adds	r4, #16
 800a63c:	2a03      	cmp	r2, #3
 800a63e:	eb00 0304 	add.w	r3, r0, r4
 800a642:	4421      	add	r1, r4
 800a644:	d911      	bls.n	800a66a <memcpy+0x6a>
 800a646:	460e      	mov	r6, r1
 800a648:	461d      	mov	r5, r3
 800a64a:	4614      	mov	r4, r2
 800a64c:	f856 7b04 	ldr.w	r7, [r6], #4
 800a650:	3c04      	subs	r4, #4
 800a652:	2c03      	cmp	r4, #3
 800a654:	f845 7b04 	str.w	r7, [r5], #4
 800a658:	d8f8      	bhi.n	800a64c <memcpy+0x4c>
 800a65a:	1f14      	subs	r4, r2, #4
 800a65c:	f024 0403 	bic.w	r4, r4, #3
 800a660:	3404      	adds	r4, #4
 800a662:	f002 0203 	and.w	r2, r2, #3
 800a666:	1909      	adds	r1, r1, r4
 800a668:	191b      	adds	r3, r3, r4
 800a66a:	b12a      	cbz	r2, 800a678 <memcpy+0x78>
 800a66c:	f811 4b01 	ldrb.w	r4, [r1], #1
 800a670:	3a01      	subs	r2, #1
 800a672:	f803 4b01 	strb.w	r4, [r3], #1
 800a676:	d1f9      	bne.n	800a66c <memcpy+0x6c>
 800a678:	bcf0      	pop	{r4, r5, r6, r7}
 800a67a:	4770      	bx	lr
 800a67c:	4603      	mov	r3, r0
 800a67e:	e7f4      	b.n	800a66a <memcpy+0x6a>
 800a680:	4603      	mov	r3, r0
 800a682:	e7f3      	b.n	800a66c <memcpy+0x6c>

0800a684 <memset>:
 800a684:	f010 0f03 	tst.w	r0, #3
 800a688:	b470      	push	{r4, r5, r6}
 800a68a:	4603      	mov	r3, r0
 800a68c:	d03f      	beq.n	800a70e <memset+0x8a>
 800a68e:	2a00      	cmp	r2, #0
 800a690:	d03b      	beq.n	800a70a <memset+0x86>
 800a692:	b2cd      	uxtb	r5, r1
 800a694:	e001      	b.n	800a69a <memset+0x16>
 800a696:	2a00      	cmp	r2, #0
 800a698:	d037      	beq.n	800a70a <memset+0x86>
 800a69a:	f803 5b01 	strb.w	r5, [r3], #1
 800a69e:	3a01      	subs	r2, #1
 800a6a0:	f013 0f03 	tst.w	r3, #3
 800a6a4:	461c      	mov	r4, r3
 800a6a6:	d1f6      	bne.n	800a696 <memset+0x12>
 800a6a8:	2a03      	cmp	r2, #3
 800a6aa:	d928      	bls.n	800a6fe <memset+0x7a>
 800a6ac:	b2cd      	uxtb	r5, r1
 800a6ae:	ea45 2505 	orr.w	r5, r5, r5, lsl #8
 800a6b2:	2a0f      	cmp	r2, #15
 800a6b4:	ea45 4505 	orr.w	r5, r5, r5, lsl #16
 800a6b8:	d913      	bls.n	800a6e2 <memset+0x5e>
 800a6ba:	4623      	mov	r3, r4
 800a6bc:	4616      	mov	r6, r2
 800a6be:	3e10      	subs	r6, #16
 800a6c0:	601d      	str	r5, [r3, #0]
 800a6c2:	605d      	str	r5, [r3, #4]
 800a6c4:	609d      	str	r5, [r3, #8]
 800a6c6:	60dd      	str	r5, [r3, #12]
 800a6c8:	3310      	adds	r3, #16
 800a6ca:	2e0f      	cmp	r6, #15
 800a6cc:	d8f7      	bhi.n	800a6be <memset+0x3a>
 800a6ce:	f1a2 0310 	sub.w	r3, r2, #16
 800a6d2:	f023 030f 	bic.w	r3, r3, #15
 800a6d6:	f002 020f 	and.w	r2, r2, #15
 800a6da:	3310      	adds	r3, #16
 800a6dc:	2a03      	cmp	r2, #3
 800a6de:	441c      	add	r4, r3
 800a6e0:	d90d      	bls.n	800a6fe <memset+0x7a>
 800a6e2:	4626      	mov	r6, r4
 800a6e4:	4613      	mov	r3, r2
 800a6e6:	3b04      	subs	r3, #4
 800a6e8:	2b03      	cmp	r3, #3
 800a6ea:	f846 5b04 	str.w	r5, [r6], #4
 800a6ee:	d8fa      	bhi.n	800a6e6 <memset+0x62>
 800a6f0:	1f13      	subs	r3, r2, #4
 800a6f2:	f023 0303 	bic.w	r3, r3, #3
 800a6f6:	3304      	adds	r3, #4
 800a6f8:	f002 0203 	and.w	r2, r2, #3
 800a6fc:	18e4      	adds	r4, r4, r3
 800a6fe:	b122      	cbz	r2, 800a70a <memset+0x86>
 800a700:	b2c9      	uxtb	r1, r1
 800a702:	3a01      	subs	r2, #1
 800a704:	f804 1b01 	strb.w	r1, [r4], #1
 800a708:	d1fb      	bne.n	800a702 <memset+0x7e>
 800a70a:	bc70      	pop	{r4, r5, r6}
 800a70c:	4770      	bx	lr
 800a70e:	4604      	mov	r4, r0
 800a710:	e7ca      	b.n	800a6a8 <memset+0x24>
 800a712:	bf00      	nop

0800a714 <strncpy>:
 800a714:	ea41 0300 	orr.w	r3, r1, r0
 800a718:	079b      	lsls	r3, r3, #30
 800a71a:	b470      	push	{r4, r5, r6}
 800a71c:	460d      	mov	r5, r1
 800a71e:	4604      	mov	r4, r0
 800a720:	d12a      	bne.n	800a778 <strncpy+0x64>
 800a722:	2a03      	cmp	r2, #3
 800a724:	d817      	bhi.n	800a756 <strncpy+0x42>
 800a726:	b1a2      	cbz	r2, 800a752 <strncpy+0x3e>
 800a728:	780e      	ldrb	r6, [r1, #0]
 800a72a:	1e53      	subs	r3, r2, #1
 800a72c:	f804 6b01 	strb.w	r6, [r4], #1
 800a730:	b14e      	cbz	r6, 800a746 <strncpy+0x32>
 800a732:	4622      	mov	r2, r4
 800a734:	b16b      	cbz	r3, 800a752 <strncpy+0x3e>
 800a736:	f811 5f01 	ldrb.w	r5, [r1, #1]!
 800a73a:	f802 5b01 	strb.w	r5, [r2], #1
 800a73e:	3b01      	subs	r3, #1
 800a740:	4614      	mov	r4, r2
 800a742:	2d00      	cmp	r5, #0
 800a744:	d1f6      	bne.n	800a734 <strncpy+0x20>
 800a746:	b123      	cbz	r3, 800a752 <strncpy+0x3e>
 800a748:	2200      	movs	r2, #0
 800a74a:	3b01      	subs	r3, #1
 800a74c:	f804 2b01 	strb.w	r2, [r4], #1
 800a750:	d1fb      	bne.n	800a74a <strncpy+0x36>
 800a752:	bc70      	pop	{r4, r5, r6}
 800a754:	4770      	bx	lr
 800a756:	4629      	mov	r1, r5
 800a758:	f855 3b04 	ldr.w	r3, [r5], #4
 800a75c:	f1a3 3601 	sub.w	r6, r3, #16843009	; 0x1010101
 800a760:	ea26 0603 	bic.w	r6, r6, r3
 800a764:	f016 3f80 	tst.w	r6, #2155905152	; 0x80808080
 800a768:	d1dd      	bne.n	800a726 <strncpy+0x12>
 800a76a:	3a04      	subs	r2, #4
 800a76c:	2a03      	cmp	r2, #3
 800a76e:	f844 3b04 	str.w	r3, [r4], #4
 800a772:	d8f0      	bhi.n	800a756 <strncpy+0x42>
 800a774:	4629      	mov	r1, r5
 800a776:	e7d6      	b.n	800a726 <strncpy+0x12>
 800a778:	4604      	mov	r4, r0
 800a77a:	e7d4      	b.n	800a726 <strncpy+0x12>

0800a77c <__register_exitproc>:
 800a77c:	e92d 41f0 	stmdb	sp!, {r4, r5, r6, r7, r8, lr}
 800a780:	4c27      	ldr	r4, [pc, #156]	; (800a820 <__register_exitproc+0xa4>)
 800a782:	6825      	ldr	r5, [r4, #0]
 800a784:	f8d5 4148 	ldr.w	r4, [r5, #328]	; 0x148
 800a788:	b084      	sub	sp, #16
 800a78a:	4606      	mov	r6, r0
 800a78c:	2c00      	cmp	r4, #0
 800a78e:	d042      	beq.n	800a816 <__register_exitproc+0x9a>
 800a790:	6860      	ldr	r0, [r4, #4]
 800a792:	281f      	cmp	r0, #31
 800a794:	dd1d      	ble.n	800a7d2 <__register_exitproc+0x56>
 800a796:	4823      	ldr	r0, [pc, #140]	; (800a824 <__register_exitproc+0xa8>)
 800a798:	b910      	cbnz	r0, 800a7a0 <__register_exitproc+0x24>
 800a79a:	f04f 30ff 	mov.w	r0, #4294967295
 800a79e:	e01f      	b.n	800a7e0 <__register_exitproc+0x64>
 800a7a0:	f44f 70c8 	mov.w	r0, #400	; 0x190
 800a7a4:	9103      	str	r1, [sp, #12]
 800a7a6:	9202      	str	r2, [sp, #8]
 800a7a8:	9301      	str	r3, [sp, #4]
 800a7aa:	f3af 8000 	nop.w
 800a7ae:	9903      	ldr	r1, [sp, #12]
 800a7b0:	9a02      	ldr	r2, [sp, #8]
 800a7b2:	9b01      	ldr	r3, [sp, #4]
 800a7b4:	4604      	mov	r4, r0
 800a7b6:	2800      	cmp	r0, #0
 800a7b8:	d0ef      	beq.n	800a79a <__register_exitproc+0x1e>
 800a7ba:	f8d5 0148 	ldr.w	r0, [r5, #328]	; 0x148
 800a7be:	2700      	movs	r7, #0
 800a7c0:	e884 0081 	stmia.w	r4, {r0, r7}
 800a7c4:	f8c5 4148 	str.w	r4, [r5, #328]	; 0x148
 800a7c8:	4638      	mov	r0, r7
 800a7ca:	f8c4 7188 	str.w	r7, [r4, #392]	; 0x188
 800a7ce:	f8c4 718c 	str.w	r7, [r4, #396]	; 0x18c
 800a7d2:	b946      	cbnz	r6, 800a7e6 <__register_exitproc+0x6a>
 800a7d4:	1c83      	adds	r3, r0, #2
 800a7d6:	3001      	adds	r0, #1
 800a7d8:	f844 1023 	str.w	r1, [r4, r3, lsl #2]
 800a7dc:	6060      	str	r0, [r4, #4]
 800a7de:	2000      	movs	r0, #0
 800a7e0:	b004      	add	sp, #16
 800a7e2:	e8bd 81f0 	ldmia.w	sp!, {r4, r5, r6, r7, r8, pc}
 800a7e6:	f8d4 c188 	ldr.w	ip, [r4, #392]	; 0x188
 800a7ea:	2501      	movs	r5, #1
 800a7ec:	eb04 0880 	add.w	r8, r4, r0, lsl #2
 800a7f0:	fa05 f500 	lsl.w	r5, r5, r0
 800a7f4:	ea4c 0c05 	orr.w	ip, ip, r5
 800a7f8:	2e02      	cmp	r6, #2
 800a7fa:	4647      	mov	r7, r8
 800a7fc:	f8c8 2088 	str.w	r2, [r8, #136]	; 0x88
 800a800:	f8c4 c188 	str.w	ip, [r4, #392]	; 0x188
 800a804:	f8c8 3108 	str.w	r3, [r8, #264]	; 0x108
 800a808:	d1e4      	bne.n	800a7d4 <__register_exitproc+0x58>
 800a80a:	f8d4 318c 	ldr.w	r3, [r4, #396]	; 0x18c
 800a80e:	431d      	orrs	r5, r3
 800a810:	f8c4 518c 	str.w	r5, [r4, #396]	; 0x18c
 800a814:	e7de      	b.n	800a7d4 <__register_exitproc+0x58>
 800a816:	f505 74a6 	add.w	r4, r5, #332	; 0x14c
 800a81a:	f8c5 4148 	str.w	r4, [r5, #328]	; 0x148
 800a81e:	e7b7      	b.n	800a790 <__register_exitproc+0x14>
 800a820:	0800ad74 	stmdaeq	r0, {r2, r4, r5, r6, r8, sl, fp, sp, pc}
 800a824:	00000000 	andeq	r0, r0, r0

0800a828 <register_fini>:
 800a828:	4b02      	ldr	r3, [pc, #8]	; (800a834 <register_fini+0xc>)
 800a82a:	b113      	cbz	r3, 800a832 <register_fini+0xa>
 800a82c:	4802      	ldr	r0, [pc, #8]	; (800a838 <register_fini+0x10>)
 800a82e:	f7ff be91 	b.w	800a554 <atexit>
 800a832:	4770      	bx	lr
 800a834:	00000000 	andeq	r0, r0, r0
 800a838:	0800a58d 	stmdaeq	r0, {r0, r2, r3, r7, r8, sl, sp, pc}

0800a83c <__call_exitprocs>:
 800a83c:	e92d 4ff0 	stmdb	sp!, {r4, r5, r6, r7, r8, r9, sl, fp, lr}
 800a840:	4b33      	ldr	r3, [pc, #204]	; (800a910 <__call_exitprocs+0xd4>)
 800a842:	b083      	sub	sp, #12
 800a844:	681b      	ldr	r3, [r3, #0]
 800a846:	9001      	str	r0, [sp, #4]
 800a848:	9300      	str	r3, [sp, #0]
 800a84a:	460e      	mov	r6, r1
 800a84c:	f04f 0b01 	mov.w	fp, #1
 800a850:	9b00      	ldr	r3, [sp, #0]
 800a852:	f8d3 7148 	ldr.w	r7, [r3, #328]	; 0x148
 800a856:	b1bf      	cbz	r7, 800a888 <__call_exitprocs+0x4c>
 800a858:	f503 79a4 	add.w	r9, r3, #328	; 0x148
 800a85c:	687d      	ldr	r5, [r7, #4]
 800a85e:	1e6c      	subs	r4, r5, #1
 800a860:	d40c      	bmi.n	800a87c <__call_exitprocs+0x40>
 800a862:	f107 0a88 	add.w	sl, r7, #136	; 0x88
 800a866:	351f      	adds	r5, #31
 800a868:	eb0a 0585 	add.w	r5, sl, r5, lsl #2
 800a86c:	b17e      	cbz	r6, 800a88e <__call_exitprocs+0x52>
 800a86e:	682b      	ldr	r3, [r5, #0]
 800a870:	42b3      	cmp	r3, r6
 800a872:	d00c      	beq.n	800a88e <__call_exitprocs+0x52>
 800a874:	3c01      	subs	r4, #1
 800a876:	3d04      	subs	r5, #4
 800a878:	1c63      	adds	r3, r4, #1
 800a87a:	d1f7      	bne.n	800a86c <__call_exitprocs+0x30>
 800a87c:	f240 0300 	movw	r3, #0
 800a880:	f2c0 0300 	movt	r3, #0
 800a884:	2b00      	cmp	r3, #0
 800a886:	d130      	bne.n	800a8ea <__call_exitprocs+0xae>
 800a888:	b003      	add	sp, #12
 800a88a:	e8bd 8ff0 	ldmia.w	sp!, {r4, r5, r6, r7, r8, r9, sl, fp, pc}
 800a88e:	6879      	ldr	r1, [r7, #4]
 800a890:	ebca 0205 	rsb	r2, sl, r5
 800a894:	18ba      	adds	r2, r7, r2
 800a896:	3901      	subs	r1, #1
 800a898:	42a1      	cmp	r1, r4
 800a89a:	f852 3c78 	ldr.w	r3, [r2, #-120]
 800a89e:	d01e      	beq.n	800a8de <__call_exitprocs+0xa2>
 800a8a0:	2100      	movs	r1, #0
 800a8a2:	f842 1c78 	str.w	r1, [r2, #-120]
 800a8a6:	2b00      	cmp	r3, #0
 800a8a8:	d0e4      	beq.n	800a874 <__call_exitprocs+0x38>
 800a8aa:	f8d7 1188 	ldr.w	r1, [r7, #392]	; 0x188
 800a8ae:	f8d7 8004 	ldr.w	r8, [r7, #4]
 800a8b2:	fa0b f204 	lsl.w	r2, fp, r4
 800a8b6:	420a      	tst	r2, r1
 800a8b8:	d00f      	beq.n	800a8da <__call_exitprocs+0x9e>
 800a8ba:	f8d7 118c 	ldr.w	r1, [r7, #396]	; 0x18c
 800a8be:	420a      	tst	r2, r1
 800a8c0:	d10f      	bne.n	800a8e2 <__call_exitprocs+0xa6>
 800a8c2:	f855 1c80 	ldr.w	r1, [r5, #-128]
 800a8c6:	9801      	ldr	r0, [sp, #4]
 800a8c8:	4798      	blx	r3
 800a8ca:	687b      	ldr	r3, [r7, #4]
 800a8cc:	4543      	cmp	r3, r8
 800a8ce:	d1bf      	bne.n	800a850 <__call_exitprocs+0x14>
 800a8d0:	f8d9 3000 	ldr.w	r3, [r9]
 800a8d4:	42bb      	cmp	r3, r7
 800a8d6:	d0cd      	beq.n	800a874 <__call_exitprocs+0x38>
 800a8d8:	e7ba      	b.n	800a850 <__call_exitprocs+0x14>
 800a8da:	4798      	blx	r3
 800a8dc:	e7f5      	b.n	800a8ca <__call_exitprocs+0x8e>
 800a8de:	607c      	str	r4, [r7, #4]
 800a8e0:	e7e1      	b.n	800a8a6 <__call_exitprocs+0x6a>
 800a8e2:	f855 0c80 	ldr.w	r0, [r5, #-128]
 800a8e6:	4798      	blx	r3
 800a8e8:	e7ef      	b.n	800a8ca <__call_exitprocs+0x8e>
 800a8ea:	687b      	ldr	r3, [r7, #4]
 800a8ec:	b95b      	cbnz	r3, 800a906 <__call_exitprocs+0xca>
 800a8ee:	683b      	ldr	r3, [r7, #0]
 800a8f0:	b153      	cbz	r3, 800a908 <__call_exitprocs+0xcc>
 800a8f2:	4638      	mov	r0, r7
 800a8f4:	f8c9 3000 	str.w	r3, [r9]
 800a8f8:	f3af 8000 	nop.w
 800a8fc:	f8d9 7000 	ldr.w	r7, [r9]
 800a900:	2f00      	cmp	r7, #0
 800a902:	d1ab      	bne.n	800a85c <__call_exitprocs+0x20>
 800a904:	e7c0      	b.n	800a888 <__call_exitprocs+0x4c>
 800a906:	683b      	ldr	r3, [r7, #0]
 800a908:	46b9      	mov	r9, r7
 800a90a:	461f      	mov	r7, r3
 800a90c:	e7f8      	b.n	800a900 <__call_exitprocs+0xc4>
 800a90e:	bf00      	nop
 800a910:	0800ad74 	stmdaeq	r0, {r2, r4, r5, r6, r8, sl, fp, sp, pc}

0800a914 <crc8_table>:
 800a914:	090e0700 	stmdbeq	lr, {r8, r9, sl}
 800a918:	15121b1c 	ldrne	r1, [r2, #-2844]	; 0xb1c
 800a91c:	31363f38 	teqcc	r6, r8, lsr pc
 800a920:	2d2a2324 	stccs	3, cr2, [sl, #-144]!	; 0xffffff70
 800a924:	797e7770 	ldmdbvc	lr!, {r4, r5, r6, r8, r9, sl, ip, sp, lr}^
 800a928:	65626b6c 	strbvs	r6, [r2, #-2924]!	; 0xb6c
 800a92c:	41464f48 	cmpmi	r6, r8, asr #30
 800a930:	5d5a5354 	ldclpl	3, cr5, [sl, #-336]	; 0xfffffeb0
 800a934:	e9eee7e0 	stmib	lr!, {r5, r6, r7, r8, r9, sl, sp, lr, pc}^
 800a938:	f5f2fbfc 			; <UNDEFINED> instruction: 0xf5f2fbfc
 800a93c:	d1d6dfd8 	ldrsble	sp, [r6, #248]	; 0xf8
 800a940:	cdcac3c4 	stclgt	3, cr12, [sl, #784]	; 0x310
 800a944:	999e9790 	ldmibls	lr, {r4, r7, r8, r9, sl, ip, pc}
 800a948:	85828b8c 	strhi	r8, [r2, #2956]	; 0xb8c
 800a94c:	a1a6afa8 			; <UNDEFINED> instruction: 0xa1a6afa8
 800a950:	bdbab3b4 	ldclt	3, cr11, [sl, #720]!	; 0x2d0
 800a954:	cec9c0c7 	cdpgt	0, 12, cr12, cr9, cr7, {6}
 800a958:	d2d5dcdb 	sbcsle	sp, r5, #56064	; 0xdb00
 800a95c:	f6f1f8ff 			; <UNDEFINED> instruction: 0xf6f1f8ff
 800a960:	eaede4e3 	b	7b83cf4 <_Min_Stack_Size+0x7b838f4>
 800a964:	beb9b0b7 	mrclt	0, 5, fp, cr9, cr7, {5}
 800a968:	a2a5acab 	adcge	sl, r5, #43776	; 0xab00
 800a96c:	8681888f 	strhi	r8, [r1], pc, lsl #17
 800a970:	9a9d9493 	bls	676fbc4 <_Min_Stack_Size+0x676f7c4>
 800a974:	2e292027 	cdpcs	0, 2, cr2, cr9, cr7, {1}
 800a978:	32353c3b 	eorscc	r3, r5, #15104	; 0x3b00
 800a97c:	1611181f 			; <UNDEFINED> instruction: 0x1611181f
 800a980:	0a0d0403 	beq	834b994 <_sidata+0x340bec>
 800a984:	5e595057 	mrcpl	0, 2, r5, cr9, cr7, {2}
 800a988:	42454c4b 	submi	r4, r5, #19200	; 0x4b00
 800a98c:	6661686f 	strbtvs	r6, [r1], -pc, ror #16
 800a990:	7a7d7473 	bvc	9f67b64 <_sidata+0x1f5cdbc>
 800a994:	80878e89 	addhi	r8, r7, r9, lsl #29
 800a998:	9c9b9295 	lfmls	f1, 1, [fp], {149}	; 0x95
 800a99c:	b8bfb6b1 	ldmlt	pc!, {r0, r4, r5, r7, r9, sl, ip, sp, pc}	; <UNPREDICTABLE>
 800a9a0:	a4a3aaad 	strtge	sl, [r3], #2733	; 0xaad
 800a9a4:	f0f7fef9 			; <UNDEFINED> instruction: 0xf0f7fef9
 800a9a8:	ecebe2e5 	sfm	f6, 3, [fp], #916	; 0x394
 800a9ac:	c8cfc6c1 	stmiagt	pc, {r0, r6, r7, r9, sl, lr, pc}^	; <UNPREDICTABLE>
 800a9b0:	d4d3dadd 	ldrble	sp, [r3], #2781	; 0xadd
 800a9b4:	60676e69 	rsbvs	r6, r7, r9, ror #28
 800a9b8:	7c7b7275 	lfmvc	f7, 2, [fp], #-468	; 0xfffffe2c
 800a9bc:	585f5651 	ldmdapl	pc, {r0, r4, r6, r9, sl, ip, lr}^	; <UNPREDICTABLE>
 800a9c0:	44434a4d 	strbmi	r4, [r3], #-2637	; 0xa4d
 800a9c4:	10171e19 	andsne	r1, r7, r9, lsl lr
 800a9c8:	0c0b0205 	sfmeq	f0, 4, [fp], {5}
 800a9cc:	282f2621 	stmdacs	pc!, {r0, r5, r9, sl, sp}	; <UNPREDICTABLE>
 800a9d0:	34333a3d 	ldrtcc	r3, [r3], #-2621	; 0xa3d
 800a9d4:	4740494e 	strbmi	r4, [r0, -lr, asr #18]
 800a9d8:	5b5c5552 	blpl	971ff28 <_sidata+0x1715180>
 800a9dc:	7f787176 	svcvc	0x00787176
 800a9e0:	63646d6a 	cmnvs	r4, #6784	; 0x1a80
 800a9e4:	3730393e 			; <UNDEFINED> instruction: 0x3730393e
 800a9e8:	2b2c2522 	blcs	8b13e78 <_sidata+0xb090d0>
 800a9ec:	0f080106 	svceq	0x00080106
 800a9f0:	13141d1a 	tstne	r4, #1664	; 0x680
 800a9f4:	a7a0a9ae 	strge	sl, [r0, lr, lsr #19]!
 800a9f8:	bbbcb5b2 	bllt	6f380c8 <_Min_Stack_Size+0x6f37cc8>
 800a9fc:	9f989196 	svcls	0x00989196
 800aa00:	83848d8a 	orrhi	r8, r4, #8832	; 0x2280
 800aa04:	d7d0d9de 			; <UNDEFINED> instruction: 0xd7d0d9de
 800aa08:	cbccc5c2 	blgt	733c118 <_Min_Stack_Size+0x733bd18>
 800aa0c:	efe8e1e6 	svc	0x00e8e1e6
 800aa10:	f3f4fdfa 			; <UNDEFINED> instruction: 0xf3f4fdfa

0800aa14 <crc16_table>:
 800aa14:	10210000 	eorne	r0, r1, r0
 800aa18:	30632042 	rsbcc	r2, r3, r2, asr #32
 800aa1c:	50a54084 	adcpl	r4, r5, r4, lsl #1
 800aa20:	70e760c6 	rscvc	r6, r7, r6, asr #1
 800aa24:	91298108 	teqls	r9, r8, lsl #2
 800aa28:	b16ba14a 	cmnlt	fp, sl, asr #2
 800aa2c:	d1adc18c 			; <UNDEFINED> instruction: 0xd1adc18c
 800aa30:	f1efe1ce 			; <UNDEFINED> instruction: 0xf1efe1ce
 800aa34:	02101231 	andseq	r1, r0, #268435459	; 0x10000003
 800aa38:	22523273 	subscs	r3, r2, #805306375	; 0x30000007
 800aa3c:	429452b5 	addsmi	r5, r4, #1342177291	; 0x5000000b
 800aa40:	62d672f7 	sbcsvs	r7, r6, #1879048207	; 0x7000000f
 800aa44:	83189339 	tsthi	r8, #-469762048	; 0xe4000000
 800aa48:	a35ab37b 	cmpge	sl, #-335544319	; 0xec000001
 800aa4c:	c39cd3bd 	orrsgt	sp, ip, #-201326590	; 0xf4000002
 800aa50:	e3def3ff 	bics	pc, lr, #-67108861	; 0xfc000003
 800aa54:	34432462 	strbcc	r2, [r3], #-1122	; 0x462
 800aa58:	14010420 	strne	r0, [r1], #-1056	; 0x420
 800aa5c:	74c764e6 	strbvc	r6, [r7], #1254	; 0x4e6
 800aa60:	548544a4 	strpl	r4, [r5], #1188	; 0x4a4
 800aa64:	b54ba56a 	strblt	sl, [fp, #-1386]	; 0x56a
 800aa68:	95098528 	strls	r8, [r9, #-1320]	; 0x528
 800aa6c:	f5cfe5ee 			; <UNDEFINED> instruction: 0xf5cfe5ee
 800aa70:	d58dc5ac 	strle	ip, [sp, #1452]	; 0x5ac
 800aa74:	26723653 			; <UNDEFINED> instruction: 0x26723653
 800aa78:	06301611 			; <UNDEFINED> instruction: 0x06301611
 800aa7c:	66f676d7 	usatvs	r7, #22, r7, asr #13
 800aa80:	46b45695 	ssatmi	r5, #21, r5, lsl #13
 800aa84:	a77ab75b 			; <UNDEFINED> instruction: 0xa77ab75b
 800aa88:	87389719 			; <UNDEFINED> instruction: 0x87389719
 800aa8c:	e7fef7df 	ubfx	pc, pc, #15, #31
 800aa90:	c7bcd79d 			; <UNDEFINED> instruction: 0xc7bcd79d
 800aa94:	58e548c4 	stmiapl	r5!, {r2, r6, r7, fp, lr}^
 800aa98:	78a76886 	stmiavc	r7!, {r1, r2, r7, fp, sp, lr}
 800aa9c:	18610840 	stmdane	r1!, {r6, fp}^
 800aaa0:	38232802 	stmdacc	r3!, {r1, fp, sp}
 800aaa4:	d9edc9cc 	stmible	sp!, {r2, r3, r6, r7, r8, fp, lr, pc}^
 800aaa8:	f9afe98e 			; <UNDEFINED> instruction: 0xf9afe98e
 800aaac:	99698948 	stmdbls	r9!, {r3, r6, r8, fp, pc}^
 800aab0:	b92ba90a 	stmdblt	fp!, {r1, r3, r8, fp, sp, pc}
 800aab4:	4ad45af5 	bmi	7521690 <_Min_Stack_Size+0x7521290>
 800aab8:	6a967ab7 	bvs	65a959c <_Min_Stack_Size+0x65a919c>
 800aabc:	0a501a71 	beq	9411488 <_sidata+0x14066e0>
 800aac0:	2a123a33 	bcs	8499394 <_sidata+0x48e5ec>
 800aac4:	cbdcdbfd 	blgt	7741ac0 <_Min_Stack_Size+0x77416c0>
 800aac8:	eb9efbbf 	bl	67c99cc <_Min_Stack_Size+0x67c95cc>
 800aacc:	8b589b79 	blhi	96318b8 <_sidata+0x1626b10>
 800aad0:	ab1abb3b 	blge	86b97c4 <_sidata+0x6aea1c>
 800aad4:	7c876ca6 	stcvc	12, cr6, [r7], {166}	; 0xa6
 800aad8:	5cc54ce4 	stclpl	12, cr4, [r5], {228}	; 0xe4
 800aadc:	3c032c22 	stccc	12, cr2, [r3], {34}	; 0x22
 800aae0:	1c410c60 	mcrrne	12, 6, r0, r1, cr0
 800aae4:	fd8fedae 	stc2	13, cr14, [pc, #696]	; 800ada4 <__init_array_end>
 800aae8:	ddcdcdec 	stclle	13, cr12, [sp, #944]	; 0x3b0
 800aaec:	bd0bad2a 	stclt	13, cr10, [fp, #-168]	; 0xffffff58
 800aaf0:	9d498d68 	stclls	13, cr8, [r9, #-416]	; 0xfffffe60
 800aaf4:	6eb67e97 	mrcvs	14, 5, r7, cr6, cr7, {4}
 800aaf8:	4ef45ed5 	mrcmi	14, 7, r5, cr4, cr5, {6}
 800aafc:	2e323e13 	mrccs	14, 1, r3, cr2, cr3, {0}
 800ab00:	0e701e51 	mrceq	14, 3, r1, cr0, cr1, {2}
 800ab04:	efbeff9f 	svc	0x00beff9f
 800ab08:	cffcdfdd 	svcgt	0x00fcdfdd
 800ab0c:	af3abf1b 	svcge	0x003abf1b
 800ab10:	8f789f59 	svchi	0x00789f59
 800ab14:	81a99188 			; <UNDEFINED> instruction: 0x81a99188
 800ab18:	a1ebb1ca 	mvnge	fp, sl, asr #3
 800ab1c:	c12dd10c 	teqgt	sp, ip, lsl #2
 800ab20:	e16ff14e 	msr	SPSR_fsxc, lr, asr #2
 800ab24:	00a11080 	adceq	r1, r1, r0, lsl #1
 800ab28:	20e330c2 	rsccs	r3, r3, r2, asr #1
 800ab2c:	40255004 	eormi	r5, r5, r4
 800ab30:	60677046 	rsbvs	r7, r7, r6, asr #32
 800ab34:	939883b9 	orrsls	r8, r8, #-469762046	; 0xe4000002
 800ab38:	b3daa3fb 	bicslt	sl, sl, #-335544317	; 0xec000003
 800ab3c:	d31cc33d 	tstle	ip, #-201326592	; 0xf4000000
 800ab40:	f35ee37f 	vcge.u16	q15, q7, <illegal reg q15.5>
 800ab44:	129002b1 	addsne	r0, r0, #268435467	; 0x1000000b
 800ab48:	32d222f3 	sbcscc	r2, r2, #805306383	; 0x3000000f
 800ab4c:	52144235 	andspl	r4, r4, #1342177283	; 0x50000003
 800ab50:	72566277 	subsvc	r6, r6, #1879048199	; 0x70000007
 800ab54:	a5cbb5ea 	strbge	fp, [fp, #1514]	; 0x5ea
 800ab58:	858995a8 	strhi	r9, [r9, #1448]	; 0x5a8
 800ab5c:	e54ff56e 	strb	pc, [pc, #-1390]	; 800a5f6 <__libc_init_array+0x3e>	; <UNPREDICTABLE>
 800ab60:	c50dd52c 	strgt	sp, [sp, #-1324]	; 0x52c
 800ab64:	24c334e2 	strbcs	r3, [r3], #1250	; 0x4e2
 800ab68:	048114a0 	streq	r1, [r1], #1184	; 0x4a0
 800ab6c:	64477466 	strbvs	r7, [r7], #-1126	; 0x466
 800ab70:	44055424 	strmi	r5, [r5], #-1060	; 0x424
 800ab74:	b7faa7db 	ubfxlt	sl, fp, #15, #27
 800ab78:	97b88799 			; <UNDEFINED> instruction: 0x97b88799
 800ab7c:	f77ee75f 			; <UNDEFINED> instruction: 0xf77ee75f
 800ab80:	d73cc71d 			; <UNDEFINED> instruction: 0xd73cc71d
 800ab84:	36f226d3 	usatcc	r2, #18, r3, asr #13
 800ab88:	16b00691 	ssatne	r0, #17, r1, lsl #13
 800ab8c:	76766657 			; <UNDEFINED> instruction: 0x76766657
 800ab90:	56344615 			; <UNDEFINED> instruction: 0x56344615
 800ab94:	c96dd94c 	stmdbgt	sp!, {r2, r3, r6, r8, fp, ip, lr, pc}^
 800ab98:	e92ff90e 	stmdb	pc!, {r1, r2, r3, r8, fp, ip, sp, lr, pc}	; <UNPREDICTABLE>
 800ab9c:	89e999c8 	stmibhi	r9!, {r3, r6, r7, r8, fp, ip, pc}^
 800aba0:	a9abb98a 	stmibge	fp!, {r1, r3, r7, r8, fp, ip, sp, pc}
 800aba4:	48655844 	stmdami	r5!, {r2, r6, fp, ip, lr}^
 800aba8:	68277806 	stmdavs	r7!, {r1, r2, fp, ip, sp, lr}
 800abac:	08e118c0 	stmiaeq	r1!, {r6, r7, fp, ip}^
 800abb0:	28a33882 	stmiacs	r3!, {r1, r7, fp, ip, sp}
 800abb4:	db5ccb7d 	blle	973d9b0 <_sidata+0x1732c08>
 800abb8:	fb1eeb3f 	blx	87c58be <_sidata+0x7bab16>
 800abbc:	9bd88bf9 	blls	762dba8 <_Min_Stack_Size+0x762d7a8>
 800abc0:	bb9aabbb 	bllt	66b5ab4 <_Min_Stack_Size+0x66b56b4>
 800abc4:	5a544a75 	bpl	951d5a0 <_sidata+0x15127f8>
 800abc8:	7a166a37 	bvc	85a54ac <_sidata+0x59a704>
 800abcc:	1ad00af1 	bne	740d798 <_Min_Stack_Size+0x740d398>
 800abd0:	3a922ab3 	bcc	64956a4 <_Min_Stack_Size+0x64952a4>
 800abd4:	ed0ffd2e 	stc	13, cr15, [pc, #-184]	; 800ab24 <crc16_table+0x110>
 800abd8:	cd4ddd6c 	stclgt	13, cr13, [sp, #-432]	; 0xfffffe50
 800abdc:	ad8bbdaa 	stcge	13, cr11, [fp, #680]	; 0x2a8
 800abe0:	8dc99de8 	stclhi	13, cr9, [r9, #928]	; 0x3a0
 800abe4:	6c077c26 	stcvs	12, cr7, [r7], {38}	; 0x26
 800abe8:	4c455c64 	mcrrmi	12, 6, r5, r5, cr4
 800abec:	2c833ca2 	stccs	12, cr3, [r3], {162}	; 0xa2
 800abf0:	0cc11ce0 	stcleq	12, cr1, [r1], {224}	; 0xe0
 800abf4:	ff3eef1f 			; <UNDEFINED> instruction: 0xff3eef1f
 800abf8:	df7ccf5d 	svcle	0x007ccf5d
 800abfc:	bfbaaf9b 	svclt	0x00baaf9b
 800ac00:	9ff88fd9 	svcls	0x00f88fd9
 800ac04:	7e366e17 	mrcvc	14, 1, r6, cr6, cr7, {0}
 800ac08:	5e744e55 	mrcpl	14, 3, r4, cr4, cr5, {2}
 800ac0c:	3eb22e93 	mrccc	14, 5, r2, cr2, cr3, {4}
 800ac10:	1ef00ed1 	mrcne	14, 7, r0, cr0, cr1, {6}

0800ac14 <GPIO_PIN>:
 800ac14:	00020001 	andeq	r0, r2, r1

0800ac18 <GPIO_CLK>:
 800ac18:	00000002 	andeq	r0, r0, r2
 800ac1c:	00000002 	andeq	r0, r0, r2

0800ac20 <PWM_CH.7203>:
 800ac20:	40000840 	andmi	r0, r0, r0, asr #16
 800ac24:	4000083c 	andmi	r0, r0, ip, lsr r8
 800ac28:	40000838 	andmi	r0, r0, r8, lsr r8
 800ac2c:	40000834 	andmi	r0, r0, r4, lsr r8
 800ac30:	40010440 	andmi	r0, r1, r0, asr #8
 800ac34:	4001043c 	andmi	r0, r1, ip, lsr r4
 800ac38:	40000438 	andmi	r0, r0, r8, lsr r4
 800ac3c:	40000434 	andmi	r0, r0, r4, lsr r4

0800ac40 <ulKernelPriority>:
 800ac40:	000000f0 	strdeq	r0, [r0], -r0	; <UNPREDICTABLE>

0800ac44 <CSWTCH.2>:
 800ac44:	00020102 	andeq	r0, r2, r2, lsl #2
 800ac48:	69747345 	ldmdbvs	r4!, {r0, r2, r6, r8, r9, ip, sp, lr}^
 800ac4c:	6974616d 	ldmdbvs	r4!, {r0, r2, r3, r5, r6, r8, sp, lr}^
 800ac50:	00006e6f 	andeq	r6, r0, pc, ror #28
 800ac54:	00535452 	subseq	r5, r3, r2, asr r4
 800ac58:	33323130 	teqcc	r2, #12
 800ac5c:	37363534 			; <UNDEFINED> instruction: 0x37363534
 800ac60:	00003938 	andeq	r3, r0, r8, lsr r9
 800ac64:	20746547 	rsbscs	r6, r4, r7, asr #10
 800ac68:	3655504d 	ldrbcc	r5, [r5], -sp, asr #32
 800ac6c:	20303530 	eorscs	r3, r0, r0, lsr r5
 800ac70:	61746144 	cmnvs	r4, r4, asr #2
 800ac74:	00000000 	andeq	r0, r0, r0
 800ac78:	20746547 	rsbscs	r6, r4, r7, asr #10
 800ac7c:	35434d48 	strbcc	r4, [r3, #-3400]	; 0xd48
 800ac80:	4c333838 	ldcmi	8, cr3, [r3], #-224	; 0xffffff20
 800ac84:	74614420 	strbtvc	r4, [r1], #-1056	; 0x420
 800ac88:	00000061 	andeq	r0, r0, r1, rrx
 800ac8c:	00000036 	andeq	r0, r0, r6, lsr r0
 800ac90:	00000033 	andeq	r0, r0, r3, lsr r0
 800ac94:	00000032 	andeq	r0, r0, r2, lsr r0
 800ac98:	00000034 	andeq	r0, r0, r4, lsr r0
 800ac9c:	00000031 	andeq	r0, r0, r1, lsr r0
 800aca0:	69726553 	ldmdbvs	r2!, {r0, r1, r4, r6, r8, sl, sp, lr}^
 800aca4:	614d6c61 	cmpvs	sp, r1, ror #24
 800aca8:	6567616e 	strbvs	r6, [r7, #-366]!	; 0x16e
 800acac:	55282072 	strpl	r2, [r8, #-114]!	; 0x72
 800acb0:	00294253 	eoreq	r4, r9, r3, asr r2
 800acb4:	00000037 	andeq	r0, r0, r7, lsr r0
 800acb8:	00004b4f 	andeq	r4, r0, pc, asr #22
 800acbc:	00000035 	andeq	r0, r0, r5, lsr r0
 800acc0:	694d5453 	stmdbvs	sp, {r0, r1, r4, r6, sl, ip, lr}^
 800acc4:	656f7263 	strbvs	r7, [pc, #-611]!	; 800aa69 <crc16_table+0x55>
 800acc8:	7463656c 	strbtvc	r6, [r3], #-1388	; 0x56c
 800accc:	696e6f72 	stmdbvs	lr!, {r1, r4, r5, r6, r8, r9, sl, fp, sp, lr}^
 800acd0:	00007363 	andeq	r7, r0, r3, ror #6
 800acd4:	20504356 	subscs	r4, r0, r6, asr r3
 800acd8:	65746e49 	ldrbvs	r6, [r4, #-3657]!	; 0xe49
 800acdc:	63616672 	cmnvs	r1, #119537664	; 0x7200000
 800ace0:	00000065 	andeq	r0, r0, r5, rrx
 800ace4:	20504356 	subscs	r4, r0, r6, asr r3
 800ace8:	666e6f43 	strbtvs	r6, [lr], -r3, asr #30
 800acec:	00006769 	andeq	r6, r0, r9, ror #14
 800acf0:	30303030 	eorscc	r3, r0, r0, lsr r0
 800acf4:	30303030 	eorscc	r3, r0, r0, lsr r0
 800acf8:	42303530 	eorsmi	r3, r0, #201326592	; 0xc000000
 800acfc:	00000000 	andeq	r0, r0, r0
 800ad00:	30303030 	eorscc	r3, r0, r0, lsr r0
 800ad04:	30303030 	eorscc	r3, r0, r0, lsr r0
 800ad08:	43303530 	teqmi	r0, #201326592	; 0xc000000
 800ad0c:	00000000 	andeq	r0, r0, r0
 800ad10:	334d5453 	movtcc	r5, #54355	; 0xd453
 800ad14:	69562032 	ldmdbvs	r6, {r1, r4, r5, sp}^
 800ad18:	61757472 	cmnvs	r5, r2, ror r4
 800ad1c:	6f43206c 	svcvs	0x0043206c
 800ad20:	726f506d 	rsbvc	r5, pc, #109	; 0x6d
 800ad24:	6e692074 	mcrvs	0, 3, r2, cr9, cr4, {3}
 800ad28:	20534820 	subscs	r4, r3, r0, lsr #16
 800ad2c:	65646f6d 	strbvs	r6, [r4, #-3949]!	; 0xf6d
 800ad30:	00000000 	andeq	r0, r0, r0
 800ad34:	334d5453 	movtcc	r5, #54355	; 0xd453
 800ad38:	69562032 	ldmdbvs	r6, {r1, r4, r5, sp}^
 800ad3c:	61757472 	cmnvs	r5, r2, ror r4
 800ad40:	6f43206c 	svcvs	0x0043206c
 800ad44:	726f506d 	rsbvc	r5, pc, #109	; 0x6d
 800ad48:	6e692074 	mcrvs	0, 3, r2, cr9, cr4, {3}
 800ad4c:	20534620 	subscs	r4, r3, r0, lsr #12
 800ad50:	65646f4d 	strbvs	r6, [r4, #-3917]!	; 0xf4d
 800ad54:	00000000 	andeq	r0, r0, r0
 800ad58:	454c4449 	strbmi	r4, [ip, #-1097]	; 0x449
 800ad5c:	00000000 	andeq	r0, r0, r0
 800ad60:	74727173 	ldrbtvc	r7, [r2], #-371	; 0x173
 800ad64:	00000000 	andeq	r0, r0, r0
 800ad68:	74727173 	ldrbtvc	r7, [r2], #-371	; 0x173
 800ad6c:	00000066 	andeq	r0, r0, r6, rrx
 800ad70:	00000043 	andeq	r0, r0, r3, asr #32

0800ad74 <_global_impure_ptr>:
 800ad74:	20000160 	andcs	r0, r0, r0, ror #2

0800ad78 <__EH_FRAME_BEGIN__>:
 800ad78:	00000000 	andeq	r0, r0, r0

0800ad7c <_init>:
 800ad7c:	b5f8      	push	{r3, r4, r5, r6, r7, lr}
 800ad7e:	bf00      	nop
 800ad80:	bcf8      	pop	{r3, r4, r5, r6, r7}
 800ad82:	bc08      	pop	{r3}
 800ad84:	469e      	mov	lr, r3
 800ad86:	4770      	bx	lr

0800ad88 <_fini>:
 800ad88:	b5f8      	push	{r3, r4, r5, r6, r7, lr}
 800ad8a:	bf00      	nop
 800ad8c:	bcf8      	pop	{r3, r4, r5, r6, r7}
 800ad8e:	bc08      	pop	{r3}
 800ad90:	469e      	mov	lr, r3
 800ad92:	4770      	bx	lr

Disassembly of section .ARM:

0800ad94 <__exidx_start>:
 800ad94:	7fff5470 	svcvc	0x00ff5470
 800ad98:	00000001 	andeq	r0, r0, r1

Disassembly of section .init_array:

0800ad9c <__init_array_start>:
 800ad9c:	0800a829 	stmdaeq	r0, {r0, r3, r5, fp, sp, pc}

0800ada0 <__frame_dummy_init_array_entry>:
 800ada0:	080001d5 	stmdaeq	r0, {r0, r2, r4, r6, r7, r8}

Disassembly of section .fini_array:

0800ada4 <__do_global_dtors_aux_fini_array_entry>:
 800ada4:	080001b1 	stmdaeq	r0, {r0, r4, r5, r7, r8}

Disassembly of section .data:

20000000 <__dso_handle>:
20000000:	00000000 	andeq	r0, r0, r0

20000004 <AHBPrescTable>:
	...
2000000c:	04030201 	streq	r0, [r3], #-513	; 0x201
20000010:	09080706 	stmdbeq	r8, {r1, r2, r8, r9, sl}

20000014 <SystemCoreClock>:
20000014:	0a037a00 	beq	200de81c <_estack+0xbe81c>

20000018 <q0>:
20000018:	3f800000 	svccc	0x00800000

2000001c <beta>:
2000001c:	3dcccccd 	stclcc	12, cr12, [ip, #820]	; 0x334

20000020 <send.8636>:
20000020:	0000000a 	andeq	r0, r0, sl

20000024 <GPIO_PORT>:
20000024:	40020400 	andmi	r0, r2, r0, lsl #8
20000028:	40020400 	andmi	r0, r2, r0, lsl #8

2000002c <send.8638>:
2000002c:	00003b75 	andeq	r3, r0, r5, ror fp

2000002d <send.8643>:
2000002d:	9900003b 	stmdbls	r0, {r0, r1, r3, r4, r5}

20000030 <cdc_fops>:
20000030:	08003699 	stmdaeq	r0, {r0, r3, r4, r7, r9, sl, ip, sp}
20000034:	0800369d 	stmdaeq	r0, {r0, r2, r3, r4, r7, r9, sl, ip, sp}
20000038:	080036a1 	stmdaeq	r0, {r0, r5, r7, r9, sl, ip, sp}
2000003c:	080036a5 	stmdaeq	r0, {r0, r2, r5, r7, r9, sl, ip, sp}
20000040:	0800374d 	stmdaeq	r0, {r0, r2, r3, r6, r8, r9, sl, ip, sp}

20000044 <USBD_DeviceDesc>:
20000044:	02000112 	andeq	r0, r0, #-2147483644	; 0x80000004
20000048:	08000000 	stmdaeq	r0, {}	; <UNPREDICTABLE>
2000004c:	57400483 	strbpl	r0, [r0, -r3, lsl #9]
20000050:	02010200 	andeq	r0, r1, #0
20000054:	00000103 	andeq	r0, r0, r3, lsl #2

20000058 <USBD_LangIDDesc>:
20000058:	04090304 	streq	r0, [r9], #-772	; 0x304

2000005c <USBD_DeviceQualifierDesc>:
2000005c:	0200060a 	andeq	r0, r0, #10485760	; 0xa00000
20000060:	40000000 	andmi	r0, r0, r0
20000064:	00000001 	andeq	r0, r0, r1

20000068 <USR_desc>:
20000068:	080037c5 	stmdaeq	r0, {r0, r2, r6, r7, r8, r9, sl, ip, sp}
2000006c:	080037d5 	stmdaeq	r0, {r0, r2, r4, r6, r7, r8, r9, sl, ip, sp}
20000070:	080037e1 	stmdaeq	r0, {r0, r5, r6, r7, r8, r9, sl, ip, sp}
20000074:	0800385d 	stmdaeq	r0, {r0, r2, r3, r4, r6, fp, ip, sp}
20000078:	08003831 	stmdaeq	r0, {r0, r4, r5, fp, ip, sp}
2000007c:	08003819 	stmdaeq	r0, {r0, r3, r4, fp, ip, sp}
20000080:	08003801 	stmdaeq	r0, {r0, fp, ip, sp}

20000084 <USR_cb>:
20000084:	08003889 	stmdaeq	r0, {r0, r3, r7, fp, ip, sp}
20000088:	0800388d 	stmdaeq	r0, {r0, r2, r3, r7, fp, ip, sp}
2000008c:	080038a1 	stmdaeq	r0, {r0, r5, r7, fp, ip, sp}
20000090:	080038b1 	stmdaeq	r0, {r0, r4, r5, r7, fp, ip, sp}
20000094:	08003891 	stmdaeq	r0, {r0, r4, r7, fp, ip, sp}
	...

200000a0 <xNextTaskUnblockTime>:
200000a0:	ffffffff 			; <UNDEFINED> instruction: 0xffffffff

200000a4 <uxCriticalNesting>:
200000a4:	aaaaaaaa 	bge	1eaaab54 <xHeap+0xeaaab54>

200000a8 <APBAHBPrescTable>:
200000a8:	00000000 	andeq	r0, r0, r0
200000ac:	04030201 	streq	r0, [r3], #-513	; 0x201
200000b0:	04030201 	streq	r0, [r3], #-513	; 0x201
200000b4:	09080706 	stmdbeq	r8, {r1, r2, r8, r9, sl}

200000b8 <usbd_cdc_CfgDesc>:
200000b8:	00430209 	subeq	r0, r3, r9, lsl #4
200000bc:	c0000102 	andgt	r0, r0, r2, lsl #2
200000c0:	00040932 	andeq	r0, r4, r2, lsr r9
200000c4:	02020100 	andeq	r0, r2, #0
200000c8:	24050001 	strcs	r0, [r5], #-1
200000cc:	05011000 	streq	r1, [r1]
200000d0:	01000124 	tsteq	r0, r4, lsr #2
200000d4:	02022404 	andeq	r2, r2, #67108864	; 0x4000000
200000d8:	00062405 	andeq	r2, r6, r5, lsl #8
200000dc:	82050701 	andhi	r0, r5, #262144	; 0x40000
200000e0:	ff000803 			; <UNDEFINED> instruction: 0xff000803
200000e4:	00010409 	andeq	r0, r1, r9, lsl #8
200000e8:	00000a02 	andeq	r0, r0, r2, lsl #20
200000ec:	01050700 	tsteq	r5, r0, lsl #14
200000f0:	00004002 	andeq	r4, r0, r2
200000f4:	02810507 	addeq	r0, r1, #29360128	; 0x1c00000
200000f8:	00000040 	andeq	r0, r0, r0, asr #32

200000fc <cdcCmd>:
200000fc:	000000ff 	strdeq	r0, [r0], -pc	; <UNPREDICTABLE>

20000100 <USBD_CDC_cb>:
20000100:	080078b5 	stmdaeq	r0, {r0, r2, r4, r5, r7, fp, ip, sp, lr}
20000104:	08007889 	stmdaeq	r0, {r0, r3, r7, fp, ip, sp, lr}
20000108:	080077bd 	stmdaeq	r0, {r0, r2, r3, r4, r5, r7, r8, r9, sl, ip, sp, lr}
2000010c:	00000000 	andeq	r0, r0, r0
20000110:	08007925 	stmdaeq	r0, {r0, r2, r5, r8, fp, ip, sp, lr}
20000114:	08007955 	stmdaeq	r0, {r0, r2, r4, r6, r8, fp, ip, sp, lr}
20000118:	08007781 	stmdaeq	r0, {r0, r7, r8, r9, sl, ip, sp, lr}
2000011c:	080076fd 	stmdaeq	r0, {r0, r2, r3, r4, r5, r6, r7, r9, sl, ip, sp, lr}
	...
20000128:	080076ed 	stmdaeq	r0, {r0, r2, r3, r5, r6, r7, r9, sl, ip, sp, lr}

2000012c <USBD_DCD_INT_fops>:
2000012c:	20000130 	andcs	r0, r0, r0, lsr r1

20000130 <USBD_DCD_INT_cb>:
20000130:	08007b29 	stmdaeq	r0, {r0, r3, r5, r8, r9, fp, ip, sp, lr}
20000134:	08007a85 	stmdaeq	r0, {r0, r2, r7, r9, fp, ip, sp, lr}
20000138:	08007a35 	stmdaeq	r0, {r0, r2, r4, r5, r9, fp, ip, sp, lr}
2000013c:	080079d5 	stmdaeq	r0, {r0, r2, r4, r6, r7, r8, fp, ip, sp, lr}
20000140:	08007a05 	stmdaeq	r0, {r0, r2, r9, fp, ip, sp, lr}
20000144:	080079c1 	stmdaeq	r0, {r0, r6, r7, r8, fp, ip, sp, lr}
20000148:	080079a9 	stmdaeq	r0, {r0, r3, r5, r7, r8, fp, ip, sp, lr}
2000014c:	080079e5 	stmdaeq	r0, {r0, r2, r5, r6, r7, r8, fp, ip, sp, lr}
20000150:	080079f5 	stmdaeq	r0, {r0, r2, r4, r5, r6, r7, r8, fp, ip, sp, lr}
	...

2000015c <__fdlib_version>:
2000015c:	00000001 	andeq	r0, r0, r1

20000160 <impure_data>:
20000160:	00000000 	andeq	r0, r0, r0
20000164:	2000044c 	andcs	r0, r0, ip, asr #8
20000168:	200004b4 			; <UNDEFINED> instruction: 0x200004b4
2000016c:	2000051c 	andcs	r0, r0, ip, lsl r5
	...
20000194:	0800ad70 	stmdaeq	r0, {r4, r5, r6, r8, sl, fp, sp, pc}
	...
20000208:	00000001 	andeq	r0, r0, r1
2000020c:	00000000 	andeq	r0, r0, r0
20000210:	abcd330e 	blge	1f34ce50 <xHeap+0xf34ce50>
20000214:	e66d1234 			; <UNDEFINED> instruction: 0xe66d1234
20000218:	0005deec 	andeq	sp, r5, ip, ror #29
2000021c:	0000000b 	andeq	r0, r0, fp
	...

20000588 <_impure_ptr>:
20000588:	20000160 	andcs	r0, r0, r0, ror #2

Disassembly of section .jcr:

2000058c <__JCR_END__>:
2000058c:	00000000 	andeq	r0, r0, r0

Disassembly of section .bss:

20000590 <__bss_start__>:
20000590:	00000000 	andeq	r0, r0, r0

20000594 <object.7373>:
	...

200005ac <q1>:
200005ac:	00000000 	andeq	r0, r0, r0

200005b0 <q2>:
200005b0:	00000000 	andeq	r0, r0, r0

200005b4 <q3>:
200005b4:	00000000 	andeq	r0, r0, r0

200005b8 <xUSBQueue>:
	...

200005c0 <whereami>:
200005c0:	00000000 	andeq	r0, r0, r0

200005c4 <TimeOut>:
200005c4:	00000000 	andeq	r0, r0, r0

200005c8 <status>:
200005c8:	00000000 	andeq	r0, r0, r0

200005cc <heap.4252>:
200005cc:	00000000 	andeq	r0, r0, r0

200005d0 <pxCurrentTCB>:
200005d0:	00000000 	andeq	r0, r0, r0

200005d4 <xTickCount>:
200005d4:	00000000 	andeq	r0, r0, r0

200005d8 <pxOverflowDelayedTaskList>:
200005d8:	00000000 	andeq	r0, r0, r0

200005dc <pxDelayedTaskList>:
200005dc:	00000000 	andeq	r0, r0, r0

200005e0 <uxCurrentNumberOfTasks>:
200005e0:	00000000 	andeq	r0, r0, r0

200005e4 <pxReadyTasksLists>:
	...

20000648 <xDelayedTaskList1>:
	...

2000065c <xDelayedTaskList2>:
	...

20000670 <xPendingReadyList>:
	...

20000684 <xSuspendedTaskList>:
	...

20000698 <xSchedulerRunning>:
20000698:	00000000 	andeq	r0, r0, r0

2000069c <uxTopUsedPriority>:
2000069c:	00000000 	andeq	r0, r0, r0

200006a0 <uxTaskNumber>:
200006a0:	00000000 	andeq	r0, r0, r0

200006a4 <uxTopReadyPriority>:
200006a4:	00000000 	andeq	r0, r0, r0

200006a8 <uxSchedulerSuspended>:
200006a8:	00000000 	andeq	r0, r0, r0

200006ac <xNumOfOverflows>:
200006ac:	00000000 	andeq	r0, r0, r0

200006b0 <uxMissedTicks>:
200006b0:	00000000 	andeq	r0, r0, r0

200006b4 <xMissedYield>:
200006b4:	00000000 	andeq	r0, r0, r0

200006b8 <xNextFreeByte>:
200006b8:	00000000 	andeq	r0, r0, r0

200006bc <FrameCount.8323>:
200006bc:	00000000 	andeq	r0, r0, r0

200006c0 <USB_Tx_State>:
200006c0:	00000000 	andeq	r0, r0, r0

200006c4 <APP_Rx_ptr_out>:
200006c4:	00000000 	andeq	r0, r0, r0

200006c8 <APP_Rx_ptr_in>:
200006c8:	00000000 	andeq	r0, r0, r0

200006cc <APP_Rx_length>:
200006cc:	00000000 	andeq	r0, r0, r0

200006d0 <cdcLen>:
200006d0:	00000000 	andeq	r0, r0, r0

200006d4 <usbd_cdc_AltSet>:
200006d4:	00000000 	andeq	r0, r0, r0

200006d8 <USBD_ep_status>:
200006d8:	00000000 	andeq	r0, r0, r0

200006dc <cfgidx.8328>:
200006dc:	00000000 	andeq	r0, r0, r0

200006e0 <USBD_default_cfg>:
200006e0:	00000000 	andeq	r0, r0, r0

200006e4 <USBD_cfg_status>:
200006e4:	00000000 	andeq	r0, r0, r0

200006e8 <ControlReference>:
	...

20000708 <Estimation_State>:
	...

20000730 <USB_OTG_dev>:
	...

20000d20 <RTStats>:
	...

20001120 <I2Ctmp>:
	...

20001138 <NewMeasurementAvaiable>:
20001138:	00000000 	andeq	r0, r0, r0

2000113c <MPU6050Handle>:
2000113c:	00000000 	andeq	r0, r0, r0

20001140 <MPU6050_Data>:
	...

20001150 <I2C_Available>:
20001150:	00000000 	andeq	r0, r0, r0

20001154 <Sensor_Data>:
	...

2000116c <HMC5883L_Data>:
	...

20001174 <HMC5883LHandle>:
20001174:	00000000 	andeq	r0, r0, r0

20001178 <xQueueRegistry>:
	...

200011b8 <usbd_cdc_OtherCfgDesc>:
	...

200011fc <USB_Rx_Buffer>:
	...

2000123c <CmdBuff>:
	...

20001244 <APP_Rx_Buffer>:
	...

20001644 <USBD_StrDesc>:
	...

Disassembly of section ._user_heap_stack:

20001678 <._user_heap_stack>:
	...

Disassembly of section .rtos_heap:

10000000 <xHeap>:
	...
