
main.elf:     file format elf32-littlearm


Disassembly of section .isr_vector:

08000000 <g_pfnVectors>:
 8000000:	20020000 	andcs	r0, r2, r0
 8000004:	08007e45 	stmdaeq	r0, {r0, r2, r6, r9, sl, fp, ip, sp, lr}
 8000008:	08000221 	stmdaeq	r0, {r0, r5, r9}
 800000c:	08000225 	stmdaeq	r0, {r0, r2, r5, r9}
 8000010:	08000229 	stmdaeq	r0, {r0, r3, r5, r9}
 8000014:	0800022d 	stmdaeq	r0, {r0, r2, r3, r5, r9}
 8000018:	08000231 	stmdaeq	r0, {r0, r4, r5, r9}
	...
 800002c:	08003869 	stmdaeq	r0, {r0, r3, r5, r6, fp, ip, sp}
 8000030:	08000235 	stmdaeq	r0, {r0, r2, r4, r5, r9}
 8000034:	00000000 	andeq	r0, r0, r0
 8000038:	0800394d 	stmdaeq	r0, {r0, r2, r3, r6, r8, fp, ip, sp}
 800003c:	0800399d 	stmdaeq	r0, {r0, r2, r3, r4, r7, r8, fp, ip, sp}
 8000040:	08007ea1 	stmdaeq	r0, {r0, r5, r7, r9, sl, fp, ip, sp, lr}
 8000044:	08007ea1 	stmdaeq	r0, {r0, r5, r7, r9, sl, fp, ip, sp, lr}
 8000048:	08007ea1 	stmdaeq	r0, {r0, r5, r7, r9, sl, fp, ip, sp, lr}
 800004c:	08007ea1 	stmdaeq	r0, {r0, r5, r7, r9, sl, fp, ip, sp, lr}
 8000050:	08007ea1 	stmdaeq	r0, {r0, r5, r7, r9, sl, fp, ip, sp, lr}
 8000054:	08007ea1 	stmdaeq	r0, {r0, r5, r7, r9, sl, fp, ip, sp, lr}
 8000058:	08000279 	stmdaeq	r0, {r0, r3, r4, r5, r6, r9}
 800005c:	08007ea1 	stmdaeq	r0, {r0, r5, r7, r9, sl, fp, ip, sp, lr}
 8000060:	08007ea1 	stmdaeq	r0, {r0, r5, r7, r9, sl, fp, ip, sp, lr}
 8000064:	08007ea1 	stmdaeq	r0, {r0, r5, r7, r9, sl, fp, ip, sp, lr}
 8000068:	08007ea1 	stmdaeq	r0, {r0, r5, r7, r9, sl, fp, ip, sp, lr}
 800006c:	08007ea1 	stmdaeq	r0, {r0, r5, r7, r9, sl, fp, ip, sp, lr}
 8000070:	08007ea1 	stmdaeq	r0, {r0, r5, r7, r9, sl, fp, ip, sp, lr}
 8000074:	08007ea1 	stmdaeq	r0, {r0, r5, r7, r9, sl, fp, ip, sp, lr}
 8000078:	08007ea1 	stmdaeq	r0, {r0, r5, r7, r9, sl, fp, ip, sp, lr}
 800007c:	08007ea1 	stmdaeq	r0, {r0, r5, r7, r9, sl, fp, ip, sp, lr}
 8000080:	08007ea1 	stmdaeq	r0, {r0, r5, r7, r9, sl, fp, ip, sp, lr}
 8000084:	08007ea1 	stmdaeq	r0, {r0, r5, r7, r9, sl, fp, ip, sp, lr}
 8000088:	08007ea1 	stmdaeq	r0, {r0, r5, r7, r9, sl, fp, ip, sp, lr}
 800008c:	08007ea1 	stmdaeq	r0, {r0, r5, r7, r9, sl, fp, ip, sp, lr}
 8000090:	08007ea1 	stmdaeq	r0, {r0, r5, r7, r9, sl, fp, ip, sp, lr}
 8000094:	08007ea1 	stmdaeq	r0, {r0, r5, r7, r9, sl, fp, ip, sp, lr}
 8000098:	08007ea1 	stmdaeq	r0, {r0, r5, r7, r9, sl, fp, ip, sp, lr}
 800009c:	08007ea1 	stmdaeq	r0, {r0, r5, r7, r9, sl, fp, ip, sp, lr}
 80000a0:	08007ea1 	stmdaeq	r0, {r0, r5, r7, r9, sl, fp, ip, sp, lr}
 80000a4:	08007ea1 	stmdaeq	r0, {r0, r5, r7, r9, sl, fp, ip, sp, lr}
 80000a8:	08007ea1 	stmdaeq	r0, {r0, r5, r7, r9, sl, fp, ip, sp, lr}
 80000ac:	08007ea1 	stmdaeq	r0, {r0, r5, r7, r9, sl, fp, ip, sp, lr}
 80000b0:	08007ea1 	stmdaeq	r0, {r0, r5, r7, r9, sl, fp, ip, sp, lr}
 80000b4:	08007ea1 	stmdaeq	r0, {r0, r5, r7, r9, sl, fp, ip, sp, lr}
 80000b8:	08007ea1 	stmdaeq	r0, {r0, r5, r7, r9, sl, fp, ip, sp, lr}
 80000bc:	08007ea1 	stmdaeq	r0, {r0, r5, r7, r9, sl, fp, ip, sp, lr}
 80000c0:	08007ea1 	stmdaeq	r0, {r0, r5, r7, r9, sl, fp, ip, sp, lr}
 80000c4:	08001bcd 	stmdaeq	r0, {r0, r2, r3, r6, r7, r8, r9, fp, ip}
 80000c8:	08001bd9 	stmdaeq	r0, {r0, r3, r4, r6, r7, r8, r9, fp, ip}
 80000cc:	08007ea1 	stmdaeq	r0, {r0, r5, r7, r9, sl, fp, ip, sp, lr}
 80000d0:	08007ea1 	stmdaeq	r0, {r0, r5, r7, r9, sl, fp, ip, sp, lr}
 80000d4:	08007ea1 	stmdaeq	r0, {r0, r5, r7, r9, sl, fp, ip, sp, lr}
 80000d8:	08007ea1 	stmdaeq	r0, {r0, r5, r7, r9, sl, fp, ip, sp, lr}
 80000dc:	08007ea1 	stmdaeq	r0, {r0, r5, r7, r9, sl, fp, ip, sp, lr}
 80000e0:	08007ea1 	stmdaeq	r0, {r0, r5, r7, r9, sl, fp, ip, sp, lr}
 80000e4:	08007ea1 	stmdaeq	r0, {r0, r5, r7, r9, sl, fp, ip, sp, lr}
 80000e8:	08000239 	stmdaeq	r0, {r0, r3, r4, r5, r9}
 80000ec:	08007ea1 	stmdaeq	r0, {r0, r5, r7, r9, sl, fp, ip, sp, lr}
 80000f0:	08007ea1 	stmdaeq	r0, {r0, r5, r7, r9, sl, fp, ip, sp, lr}
 80000f4:	08007ea1 	stmdaeq	r0, {r0, r5, r7, r9, sl, fp, ip, sp, lr}
 80000f8:	08007ea1 	stmdaeq	r0, {r0, r5, r7, r9, sl, fp, ip, sp, lr}
 80000fc:	08007ea1 	stmdaeq	r0, {r0, r5, r7, r9, sl, fp, ip, sp, lr}
 8000100:	08007ea1 	stmdaeq	r0, {r0, r5, r7, r9, sl, fp, ip, sp, lr}
 8000104:	08007ea1 	stmdaeq	r0, {r0, r5, r7, r9, sl, fp, ip, sp, lr}
 8000108:	08007ea1 	stmdaeq	r0, {r0, r5, r7, r9, sl, fp, ip, sp, lr}
 800010c:	08007ea1 	stmdaeq	r0, {r0, r5, r7, r9, sl, fp, ip, sp, lr}
 8000110:	08007ea1 	stmdaeq	r0, {r0, r5, r7, r9, sl, fp, ip, sp, lr}
 8000114:	08007ea1 	stmdaeq	r0, {r0, r5, r7, r9, sl, fp, ip, sp, lr}
 8000118:	08007ea1 	stmdaeq	r0, {r0, r5, r7, r9, sl, fp, ip, sp, lr}
 800011c:	08007ea1 	stmdaeq	r0, {r0, r5, r7, r9, sl, fp, ip, sp, lr}
 8000120:	08007ea1 	stmdaeq	r0, {r0, r5, r7, r9, sl, fp, ip, sp, lr}
 8000124:	08007ea1 	stmdaeq	r0, {r0, r5, r7, r9, sl, fp, ip, sp, lr}
 8000128:	08007ea1 	stmdaeq	r0, {r0, r5, r7, r9, sl, fp, ip, sp, lr}
 800012c:	08007ea1 	stmdaeq	r0, {r0, r5, r7, r9, sl, fp, ip, sp, lr}
 8000130:	08007ea1 	stmdaeq	r0, {r0, r5, r7, r9, sl, fp, ip, sp, lr}
 8000134:	08007ea1 	stmdaeq	r0, {r0, r5, r7, r9, sl, fp, ip, sp, lr}
 8000138:	08007ea1 	stmdaeq	r0, {r0, r5, r7, r9, sl, fp, ip, sp, lr}
 800013c:	08007ea1 	stmdaeq	r0, {r0, r5, r7, r9, sl, fp, ip, sp, lr}
 8000140:	08007ea1 	stmdaeq	r0, {r0, r5, r7, r9, sl, fp, ip, sp, lr}
 8000144:	08007ea1 	stmdaeq	r0, {r0, r5, r7, r9, sl, fp, ip, sp, lr}
 8000148:	08007ea1 	stmdaeq	r0, {r0, r5, r7, r9, sl, fp, ip, sp, lr}
 800014c:	0800026d 	stmdaeq	r0, {r0, r2, r3, r5, r6, r9}
 8000150:	08007ea1 	stmdaeq	r0, {r0, r5, r7, r9, sl, fp, ip, sp, lr}
 8000154:	08007ea1 	stmdaeq	r0, {r0, r5, r7, r9, sl, fp, ip, sp, lr}
 8000158:	08007ea1 	stmdaeq	r0, {r0, r5, r7, r9, sl, fp, ip, sp, lr}
 800015c:	08007ea1 	stmdaeq	r0, {r0, r5, r7, r9, sl, fp, ip, sp, lr}
 8000160:	08007ea1 	stmdaeq	r0, {r0, r5, r7, r9, sl, fp, ip, sp, lr}
 8000164:	08007ea1 	stmdaeq	r0, {r0, r5, r7, r9, sl, fp, ip, sp, lr}
 8000168:	08007ea1 	stmdaeq	r0, {r0, r5, r7, r9, sl, fp, ip, sp, lr}
 800016c:	08007ea1 	stmdaeq	r0, {r0, r5, r7, r9, sl, fp, ip, sp, lr}
 8000170:	08007ea1 	stmdaeq	r0, {r0, r5, r7, r9, sl, fp, ip, sp, lr}
 8000174:	08007ea1 	stmdaeq	r0, {r0, r5, r7, r9, sl, fp, ip, sp, lr}
 8000178:	08007ea1 	stmdaeq	r0, {r0, r5, r7, r9, sl, fp, ip, sp, lr}
 800017c:	08007ea1 	stmdaeq	r0, {r0, r5, r7, r9, sl, fp, ip, sp, lr}
 8000180:	08007ea1 	stmdaeq	r0, {r0, r5, r7, r9, sl, fp, ip, sp, lr}
 8000184:	08007ea1 	stmdaeq	r0, {r0, r5, r7, r9, sl, fp, ip, sp, lr}

Disassembly of section .sw_version:

08000188 <build_version>:
 8000188:	796c464b 	stmdbvc	ip!, {r0, r1, r3, r6, r9, sl, lr}^
 800018c:	2e317620 	cfmsuba32cs	mvax1, mvax7, mvfx1, mvfx0
 8000190:	28203332 	stmdacs	r0!, {r1, r4, r5, r8, r9, ip, sp}
 8000194:	32313032 	eorscc	r3, r1, #50	; 0x32
 8000198:	39313930 	ldmdbcc	r1!, {r4, r5, r8, fp, ip, sp}
 800019c:	3333312d 	teqcc	r3, #1073741835	; 0x4000000b
 80001a0:	00002930 	andeq	r2, r0, r0, lsr r9

Disassembly of section .text:

080001a4 <__do_global_dtors_aux>:
 80001a4:	b510      	push	{r4, lr}
 80001a6:	f240 1458 	movw	r4, #344	; 0x158
 80001aa:	f2c2 0400 	movt	r4, #8192	; 0x2000
 80001ae:	7823      	ldrb	r3, [r4, #0]
 80001b0:	b963      	cbnz	r3, 80001cc <__do_global_dtors_aux+0x28>
 80001b2:	f240 0000 	movw	r0, #0
 80001b6:	f2c0 0000 	movt	r0, #0
 80001ba:	b128      	cbz	r0, 80001c8 <__do_global_dtors_aux+0x24>
 80001bc:	f248 3084 	movw	r0, #33668	; 0x8384
 80001c0:	f6c0 0000 	movt	r0, #2048	; 0x800
 80001c4:	f3af 8000 	nop.w
 80001c8:	2101      	movs	r1, #1
 80001ca:	7021      	strb	r1, [r4, #0]
 80001cc:	bd10      	pop	{r4, pc}
 80001ce:	bf00      	nop

080001d0 <frame_dummy>:
 80001d0:	b508      	push	{r3, lr}
 80001d2:	f240 0300 	movw	r3, #0
 80001d6:	f2c0 0300 	movt	r3, #0
 80001da:	b14b      	cbz	r3, 80001f0 <frame_dummy+0x20>
 80001dc:	f248 3084 	movw	r0, #33668	; 0x8384
 80001e0:	f240 115c 	movw	r1, #348	; 0x15c
 80001e4:	f6c0 0000 	movt	r0, #2048	; 0x800
 80001e8:	f2c2 0100 	movt	r1, #8192	; 0x2000
 80001ec:	f3af 8000 	nop.w
 80001f0:	f240 1054 	movw	r0, #340	; 0x154
 80001f4:	f2c2 0000 	movt	r0, #8192	; 0x2000
 80001f8:	6801      	ldr	r1, [r0, #0]
 80001fa:	b129      	cbz	r1, 8000208 <frame_dummy+0x38>
 80001fc:	f240 0300 	movw	r3, #0
 8000200:	f2c0 0300 	movt	r3, #0
 8000204:	b103      	cbz	r3, 8000208 <frame_dummy+0x38>
 8000206:	4798      	blx	r3
 8000208:	bd08      	pop	{r3, pc}
 800020a:	bf00      	nop
 800020c:	080083a8 	stmdaeq	r0, {r3, r5, r7, r8, r9, pc}
 8000210:	20000000 	andcs	r0, r0, r0
 8000214:	20000154 	andcs	r0, r0, r4, asr r1
 8000218:	20000158 	andcs	r0, r0, r8, asr r1
 800021c:	20000db0 			; <UNDEFINED> instruction: 0x20000db0

08000220 <NMI_Handler>:
 8000220:	4770      	bx	lr
 8000222:	bf00      	nop

08000224 <HardFault_Handler>:
 8000224:	e7fe      	b.n	8000224 <HardFault_Handler>
 8000226:	bf00      	nop

08000228 <MemManage_Handler>:
 8000228:	e7fe      	b.n	8000228 <MemManage_Handler>
 800022a:	bf00      	nop

0800022c <BusFault_Handler>:
 800022c:	e7fe      	b.n	800022c <BusFault_Handler>
 800022e:	bf00      	nop

08000230 <UsageFault_Handler>:
 8000230:	e7fe      	b.n	8000230 <UsageFault_Handler>
 8000232:	bf00      	nop

08000234 <DebugMon_Handler>:
 8000234:	4770      	bx	lr
 8000236:	bf00      	nop

08000238 <OTG_FS_WKUP_IRQHandler>:
 8000238:	b510      	push	{r4, lr}
 800023a:	f240 249c 	movw	r4, #668	; 0x29c
 800023e:	f2c2 0400 	movt	r4, #8192	; 0x2000
 8000242:	7aa3      	ldrb	r3, [r4, #10]
 8000244:	b163      	cbz	r3, 8000260 <OTG_FS_WKUP_IRQHandler+0x28>
 8000246:	f64e 5010 	movw	r0, #60688	; 0xed10
 800024a:	f2ce 0000 	movt	r0, #57344	; 0xe000
 800024e:	6801      	ldr	r1, [r0, #0]
 8000250:	f021 0206 	bic.w	r2, r1, #6
 8000254:	6002      	str	r2, [r0, #0]
 8000256:	f000 f85b 	bl	8000310 <SystemInit>
 800025a:	4620      	mov	r0, r4
 800025c:	f007 f85a 	bl	8007314 <USB_OTG_UngateClock>
 8000260:	f44f 2080 	mov.w	r0, #262144	; 0x40000
 8000264:	e8bd 4010 	ldmia.w	sp!, {r4, lr}
 8000268:	f003 be0e 	b.w	8003e88 <EXTI_ClearITPendingBit>

0800026c <OTG_FS_IRQHandler>:
 800026c:	f240 209c 	movw	r0, #668	; 0x29c
 8000270:	f2c2 0000 	movt	r0, #8192	; 0x2000
 8000274:	f007 ba44 	b.w	8007700 <USBD_OTG_ISR_Handler>

08000278 <EXTI0_IRQHandler>:
 8000278:	4770      	bx	lr
 800027a:	bf00      	nop

0800027c <SystemCoreClockUpdate>:
 800027c:	f44f 5360 	mov.w	r3, #14336	; 0x3800
 8000280:	f2c4 0302 	movt	r3, #16386	; 0x4002
 8000284:	689a      	ldr	r2, [r3, #8]
 8000286:	f002 020c 	and.w	r2, r2, #12
 800028a:	2a04      	cmp	r2, #4
 800028c:	bf04      	itt	eq
 800028e:	f44f 51d8 	moveq.w	r1, #6912	; 0x1b00
 8000292:	f2c0 01b7 	movteq	r1, #183	; 0xb7
 8000296:	d006      	beq.n	80002a6 <SystemCoreClockUpdate+0x2a>
 8000298:	2a08      	cmp	r2, #8
 800029a:	bf1c      	itt	ne
 800029c:	f44f 5110 	movne.w	r1, #9216	; 0x2400
 80002a0:	f2c0 01f4 	movtne	r1, #244	; 0xf4
 80002a4:	d010      	beq.n	80002c8 <SystemCoreClockUpdate+0x4c>
 80002a6:	f44f 5060 	mov.w	r0, #14336	; 0x3800
 80002aa:	f2c4 0002 	movt	r0, #16386	; 0x4002
 80002ae:	f240 0304 	movw	r3, #4
 80002b2:	6882      	ldr	r2, [r0, #8]
 80002b4:	f2c2 0300 	movt	r3, #8192	; 0x2000
 80002b8:	f3c2 1c03 	ubfx	ip, r2, #4, #4
 80002bc:	f813 000c 	ldrb.w	r0, [r3, ip]
 80002c0:	fa21 f100 	lsr.w	r1, r1, r0
 80002c4:	6119      	str	r1, [r3, #16]
 80002c6:	4770      	bx	lr
 80002c8:	6858      	ldr	r0, [r3, #4]
 80002ca:	685a      	ldr	r2, [r3, #4]
 80002cc:	6859      	ldr	r1, [r3, #4]
 80002ce:	f410 0f80 	tst.w	r0, #4194304	; 0x400000
 80002d2:	f44f 5c60 	mov.w	ip, #14336	; 0x3800
 80002d6:	bf14      	ite	ne
 80002d8:	f44f 53d8 	movne.w	r3, #6912	; 0x1b00
 80002dc:	f44f 5310 	moveq.w	r3, #9216	; 0x2400
 80002e0:	f2c4 0c02 	movt	ip, #16386	; 0x4002
 80002e4:	bf14      	ite	ne
 80002e6:	f2c0 03b7 	movtne	r3, #183	; 0xb7
 80002ea:	f2c0 03f4 	movteq	r3, #244	; 0xf4
 80002ee:	f002 023f 	and.w	r2, r2, #63	; 0x3f
 80002f2:	f3c1 1088 	ubfx	r0, r1, #6, #9
 80002f6:	fbb3 f1f2 	udiv	r1, r3, r2
 80002fa:	f8dc 3004 	ldr.w	r3, [ip, #4]
 80002fe:	f3c3 4201 	ubfx	r2, r3, #16, #2
 8000302:	fb01 f100 	mul.w	r1, r1, r0
 8000306:	1c50      	adds	r0, r2, #1
 8000308:	0043      	lsls	r3, r0, #1
 800030a:	fbb1 f1f3 	udiv	r1, r1, r3
 800030e:	e7ca      	b.n	80002a6 <SystemCoreClockUpdate+0x2a>

08000310 <SystemInit>:
 8000310:	f44f 426d 	mov.w	r2, #60672	; 0xed00
 8000314:	f2ce 0200 	movt	r2, #57344	; 0xe000
 8000318:	f44f 5360 	mov.w	r3, #14336	; 0x3800
 800031c:	f8d2 0088 	ldr.w	r0, [r2, #136]	; 0x88
 8000320:	f2c4 0302 	movt	r3, #16386	; 0x4002
 8000324:	f440 0170 	orr.w	r1, r0, #15728640	; 0xf00000
 8000328:	f8c2 1088 	str.w	r1, [r2, #136]	; 0x88
 800032c:	6818      	ldr	r0, [r3, #0]
 800032e:	2200      	movs	r2, #0
 8000330:	f040 0101 	orr.w	r1, r0, #1
 8000334:	6019      	str	r1, [r3, #0]
 8000336:	609a      	str	r2, [r3, #8]
 8000338:	6818      	ldr	r0, [r3, #0]
 800033a:	f243 0110 	movw	r1, #12304	; 0x3010
 800033e:	f020 7c84 	bic.w	ip, r0, #17301504	; 0x1080000
 8000342:	f42c 3080 	bic.w	r0, ip, #65536	; 0x10000
 8000346:	f2c2 4100 	movt	r1, #9216	; 0x2400
 800034a:	6018      	str	r0, [r3, #0]
 800034c:	6059      	str	r1, [r3, #4]
 800034e:	6818      	ldr	r0, [r3, #0]
 8000350:	b084      	sub	sp, #16
 8000352:	f420 2180 	bic.w	r1, r0, #262144	; 0x40000
 8000356:	6019      	str	r1, [r3, #0]
 8000358:	60da      	str	r2, [r3, #12]
 800035a:	9201      	str	r2, [sp, #4]
 800035c:	9202      	str	r2, [sp, #8]
 800035e:	6818      	ldr	r0, [r3, #0]
 8000360:	f440 3280 	orr.w	r2, r0, #65536	; 0x10000
 8000364:	601a      	str	r2, [r3, #0]
 8000366:	681a      	ldr	r2, [r3, #0]
 8000368:	f402 3100 	and.w	r1, r2, #131072	; 0x20000
 800036c:	9102      	str	r1, [sp, #8]
 800036e:	9801      	ldr	r0, [sp, #4]
 8000370:	1c42      	adds	r2, r0, #1
 8000372:	9201      	str	r2, [sp, #4]
 8000374:	9902      	ldr	r1, [sp, #8]
 8000376:	b919      	cbnz	r1, 8000380 <SystemInit+0x70>
 8000378:	9801      	ldr	r0, [sp, #4]
 800037a:	f5b0 4fa0 	cmp.w	r0, #20480	; 0x5000
 800037e:	d1f2      	bne.n	8000366 <SystemInit+0x56>
 8000380:	f44f 5c60 	mov.w	ip, #14336	; 0x3800
 8000384:	f2c4 0c02 	movt	ip, #16386	; 0x4002
 8000388:	f8dc 1000 	ldr.w	r1, [ip]
 800038c:	f411 3300 	ands.w	r3, r1, #131072	; 0x20000
 8000390:	bf08      	it	eq
 8000392:	9302      	streq	r3, [sp, #8]
 8000394:	d001      	beq.n	800039a <SystemInit+0x8a>
 8000396:	2201      	movs	r2, #1
 8000398:	9202      	str	r2, [sp, #8]
 800039a:	9802      	ldr	r0, [sp, #8]
 800039c:	f64f 72fe 	movw	r2, #65534	; 0xfffe
 80003a0:	2100      	movs	r1, #0
 80003a2:	2801      	cmp	r0, #1
 80003a4:	f2c0 020f 	movt	r2, #15
 80003a8:	d010      	beq.n	80003cc <SystemInit+0xbc>
 80003aa:	9103      	str	r1, [sp, #12]
 80003ac:	9803      	ldr	r0, [sp, #12]
 80003ae:	4290      	cmp	r0, r2
 80003b0:	d8fb      	bhi.n	80003aa <SystemInit+0x9a>
 80003b2:	9b03      	ldr	r3, [sp, #12]
 80003b4:	1c58      	adds	r0, r3, #1
 80003b6:	9003      	str	r0, [sp, #12]
 80003b8:	9b03      	ldr	r3, [sp, #12]
 80003ba:	4293      	cmp	r3, r2
 80003bc:	d8f5      	bhi.n	80003aa <SystemInit+0x9a>
 80003be:	9b03      	ldr	r3, [sp, #12]
 80003c0:	1c58      	adds	r0, r3, #1
 80003c2:	9003      	str	r0, [sp, #12]
 80003c4:	9b03      	ldr	r3, [sp, #12]
 80003c6:	4293      	cmp	r3, r2
 80003c8:	d8ef      	bhi.n	80003aa <SystemInit+0x9a>
 80003ca:	e7f2      	b.n	80003b2 <SystemInit+0xa2>
 80003cc:	f44f 5360 	mov.w	r3, #14336	; 0x3800
 80003d0:	f2c4 0302 	movt	r3, #16386	; 0x4002
 80003d4:	f44f 4ce0 	mov.w	ip, #28672	; 0x7000
 80003d8:	6c18      	ldr	r0, [r3, #64]	; 0x40
 80003da:	f2c4 0c00 	movt	ip, #16384	; 0x4000
 80003de:	f040 5280 	orr.w	r2, r0, #268435456	; 0x10000000
 80003e2:	641a      	str	r2, [r3, #64]	; 0x40
 80003e4:	f8dc 1000 	ldr.w	r1, [ip]
 80003e8:	f441 4080 	orr.w	r0, r1, #16384	; 0x4000
 80003ec:	f8cc 0000 	str.w	r0, [ip]
 80003f0:	689a      	ldr	r2, [r3, #8]
 80003f2:	609a      	str	r2, [r3, #8]
 80003f4:	6899      	ldr	r1, [r3, #8]
 80003f6:	f441 4000 	orr.w	r0, r1, #32768	; 0x8000
 80003fa:	6098      	str	r0, [r3, #8]
 80003fc:	689a      	ldr	r2, [r3, #8]
 80003fe:	f245 400c 	movw	r0, #21516	; 0x540c
 8000402:	f442 51a0 	orr.w	r1, r2, #5120	; 0x1400
 8000406:	f2c0 7040 	movt	r0, #1856	; 0x740
 800040a:	6099      	str	r1, [r3, #8]
 800040c:	6058      	str	r0, [r3, #4]
 800040e:	681a      	ldr	r2, [r3, #0]
 8000410:	f042 7180 	orr.w	r1, r2, #16777216	; 0x1000000
 8000414:	6019      	str	r1, [r3, #0]
 8000416:	6819      	ldr	r1, [r3, #0]
 8000418:	f44f 5260 	mov.w	r2, #14336	; 0x3800
 800041c:	0189      	lsls	r1, r1, #6
 800041e:	f2c4 0202 	movt	r2, #16386	; 0x4002
 8000422:	d5f8      	bpl.n	8000416 <SystemInit+0x106>
 8000424:	f44f 5c70 	mov.w	ip, #15360	; 0x3c00
 8000428:	f2c4 0c02 	movt	ip, #16386	; 0x4002
 800042c:	f240 6005 	movw	r0, #1541	; 0x605
 8000430:	f8cc 0000 	str.w	r0, [ip]
 8000434:	6893      	ldr	r3, [r2, #8]
 8000436:	f023 0103 	bic.w	r1, r3, #3
 800043a:	6091      	str	r1, [r2, #8]
 800043c:	6890      	ldr	r0, [r2, #8]
 800043e:	f040 0302 	orr.w	r3, r0, #2
 8000442:	6093      	str	r3, [r2, #8]
 8000444:	6893      	ldr	r3, [r2, #8]
 8000446:	f003 010c 	and.w	r1, r3, #12
 800044a:	2908      	cmp	r1, #8
 800044c:	d1fa      	bne.n	8000444 <SystemInit+0x134>
 800044e:	f44f 4c6d 	mov.w	ip, #60672	; 0xed00
 8000452:	f2ce 0c00 	movt	ip, #57344	; 0xe000
 8000456:	f04f 6200 	mov.w	r2, #134217728	; 0x8000000
 800045a:	f8cc 2008 	str.w	r2, [ip, #8]
 800045e:	b004      	add	sp, #16
 8000460:	f7ff bf0c 	b.w	800027c <SystemCoreClockUpdate>

08000464 <LUFactorize>:
 8000464:	e92d 0ff0 	stmdb	sp!, {r4, r5, r6, r7, r8, r9, sl, fp}
 8000468:	3118      	adds	r1, #24
 800046a:	f1a2 0b04 	sub.w	fp, r2, #4
 800046e:	301c      	adds	r0, #28
 8000470:	f04f 0c00 	mov.w	ip, #0
 8000474:	f10c 0a01 	add.w	sl, ip, #1
 8000478:	f04f 537e 	mov.w	r3, #1065353216	; 0x3f800000
 800047c:	f1ba 0f06 	cmp.w	sl, #6
 8000480:	f841 3c18 	str.w	r3, [r1, #-24]
 8000484:	d045      	beq.n	8000512 <LUFactorize+0xae>
 8000486:	4607      	mov	r7, r0
 8000488:	46e0      	mov	r8, ip
 800048a:	460e      	mov	r6, r1
 800048c:	f1a0 091c 	sub.w	r9, r0, #28
 8000490:	ed17 7a01 	vldr	s14, [r7, #-4]
 8000494:	ed50 7a07 	vldr	s15, [r0, #-28]	; 0xffffffe4
 8000498:	ee87 7a27 	vdiv.f32	s14, s14, s15
 800049c:	f01c 0f01 	tst.w	ip, #1
 80004a0:	464c      	mov	r4, r9
 80004a2:	4665      	mov	r5, ip
 80004a4:	463b      	mov	r3, r7
 80004a6:	ed86 7a00 	vstr	s14, [r6]
 80004aa:	d01e      	beq.n	80004ea <LUFactorize+0x86>
 80004ac:	ed99 2a01 	vldr	s4, [r9, #4]
 80004b0:	edd7 1a00 	vldr	s3, [r7]
 80004b4:	ee47 1a42 	vmls.f32	s3, s14, s4
 80004b8:	463b      	mov	r3, r7
 80004ba:	ece3 1a01 	vstmia	r3!, {s3}
 80004be:	f109 0404 	add.w	r4, r9, #4
 80004c2:	f10c 0501 	add.w	r5, ip, #1
 80004c6:	ed96 7a00 	vldr	s14, [r6]
 80004ca:	e00e      	b.n	80004ea <LUFactorize+0x86>
 80004cc:	ed94 7a01 	vldr	s14, [r4, #4]
 80004d0:	edd3 0a01 	vldr	s1, [r3, #4]
 80004d4:	ed96 1a00 	vldr	s2, [r6]
 80004d8:	ee41 0a47 	vmls.f32	s1, s2, s14
 80004dc:	3404      	adds	r4, #4
 80004de:	edc3 0a01 	vstr	s1, [r3, #4]
 80004e2:	ed96 7a00 	vldr	s14, [r6]
 80004e6:	3501      	adds	r5, #1
 80004e8:	1d13      	adds	r3, r2, #4
 80004ea:	edd4 6a01 	vldr	s13, [r4, #4]
 80004ee:	ed93 0a00 	vldr	s0, [r3]
 80004f2:	ee07 0a66 	vmls.f32	s0, s14, s13
 80004f6:	3501      	adds	r5, #1
 80004f8:	461a      	mov	r2, r3
 80004fa:	3404      	adds	r4, #4
 80004fc:	2d05      	cmp	r5, #5
 80004fe:	eca2 0a01 	vstmia	r2!, {s0}
 8000502:	d1e3      	bne.n	80004cc <LUFactorize+0x68>
 8000504:	f108 0801 	add.w	r8, r8, #1
 8000508:	3618      	adds	r6, #24
 800050a:	3718      	adds	r7, #24
 800050c:	f1b8 0f05 	cmp.w	r8, #5
 8000510:	d1be      	bne.n	8000490 <LUFactorize+0x2c>
 8000512:	f1cc 0205 	rsb	r2, ip, #5
 8000516:	f850 3c1c 	ldr.w	r3, [r0, #-28]
 800051a:	f10c 0c01 	add.w	ip, ip, #1
 800051e:	f1bc 0f05 	cmp.w	ip, #5
 8000522:	f8cb 3004 	str.w	r3, [fp, #4]
 8000526:	f002 0401 	and.w	r4, r2, #1
 800052a:	f10b 0304 	add.w	r3, fp, #4
 800052e:	f1a0 021c 	sub.w	r2, r0, #28
 8000532:	dc16      	bgt.n	8000562 <LUFactorize+0xfe>
 8000534:	b154      	cbz	r4, 800054c <LUFactorize+0xe8>
 8000536:	f850 2c18 	ldr.w	r2, [r0, #-24]
 800053a:	f10c 0c01 	add.w	ip, ip, #1
 800053e:	f1bc 0f05 	cmp.w	ip, #5
 8000542:	f843 2f04 	str.w	r2, [r3, #4]!
 8000546:	f1a0 0218 	sub.w	r2, r0, #24
 800054a:	dc0a      	bgt.n	8000562 <LUFactorize+0xfe>
 800054c:	6854      	ldr	r4, [r2, #4]
 800054e:	605c      	str	r4, [r3, #4]
 8000550:	6894      	ldr	r4, [r2, #8]
 8000552:	f10c 0c02 	add.w	ip, ip, #2
 8000556:	609c      	str	r4, [r3, #8]
 8000558:	3208      	adds	r2, #8
 800055a:	3308      	adds	r3, #8
 800055c:	f1bc 0f05 	cmp.w	ip, #5
 8000560:	ddf4      	ble.n	800054c <LUFactorize+0xe8>
 8000562:	311c      	adds	r1, #28
 8000564:	301c      	adds	r0, #28
 8000566:	f1ba 0f06 	cmp.w	sl, #6
 800056a:	f10b 0b1c 	add.w	fp, fp, #28
 800056e:	d001      	beq.n	8000574 <LUFactorize+0x110>
 8000570:	46d4      	mov	ip, sl
 8000572:	e77f      	b.n	8000474 <LUFactorize+0x10>
 8000574:	e8bd 0ff0 	ldmia.w	sp!, {r4, r5, r6, r7, r8, r9, sl, fp}
 8000578:	4770      	bx	lr
 800057a:	bf00      	nop

0800057c <InvertLMatrix>:
 800057c:	b4f0      	push	{r4, r5, r6, r7}
 800057e:	2600      	movs	r6, #0
 8000580:	1c77      	adds	r7, r6, #1
 8000582:	2f06      	cmp	r7, #6
 8000584:	ed9f 6a28 	vldr	s12, [pc, #160]	; 8000628 <InvertLMatrix+0xac>
 8000588:	d043      	beq.n	8000612 <InvertLMatrix+0x96>
 800058a:	f100 0514 	add.w	r5, r0, #20
 800058e:	463c      	mov	r4, r7
 8000590:	42b4      	cmp	r4, r6
 8000592:	dd40      	ble.n	8000616 <InvertLMatrix+0x9a>
 8000594:	edd0 7a00 	vldr	s15, [r0]
 8000598:	ed95 7a01 	vldr	s14, [r5, #4]
 800059c:	eef0 6a46 	vmov.f32	s13, s12
 80005a0:	ee47 6a67 	vmls.f32	s13, s14, s15
 80005a4:	43f2      	mvns	r2, r6
 80005a6:	1911      	adds	r1, r2, r4
 80005a8:	1c72      	adds	r2, r6, #1
 80005aa:	f001 0c01 	and.w	ip, r1, #1
 80005ae:	1d29      	adds	r1, r5, #4
 80005b0:	42a2      	cmp	r2, r4
 80005b2:	f100 0318 	add.w	r3, r0, #24
 80005b6:	eef0 7a66 	vmov.f32	s15, s13
 80005ba:	d01f      	beq.n	80005fc <InvertLMatrix+0x80>
 80005bc:	f1bc 0f00 	cmp.w	ip, #0
 80005c0:	d00b      	beq.n	80005da <InvertLMatrix+0x5e>
 80005c2:	3104      	adds	r1, #4
 80005c4:	edd3 2a00 	vldr	s5, [r3]
 80005c8:	ed91 2a00 	vldr	s4, [r1]
 80005cc:	3201      	adds	r2, #1
 80005ce:	42a2      	cmp	r2, r4
 80005d0:	ee42 7a62 	vmls.f32	s15, s4, s5
 80005d4:	f100 0330 	add.w	r3, r0, #48	; 0x30
 80005d8:	d010      	beq.n	80005fc <InvertLMatrix+0x80>
 80005da:	ed91 1a01 	vldr	s2, [r1, #4]
 80005de:	edd3 1a00 	vldr	s3, [r3]
 80005e2:	ee41 7a61 	vmls.f32	s15, s2, s3
 80005e6:	edd3 0a06 	vldr	s1, [r3, #24]
 80005ea:	ed91 0a02 	vldr	s0, [r1, #8]
 80005ee:	3202      	adds	r2, #2
 80005f0:	3108      	adds	r1, #8
 80005f2:	3330      	adds	r3, #48	; 0x30
 80005f4:	42a2      	cmp	r2, r4
 80005f6:	ee40 7a60 	vmls.f32	s15, s0, s1
 80005fa:	d1ee      	bne.n	80005da <InvertLMatrix+0x5e>
 80005fc:	3401      	adds	r4, #1
 80005fe:	edc5 7a01 	vstr	s15, [r5, #4]
 8000602:	3518      	adds	r5, #24
 8000604:	2c06      	cmp	r4, #6
 8000606:	d1c3      	bne.n	8000590 <InvertLMatrix+0x14>
 8000608:	463e      	mov	r6, r7
 800060a:	1c77      	adds	r7, r6, #1
 800060c:	301c      	adds	r0, #28
 800060e:	2f06      	cmp	r7, #6
 8000610:	d1bb      	bne.n	800058a <InvertLMatrix+0xe>
 8000612:	bcf0      	pop	{r4, r5, r6, r7}
 8000614:	4770      	bx	lr
 8000616:	eddf 7a04 	vldr	s15, [pc, #16]	; 8000628 <InvertLMatrix+0xac>
 800061a:	3401      	adds	r4, #1
 800061c:	edc5 7a01 	vstr	s15, [r5, #4]
 8000620:	3518      	adds	r5, #24
 8000622:	2c06      	cmp	r4, #6
 8000624:	d1b4      	bne.n	8000590 <InvertLMatrix+0x14>
 8000626:	e7ef      	b.n	8000608 <InvertLMatrix+0x8c>
 8000628:	00000000 	andeq	r0, r0, r0

0800062c <InvertUMatrix>:
 800062c:	ed90 5a23 	vldr	s10, [r0, #140]	; 0x8c
 8000630:	edd0 5a1c 	vldr	s11, [r0, #112]	; 0x70
 8000634:	ed90 6a15 	vldr	s12, [r0, #84]	; 0x54
 8000638:	edd0 6a0e 	vldr	s13, [r0, #56]	; 0x38
 800063c:	ed90 7a07 	vldr	s14, [r0, #28]
 8000640:	edd0 4a00 	vldr	s9, [r0]
 8000644:	eef7 7a00 	vmov.f32	s15, #112	; 0x70
 8000648:	ee87 6a86 	vdiv.f32	s12, s15, s12
 800064c:	e92d 01f0 	stmdb	sp!, {r4, r5, r6, r7, r8}
 8000650:	4606      	mov	r6, r0
 8000652:	f04f 0c04 	mov.w	ip, #4
 8000656:	ee87 5a85 	vdiv.f32	s10, s15, s10
 800065a:	eec7 5aa5 	vdiv.f32	s11, s15, s11
 800065e:	eec7 6aa6 	vdiv.f32	s13, s15, s13
 8000662:	ee87 7a87 	vdiv.f32	s14, s15, s14
 8000666:	eec7 7aa4 	vdiv.f32	s15, s15, s9
 800066a:	ed80 6a15 	vstr	s12, [r0, #84]	; 0x54
 800066e:	ee17 2a90 	vmov	r2, s15
 8000672:	ed80 5a23 	vstr	s10, [r0, #140]	; 0x8c
 8000676:	edc0 5a1c 	vstr	s11, [r0, #112]	; 0x70
 800067a:	edc0 6a0e 	vstr	s13, [r0, #56]	; 0x38
 800067e:	ed80 7a07 	vstr	s14, [r0, #28]
 8000682:	ed9f 6a32 	vldr	s12, [pc, #200]	; 800074c <InvertUMatrix+0x120>
 8000686:	f846 2b8c 	str.w	r2, [r6], #140
 800068a:	f1bc 0f00 	cmp.w	ip, #0
 800068e:	f10c 0501 	add.w	r5, ip, #1
 8000692:	4660      	mov	r0, ip
 8000694:	bfa4      	itt	ge
 8000696:	f1a6 0414 	subge.w	r4, r6, #20
 800069a:	4637      	movge	r7, r6
 800069c:	db3f      	blt.n	800071e <InvertUMatrix+0xf2>
 800069e:	4285      	cmp	r5, r0
 80006a0:	dd46      	ble.n	8000730 <InvertUMatrix+0x104>
 80006a2:	ed54 0a01 	vldr	s1, [r4, #-4]
 80006a6:	ed96 1a00 	vldr	s2, [r6]
 80006aa:	eeb0 0a46 	vmov.f32	s0, s12
 80006ae:	ee00 0ac1 	vmls.f32	s0, s1, s2
 80006b2:	1b42      	subs	r2, r0, r5
 80006b4:	43d1      	mvns	r1, r2
 80006b6:	1e6a      	subs	r2, r5, #1
 80006b8:	f001 0801 	and.w	r8, r1, #1
 80006bc:	1f21      	subs	r1, r4, #4
 80006be:	4282      	cmp	r2, r0
 80006c0:	f1a6 0318 	sub.w	r3, r6, #24
 80006c4:	eef0 7a40 	vmov.f32	s15, s0
 80006c8:	d01e      	beq.n	8000708 <InvertUMatrix+0xdc>
 80006ca:	f1b8 0f00 	cmp.w	r8, #0
 80006ce:	d00a      	beq.n	80006e6 <InvertUMatrix+0xba>
 80006d0:	ed93 7a00 	vldr	s14, [r3]
 80006d4:	ed31 4a01 	vldmdb	r1!, {s8}
 80006d8:	3a01      	subs	r2, #1
 80006da:	4282      	cmp	r2, r0
 80006dc:	ee44 7a47 	vmls.f32	s15, s8, s14
 80006e0:	f1a6 0330 	sub.w	r3, r6, #48	; 0x30
 80006e4:	d010      	beq.n	8000708 <InvertUMatrix+0xdc>
 80006e6:	ed51 2a01 	vldr	s5, [r1, #-4]
 80006ea:	ed93 3a00 	vldr	s6, [r3]
 80006ee:	ee42 7ac3 	vmls.f32	s15, s5, s6
 80006f2:	ed13 2a06 	vldr	s4, [r3, #-24]	; 0xffffffe8
 80006f6:	ed51 1a02 	vldr	s3, [r1, #-8]
 80006fa:	3a02      	subs	r2, #2
 80006fc:	3908      	subs	r1, #8
 80006fe:	3b30      	subs	r3, #48	; 0x30
 8000700:	4282      	cmp	r2, r0
 8000702:	ee41 7ac2 	vmls.f32	s15, s3, s4
 8000706:	d1ee      	bne.n	80006e6 <InvertUMatrix+0xba>
 8000708:	3f1c      	subs	r7, #28
 800070a:	edd7 3a00 	vldr	s7, [r7]
 800070e:	ee63 7aa7 	vmul.f32	s15, s7, s15
 8000712:	3801      	subs	r0, #1
 8000714:	ed44 7a01 	vstr	s15, [r4, #-4]
 8000718:	3c18      	subs	r4, #24
 800071a:	1c43      	adds	r3, r0, #1
 800071c:	d1bf      	bne.n	800069e <InvertUMatrix+0x72>
 800071e:	f10c 3cff 	add.w	ip, ip, #4294967295
 8000722:	3e1c      	subs	r6, #28
 8000724:	f11c 0f02 	cmn.w	ip, #2
 8000728:	d1af      	bne.n	800068a <InvertUMatrix+0x5e>
 800072a:	e8bd 01f0 	ldmia.w	sp!, {r4, r5, r6, r7, r8}
 800072e:	4770      	bx	lr
 8000730:	3f1c      	subs	r7, #28
 8000732:	edd7 3a00 	vldr	s7, [r7]
 8000736:	eddf 7a05 	vldr	s15, [pc, #20]	; 800074c <InvertUMatrix+0x120>
 800073a:	ee63 7aa7 	vmul.f32	s15, s7, s15
 800073e:	3801      	subs	r0, #1
 8000740:	ed44 7a01 	vstr	s15, [r4, #-4]
 8000744:	3c18      	subs	r4, #24
 8000746:	1c43      	adds	r3, r0, #1
 8000748:	d1a9      	bne.n	800069e <InvertUMatrix+0x72>
 800074a:	e7e8      	b.n	800071e <InvertUMatrix+0xf2>
 800074c:	00000000 	andeq	r0, r0, r0

08000750 <MatrixMultiply>:
 8000750:	e92d 0ff0 	stmdb	sp!, {r4, r5, r6, r7, r8, r9, sl, fp}
 8000754:	b084      	sub	sp, #16
 8000756:	2900      	cmp	r1, #0
 8000758:	9303      	str	r3, [sp, #12]
 800075a:	9102      	str	r1, [sp, #8]
 800075c:	9b0c      	ldr	r3, [sp, #48]	; 0x30
 800075e:	dd51      	ble.n	8000804 <MatrixMultiply+0xb4>
 8000760:	0091      	lsls	r1, r2, #2
 8000762:	f8dd a034 	ldr.w	sl, [sp, #52]	; 0x34
 8000766:	9101      	str	r1, [sp, #4]
 8000768:	ed9f 6a2d 	vldr	s12, [pc, #180]	; 8000820 <MatrixMultiply+0xd0>
 800076c:	009e      	lsls	r6, r3, #2
 800076e:	4681      	mov	r9, r0
 8000770:	f04f 0b00 	mov.w	fp, #0
 8000774:	2b00      	cmp	r3, #0
 8000776:	dd3d      	ble.n	80007f4 <MatrixMultiply+0xa4>
 8000778:	9f03      	ldr	r7, [sp, #12]
 800077a:	46d0      	mov	r8, sl
 800077c:	f04f 0c00 	mov.w	ip, #0
 8000780:	2a00      	cmp	r2, #0
 8000782:	dd43      	ble.n	800080c <MatrixMultiply+0xbc>
 8000784:	4649      	mov	r1, r9
 8000786:	edd7 7a00 	vldr	s15, [r7]
 800078a:	ecf1 1a01 	vldmia	r1!, {s3}
 800078e:	eeb0 1a46 	vmov.f32	s2, s12
 8000792:	ee01 1aa7 	vmla.f32	s2, s3, s15
 8000796:	2401      	movs	r4, #1
 8000798:	1e55      	subs	r5, r2, #1
 800079a:	4294      	cmp	r4, r2
 800079c:	ea05 0004 	and.w	r0, r5, r4
 80007a0:	eef0 7a41 	vmov.f32	s15, s2
 80007a4:	eb07 0506 	add.w	r5, r7, r6
 80007a8:	d01d      	beq.n	80007e6 <MatrixMultiply+0x96>
 80007aa:	b148      	cbz	r0, 80007c0 <MatrixMultiply+0x70>
 80007ac:	edd5 2a00 	vldr	s5, [r5]
 80007b0:	ecb1 2a01 	vldmia	r1!, {s4}
 80007b4:	2402      	movs	r4, #2
 80007b6:	4294      	cmp	r4, r2
 80007b8:	ee42 7a22 	vmla.f32	s15, s4, s5
 80007bc:	4435      	add	r5, r6
 80007be:	d012      	beq.n	80007e6 <MatrixMultiply+0x96>
 80007c0:	4608      	mov	r0, r1
 80007c2:	ecb0 0a01 	vldmia	r0!, {s0}
 80007c6:	edd5 0a00 	vldr	s1, [r5]
 80007ca:	19ad      	adds	r5, r5, r6
 80007cc:	ee40 7a20 	vmla.f32	s15, s0, s1
 80007d0:	edd1 6a01 	vldr	s13, [r1, #4]
 80007d4:	ed95 7a00 	vldr	s14, [r5]
 80007d8:	3402      	adds	r4, #2
 80007da:	1d01      	adds	r1, r0, #4
 80007dc:	4294      	cmp	r4, r2
 80007de:	ee46 7a87 	vmla.f32	s15, s13, s14
 80007e2:	4435      	add	r5, r6
 80007e4:	d1ec      	bne.n	80007c0 <MatrixMultiply+0x70>
 80007e6:	f10c 0c01 	add.w	ip, ip, #1
 80007ea:	3704      	adds	r7, #4
 80007ec:	459c      	cmp	ip, r3
 80007ee:	ece8 7a01 	vstmia	r8!, {s15}
 80007f2:	d1c5      	bne.n	8000780 <MatrixMultiply+0x30>
 80007f4:	9902      	ldr	r1, [sp, #8]
 80007f6:	9801      	ldr	r0, [sp, #4]
 80007f8:	f10b 0b01 	add.w	fp, fp, #1
 80007fc:	458b      	cmp	fp, r1
 80007fe:	44b2      	add	sl, r6
 8000800:	4481      	add	r9, r0
 8000802:	d1b7      	bne.n	8000774 <MatrixMultiply+0x24>
 8000804:	b004      	add	sp, #16
 8000806:	e8bd 0ff0 	ldmia.w	sp!, {r4, r5, r6, r7, r8, r9, sl, fp}
 800080a:	4770      	bx	lr
 800080c:	eddf 7a04 	vldr	s15, [pc, #16]	; 8000820 <MatrixMultiply+0xd0>
 8000810:	f10c 0c01 	add.w	ip, ip, #1
 8000814:	3704      	adds	r7, #4
 8000816:	459c      	cmp	ip, r3
 8000818:	ece8 7a01 	vstmia	r8!, {s15}
 800081c:	d1b0      	bne.n	8000780 <MatrixMultiply+0x30>
 800081e:	e7e9      	b.n	80007f4 <MatrixMultiply+0xa4>
 8000820:	00000000 	andeq	r0, r0, r0

08000824 <MultiplyULMatrix>:
 8000824:	2300      	movs	r3, #0
 8000826:	ed9f 6a2c 	vldr	s12, [pc, #176]	; 80008d8 <MultiplyULMatrix+0xb4>
 800082a:	e92d 07f0 	stmdb	sp!, {r4, r5, r6, r7, r8, r9, sl}
 800082e:	4699      	mov	r9, r3
 8000830:	4690      	mov	r8, r2
 8000832:	2700      	movs	r7, #0
 8000834:	454f      	cmp	r7, r9
 8000836:	bfac      	ite	ge
 8000838:	463d      	movge	r5, r7
 800083a:	464d      	movlt	r5, r9
 800083c:	eb05 0645 	add.w	r6, r5, r5, lsl #1
 8000840:	eb07 0446 	add.w	r4, r7, r6, lsl #1
 8000844:	18ee      	adds	r6, r5, r3
 8000846:	eb01 0c84 	add.w	ip, r1, r4, lsl #2
 800084a:	1e74      	subs	r4, r6, #1
 800084c:	eb00 0684 	add.w	r6, r0, r4, lsl #2
 8000850:	ed96 7a01 	vldr	s14, [r6, #4]
 8000854:	eddc 7a00 	vldr	s15, [ip]
 8000858:	eef0 6a46 	vmov.f32	s13, s12
 800085c:	ee47 6a27 	vmla.f32	s13, s14, s15
 8000860:	f1c5 0a05 	rsb	sl, r5, #5
 8000864:	3501      	adds	r5, #1
 8000866:	3604      	adds	r6, #4
 8000868:	2d05      	cmp	r5, #5
 800086a:	f10c 0418 	add.w	r4, ip, #24
 800086e:	f00a 0a01 	and.w	sl, sl, #1
 8000872:	eef0 7a66 	vmov.f32	s15, s13
 8000876:	dc1f      	bgt.n	80008b8 <MultiplyULMatrix+0x94>
 8000878:	f1ba 0f00 	cmp.w	sl, #0
 800087c:	d00b      	beq.n	8000896 <MultiplyULMatrix+0x72>
 800087e:	3604      	adds	r6, #4
 8000880:	ed96 2a00 	vldr	s4, [r6]
 8000884:	eddc 2a06 	vldr	s5, [ip, #24]
 8000888:	3501      	adds	r5, #1
 800088a:	2d05      	cmp	r5, #5
 800088c:	ee42 7a22 	vmla.f32	s15, s4, s5
 8000890:	f10c 0430 	add.w	r4, ip, #48	; 0x30
 8000894:	dc10      	bgt.n	80008b8 <MultiplyULMatrix+0x94>
 8000896:	ed96 1a01 	vldr	s2, [r6, #4]
 800089a:	edd4 1a00 	vldr	s3, [r4]
 800089e:	ee41 7a21 	vmla.f32	s15, s2, s3
 80008a2:	edd4 0a06 	vldr	s1, [r4, #24]
 80008a6:	ed96 0a02 	vldr	s0, [r6, #8]
 80008aa:	3502      	adds	r5, #2
 80008ac:	3608      	adds	r6, #8
 80008ae:	3430      	adds	r4, #48	; 0x30
 80008b0:	2d05      	cmp	r5, #5
 80008b2:	ee40 7a20 	vmla.f32	s15, s0, s1
 80008b6:	ddee      	ble.n	8000896 <MultiplyULMatrix+0x72>
 80008b8:	3701      	adds	r7, #1
 80008ba:	2f06      	cmp	r7, #6
 80008bc:	ece8 7a01 	vstmia	r8!, {s15}
 80008c0:	d1b8      	bne.n	8000834 <MultiplyULMatrix+0x10>
 80008c2:	f109 0901 	add.w	r9, r9, #1
 80008c6:	3218      	adds	r2, #24
 80008c8:	3306      	adds	r3, #6
 80008ca:	f1b9 0f06 	cmp.w	r9, #6
 80008ce:	d1af      	bne.n	8000830 <MultiplyULMatrix+0xc>
 80008d0:	e8bd 07f0 	ldmia.w	sp!, {r4, r5, r6, r7, r8, r9, sl}
 80008d4:	4770      	bx	lr
 80008d6:	bf00      	nop
 80008d8:	00000000 	andeq	r0, r0, r0

080008dc <InvertMatrix>:
 80008dc:	b5f8      	push	{r3, r4, r5, r6, r7, lr}
 80008de:	af00      	add	r7, sp, #0
 80008e0:	b0a6      	sub	sp, #152	; 0x98
 80008e2:	466c      	mov	r4, sp
 80008e4:	b0a6      	sub	sp, #152	; 0x98
 80008e6:	4621      	mov	r1, r4
 80008e8:	466a      	mov	r2, sp
 80008ea:	4606      	mov	r6, r0
 80008ec:	f7ff fdba 	bl	8000464 <LUFactorize>
 80008f0:	4620      	mov	r0, r4
 80008f2:	f7ff fe43 	bl	800057c <InvertLMatrix>
 80008f6:	4668      	mov	r0, sp
 80008f8:	f7ff fe98 	bl	800062c <InvertUMatrix>
 80008fc:	4668      	mov	r0, sp
 80008fe:	4621      	mov	r1, r4
 8000900:	4632      	mov	r2, r6
 8000902:	f7ff ff8f 	bl	8000824 <MultiplyULMatrix>
 8000906:	46bd      	mov	sp, r7
 8000908:	bdf8      	pop	{r3, r4, r5, r6, r7, pc}
 800090a:	bf00      	nop

0800090c <vTaskPrintTimer>:
 800090c:	b500      	push	{lr}
 800090e:	b087      	sub	sp, #28
 8000910:	22a6      	movs	r2, #166	; 0xa6
 8000912:	2301      	movs	r3, #1
 8000914:	2103      	movs	r1, #3
 8000916:	f88d 2010 	strb.w	r2, [sp, #16]
 800091a:	a804      	add	r0, sp, #16
 800091c:	2200      	movs	r2, #0
 800091e:	f88d 3011 	strb.w	r3, [sp, #17]
 8000922:	f88d 2012 	strb.w	r2, [sp, #18]
 8000926:	f000 f86d 	bl	8000a04 <CRC8>
 800092a:	23aa      	movs	r3, #170	; 0xaa
 800092c:	22bb      	movs	r2, #187	; 0xbb
 800092e:	2106      	movs	r1, #6
 8000930:	f88d 0013 	strb.w	r0, [sp, #19]
 8000934:	a804      	add	r0, sp, #16
 8000936:	f88d 3014 	strb.w	r3, [sp, #20]
 800093a:	f88d 2015 	strb.w	r2, [sp, #21]
 800093e:	f000 f88f 	bl	8000a60 <CRC16>
 8000942:	2106      	movs	r1, #6
 8000944:	0a03      	lsrs	r3, r0, #8
 8000946:	a804      	add	r0, sp, #16
 8000948:	f88d 3016 	strb.w	r3, [sp, #22]
 800094c:	f000 f888 	bl	8000a60 <CRC16>
 8000950:	f88d 0017 	strb.w	r0, [sp, #23]
 8000954:	f241 3088 	movw	r0, #5000	; 0x1388
 8000958:	f002 fade 	bl	8002f18 <vTaskDelay>
 800095c:	4668      	mov	r0, sp
 800095e:	f000 fa11 	bl	8000d84 <GetHMC5883LID>
 8000962:	e7f7      	b.n	8000954 <vTaskPrintTimer+0x48>

08000964 <itoa>:
 8000964:	b4f0      	push	{r4, r5, r6, r7}
 8000966:	4603      	mov	r3, r0
 8000968:	b920      	cbnz	r0, 8000974 <itoa+0x10>
 800096a:	2330      	movs	r3, #48	; 0x30
 800096c:	728b      	strb	r3, [r1, #10]
 800096e:	200a      	movs	r0, #10
 8000970:	bcf0      	pop	{r4, r5, r6, r7}
 8000972:	4770      	bx	lr
 8000974:	f248 26a4 	movw	r6, #33444	; 0x82a4
 8000978:	f246 6767 	movw	r7, #26215	; 0x6667
 800097c:	220a      	movs	r2, #10
 800097e:	f6c0 0600 	movt	r6, #2048	; 0x800
 8000982:	f2c6 6766 	movt	r7, #26214	; 0x6666
 8000986:	17dd      	asrs	r5, r3, #31
 8000988:	fb87 0403 	smull	r0, r4, r7, r3
 800098c:	ebc5 04a4 	rsb	r4, r5, r4, asr #2
 8000990:	eb04 0084 	add.w	r0, r4, r4, lsl #2
 8000994:	eba3 0c40 	sub.w	ip, r3, r0, lsl #1
 8000998:	4610      	mov	r0, r2
 800099a:	f816 500c 	ldrb.w	r5, [r6, ip]
 800099e:	548d      	strb	r5, [r1, r2]
 80009a0:	3a01      	subs	r2, #1
 80009a2:	bf0c      	ite	eq
 80009a4:	2500      	moveq	r5, #0
 80009a6:	2501      	movne	r5, #1
 80009a8:	4623      	mov	r3, r4
 80009aa:	2c00      	cmp	r4, #0
 80009ac:	bf0c      	ite	eq
 80009ae:	2400      	moveq	r4, #0
 80009b0:	f005 0401 	andne.w	r4, r5, #1
 80009b4:	2c00      	cmp	r4, #0
 80009b6:	d1e6      	bne.n	8000986 <itoa+0x22>
 80009b8:	e7da      	b.n	8000970 <itoa+0xc>
 80009ba:	bf00      	nop

080009bc <vUSBQueueInit>:
 80009bc:	b508      	push	{r3, lr}
 80009be:	f44f 7080 	mov.w	r0, #256	; 0x100
 80009c2:	2101      	movs	r1, #1
 80009c4:	2200      	movs	r2, #0
 80009c6:	f002 fca9 	bl	800331c <xQueueGenericCreate>
 80009ca:	f240 1374 	movw	r3, #372	; 0x174
 80009ce:	f2c2 0300 	movt	r3, #8192	; 0x2000
 80009d2:	6018      	str	r0, [r3, #0]
 80009d4:	bd08      	pop	{r3, pc}
 80009d6:	bf00      	nop

080009d8 <xUSBSendData>:
 80009d8:	b538      	push	{r3, r4, r5, lr}
 80009da:	f240 1374 	movw	r3, #372	; 0x174
 80009de:	f2c2 0300 	movt	r3, #8192	; 0x2000
 80009e2:	4605      	mov	r5, r0
 80009e4:	791b      	ldrb	r3, [r3, #4]
 80009e6:	460c      	mov	r4, r1
 80009e8:	b90b      	cbnz	r3, 80009ee <xUSBSendData+0x16>
 80009ea:	4618      	mov	r0, r3
 80009ec:	bd38      	pop	{r3, r4, r5, pc}
 80009ee:	f002 f96b 	bl	8002cc8 <vTaskSuspendAll>
 80009f2:	4621      	mov	r1, r4
 80009f4:	4628      	mov	r0, r5
 80009f6:	f001 fdfd 	bl	80025f4 <cdc_DataTx>
 80009fa:	f002 fa1b 	bl	8002e34 <xTaskResumeAll>
 80009fe:	2001      	movs	r0, #1
 8000a00:	bd38      	pop	{r3, r4, r5, pc}
 8000a02:	bf00      	nop

08000a04 <CRC8>:
 8000a04:	b430      	push	{r4, r5}
 8000a06:	2900      	cmp	r1, #0
 8000a08:	d028      	beq.n	8000a5c <CRC8+0x58>
 8000a0a:	4603      	mov	r3, r0
 8000a0c:	f647 7488 	movw	r4, #32648	; 0x7f88
 8000a10:	f813 2b01 	ldrb.w	r2, [r3], #1
 8000a14:	43c5      	mvns	r5, r0
 8000a16:	1841      	adds	r1, r0, r1
 8000a18:	f6c0 0400 	movt	r4, #2048	; 0x800
 8000a1c:	1948      	adds	r0, r1, r5
 8000a1e:	428b      	cmp	r3, r1
 8000a20:	f000 0501 	and.w	r5, r0, #1
 8000a24:	5ca0      	ldrb	r0, [r4, r2]
 8000a26:	d017      	beq.n	8000a58 <CRC8+0x54>
 8000a28:	b13d      	cbz	r5, 8000a3a <CRC8+0x36>
 8000a2a:	f813 cb01 	ldrb.w	ip, [r3], #1
 8000a2e:	ea80 020c 	eor.w	r2, r0, ip
 8000a32:	b2d0      	uxtb	r0, r2
 8000a34:	428b      	cmp	r3, r1
 8000a36:	5c20      	ldrb	r0, [r4, r0]
 8000a38:	d00e      	beq.n	8000a58 <CRC8+0x54>
 8000a3a:	461a      	mov	r2, r3
 8000a3c:	785d      	ldrb	r5, [r3, #1]
 8000a3e:	f812 cb01 	ldrb.w	ip, [r2], #1
 8000a42:	ea80 030c 	eor.w	r3, r0, ip
 8000a46:	b2d8      	uxtb	r0, r3
 8000a48:	1c53      	adds	r3, r2, #1
 8000a4a:	5c22      	ldrb	r2, [r4, r0]
 8000a4c:	ea82 0c05 	eor.w	ip, r2, r5
 8000a50:	428b      	cmp	r3, r1
 8000a52:	f814 000c 	ldrb.w	r0, [r4, ip]
 8000a56:	d1f0      	bne.n	8000a3a <CRC8+0x36>
 8000a58:	bc30      	pop	{r4, r5}
 8000a5a:	4770      	bx	lr
 8000a5c:	4608      	mov	r0, r1
 8000a5e:	e7fb      	b.n	8000a58 <CRC8+0x54>

08000a60 <CRC16>:
 8000a60:	b470      	push	{r4, r5, r6}
 8000a62:	2900      	cmp	r1, #0
 8000a64:	d036      	beq.n	8000ad4 <CRC16+0x74>
 8000a66:	4603      	mov	r3, r0
 8000a68:	f647 7488 	movw	r4, #32648	; 0x7f88
 8000a6c:	f813 5b01 	ldrb.w	r5, [r3], #1
 8000a70:	f6c0 0400 	movt	r4, #2048	; 0x800
 8000a74:	f085 02ff 	eor.w	r2, r5, #255	; 0xff
 8000a78:	eb04 0c42 	add.w	ip, r4, r2, lsl #1
 8000a7c:	43c5      	mvns	r5, r0
 8000a7e:	1841      	adds	r1, r0, r1
 8000a80:	f8bc 2100 	ldrh.w	r2, [ip, #256]	; 0x100
 8000a84:	1948      	adds	r0, r1, r5
 8000a86:	428b      	cmp	r3, r1
 8000a88:	f000 0501 	and.w	r5, r0, #1
 8000a8c:	f482 407f 	eor.w	r0, r2, #65280	; 0xff00
 8000a90:	d01e      	beq.n	8000ad0 <CRC16+0x70>
 8000a92:	b125      	cbz	r5, 8000a9e <CRC16+0x3e>
 8000a94:	f813 cb01 	ldrb.w	ip, [r3], #1
 8000a98:	ea8c 2210 	eor.w	r2, ip, r0, lsr #8
 8000a9c:	e00f      	b.n	8000abe <CRC16+0x5e>
 8000a9e:	461a      	mov	r2, r3
 8000aa0:	785d      	ldrb	r5, [r3, #1]
 8000aa2:	f812 3b01 	ldrb.w	r3, [r2], #1
 8000aa6:	ea83 2610 	eor.w	r6, r3, r0, lsr #8
 8000aaa:	eb04 0646 	add.w	r6, r4, r6, lsl #1
 8000aae:	1c53      	adds	r3, r2, #1
 8000ab0:	f8b6 c100 	ldrh.w	ip, [r6, #256]	; 0x100
 8000ab4:	ea8c 2000 	eor.w	r0, ip, r0, lsl #8
 8000ab8:	b280      	uxth	r0, r0
 8000aba:	ea85 2210 	eor.w	r2, r5, r0, lsr #8
 8000abe:	eb04 0c42 	add.w	ip, r4, r2, lsl #1
 8000ac2:	428b      	cmp	r3, r1
 8000ac4:	f8bc 2100 	ldrh.w	r2, [ip, #256]	; 0x100
 8000ac8:	ea82 2000 	eor.w	r0, r2, r0, lsl #8
 8000acc:	b280      	uxth	r0, r0
 8000ace:	d1e6      	bne.n	8000a9e <CRC16+0x3e>
 8000ad0:	bc70      	pop	{r4, r5, r6}
 8000ad2:	4770      	bx	lr
 8000ad4:	f64f 70ff 	movw	r0, #65535	; 0xffff
 8000ad8:	e7fa      	b.n	8000ad0 <CRC16+0x70>
 8000ada:	bf00      	nop

08000adc <GetSector>:
 8000adc:	f100 4278 	add.w	r2, r0, #4160749568	; 0xf8000000
 8000ae0:	f643 73ff 	movw	r3, #16383	; 0x3fff
 8000ae4:	429a      	cmp	r2, r3
 8000ae6:	d90f      	bls.n	8000b08 <GetSector+0x2c>
 8000ae8:	f5a2 4280 	sub.w	r2, r2, #16384	; 0x4000
 8000aec:	429a      	cmp	r2, r3
 8000aee:	d801      	bhi.n	8000af4 <GetSector+0x18>
 8000af0:	2008      	movs	r0, #8
 8000af2:	4770      	bx	lr
 8000af4:	f44f 4c00 	mov.w	ip, #32768	; 0x8000
 8000af8:	f2cf 7cff 	movt	ip, #63487	; 0xf7ff
 8000afc:	eb00 010c 	add.w	r1, r0, ip
 8000b00:	4299      	cmp	r1, r3
 8000b02:	d803      	bhi.n	8000b0c <GetSector+0x30>
 8000b04:	2010      	movs	r0, #16
 8000b06:	4770      	bx	lr
 8000b08:	2000      	movs	r0, #0
 8000b0a:	4770      	bx	lr
 8000b0c:	f44f 4180 	mov.w	r1, #16384	; 0x4000
 8000b10:	f2cf 71ff 	movt	r1, #63487	; 0xf7ff
 8000b14:	1842      	adds	r2, r0, r1
 8000b16:	429a      	cmp	r2, r3
 8000b18:	d801      	bhi.n	8000b1e <GetSector+0x42>
 8000b1a:	2018      	movs	r0, #24
 8000b1c:	4770      	bx	lr
 8000b1e:	f100 4377 	add.w	r3, r0, #4143972352	; 0xf7000000
 8000b22:	f503 0c7f 	add.w	ip, r3, #16711680	; 0xff0000
 8000b26:	f5bc 3f80 	cmp.w	ip, #65536	; 0x10000
 8000b2a:	d201      	bcs.n	8000b30 <GetSector+0x54>
 8000b2c:	2020      	movs	r0, #32
 8000b2e:	4770      	bx	lr
 8000b30:	f64f 72ff 	movw	r2, #65535	; 0xffff
 8000b34:	f503 017e 	add.w	r1, r3, #16646144	; 0xfe0000
 8000b38:	f2c0 0201 	movt	r2, #1
 8000b3c:	4291      	cmp	r1, r2
 8000b3e:	d801      	bhi.n	8000b44 <GetSector+0x68>
 8000b40:	2028      	movs	r0, #40	; 0x28
 8000b42:	4770      	bx	lr
 8000b44:	f503 037c 	add.w	r3, r3, #16515072	; 0xfc0000
 8000b48:	4293      	cmp	r3, r2
 8000b4a:	d801      	bhi.n	8000b50 <GetSector+0x74>
 8000b4c:	2030      	movs	r0, #48	; 0x30
 8000b4e:	4770      	bx	lr
 8000b50:	f100 4c77 	add.w	ip, r0, #4143972352	; 0xf7000000
 8000b54:	f50c 017a 	add.w	r1, ip, #16384000	; 0xfa0000
 8000b58:	4291      	cmp	r1, r2
 8000b5a:	d801      	bhi.n	8000b60 <GetSector+0x84>
 8000b5c:	2038      	movs	r0, #56	; 0x38
 8000b5e:	4770      	bx	lr
 8000b60:	f100 4177 	add.w	r1, r0, #4143972352	; 0xf7000000
 8000b64:	f501 0378 	add.w	r3, r1, #16252928	; 0xf80000
 8000b68:	4293      	cmp	r3, r2
 8000b6a:	d801      	bhi.n	8000b70 <GetSector+0x94>
 8000b6c:	2040      	movs	r0, #64	; 0x40
 8000b6e:	4770      	bx	lr
 8000b70:	f100 4377 	add.w	r3, r0, #4143972352	; 0xf7000000
 8000b74:	f503 0c76 	add.w	ip, r3, #16121856	; 0xf60000
 8000b78:	4594      	cmp	ip, r2
 8000b7a:	d801      	bhi.n	8000b80 <GetSector+0xa4>
 8000b7c:	2048      	movs	r0, #72	; 0x48
 8000b7e:	4770      	bx	lr
 8000b80:	f100 4277 	add.w	r2, r0, #4143972352	; 0xf7000000
 8000b84:	f502 0074 	add.w	r0, r2, #15990784	; 0xf40000
 8000b88:	f5b0 3f00 	cmp.w	r0, #131072	; 0x20000
 8000b8c:	bf2c      	ite	cs
 8000b8e:	2058      	movcs	r0, #88	; 0x58
 8000b90:	2050      	movcc	r0, #80	; 0x50
 8000b92:	4770      	bx	lr

08000b94 <FLASH_If_Init>:
 8000b94:	b508      	push	{r3, lr}
 8000b96:	f004 fe59 	bl	800584c <FLASH_Unlock>
 8000b9a:	20f3      	movs	r0, #243	; 0xf3
 8000b9c:	e8bd 4008 	ldmia.w	sp!, {r3, lr}
 8000ba0:	f004 bed4 	b.w	800594c <FLASH_ClearFlag>

08000ba4 <FLASH_If_Erase>:
 8000ba4:	b538      	push	{r3, r4, r5, lr}
 8000ba6:	f7ff ff99 	bl	8000adc <GetSector>
 8000baa:	2858      	cmp	r0, #88	; 0x58
 8000bac:	4604      	mov	r4, r0
 8000bae:	d81f      	bhi.n	8000bf0 <FLASH_If_Erase+0x4c>
 8000bb0:	2102      	movs	r1, #2
 8000bb2:	f1c0 0558 	rsb	r5, r0, #88	; 0x58
 8000bb6:	f004 ffeb 	bl	8005b90 <FLASH_EraseSector>
 8000bba:	2808      	cmp	r0, #8
 8000bbc:	f3c5 05c0 	ubfx	r5, r5, #3, #1
 8000bc0:	d114      	bne.n	8000bec <FLASH_If_Erase+0x48>
 8000bc2:	3408      	adds	r4, #8
 8000bc4:	2c58      	cmp	r4, #88	; 0x58
 8000bc6:	d813      	bhi.n	8000bf0 <FLASH_If_Erase+0x4c>
 8000bc8:	b11d      	cbz	r5, 8000bd2 <FLASH_If_Erase+0x2e>
 8000bca:	e009      	b.n	8000be0 <FLASH_If_Erase+0x3c>
 8000bcc:	3408      	adds	r4, #8
 8000bce:	2c58      	cmp	r4, #88	; 0x58
 8000bd0:	d80e      	bhi.n	8000bf0 <FLASH_If_Erase+0x4c>
 8000bd2:	2102      	movs	r1, #2
 8000bd4:	4620      	mov	r0, r4
 8000bd6:	f004 ffdb 	bl	8005b90 <FLASH_EraseSector>
 8000bda:	2808      	cmp	r0, #8
 8000bdc:	d106      	bne.n	8000bec <FLASH_If_Erase+0x48>
 8000bde:	3408      	adds	r4, #8
 8000be0:	2102      	movs	r1, #2
 8000be2:	4620      	mov	r0, r4
 8000be4:	f004 ffd4 	bl	8005b90 <FLASH_EraseSector>
 8000be8:	2808      	cmp	r0, #8
 8000bea:	d0ef      	beq.n	8000bcc <FLASH_If_Erase+0x28>
 8000bec:	2001      	movs	r0, #1
 8000bee:	bd38      	pop	{r3, r4, r5, pc}
 8000bf0:	2000      	movs	r0, #0
 8000bf2:	bd38      	pop	{r3, r4, r5, pc}

08000bf4 <FLASH_If_Write>:
 8000bf4:	e92d 41f0 	stmdb	sp!, {r4, r5, r6, r7, r8, lr}
 8000bf8:	4690      	mov	r8, r2
 8000bfa:	4604      	mov	r4, r0
 8000bfc:	2a00      	cmp	r2, #0
 8000bfe:	d054      	beq.n	8000caa <FLASH_If_Write+0xb6>
 8000c00:	6803      	ldr	r3, [r0, #0]
 8000c02:	f64f 77fb 	movw	r7, #65531	; 0xfffb
 8000c06:	f6c0 070f 	movt	r7, #2063	; 0x80f
 8000c0a:	42bb      	cmp	r3, r7
 8000c0c:	d817      	bhi.n	8000c3e <FLASH_If_Write+0x4a>
 8000c0e:	2600      	movs	r6, #0
 8000c10:	07d3      	lsls	r3, r2, #31
 8000c12:	460d      	mov	r5, r1
 8000c14:	d439      	bmi.n	8000c8a <FLASH_If_Write+0x96>
 8000c16:	6800      	ldr	r0, [r0, #0]
 8000c18:	f855 1b04 	ldr.w	r1, [r5], #4
 8000c1c:	f004 ff48 	bl	8005ab0 <FLASH_ProgramWord>
 8000c20:	2808      	cmp	r0, #8
 8000c22:	d139      	bne.n	8000c98 <FLASH_If_Write+0xa4>
 8000c24:	6822      	ldr	r2, [r4, #0]
 8000c26:	f855 3c04 	ldr.w	r3, [r5, #-4]
 8000c2a:	6811      	ldr	r1, [r2, #0]
 8000c2c:	4299      	cmp	r1, r3
 8000c2e:	d136      	bne.n	8000c9e <FLASH_If_Write+0xaa>
 8000c30:	6821      	ldr	r1, [r4, #0]
 8000c32:	1d0e      	adds	r6, r1, #4
 8000c34:	6026      	str	r6, [r4, #0]
 8000c36:	6820      	ldr	r0, [r4, #0]
 8000c38:	2601      	movs	r6, #1
 8000c3a:	42b8      	cmp	r0, r7
 8000c3c:	d925      	bls.n	8000c8a <FLASH_If_Write+0x96>
 8000c3e:	2000      	movs	r0, #0
 8000c40:	e8bd 81f0 	ldmia.w	sp!, {r4, r5, r6, r7, r8, pc}
 8000c44:	6821      	ldr	r1, [r4, #0]
 8000c46:	f855 0c04 	ldr.w	r0, [r5, #-4]
 8000c4a:	680a      	ldr	r2, [r1, #0]
 8000c4c:	4282      	cmp	r2, r0
 8000c4e:	d126      	bne.n	8000c9e <FLASH_If_Write+0xaa>
 8000c50:	6822      	ldr	r2, [r4, #0]
 8000c52:	3601      	adds	r6, #1
 8000c54:	1d13      	adds	r3, r2, #4
 8000c56:	4546      	cmp	r6, r8
 8000c58:	6023      	str	r3, [r4, #0]
 8000c5a:	d023      	beq.n	8000ca4 <FLASH_If_Write+0xb0>
 8000c5c:	6820      	ldr	r0, [r4, #0]
 8000c5e:	42b8      	cmp	r0, r7
 8000c60:	d8ed      	bhi.n	8000c3e <FLASH_If_Write+0x4a>
 8000c62:	6820      	ldr	r0, [r4, #0]
 8000c64:	f855 1b04 	ldr.w	r1, [r5], #4
 8000c68:	f004 ff22 	bl	8005ab0 <FLASH_ProgramWord>
 8000c6c:	2808      	cmp	r0, #8
 8000c6e:	d113      	bne.n	8000c98 <FLASH_If_Write+0xa4>
 8000c70:	6820      	ldr	r0, [r4, #0]
 8000c72:	f855 3c04 	ldr.w	r3, [r5, #-4]
 8000c76:	6802      	ldr	r2, [r0, #0]
 8000c78:	429a      	cmp	r2, r3
 8000c7a:	d110      	bne.n	8000c9e <FLASH_If_Write+0xaa>
 8000c7c:	6823      	ldr	r3, [r4, #0]
 8000c7e:	1d1a      	adds	r2, r3, #4
 8000c80:	6022      	str	r2, [r4, #0]
 8000c82:	6821      	ldr	r1, [r4, #0]
 8000c84:	3601      	adds	r6, #1
 8000c86:	42b9      	cmp	r1, r7
 8000c88:	d8d9      	bhi.n	8000c3e <FLASH_If_Write+0x4a>
 8000c8a:	6820      	ldr	r0, [r4, #0]
 8000c8c:	f855 1b04 	ldr.w	r1, [r5], #4
 8000c90:	f004 ff0e 	bl	8005ab0 <FLASH_ProgramWord>
 8000c94:	2808      	cmp	r0, #8
 8000c96:	d0d5      	beq.n	8000c44 <FLASH_If_Write+0x50>
 8000c98:	2001      	movs	r0, #1
 8000c9a:	e8bd 81f0 	ldmia.w	sp!, {r4, r5, r6, r7, r8, pc}
 8000c9e:	2002      	movs	r0, #2
 8000ca0:	e8bd 81f0 	ldmia.w	sp!, {r4, r5, r6, r7, r8, pc}
 8000ca4:	2000      	movs	r0, #0
 8000ca6:	e8bd 81f0 	ldmia.w	sp!, {r4, r5, r6, r7, r8, pc}
 8000caa:	4610      	mov	r0, r2
 8000cac:	e8bd 81f0 	ldmia.w	sp!, {r4, r5, r6, r7, r8, pc}

08000cb0 <FLASH_If_GetWriteProtectionStatus>:
 8000cb0:	b510      	push	{r4, lr}
 8000cb2:	f7ff ff13 	bl	8000adc <GetSector>
 8000cb6:	4604      	mov	r4, r0
 8000cb8:	f004 fe16 	bl	80058e8 <FLASH_OB_GetWRP>
 8000cbc:	08e3      	lsrs	r3, r4, #3
 8000cbe:	fa40 f103 	asr.w	r1, r0, r3
 8000cc2:	f640 70ff 	movw	r0, #4095	; 0xfff
 8000cc6:	fa40 f303 	asr.w	r3, r0, r3
 8000cca:	1aca      	subs	r2, r1, r3
 8000ccc:	4250      	negs	r0, r2
 8000cce:	eb40 0002 	adc.w	r0, r0, r2
 8000cd2:	bd10      	pop	{r4, pc}

08000cd4 <FLASH_If_DisableWriteProtection>:
 8000cd4:	b500      	push	{lr}
 8000cd6:	b083      	sub	sp, #12
 8000cd8:	2208      	movs	r2, #8
 8000cda:	2102      	movs	r1, #2
 8000cdc:	9200      	str	r2, [sp, #0]
 8000cde:	9101      	str	r1, [sp, #4]
 8000ce0:	f7ff fefc 	bl	8000adc <GetSector>
 8000ce4:	9000      	str	r0, [sp, #0]
 8000ce6:	9b00      	ldr	r3, [sp, #0]
 8000ce8:	2201      	movs	r2, #1
 8000cea:	08d9      	lsrs	r1, r3, #3
 8000cec:	fa02 f001 	lsl.w	r0, r2, r1
 8000cf0:	f5c0 5380 	rsb	r3, r0, #4096	; 0x1000
 8000cf4:	9301      	str	r3, [sp, #4]
 8000cf6:	f004 fdc5 	bl	8005884 <FLASH_OB_Unlock>
 8000cfa:	9801      	ldr	r0, [sp, #4]
 8000cfc:	2100      	movs	r1, #0
 8000cfe:	f004 fe83 	bl	8005a08 <FLASH_OB_WRPConfig>
 8000d02:	f004 fe57 	bl	80059b4 <FLASH_OB_Launch>
 8000d06:	2808      	cmp	r0, #8
 8000d08:	bf0c      	ite	eq
 8000d0a:	2001      	moveq	r0, #1
 8000d0c:	2002      	movne	r0, #2
 8000d0e:	b003      	add	sp, #12
 8000d10:	bd00      	pop	{pc}
 8000d12:	bf00      	nop

08000d14 <InitHMC5883L>:
 8000d14:	b570      	push	{r4, r5, r6, lr}
 8000d16:	b088      	sub	sp, #32
 8000d18:	231e      	movs	r3, #30
 8000d1a:	f88d 3000 	strb.w	r3, [sp]
 8000d1e:	ab07      	add	r3, sp, #28
 8000d20:	9301      	str	r3, [sp, #4]
 8000d22:	f44f 45b0 	mov.w	r5, #22528	; 0x5800
 8000d26:	f10d 031f 	add.w	r3, sp, #31
 8000d2a:	2400      	movs	r4, #0
 8000d2c:	f2c4 0500 	movt	r5, #16384	; 0x4000
 8000d30:	9303      	str	r3, [sp, #12]
 8000d32:	2305      	movs	r3, #5
 8000d34:	2602      	movs	r6, #2
 8000d36:	4669      	mov	r1, sp
 8000d38:	4622      	mov	r2, r4
 8000d3a:	f88d 3012 	strb.w	r3, [sp, #18]
 8000d3e:	4628      	mov	r0, r5
 8000d40:	2378      	movs	r3, #120	; 0x78
 8000d42:	f88d 301d 	strb.w	r3, [sp, #29]
 8000d46:	9406      	str	r4, [sp, #24]
 8000d48:	f88d 6008 	strb.w	r6, [sp, #8]
 8000d4c:	f88d 4010 	strb.w	r4, [sp, #16]
 8000d50:	f88d 401c 	strb.w	r4, [sp, #28]
 8000d54:	f000 f8be 	bl	8000ed4 <I2C_MasterTransferData>
 8000d58:	2301      	movs	r3, #1
 8000d5a:	4669      	mov	r1, sp
 8000d5c:	4622      	mov	r2, r4
 8000d5e:	f88d 301c 	strb.w	r3, [sp, #28]
 8000d62:	4628      	mov	r0, r5
 8000d64:	2320      	movs	r3, #32
 8000d66:	f88d 301d 	strb.w	r3, [sp, #29]
 8000d6a:	f000 f8b3 	bl	8000ed4 <I2C_MasterTransferData>
 8000d6e:	4628      	mov	r0, r5
 8000d70:	4669      	mov	r1, sp
 8000d72:	4622      	mov	r2, r4
 8000d74:	f88d 601c 	strb.w	r6, [sp, #28]
 8000d78:	f88d 401d 	strb.w	r4, [sp, #29]
 8000d7c:	f000 f8aa 	bl	8000ed4 <I2C_MasterTransferData>
 8000d80:	b008      	add	sp, #32
 8000d82:	bd70      	pop	{r4, r5, r6, pc}

08000d84 <GetHMC5883LID>:
 8000d84:	b530      	push	{r4, r5, lr}
 8000d86:	f240 0418 	movw	r4, #24
 8000d8a:	b089      	sub	sp, #36	; 0x24
 8000d8c:	f2c2 0400 	movt	r4, #8192	; 0x2000
 8000d90:	2300      	movs	r3, #0
 8000d92:	9004      	str	r0, [sp, #16]
 8000d94:	9402      	str	r4, [sp, #8]
 8000d96:	f44f 40b0 	mov.w	r0, #22528	; 0x5800
 8000d9a:	2401      	movs	r4, #1
 8000d9c:	251e      	movs	r5, #30
 8000d9e:	f88d 400c 	strb.w	r4, [sp, #12]
 8000da2:	a901      	add	r1, sp, #4
 8000da4:	2403      	movs	r4, #3
 8000da6:	461a      	mov	r2, r3
 8000da8:	f2c4 0000 	movt	r0, #16384	; 0x4000
 8000dac:	f88d 5004 	strb.w	r5, [sp, #4]
 8000db0:	f88d 4014 	strb.w	r4, [sp, #20]
 8000db4:	f88d 3016 	strb.w	r3, [sp, #22]
 8000db8:	9307      	str	r3, [sp, #28]
 8000dba:	f000 f88b 	bl	8000ed4 <I2C_MasterTransferData>
 8000dbe:	b009      	add	sp, #36	; 0x24
 8000dc0:	bd30      	pop	{r4, r5, pc}
 8000dc2:	bf00      	nop

08000dc4 <InitSensorBus>:
 8000dc4:	b5f0      	push	{r4, r5, r6, r7, lr}
 8000dc6:	2101      	movs	r1, #1
 8000dc8:	b089      	sub	sp, #36	; 0x24
 8000dca:	f44f 0080 	mov.w	r0, #4194304	; 0x400000
 8000dce:	f003 fa05 	bl	80041dc <RCC_APB1PeriphClockCmd>
 8000dd2:	2101      	movs	r1, #1
 8000dd4:	f44f 0080 	mov.w	r0, #4194304	; 0x400000
 8000dd8:	f003 fa46 	bl	8004268 <RCC_APB1PeriphResetCmd>
 8000ddc:	f44f 6480 	mov.w	r4, #1024	; 0x400
 8000de0:	2100      	movs	r1, #0
 8000de2:	f44f 0080 	mov.w	r0, #4194304	; 0x400000
 8000de6:	f003 fa3f 	bl	8004268 <RCC_APB1PeriphResetCmd>
 8000dea:	f2c4 0402 	movt	r4, #16386	; 0x4002
 8000dee:	2002      	movs	r0, #2
 8000df0:	2101      	movs	r1, #1
 8000df2:	f003 f9c9 	bl	8004188 <RCC_AHB1PeriphClockCmd>
 8000df6:	2501      	movs	r5, #1
 8000df8:	2203      	movs	r2, #3
 8000dfa:	f44f 6680 	mov.w	r6, #1024	; 0x400
 8000dfe:	4620      	mov	r0, r4
 8000e00:	a905      	add	r1, sp, #20
 8000e02:	2702      	movs	r7, #2
 8000e04:	f88d 2019 	strb.w	r2, [sp, #25]
 8000e08:	f88d 7018 	strb.w	r7, [sp, #24]
 8000e0c:	9605      	str	r6, [sp, #20]
 8000e0e:	f88d 501a 	strb.w	r5, [sp, #26]
 8000e12:	f88d 501b 	strb.w	r5, [sp, #27]
 8000e16:	f002 fea3 	bl	8003b60 <GPIO_Init>
 8000e1a:	f44f 6300 	mov.w	r3, #2048	; 0x800
 8000e1e:	a905      	add	r1, sp, #20
 8000e20:	4620      	mov	r0, r4
 8000e22:	9305      	str	r3, [sp, #20]
 8000e24:	f002 fe9c 	bl	8003b60 <GPIO_Init>
 8000e28:	4620      	mov	r0, r4
 8000e2a:	210a      	movs	r1, #10
 8000e2c:	2204      	movs	r2, #4
 8000e2e:	f002 ff8d 	bl	8003d4c <GPIO_PinAFConfig>
 8000e32:	4620      	mov	r0, r4
 8000e34:	2204      	movs	r2, #4
 8000e36:	210b      	movs	r1, #11
 8000e38:	f002 ff88 	bl	8003d4c <GPIO_PinAFConfig>
 8000e3c:	f44f 4480 	mov.w	r4, #16384	; 0x4000
 8000e40:	a908      	add	r1, sp, #32
 8000e42:	f44f 50d4 	mov.w	r0, #6784	; 0x1a80
 8000e46:	0427      	lsls	r7, r4, #16
 8000e48:	f2c0 0006 	movt	r0, #6
 8000e4c:	2300      	movs	r3, #0
 8000e4e:	f841 0d1c 	str.w	r0, [r1, #-28]!
 8000e52:	f64b 72ff 	movw	r2, #49151	; 0xbfff
 8000e56:	f447 40b0 	orr.w	r0, r7, #22528	; 0x5800
 8000e5a:	f8ad 3008 	strh.w	r3, [sp, #8]
 8000e5e:	461f      	mov	r7, r3
 8000e60:	f8ad 200a 	strh.w	r2, [sp, #10]
 8000e64:	f8ad 300c 	strh.w	r3, [sp, #12]
 8000e68:	f8ad 600e 	strh.w	r6, [sp, #14]
 8000e6c:	f8ad 4010 	strh.w	r4, [sp, #16]
 8000e70:	f004 faae 	bl	80053d0 <I2C_Init>
 8000e74:	a807      	add	r0, sp, #28
 8000e76:	2321      	movs	r3, #33	; 0x21
 8000e78:	f88d 301c 	strb.w	r3, [sp, #28]
 8000e7c:	f88d 701d 	strb.w	r7, [sp, #29]
 8000e80:	f88d 701e 	strb.w	r7, [sp, #30]
 8000e84:	f88d 501f 	strb.w	r5, [sp, #31]
 8000e88:	f004 fec2 	bl	8005c10 <NVIC_Init>
 8000e8c:	0420      	lsls	r0, r4, #16
 8000e8e:	f440 40b0 	orr.w	r0, r0, #22528	; 0x5800
 8000e92:	4629      	mov	r1, r5
 8000e94:	f004 fb22 	bl	80054dc <I2C_Cmd>
 8000e98:	b009      	add	sp, #36	; 0x24
 8000e9a:	bdf0      	pop	{r4, r5, r6, r7, pc}

08000e9c <I2C_getNum>:
 8000e9c:	f44f 43a8 	mov.w	r3, #21504	; 0x5400
 8000ea0:	f2c4 0300 	movt	r3, #16384	; 0x4000
 8000ea4:	4298      	cmp	r0, r3
 8000ea6:	d00f      	beq.n	8000ec8 <I2C_getNum+0x2c>
 8000ea8:	f44f 41b0 	mov.w	r1, #22528	; 0x5800
 8000eac:	f2c4 0100 	movt	r1, #16384	; 0x4000
 8000eb0:	4288      	cmp	r0, r1
 8000eb2:	d00c      	beq.n	8000ece <I2C_getNum+0x32>
 8000eb4:	f44f 42b8 	mov.w	r2, #23552	; 0x5c00
 8000eb8:	f2c4 0200 	movt	r2, #16384	; 0x4000
 8000ebc:	4290      	cmp	r0, r2
 8000ebe:	bf14      	ite	ne
 8000ec0:	20ff      	movne	r0, #255	; 0xff
 8000ec2:	2002      	moveq	r0, #2
 8000ec4:	b240      	sxtb	r0, r0
 8000ec6:	4770      	bx	lr
 8000ec8:	2000      	movs	r0, #0
 8000eca:	b240      	sxtb	r0, r0
 8000ecc:	4770      	bx	lr
 8000ece:	2001      	movs	r0, #1
 8000ed0:	e7f8      	b.n	8000ec4 <I2C_getNum+0x28>
 8000ed2:	bf00      	nop

08000ed4 <I2C_MasterTransferData>:
 8000ed4:	f8b0 c000 	ldrh.w	ip, [r0]
 8000ed8:	b5f8      	push	{r3, r4, r5, r6, r7, lr}
 8000eda:	fa1f f38c 	uxth.w	r3, ip
 8000ede:	f443 6c80 	orr.w	ip, r3, #1024	; 0x400
 8000ee2:	f8a0 c000 	strh.w	ip, [r0]
 8000ee6:	8803      	ldrh	r3, [r0, #0]
 8000ee8:	4604      	mov	r4, r0
 8000eea:	f423 6000 	bic.w	r0, r3, #2048	; 0x800
 8000eee:	0403      	lsls	r3, r0, #16
 8000ef0:	0c18      	lsrs	r0, r3, #16
 8000ef2:	8020      	strh	r0, [r4, #0]
 8000ef4:	460b      	mov	r3, r1
 8000ef6:	2a00      	cmp	r2, #0
 8000ef8:	f040 82b8 	bne.w	800146c <I2C_MasterTransferData+0x598>
 8000efc:	74ca      	strb	r2, [r1, #19]
 8000efe:	f8b4 c014 	ldrh.w	ip, [r4, #20]
 8000f02:	8aa1      	ldrh	r1, [r4, #20]
 8000f04:	fa1f f08c 	uxth.w	r0, ip
 8000f08:	f401 4c5f 	and.w	ip, r1, #57088	; 0xdf00
 8000f0c:	ea20 000c 	bic.w	r0, r0, ip
 8000f10:	82a0      	strh	r0, [r4, #20]
 8000f12:	7cd8      	ldrb	r0, [r3, #19]
 8000f14:	7c99      	ldrb	r1, [r3, #18]
 8000f16:	4288      	cmp	r0, r1
 8000f18:	f200 8372 	bhi.w	8001600 <I2C_MasterTransferData+0x72c>
 8000f1c:	725a      	strb	r2, [r3, #9]
 8000f1e:	745a      	strb	r2, [r3, #17]
 8000f20:	f8b4 c000 	ldrh.w	ip, [r4]
 8000f24:	68df      	ldr	r7, [r3, #12]
 8000f26:	685d      	ldr	r5, [r3, #4]
 8000f28:	fa1f f08c 	uxth.w	r0, ip
 8000f2c:	f440 7680 	orr.w	r6, r0, #256	; 0x100
 8000f30:	8026      	strh	r6, [r4, #0]
 8000f32:	8aa1      	ldrh	r1, [r4, #20]
 8000f34:	07c9      	lsls	r1, r1, #31
 8000f36:	463e      	mov	r6, r7
 8000f38:	d40e      	bmi.n	8000f58 <I2C_MasterTransferData+0x84>
 8000f3a:	f44f 5110 	mov.w	r1, #9216	; 0x2400
 8000f3e:	f2c0 01f4 	movt	r1, #244	; 0xf4
 8000f42:	e006      	b.n	8000f52 <I2C_MasterTransferData+0x7e>
 8000f44:	8aa0      	ldrh	r0, [r4, #20]
 8000f46:	3901      	subs	r1, #1
 8000f48:	07c0      	lsls	r0, r0, #31
 8000f4a:	d405      	bmi.n	8000f58 <I2C_MasterTransferData+0x84>
 8000f4c:	3901      	subs	r1, #1
 8000f4e:	f000 821a 	beq.w	8001386 <I2C_MasterTransferData+0x4b2>
 8000f52:	8aa0      	ldrh	r0, [r4, #20]
 8000f54:	07c0      	lsls	r0, r0, #31
 8000f56:	d5f5      	bpl.n	8000f44 <I2C_MasterTransferData+0x70>
 8000f58:	8aa1      	ldrh	r1, [r4, #20]
 8000f5a:	f421 5c00 	bic.w	ip, r1, #8192	; 0x2000
 8000f5e:	f02c 0020 	bic.w	r0, ip, #32
 8000f62:	0401      	lsls	r1, r0, #16
 8000f64:	0c09      	lsrs	r1, r1, #16
 8000f66:	f411 4f7f 	tst.w	r1, #65280	; 0xff00
 8000f6a:	8299      	strh	r1, [r3, #20]
 8000f6c:	f040 80ae 	bne.w	80010cc <I2C_MasterTransferData+0x1f8>
 8000f70:	7a18      	ldrb	r0, [r3, #8]
 8000f72:	2800      	cmp	r0, #0
 8000f74:	f000 80ae 	beq.w	80010d4 <I2C_MasterTransferData+0x200>
 8000f78:	2d00      	cmp	r5, #0
 8000f7a:	f000 80ab 	beq.w	80010d4 <I2C_MasterTransferData+0x200>
 8000f7e:	7818      	ldrb	r0, [r3, #0]
 8000f80:	0041      	lsls	r1, r0, #1
 8000f82:	8221      	strh	r1, [r4, #16]
 8000f84:	f8b4 c014 	ldrh.w	ip, [r4, #20]
 8000f88:	ea5f 718c 	movs.w	r1, ip, lsl #30
 8000f8c:	d410      	bmi.n	8000fb0 <I2C_MasterTransferData+0xdc>
 8000f8e:	f44f 5110 	mov.w	r1, #9216	; 0x2400
 8000f92:	f2c0 01f4 	movt	r1, #244	; 0xf4
 8000f96:	e008      	b.n	8000faa <I2C_MasterTransferData+0xd6>
 8000f98:	f8b4 c014 	ldrh.w	ip, [r4, #20]
 8000f9c:	3901      	subs	r1, #1
 8000f9e:	ea5f 708c 	movs.w	r0, ip, lsl #30
 8000fa2:	d405      	bmi.n	8000fb0 <I2C_MasterTransferData+0xdc>
 8000fa4:	3901      	subs	r1, #1
 8000fa6:	f000 8256 	beq.w	8001456 <I2C_MasterTransferData+0x582>
 8000faa:	8aa0      	ldrh	r0, [r4, #20]
 8000fac:	0780      	lsls	r0, r0, #30
 8000fae:	d5f3      	bpl.n	8000f98 <I2C_MasterTransferData+0xc4>
 8000fb0:	8aa1      	ldrh	r1, [r4, #20]
 8000fb2:	f421 5c00 	bic.w	ip, r1, #8192	; 0x2000
 8000fb6:	f02c 0020 	bic.w	r0, ip, #32
 8000fba:	0401      	lsls	r1, r0, #16
 8000fbc:	0c09      	lsrs	r1, r1, #16
 8000fbe:	f411 4f7f 	tst.w	r1, #65280	; 0xff00
 8000fc2:	8299      	strh	r1, [r3, #20]
 8000fc4:	f040 8082 	bne.w	80010cc <I2C_MasterTransferData+0x1f8>
 8000fc8:	7a18      	ldrb	r0, [r3, #8]
 8000fca:	7a59      	ldrb	r1, [r3, #9]
 8000fcc:	f8b4 c018 	ldrh.w	ip, [r4, #24]
 8000fd0:	4288      	cmp	r0, r1
 8000fd2:	d929      	bls.n	8001028 <I2C_MasterTransferData+0x154>
 8000fd4:	f815 cb01 	ldrb.w	ip, [r5], #1
 8000fd8:	f8a4 c010 	strh.w	ip, [r4, #16]
 8000fdc:	8aa0      	ldrh	r0, [r4, #20]
 8000fde:	0601      	lsls	r1, r0, #24
 8000fe0:	d40e      	bmi.n	8001000 <I2C_MasterTransferData+0x12c>
 8000fe2:	f44f 5110 	mov.w	r1, #9216	; 0x2400
 8000fe6:	f2c0 01f4 	movt	r1, #244	; 0xf4
 8000fea:	e006      	b.n	8000ffa <I2C_MasterTransferData+0x126>
 8000fec:	8aa0      	ldrh	r0, [r4, #20]
 8000fee:	3901      	subs	r1, #1
 8000ff0:	0600      	lsls	r0, r0, #24
 8000ff2:	d405      	bmi.n	8001000 <I2C_MasterTransferData+0x12c>
 8000ff4:	3901      	subs	r1, #1
 8000ff6:	f000 81bb 	beq.w	8001370 <I2C_MasterTransferData+0x49c>
 8000ffa:	8aa0      	ldrh	r0, [r4, #20]
 8000ffc:	0600      	lsls	r0, r0, #24
 8000ffe:	d5f5      	bpl.n	8000fec <I2C_MasterTransferData+0x118>
 8001000:	8aa1      	ldrh	r1, [r4, #20]
 8001002:	f421 5c00 	bic.w	ip, r1, #8192	; 0x2000
 8001006:	f02c 0020 	bic.w	r0, ip, #32
 800100a:	0401      	lsls	r1, r0, #16
 800100c:	0c09      	lsrs	r1, r1, #16
 800100e:	f411 4f7f 	tst.w	r1, #65280	; 0xff00
 8001012:	8299      	strh	r1, [r3, #20]
 8001014:	d15a      	bne.n	80010cc <I2C_MasterTransferData+0x1f8>
 8001016:	7a59      	ldrb	r1, [r3, #9]
 8001018:	7a18      	ldrb	r0, [r3, #8]
 800101a:	3101      	adds	r1, #1
 800101c:	fa5f fc81 	uxtb.w	ip, r1
 8001020:	4560      	cmp	r0, ip
 8001022:	f883 c009 	strb.w	ip, [r3, #9]
 8001026:	d8d5      	bhi.n	8000fd4 <I2C_MasterTransferData+0x100>
 8001028:	f8b4 c014 	ldrh.w	ip, [r4, #20]
 800102c:	ea5f 714c 	movs.w	r1, ip, lsl #29
 8001030:	d410      	bmi.n	8001054 <I2C_MasterTransferData+0x180>
 8001032:	f44f 5110 	mov.w	r1, #9216	; 0x2400
 8001036:	f2c0 01f4 	movt	r1, #244	; 0xf4
 800103a:	e007      	b.n	800104c <I2C_MasterTransferData+0x178>
 800103c:	8aa5      	ldrh	r5, [r4, #20]
 800103e:	3901      	subs	r1, #1
 8001040:	f015 0f04 	tst.w	r5, #4
 8001044:	d106      	bne.n	8001054 <I2C_MasterTransferData+0x180>
 8001046:	3901      	subs	r1, #1
 8001048:	f000 82ec 	beq.w	8001624 <I2C_MasterTransferData+0x750>
 800104c:	8aa5      	ldrh	r5, [r4, #20]
 800104e:	f015 0f04 	tst.w	r5, #4
 8001052:	d0f3      	beq.n	800103c <I2C_MasterTransferData+0x168>
 8001054:	8aa1      	ldrh	r1, [r4, #20]
 8001056:	f421 5c00 	bic.w	ip, r1, #8192	; 0x2000
 800105a:	f02c 0120 	bic.w	r1, ip, #32
 800105e:	0409      	lsls	r1, r1, #16
 8001060:	0c09      	lsrs	r1, r1, #16
 8001062:	f411 4f7f 	tst.w	r1, #65280	; 0xff00
 8001066:	8299      	strh	r1, [r3, #20]
 8001068:	d130      	bne.n	80010cc <I2C_MasterTransferData+0x1f8>
 800106a:	7c19      	ldrb	r1, [r3, #16]
 800106c:	2900      	cmp	r1, #0
 800106e:	f000 832f 	beq.w	80016d0 <I2C_MasterTransferData+0x7fc>
 8001072:	2f00      	cmp	r7, #0
 8001074:	f000 832c 	beq.w	80016d0 <I2C_MasterTransferData+0x7fc>
 8001078:	2800      	cmp	r0, #0
 800107a:	d02f      	beq.n	80010dc <I2C_MasterTransferData+0x208>
 800107c:	f8b4 c000 	ldrh.w	ip, [r4]
 8001080:	fa1f f08c 	uxth.w	r0, ip
 8001084:	f440 7180 	orr.w	r1, r0, #256	; 0x100
 8001088:	8021      	strh	r1, [r4, #0]
 800108a:	f8b4 c014 	ldrh.w	ip, [r4, #20]
 800108e:	ea5f 71cc 	movs.w	r1, ip, lsl #31
 8001092:	d40e      	bmi.n	80010b2 <I2C_MasterTransferData+0x1de>
 8001094:	f44f 5110 	mov.w	r1, #9216	; 0x2400
 8001098:	f2c0 01f4 	movt	r1, #244	; 0xf4
 800109c:	e006      	b.n	80010ac <I2C_MasterTransferData+0x1d8>
 800109e:	8aa0      	ldrh	r0, [r4, #20]
 80010a0:	3901      	subs	r1, #1
 80010a2:	07c0      	lsls	r0, r0, #31
 80010a4:	d405      	bmi.n	80010b2 <I2C_MasterTransferData+0x1de>
 80010a6:	3901      	subs	r1, #1
 80010a8:	f000 82b1 	beq.w	800160e <I2C_MasterTransferData+0x73a>
 80010ac:	8aa0      	ldrh	r0, [r4, #20]
 80010ae:	07c0      	lsls	r0, r0, #31
 80010b0:	d5f5      	bpl.n	800109e <I2C_MasterTransferData+0x1ca>
 80010b2:	8aa1      	ldrh	r1, [r4, #20]
 80010b4:	f421 5c00 	bic.w	ip, r1, #8192	; 0x2000
 80010b8:	f02c 0020 	bic.w	r0, ip, #32
 80010bc:	0401      	lsls	r1, r0, #16
 80010be:	0c09      	lsrs	r1, r1, #16
 80010c0:	f411 4f7f 	tst.w	r1, #65280	; 0xff00
 80010c4:	8299      	strh	r1, [r3, #20]
 80010c6:	bf08      	it	eq
 80010c8:	8b21      	ldrheq	r1, [r4, #24]
 80010ca:	d003      	beq.n	80010d4 <I2C_MasterTransferData+0x200>
 80010cc:	7cd8      	ldrb	r0, [r3, #19]
 80010ce:	1c41      	adds	r1, r0, #1
 80010d0:	74d9      	strb	r1, [r3, #19]
 80010d2:	e714      	b.n	8000efe <I2C_MasterTransferData+0x2a>
 80010d4:	7c18      	ldrb	r0, [r3, #16]
 80010d6:	2800      	cmp	r0, #0
 80010d8:	f000 831a 	beq.w	8001710 <I2C_MasterTransferData+0x83c>
 80010dc:	2f00      	cmp	r7, #0
 80010de:	f000 8319 	beq.w	8001714 <I2C_MasterTransferData+0x840>
 80010e2:	7819      	ldrb	r1, [r3, #0]
 80010e4:	0048      	lsls	r0, r1, #1
 80010e6:	f040 0101 	orr.w	r1, r0, #1
 80010ea:	8221      	strh	r1, [r4, #16]
 80010ec:	f8b4 c014 	ldrh.w	ip, [r4, #20]
 80010f0:	ea5f 718c 	movs.w	r1, ip, lsl #30
 80010f4:	d410      	bmi.n	8001118 <I2C_MasterTransferData+0x244>
 80010f6:	f44f 5110 	mov.w	r1, #9216	; 0x2400
 80010fa:	f2c0 01f4 	movt	r1, #244	; 0xf4
 80010fe:	e008      	b.n	8001112 <I2C_MasterTransferData+0x23e>
 8001100:	f8b4 c014 	ldrh.w	ip, [r4, #20]
 8001104:	3901      	subs	r1, #1
 8001106:	ea5f 708c 	movs.w	r0, ip, lsl #30
 800110a:	d405      	bmi.n	8001118 <I2C_MasterTransferData+0x244>
 800110c:	3901      	subs	r1, #1
 800110e:	f000 8150 	beq.w	80013b2 <I2C_MasterTransferData+0x4de>
 8001112:	8aa0      	ldrh	r0, [r4, #20]
 8001114:	0780      	lsls	r0, r0, #30
 8001116:	d5f3      	bpl.n	8001100 <I2C_MasterTransferData+0x22c>
 8001118:	8aa1      	ldrh	r1, [r4, #20]
 800111a:	f421 5c00 	bic.w	ip, r1, #8192	; 0x2000
 800111e:	f02c 0020 	bic.w	r0, ip, #32
 8001122:	0401      	lsls	r1, r0, #16
 8001124:	0c09      	lsrs	r1, r1, #16
 8001126:	f411 4f7f 	tst.w	r1, #65280	; 0xff00
 800112a:	8299      	strh	r1, [r3, #20]
 800112c:	d1ce      	bne.n	80010cc <I2C_MasterTransferData+0x1f8>
 800112e:	7c19      	ldrb	r1, [r3, #16]
 8001130:	2901      	cmp	r1, #1
 8001132:	f000 8148 	beq.w	80013c6 <I2C_MasterTransferData+0x4f2>
 8001136:	2902      	cmp	r1, #2
 8001138:	f000 81cb 	beq.w	80014d2 <I2C_MasterTransferData+0x5fe>
 800113c:	f893 c011 	ldrb.w	ip, [r3, #17]
 8001140:	8b25      	ldrh	r5, [r4, #24]
 8001142:	ebcc 0001 	rsb	r0, ip, r1
 8001146:	2803      	cmp	r0, #3
 8001148:	dd29      	ble.n	800119e <I2C_MasterTransferData+0x2ca>
 800114a:	8aa1      	ldrh	r1, [r4, #20]
 800114c:	0649      	lsls	r1, r1, #25
 800114e:	d40e      	bmi.n	800116e <I2C_MasterTransferData+0x29a>
 8001150:	f44f 5110 	mov.w	r1, #9216	; 0x2400
 8001154:	f2c0 01f4 	movt	r1, #244	; 0xf4
 8001158:	e006      	b.n	8001168 <I2C_MasterTransferData+0x294>
 800115a:	8aa0      	ldrh	r0, [r4, #20]
 800115c:	3901      	subs	r1, #1
 800115e:	0640      	lsls	r0, r0, #25
 8001160:	d405      	bmi.n	800116e <I2C_MasterTransferData+0x29a>
 8001162:	3901      	subs	r1, #1
 8001164:	f000 811a 	beq.w	800139c <I2C_MasterTransferData+0x4c8>
 8001168:	8aa0      	ldrh	r0, [r4, #20]
 800116a:	0640      	lsls	r0, r0, #25
 800116c:	d5f5      	bpl.n	800115a <I2C_MasterTransferData+0x286>
 800116e:	8a20      	ldrh	r0, [r4, #16]
 8001170:	7030      	strb	r0, [r6, #0]
 8001172:	8aa1      	ldrh	r1, [r4, #20]
 8001174:	f421 5c00 	bic.w	ip, r1, #8192	; 0x2000
 8001178:	f02c 0020 	bic.w	r0, ip, #32
 800117c:	0401      	lsls	r1, r0, #16
 800117e:	0c09      	lsrs	r1, r1, #16
 8001180:	f411 4f7f 	tst.w	r1, #65280	; 0xff00
 8001184:	8299      	strh	r1, [r3, #20]
 8001186:	d1a1      	bne.n	80010cc <I2C_MasterTransferData+0x1f8>
 8001188:	7c59      	ldrb	r1, [r3, #17]
 800118a:	7c18      	ldrb	r0, [r3, #16]
 800118c:	3101      	adds	r1, #1
 800118e:	b2c9      	uxtb	r1, r1
 8001190:	ebc1 0c00 	rsb	ip, r1, r0
 8001194:	3601      	adds	r6, #1
 8001196:	f1bc 0f03 	cmp.w	ip, #3
 800119a:	7459      	strb	r1, [r3, #17]
 800119c:	dcd5      	bgt.n	800114a <I2C_MasterTransferData+0x276>
 800119e:	8aa0      	ldrh	r0, [r4, #20]
 80011a0:	0741      	lsls	r1, r0, #29
 80011a2:	d412      	bmi.n	80011ca <I2C_MasterTransferData+0x2f6>
 80011a4:	f44f 5110 	mov.w	r1, #9216	; 0x2400
 80011a8:	f2c0 01f4 	movt	r1, #244	; 0xf4
 80011ac:	e008      	b.n	80011c0 <I2C_MasterTransferData+0x2ec>
 80011ae:	f8b4 c014 	ldrh.w	ip, [r4, #20]
 80011b2:	3901      	subs	r1, #1
 80011b4:	ea5f 704c 	movs.w	r0, ip, lsl #29
 80011b8:	d407      	bmi.n	80011ca <I2C_MasterTransferData+0x2f6>
 80011ba:	3901      	subs	r1, #1
 80011bc:	f000 823c 	beq.w	8001638 <I2C_MasterTransferData+0x764>
 80011c0:	f8b4 c014 	ldrh.w	ip, [r4, #20]
 80011c4:	ea5f 704c 	movs.w	r0, ip, lsl #29
 80011c8:	d5f1      	bpl.n	80011ae <I2C_MasterTransferData+0x2da>
 80011ca:	8aa1      	ldrh	r1, [r4, #20]
 80011cc:	f421 5c00 	bic.w	ip, r1, #8192	; 0x2000
 80011d0:	f02c 0020 	bic.w	r0, ip, #32
 80011d4:	0401      	lsls	r1, r0, #16
 80011d6:	0c09      	lsrs	r1, r1, #16
 80011d8:	f411 4f7f 	tst.w	r1, #65280	; 0xff00
 80011dc:	8299      	strh	r1, [r3, #20]
 80011de:	f47f af75 	bne.w	80010cc <I2C_MasterTransferData+0x1f8>
 80011e2:	8820      	ldrh	r0, [r4, #0]
 80011e4:	f420 6180 	bic.w	r1, r0, #1024	; 0x400
 80011e8:	0408      	lsls	r0, r1, #16
 80011ea:	0c01      	lsrs	r1, r0, #16
 80011ec:	8021      	strh	r1, [r4, #0]
 80011ee:	8aa0      	ldrh	r0, [r4, #20]
 80011f0:	0641      	lsls	r1, r0, #25
 80011f2:	d410      	bmi.n	8001216 <I2C_MasterTransferData+0x342>
 80011f4:	f44f 5110 	mov.w	r1, #9216	; 0x2400
 80011f8:	f2c0 01f4 	movt	r1, #244	; 0xf4
 80011fc:	e008      	b.n	8001210 <I2C_MasterTransferData+0x33c>
 80011fe:	f8b4 c014 	ldrh.w	ip, [r4, #20]
 8001202:	3901      	subs	r1, #1
 8001204:	ea5f 604c 	movs.w	r0, ip, lsl #25
 8001208:	d405      	bmi.n	8001216 <I2C_MasterTransferData+0x342>
 800120a:	3901      	subs	r1, #1
 800120c:	f000 8229 	beq.w	8001662 <I2C_MasterTransferData+0x78e>
 8001210:	8aa0      	ldrh	r0, [r4, #20]
 8001212:	0640      	lsls	r0, r0, #25
 8001214:	d5f3      	bpl.n	80011fe <I2C_MasterTransferData+0x32a>
 8001216:	8a20      	ldrh	r0, [r4, #16]
 8001218:	7030      	strb	r0, [r6, #0]
 800121a:	8aa1      	ldrh	r1, [r4, #20]
 800121c:	f421 5c00 	bic.w	ip, r1, #8192	; 0x2000
 8001220:	f02c 0020 	bic.w	r0, ip, #32
 8001224:	0401      	lsls	r1, r0, #16
 8001226:	0c09      	lsrs	r1, r1, #16
 8001228:	f411 4f7f 	tst.w	r1, #65280	; 0xff00
 800122c:	8299      	strh	r1, [r3, #20]
 800122e:	f47f af4d 	bne.w	80010cc <I2C_MasterTransferData+0x1f8>
 8001232:	7c58      	ldrb	r0, [r3, #17]
 8001234:	1c41      	adds	r1, r0, #1
 8001236:	7459      	strb	r1, [r3, #17]
 8001238:	f8b4 c014 	ldrh.w	ip, [r4, #20]
 800123c:	ea5f 714c 	movs.w	r1, ip, lsl #29
 8001240:	d410      	bmi.n	8001264 <I2C_MasterTransferData+0x390>
 8001242:	f44f 5110 	mov.w	r1, #9216	; 0x2400
 8001246:	f2c0 01f4 	movt	r1, #244	; 0xf4
 800124a:	e008      	b.n	800125e <I2C_MasterTransferData+0x38a>
 800124c:	f8b4 c014 	ldrh.w	ip, [r4, #20]
 8001250:	3901      	subs	r1, #1
 8001252:	ea5f 704c 	movs.w	r0, ip, lsl #29
 8001256:	d405      	bmi.n	8001264 <I2C_MasterTransferData+0x390>
 8001258:	3901      	subs	r1, #1
 800125a:	f000 822e 	beq.w	80016ba <I2C_MasterTransferData+0x7e6>
 800125e:	8aa0      	ldrh	r0, [r4, #20]
 8001260:	0740      	lsls	r0, r0, #29
 8001262:	d5f3      	bpl.n	800124c <I2C_MasterTransferData+0x378>
 8001264:	8aa1      	ldrh	r1, [r4, #20]
 8001266:	f421 5c00 	bic.w	ip, r1, #8192	; 0x2000
 800126a:	f02c 0020 	bic.w	r0, ip, #32
 800126e:	0401      	lsls	r1, r0, #16
 8001270:	0c09      	lsrs	r1, r1, #16
 8001272:	f411 4f7f 	tst.w	r1, #65280	; 0xff00
 8001276:	8299      	strh	r1, [r3, #20]
 8001278:	f47f af28 	bne.w	80010cc <I2C_MasterTransferData+0x1f8>
 800127c:	8820      	ldrh	r0, [r4, #0]
 800127e:	b281      	uxth	r1, r0
 8001280:	f441 7c00 	orr.w	ip, r1, #512	; 0x200
 8001284:	f8a4 c000 	strh.w	ip, [r4]
 8001288:	8aa0      	ldrh	r0, [r4, #20]
 800128a:	0641      	lsls	r1, r0, #25
 800128c:	d410      	bmi.n	80012b0 <I2C_MasterTransferData+0x3dc>
 800128e:	f44f 5110 	mov.w	r1, #9216	; 0x2400
 8001292:	f2c0 01f4 	movt	r1, #244	; 0xf4
 8001296:	e008      	b.n	80012aa <I2C_MasterTransferData+0x3d6>
 8001298:	f8b4 c014 	ldrh.w	ip, [r4, #20]
 800129c:	3901      	subs	r1, #1
 800129e:	ea5f 604c 	movs.w	r0, ip, lsl #25
 80012a2:	d405      	bmi.n	80012b0 <I2C_MasterTransferData+0x3dc>
 80012a4:	3901      	subs	r1, #1
 80012a6:	f000 824e 	beq.w	8001746 <I2C_MasterTransferData+0x872>
 80012aa:	8aa0      	ldrh	r0, [r4, #20]
 80012ac:	0640      	lsls	r0, r0, #25
 80012ae:	d5f3      	bpl.n	8001298 <I2C_MasterTransferData+0x3c4>
 80012b0:	8a20      	ldrh	r0, [r4, #16]
 80012b2:	7070      	strb	r0, [r6, #1]
 80012b4:	8aa1      	ldrh	r1, [r4, #20]
 80012b6:	f421 5c00 	bic.w	ip, r1, #8192	; 0x2000
 80012ba:	f02c 0020 	bic.w	r0, ip, #32
 80012be:	0401      	lsls	r1, r0, #16
 80012c0:	0c09      	lsrs	r1, r1, #16
 80012c2:	f411 4f7f 	tst.w	r1, #65280	; 0xff00
 80012c6:	8299      	strh	r1, [r3, #20]
 80012c8:	f47f af00 	bne.w	80010cc <I2C_MasterTransferData+0x1f8>
 80012cc:	7c58      	ldrb	r0, [r3, #17]
 80012ce:	1c41      	adds	r1, r0, #1
 80012d0:	7459      	strb	r1, [r3, #17]
 80012d2:	f8b4 c014 	ldrh.w	ip, [r4, #20]
 80012d6:	ea5f 614c 	movs.w	r1, ip, lsl #25
 80012da:	d410      	bmi.n	80012fe <I2C_MasterTransferData+0x42a>
 80012dc:	f44f 5110 	mov.w	r1, #9216	; 0x2400
 80012e0:	f2c0 01f4 	movt	r1, #244	; 0xf4
 80012e4:	e008      	b.n	80012f8 <I2C_MasterTransferData+0x424>
 80012e6:	f8b4 c014 	ldrh.w	ip, [r4, #20]
 80012ea:	3901      	subs	r1, #1
 80012ec:	ea5f 604c 	movs.w	r0, ip, lsl #25
 80012f0:	d405      	bmi.n	80012fe <I2C_MasterTransferData+0x42a>
 80012f2:	3901      	subs	r1, #1
 80012f4:	f000 821c 	beq.w	8001730 <I2C_MasterTransferData+0x85c>
 80012f8:	8aa0      	ldrh	r0, [r4, #20]
 80012fa:	0640      	lsls	r0, r0, #25
 80012fc:	d5f3      	bpl.n	80012e6 <I2C_MasterTransferData+0x412>
 80012fe:	8a20      	ldrh	r0, [r4, #16]
 8001300:	70b0      	strb	r0, [r6, #2]
 8001302:	8aa1      	ldrh	r1, [r4, #20]
 8001304:	f421 5c00 	bic.w	ip, r1, #8192	; 0x2000
 8001308:	f02c 0020 	bic.w	r0, ip, #32
 800130c:	0401      	lsls	r1, r0, #16
 800130e:	0c09      	lsrs	r1, r1, #16
 8001310:	f411 4f7f 	tst.w	r1, #65280	; 0xff00
 8001314:	8299      	strh	r1, [r3, #20]
 8001316:	f47f aed9 	bne.w	80010cc <I2C_MasterTransferData+0x1f8>
 800131a:	7c58      	ldrb	r0, [r3, #17]
 800131c:	1c41      	adds	r1, r0, #1
 800131e:	7459      	strb	r1, [r3, #17]
 8001320:	8b22      	ldrh	r2, [r4, #24]
 8001322:	0792      	lsls	r2, r2, #30
 8001324:	f140 821a 	bpl.w	800175c <I2C_MasterTransferData+0x888>
 8001328:	f44f 5210 	mov.w	r2, #9216	; 0x2400
 800132c:	f2c0 02f4 	movt	r2, #244	; 0xf4
 8001330:	8b21      	ldrh	r1, [r4, #24]
 8001332:	0789      	lsls	r1, r1, #30
 8001334:	f140 8212 	bpl.w	800175c <I2C_MasterTransferData+0x888>
 8001338:	f8b4 c018 	ldrh.w	ip, [r4, #24]
 800133c:	3a01      	subs	r2, #1
 800133e:	ea5f 708c 	movs.w	r0, ip, lsl #30
 8001342:	f140 820b 	bpl.w	800175c <I2C_MasterTransferData+0x888>
 8001346:	3a01      	subs	r2, #1
 8001348:	d1f2      	bne.n	8001330 <I2C_MasterTransferData+0x45c>
 800134a:	8aa2      	ldrh	r2, [r4, #20]
 800134c:	f422 5c00 	bic.w	ip, r2, #8192	; 0x2000
 8001350:	f02c 0020 	bic.w	r0, ip, #32
 8001354:	0401      	lsls	r1, r0, #16
 8001356:	0c0a      	lsrs	r2, r1, #16
 8001358:	f442 5200 	orr.w	r2, r2, #8192	; 0x2000
 800135c:	f8b4 c000 	ldrh.w	ip, [r4]
 8001360:	829a      	strh	r2, [r3, #20]
 8001362:	fa1f f28c 	uxth.w	r2, ip
 8001366:	f442 6380 	orr.w	r3, r2, #1024	; 0x400
 800136a:	8023      	strh	r3, [r4, #0]
 800136c:	2001      	movs	r0, #1
 800136e:	bdf8      	pop	{r3, r4, r5, r6, r7, pc}
 8001370:	f8b4 c014 	ldrh.w	ip, [r4, #20]
 8001374:	f42c 5000 	bic.w	r0, ip, #8192	; 0x2000
 8001378:	f020 0120 	bic.w	r1, r0, #32
 800137c:	0408      	lsls	r0, r1, #16
 800137e:	0c01      	lsrs	r1, r0, #16
 8001380:	f441 5100 	orr.w	r1, r1, #8192	; 0x2000
 8001384:	e643      	b.n	800100e <I2C_MasterTransferData+0x13a>
 8001386:	f8b4 c014 	ldrh.w	ip, [r4, #20]
 800138a:	f42c 5000 	bic.w	r0, ip, #8192	; 0x2000
 800138e:	f020 0120 	bic.w	r1, r0, #32
 8001392:	0408      	lsls	r0, r1, #16
 8001394:	0c01      	lsrs	r1, r0, #16
 8001396:	f441 5100 	orr.w	r1, r1, #8192	; 0x2000
 800139a:	e5e4      	b.n	8000f66 <I2C_MasterTransferData+0x92>
 800139c:	f8b4 c014 	ldrh.w	ip, [r4, #20]
 80013a0:	f42c 5000 	bic.w	r0, ip, #8192	; 0x2000
 80013a4:	f020 0120 	bic.w	r1, r0, #32
 80013a8:	0408      	lsls	r0, r1, #16
 80013aa:	0c01      	lsrs	r1, r0, #16
 80013ac:	f441 5100 	orr.w	r1, r1, #8192	; 0x2000
 80013b0:	e6e6      	b.n	8001180 <I2C_MasterTransferData+0x2ac>
 80013b2:	8aa1      	ldrh	r1, [r4, #20]
 80013b4:	f421 5c00 	bic.w	ip, r1, #8192	; 0x2000
 80013b8:	f02c 0020 	bic.w	r0, ip, #32
 80013bc:	0401      	lsls	r1, r0, #16
 80013be:	0c08      	lsrs	r0, r1, #16
 80013c0:	f440 5100 	orr.w	r1, r0, #8192	; 0x2000
 80013c4:	e6af      	b.n	8001126 <I2C_MasterTransferData+0x252>
 80013c6:	8820      	ldrh	r0, [r4, #0]
 80013c8:	f420 6180 	bic.w	r1, r0, #1024	; 0x400
 80013cc:	0408      	lsls	r0, r1, #16
 80013ce:	0c01      	lsrs	r1, r0, #16
 80013d0:	8021      	strh	r1, [r4, #0]
 80013d2:	8b21      	ldrh	r1, [r4, #24]
 80013d4:	8820      	ldrh	r0, [r4, #0]
 80013d6:	b281      	uxth	r1, r0
 80013d8:	f441 7c00 	orr.w	ip, r1, #512	; 0x200
 80013dc:	f8a4 c000 	strh.w	ip, [r4]
 80013e0:	8aa0      	ldrh	r0, [r4, #20]
 80013e2:	0641      	lsls	r1, r0, #25
 80013e4:	d410      	bmi.n	8001408 <I2C_MasterTransferData+0x534>
 80013e6:	f44f 5110 	mov.w	r1, #9216	; 0x2400
 80013ea:	f2c0 01f4 	movt	r1, #244	; 0xf4
 80013ee:	e008      	b.n	8001402 <I2C_MasterTransferData+0x52e>
 80013f0:	f8b4 c014 	ldrh.w	ip, [r4, #20]
 80013f4:	3901      	subs	r1, #1
 80013f6:	ea5f 604c 	movs.w	r0, ip, lsl #25
 80013fa:	d405      	bmi.n	8001408 <I2C_MasterTransferData+0x534>
 80013fc:	3901      	subs	r1, #1
 80013fe:	f000 8125 	beq.w	800164c <I2C_MasterTransferData+0x778>
 8001402:	8aa0      	ldrh	r0, [r4, #20]
 8001404:	0640      	lsls	r0, r0, #25
 8001406:	d5f3      	bpl.n	80013f0 <I2C_MasterTransferData+0x51c>
 8001408:	8a20      	ldrh	r0, [r4, #16]
 800140a:	7038      	strb	r0, [r7, #0]
 800140c:	8aa1      	ldrh	r1, [r4, #20]
 800140e:	f421 5c00 	bic.w	ip, r1, #8192	; 0x2000
 8001412:	f02c 0020 	bic.w	r0, ip, #32
 8001416:	0401      	lsls	r1, r0, #16
 8001418:	0c09      	lsrs	r1, r1, #16
 800141a:	f411 4f7f 	tst.w	r1, #65280	; 0xff00
 800141e:	8299      	strh	r1, [r3, #20]
 8001420:	f47f ae54 	bne.w	80010cc <I2C_MasterTransferData+0x1f8>
 8001424:	7c58      	ldrb	r0, [r3, #17]
 8001426:	1c41      	adds	r1, r0, #1
 8001428:	7459      	strb	r1, [r3, #17]
 800142a:	8b22      	ldrh	r2, [r4, #24]
 800142c:	0790      	lsls	r0, r2, #30
 800142e:	f140 8195 	bpl.w	800175c <I2C_MasterTransferData+0x888>
 8001432:	f44f 5210 	mov.w	r2, #9216	; 0x2400
 8001436:	f2c0 02f4 	movt	r2, #244	; 0xf4
 800143a:	8b21      	ldrh	r1, [r4, #24]
 800143c:	0788      	lsls	r0, r1, #30
 800143e:	f140 818d 	bpl.w	800175c <I2C_MasterTransferData+0x888>
 8001442:	f8b4 c018 	ldrh.w	ip, [r4, #24]
 8001446:	3a01      	subs	r2, #1
 8001448:	ea5f 718c 	movs.w	r1, ip, lsl #30
 800144c:	f140 8186 	bpl.w	800175c <I2C_MasterTransferData+0x888>
 8001450:	3a01      	subs	r2, #1
 8001452:	d1f2      	bne.n	800143a <I2C_MasterTransferData+0x566>
 8001454:	e779      	b.n	800134a <I2C_MasterTransferData+0x476>
 8001456:	f8b4 c014 	ldrh.w	ip, [r4, #20]
 800145a:	f42c 5000 	bic.w	r0, ip, #8192	; 0x2000
 800145e:	f020 0120 	bic.w	r1, r0, #32
 8001462:	0408      	lsls	r0, r1, #16
 8001464:	0c01      	lsrs	r1, r0, #16
 8001466:	f441 5100 	orr.w	r1, r1, #8192	; 0x2000
 800146a:	e5a8      	b.n	8000fbe <I2C_MasterTransferData+0xea>
 800146c:	f44f 41a8 	mov.w	r1, #21504	; 0x5400
 8001470:	f2c4 0100 	movt	r1, #16384	; 0x4000
 8001474:	2500      	movs	r5, #0
 8001476:	428c      	cmp	r4, r1
 8001478:	d00f      	beq.n	800149a <I2C_MasterTransferData+0x5c6>
 800147a:	f44f 40b0 	mov.w	r0, #22528	; 0x5800
 800147e:	f2c4 0000 	movt	r0, #16384	; 0x4000
 8001482:	2501      	movs	r5, #1
 8001484:	4284      	cmp	r4, r0
 8001486:	d008      	beq.n	800149a <I2C_MasterTransferData+0x5c6>
 8001488:	f44f 45b8 	mov.w	r5, #23552	; 0x5c00
 800148c:	f2c4 0500 	movt	r5, #16384	; 0x4000
 8001490:	42ac      	cmp	r4, r5
 8001492:	bf14      	ite	ne
 8001494:	f04f 35ff 	movne.w	r5, #4294967295
 8001498:	2502      	moveq	r5, #2
 800149a:	f640 0e8c 	movw	lr, #2188	; 0x88c
 800149e:	f2c2 0e00 	movt	lr, #8192	; 0x2000
 80014a2:	eb0e 0cc5 	add.w	ip, lr, r5, lsl #3
 80014a6:	2200      	movs	r2, #0
 80014a8:	f88c 2004 	strb.w	r2, [ip, #4]
 80014ac:	4620      	mov	r0, r4
 80014ae:	f84e 3035 	str.w	r3, [lr, r5, lsl #3]
 80014b2:	f44f 61e0 	mov.w	r1, #1792	; 0x700
 80014b6:	829a      	strh	r2, [r3, #20]
 80014b8:	725a      	strb	r2, [r3, #9]
 80014ba:	745a      	strb	r2, [r3, #17]
 80014bc:	74da      	strb	r2, [r3, #19]
 80014be:	2201      	movs	r2, #1
 80014c0:	f004 f92c 	bl	800571c <I2C_ITConfig>
 80014c4:	8821      	ldrh	r1, [r4, #0]
 80014c6:	b28a      	uxth	r2, r1
 80014c8:	f442 7380 	orr.w	r3, r2, #256	; 0x100
 80014cc:	8023      	strh	r3, [r4, #0]
 80014ce:	2001      	movs	r0, #1
 80014d0:	bdf8      	pop	{r3, r4, r5, r6, r7, pc}
 80014d2:	8820      	ldrh	r0, [r4, #0]
 80014d4:	f420 6180 	bic.w	r1, r0, #1024	; 0x400
 80014d8:	0408      	lsls	r0, r1, #16
 80014da:	0c01      	lsrs	r1, r0, #16
 80014dc:	8021      	strh	r1, [r4, #0]
 80014de:	8820      	ldrh	r0, [r4, #0]
 80014e0:	b281      	uxth	r1, r0
 80014e2:	f441 6c00 	orr.w	ip, r1, #2048	; 0x800
 80014e6:	f8a4 c000 	strh.w	ip, [r4]
 80014ea:	8b21      	ldrh	r1, [r4, #24]
 80014ec:	8aa0      	ldrh	r0, [r4, #20]
 80014ee:	0741      	lsls	r1, r0, #29
 80014f0:	d410      	bmi.n	8001514 <I2C_MasterTransferData+0x640>
 80014f2:	f44f 5110 	mov.w	r1, #9216	; 0x2400
 80014f6:	f2c0 01f4 	movt	r1, #244	; 0xf4
 80014fa:	e008      	b.n	800150e <I2C_MasterTransferData+0x63a>
 80014fc:	f8b4 c014 	ldrh.w	ip, [r4, #20]
 8001500:	3901      	subs	r1, #1
 8001502:	ea5f 704c 	movs.w	r0, ip, lsl #29
 8001506:	d405      	bmi.n	8001514 <I2C_MasterTransferData+0x640>
 8001508:	3901      	subs	r1, #1
 800150a:	f000 80c0 	beq.w	800168e <I2C_MasterTransferData+0x7ba>
 800150e:	8aa0      	ldrh	r0, [r4, #20]
 8001510:	0740      	lsls	r0, r0, #29
 8001512:	d5f3      	bpl.n	80014fc <I2C_MasterTransferData+0x628>
 8001514:	8aa1      	ldrh	r1, [r4, #20]
 8001516:	f421 5c00 	bic.w	ip, r1, #8192	; 0x2000
 800151a:	f02c 0020 	bic.w	r0, ip, #32
 800151e:	0401      	lsls	r1, r0, #16
 8001520:	0c09      	lsrs	r1, r1, #16
 8001522:	8820      	ldrh	r0, [r4, #0]
 8001524:	8299      	strh	r1, [r3, #20]
 8001526:	b281      	uxth	r1, r0
 8001528:	f441 7c00 	orr.w	ip, r1, #512	; 0x200
 800152c:	f8a4 c000 	strh.w	ip, [r4]
 8001530:	8aa0      	ldrh	r0, [r4, #20]
 8001532:	0641      	lsls	r1, r0, #25
 8001534:	d410      	bmi.n	8001558 <I2C_MasterTransferData+0x684>
 8001536:	f44f 5110 	mov.w	r1, #9216	; 0x2400
 800153a:	f2c0 01f4 	movt	r1, #244	; 0xf4
 800153e:	e008      	b.n	8001552 <I2C_MasterTransferData+0x67e>
 8001540:	f8b4 c014 	ldrh.w	ip, [r4, #20]
 8001544:	3901      	subs	r1, #1
 8001546:	ea5f 604c 	movs.w	r0, ip, lsl #25
 800154a:	d405      	bmi.n	8001558 <I2C_MasterTransferData+0x684>
 800154c:	3901      	subs	r1, #1
 800154e:	f000 8093 	beq.w	8001678 <I2C_MasterTransferData+0x7a4>
 8001552:	8aa0      	ldrh	r0, [r4, #20]
 8001554:	0640      	lsls	r0, r0, #25
 8001556:	d5f3      	bpl.n	8001540 <I2C_MasterTransferData+0x66c>
 8001558:	8a20      	ldrh	r0, [r4, #16]
 800155a:	7038      	strb	r0, [r7, #0]
 800155c:	8aa1      	ldrh	r1, [r4, #20]
 800155e:	f421 5c00 	bic.w	ip, r1, #8192	; 0x2000
 8001562:	f02c 0020 	bic.w	r0, ip, #32
 8001566:	0401      	lsls	r1, r0, #16
 8001568:	0c09      	lsrs	r1, r1, #16
 800156a:	f411 4f7f 	tst.w	r1, #65280	; 0xff00
 800156e:	8299      	strh	r1, [r3, #20]
 8001570:	f47f adac 	bne.w	80010cc <I2C_MasterTransferData+0x1f8>
 8001574:	7c58      	ldrb	r0, [r3, #17]
 8001576:	1c41      	adds	r1, r0, #1
 8001578:	7459      	strb	r1, [r3, #17]
 800157a:	f8b4 c014 	ldrh.w	ip, [r4, #20]
 800157e:	ea5f 614c 	movs.w	r1, ip, lsl #25
 8001582:	d410      	bmi.n	80015a6 <I2C_MasterTransferData+0x6d2>
 8001584:	f44f 5110 	mov.w	r1, #9216	; 0x2400
 8001588:	f2c0 01f4 	movt	r1, #244	; 0xf4
 800158c:	e008      	b.n	80015a0 <I2C_MasterTransferData+0x6cc>
 800158e:	f8b4 c014 	ldrh.w	ip, [r4, #20]
 8001592:	3901      	subs	r1, #1
 8001594:	ea5f 604c 	movs.w	r0, ip, lsl #25
 8001598:	d405      	bmi.n	80015a6 <I2C_MasterTransferData+0x6d2>
 800159a:	3901      	subs	r1, #1
 800159c:	f000 8082 	beq.w	80016a4 <I2C_MasterTransferData+0x7d0>
 80015a0:	8aa0      	ldrh	r0, [r4, #20]
 80015a2:	0640      	lsls	r0, r0, #25
 80015a4:	d5f3      	bpl.n	800158e <I2C_MasterTransferData+0x6ba>
 80015a6:	8a20      	ldrh	r0, [r4, #16]
 80015a8:	7078      	strb	r0, [r7, #1]
 80015aa:	8aa1      	ldrh	r1, [r4, #20]
 80015ac:	f421 5c00 	bic.w	ip, r1, #8192	; 0x2000
 80015b0:	f02c 0020 	bic.w	r0, ip, #32
 80015b4:	0401      	lsls	r1, r0, #16
 80015b6:	0c09      	lsrs	r1, r1, #16
 80015b8:	f411 4f7f 	tst.w	r1, #65280	; 0xff00
 80015bc:	8299      	strh	r1, [r3, #20]
 80015be:	f47f ad85 	bne.w	80010cc <I2C_MasterTransferData+0x1f8>
 80015c2:	7c58      	ldrb	r0, [r3, #17]
 80015c4:	1c41      	adds	r1, r0, #1
 80015c6:	7459      	strb	r1, [r3, #17]
 80015c8:	8b22      	ldrh	r2, [r4, #24]
 80015ca:	0790      	lsls	r0, r2, #30
 80015cc:	d510      	bpl.n	80015f0 <I2C_MasterTransferData+0x71c>
 80015ce:	f44f 5210 	mov.w	r2, #9216	; 0x2400
 80015d2:	f2c0 02f4 	movt	r2, #244	; 0xf4
 80015d6:	e008      	b.n	80015ea <I2C_MasterTransferData+0x716>
 80015d8:	f8b4 c018 	ldrh.w	ip, [r4, #24]
 80015dc:	3a01      	subs	r2, #1
 80015de:	ea5f 718c 	movs.w	r1, ip, lsl #30
 80015e2:	d505      	bpl.n	80015f0 <I2C_MasterTransferData+0x71c>
 80015e4:	3a01      	subs	r2, #1
 80015e6:	f000 80c1 	beq.w	800176c <I2C_MasterTransferData+0x898>
 80015ea:	8b21      	ldrh	r1, [r4, #24]
 80015ec:	0788      	lsls	r0, r1, #30
 80015ee:	d4f3      	bmi.n	80015d8 <I2C_MasterTransferData+0x704>
 80015f0:	8aa0      	ldrh	r0, [r4, #20]
 80015f2:	f420 5100 	bic.w	r1, r0, #8192	; 0x2000
 80015f6:	f021 0220 	bic.w	r2, r1, #32
 80015fa:	0410      	lsls	r0, r2, #16
 80015fc:	0c02      	lsrs	r2, r0, #16
 80015fe:	e0be      	b.n	800177e <I2C_MasterTransferData+0x8aa>
 8001600:	8820      	ldrh	r0, [r4, #0]
 8001602:	b283      	uxth	r3, r0
 8001604:	f443 7200 	orr.w	r2, r3, #512	; 0x200
 8001608:	8022      	strh	r2, [r4, #0]
 800160a:	2000      	movs	r0, #0
 800160c:	bdf8      	pop	{r3, r4, r5, r6, r7, pc}
 800160e:	f8b4 c014 	ldrh.w	ip, [r4, #20]
 8001612:	f42c 5000 	bic.w	r0, ip, #8192	; 0x2000
 8001616:	f020 0120 	bic.w	r1, r0, #32
 800161a:	0408      	lsls	r0, r1, #16
 800161c:	0c01      	lsrs	r1, r0, #16
 800161e:	f441 5100 	orr.w	r1, r1, #8192	; 0x2000
 8001622:	e54d      	b.n	80010c0 <I2C_MasterTransferData+0x1ec>
 8001624:	8aa1      	ldrh	r1, [r4, #20]
 8001626:	f421 5c00 	bic.w	ip, r1, #8192	; 0x2000
 800162a:	f02c 0120 	bic.w	r1, ip, #32
 800162e:	0409      	lsls	r1, r1, #16
 8001630:	0c09      	lsrs	r1, r1, #16
 8001632:	f441 5100 	orr.w	r1, r1, #8192	; 0x2000
 8001636:	e514      	b.n	8001062 <I2C_MasterTransferData+0x18e>
 8001638:	8aa1      	ldrh	r1, [r4, #20]
 800163a:	f421 5c00 	bic.w	ip, r1, #8192	; 0x2000
 800163e:	f02c 0020 	bic.w	r0, ip, #32
 8001642:	0401      	lsls	r1, r0, #16
 8001644:	0c08      	lsrs	r0, r1, #16
 8001646:	f440 5100 	orr.w	r1, r0, #8192	; 0x2000
 800164a:	e5c5      	b.n	80011d8 <I2C_MasterTransferData+0x304>
 800164c:	f8b4 c014 	ldrh.w	ip, [r4, #20]
 8001650:	f42c 5000 	bic.w	r0, ip, #8192	; 0x2000
 8001654:	f020 0120 	bic.w	r1, r0, #32
 8001658:	0408      	lsls	r0, r1, #16
 800165a:	0c01      	lsrs	r1, r0, #16
 800165c:	f441 5100 	orr.w	r1, r1, #8192	; 0x2000
 8001660:	e6db      	b.n	800141a <I2C_MasterTransferData+0x546>
 8001662:	f8b4 c014 	ldrh.w	ip, [r4, #20]
 8001666:	f42c 5000 	bic.w	r0, ip, #8192	; 0x2000
 800166a:	f020 0120 	bic.w	r1, r0, #32
 800166e:	0408      	lsls	r0, r1, #16
 8001670:	0c01      	lsrs	r1, r0, #16
 8001672:	f441 5100 	orr.w	r1, r1, #8192	; 0x2000
 8001676:	e5d7      	b.n	8001228 <I2C_MasterTransferData+0x354>
 8001678:	f8b4 c014 	ldrh.w	ip, [r4, #20]
 800167c:	f42c 5000 	bic.w	r0, ip, #8192	; 0x2000
 8001680:	f020 0120 	bic.w	r1, r0, #32
 8001684:	0408      	lsls	r0, r1, #16
 8001686:	0c01      	lsrs	r1, r0, #16
 8001688:	f441 5100 	orr.w	r1, r1, #8192	; 0x2000
 800168c:	e76d      	b.n	800156a <I2C_MasterTransferData+0x696>
 800168e:	f8b4 c014 	ldrh.w	ip, [r4, #20]
 8001692:	f42c 5000 	bic.w	r0, ip, #8192	; 0x2000
 8001696:	f020 0120 	bic.w	r1, r0, #32
 800169a:	0408      	lsls	r0, r1, #16
 800169c:	0c01      	lsrs	r1, r0, #16
 800169e:	f441 5100 	orr.w	r1, r1, #8192	; 0x2000
 80016a2:	e73e      	b.n	8001522 <I2C_MasterTransferData+0x64e>
 80016a4:	f8b4 c014 	ldrh.w	ip, [r4, #20]
 80016a8:	f42c 5000 	bic.w	r0, ip, #8192	; 0x2000
 80016ac:	f020 0120 	bic.w	r1, r0, #32
 80016b0:	0408      	lsls	r0, r1, #16
 80016b2:	0c01      	lsrs	r1, r0, #16
 80016b4:	f441 5100 	orr.w	r1, r1, #8192	; 0x2000
 80016b8:	e77e      	b.n	80015b8 <I2C_MasterTransferData+0x6e4>
 80016ba:	f8b4 c014 	ldrh.w	ip, [r4, #20]
 80016be:	f42c 5000 	bic.w	r0, ip, #8192	; 0x2000
 80016c2:	f020 0120 	bic.w	r1, r0, #32
 80016c6:	0408      	lsls	r0, r1, #16
 80016c8:	0c01      	lsrs	r1, r0, #16
 80016ca:	f441 5100 	orr.w	r1, r1, #8192	; 0x2000
 80016ce:	e5d0      	b.n	8001272 <I2C_MasterTransferData+0x39e>
 80016d0:	f8b4 c000 	ldrh.w	ip, [r4]
 80016d4:	fa1f f18c 	uxth.w	r1, ip
 80016d8:	f441 7000 	orr.w	r0, r1, #512	; 0x200
 80016dc:	8020      	strh	r0, [r4, #0]
 80016de:	8b22      	ldrh	r2, [r4, #24]
 80016e0:	0790      	lsls	r0, r2, #30
 80016e2:	d50d      	bpl.n	8001700 <I2C_MasterTransferData+0x82c>
 80016e4:	f44f 5210 	mov.w	r2, #9216	; 0x2400
 80016e8:	f2c0 02f4 	movt	r2, #244	; 0xf4
 80016ec:	e005      	b.n	80016fa <I2C_MasterTransferData+0x826>
 80016ee:	8b20      	ldrh	r0, [r4, #24]
 80016f0:	3a01      	subs	r2, #1
 80016f2:	0781      	lsls	r1, r0, #30
 80016f4:	d504      	bpl.n	8001700 <I2C_MasterTransferData+0x82c>
 80016f6:	3a01      	subs	r2, #1
 80016f8:	d00e      	beq.n	8001718 <I2C_MasterTransferData+0x844>
 80016fa:	8b21      	ldrh	r1, [r4, #24]
 80016fc:	0788      	lsls	r0, r1, #30
 80016fe:	d4f6      	bmi.n	80016ee <I2C_MasterTransferData+0x81a>
 8001700:	8aa0      	ldrh	r0, [r4, #20]
 8001702:	f420 5100 	bic.w	r1, r0, #8192	; 0x2000
 8001706:	f021 0220 	bic.w	r2, r1, #32
 800170a:	0410      	lsls	r0, r2, #16
 800170c:	0c02      	lsrs	r2, r0, #16
 800170e:	e00c      	b.n	800172a <I2C_MasterTransferData+0x856>
 8001710:	2001      	movs	r0, #1
 8001712:	bdf8      	pop	{r3, r4, r5, r6, r7, pc}
 8001714:	2001      	movs	r0, #1
 8001716:	bdf8      	pop	{r3, r4, r5, r6, r7, pc}
 8001718:	8aa2      	ldrh	r2, [r4, #20]
 800171a:	f422 5c00 	bic.w	ip, r2, #8192	; 0x2000
 800171e:	f02c 0020 	bic.w	r0, ip, #32
 8001722:	0401      	lsls	r1, r0, #16
 8001724:	0c0a      	lsrs	r2, r1, #16
 8001726:	f442 5200 	orr.w	r2, r2, #8192	; 0x2000
 800172a:	829a      	strh	r2, [r3, #20]
 800172c:	2001      	movs	r0, #1
 800172e:	bdf8      	pop	{r3, r4, r5, r6, r7, pc}
 8001730:	f8b4 c014 	ldrh.w	ip, [r4, #20]
 8001734:	f42c 5000 	bic.w	r0, ip, #8192	; 0x2000
 8001738:	f020 0120 	bic.w	r1, r0, #32
 800173c:	0408      	lsls	r0, r1, #16
 800173e:	0c01      	lsrs	r1, r0, #16
 8001740:	f441 5100 	orr.w	r1, r1, #8192	; 0x2000
 8001744:	e5e4      	b.n	8001310 <I2C_MasterTransferData+0x43c>
 8001746:	f8b4 c014 	ldrh.w	ip, [r4, #20]
 800174a:	f42c 5000 	bic.w	r0, ip, #8192	; 0x2000
 800174e:	f020 0120 	bic.w	r1, r0, #32
 8001752:	0408      	lsls	r0, r1, #16
 8001754:	0c01      	lsrs	r1, r0, #16
 8001756:	f441 5100 	orr.w	r1, r1, #8192	; 0x2000
 800175a:	e5b2      	b.n	80012c2 <I2C_MasterTransferData+0x3ee>
 800175c:	8aa0      	ldrh	r0, [r4, #20]
 800175e:	f420 5100 	bic.w	r1, r0, #8192	; 0x2000
 8001762:	f021 0220 	bic.w	r2, r1, #32
 8001766:	0410      	lsls	r0, r2, #16
 8001768:	0c02      	lsrs	r2, r0, #16
 800176a:	e5f7      	b.n	800135c <I2C_MasterTransferData+0x488>
 800176c:	8aa2      	ldrh	r2, [r4, #20]
 800176e:	f422 5c00 	bic.w	ip, r2, #8192	; 0x2000
 8001772:	f02c 0020 	bic.w	r0, ip, #32
 8001776:	0401      	lsls	r1, r0, #16
 8001778:	0c0a      	lsrs	r2, r1, #16
 800177a:	f442 5200 	orr.w	r2, r2, #8192	; 0x2000
 800177e:	8821      	ldrh	r1, [r4, #0]
 8001780:	829a      	strh	r2, [r3, #20]
 8001782:	b28b      	uxth	r3, r1
 8001784:	f443 6c80 	orr.w	ip, r3, #1024	; 0x400
 8001788:	f8a4 c000 	strh.w	ip, [r4]
 800178c:	8820      	ldrh	r0, [r4, #0]
 800178e:	f420 6100 	bic.w	r1, r0, #2048	; 0x800
 8001792:	040a      	lsls	r2, r1, #16
 8001794:	0c13      	lsrs	r3, r2, #16
 8001796:	8023      	strh	r3, [r4, #0]
 8001798:	2001      	movs	r0, #1
 800179a:	bdf8      	pop	{r3, r4, r5, r6, r7, pc}

0800179c <I2C_MasterHandler>:
 800179c:	f8b0 c014 	ldrh.w	ip, [r0, #20]
 80017a0:	f42c 5100 	bic.w	r1, ip, #8192	; 0x2000
 80017a4:	b5f8      	push	{r3, r4, r5, r6, r7, lr}
 80017a6:	f240 127c 	movw	r2, #380	; 0x17c
 80017aa:	f021 0620 	bic.w	r6, r1, #32
 80017ae:	f44f 41a8 	mov.w	r1, #21504	; 0x5400
 80017b2:	0435      	lsls	r5, r6, #16
 80017b4:	f2c2 0200 	movt	r2, #8192	; 0x2000
 80017b8:	f2c4 0100 	movt	r1, #16384	; 0x4000
 80017bc:	0c2b      	lsrs	r3, r5, #16
 80017be:	2600      	movs	r6, #0
 80017c0:	4288      	cmp	r0, r1
 80017c2:	4604      	mov	r4, r0
 80017c4:	8013      	strh	r3, [r2, #0]
 80017c6:	d00f      	beq.n	80017e8 <I2C_MasterHandler+0x4c>
 80017c8:	f44f 43b0 	mov.w	r3, #22528	; 0x5800
 80017cc:	f2c4 0300 	movt	r3, #16384	; 0x4000
 80017d0:	2601      	movs	r6, #1
 80017d2:	4298      	cmp	r0, r3
 80017d4:	d008      	beq.n	80017e8 <I2C_MasterHandler+0x4c>
 80017d6:	f44f 45b8 	mov.w	r5, #23552	; 0x5c00
 80017da:	f2c4 0500 	movt	r5, #16384	; 0x4000
 80017de:	42a8      	cmp	r0, r5
 80017e0:	bf14      	ite	ne
 80017e2:	f04f 36ff 	movne.w	r6, #4294967295
 80017e6:	2602      	moveq	r6, #2
 80017e8:	f640 058c 	movw	r5, #2188	; 0x88c
 80017ec:	f2c2 0500 	movt	r5, #8192	; 0x2000
 80017f0:	f240 117c 	movw	r1, #380	; 0x17c
 80017f4:	f855 3036 	ldr.w	r3, [r5, r6, lsl #3]
 80017f8:	8810      	ldrh	r0, [r2, #0]
 80017fa:	8812      	ldrh	r2, [r2, #0]
 80017fc:	8298      	strh	r0, [r3, #20]
 80017fe:	f412 425f 	ands.w	r2, r2, #57088	; 0xdf00
 8001802:	f2c2 0100 	movt	r1, #8192	; 0x2000
 8001806:	d027      	beq.n	8001858 <I2C_MasterHandler+0xbc>
 8001808:	8aa0      	ldrh	r0, [r4, #20]
 800180a:	8aa3      	ldrh	r3, [r4, #20]
 800180c:	b281      	uxth	r1, r0
 800180e:	f403 4c5f 	and.w	ip, r3, #57088	; 0xdf00
 8001812:	ea21 0e0c 	bic.w	lr, r1, ip
 8001816:	f8a4 e014 	strh.w	lr, [r4, #20]
 800181a:	f855 0036 	ldr.w	r0, [r5, r6, lsl #3]
 800181e:	7cc2      	ldrb	r2, [r0, #19]
 8001820:	1c51      	adds	r1, r2, #1
 8001822:	74c1      	strb	r1, [r0, #19]
 8001824:	f855 3036 	ldr.w	r3, [r5, r6, lsl #3]
 8001828:	f855 0036 	ldr.w	r0, [r5, r6, lsl #3]
 800182c:	7cd9      	ldrb	r1, [r3, #19]
 800182e:	7c82      	ldrb	r2, [r0, #18]
 8001830:	4291      	cmp	r1, r2
 8001832:	d93f      	bls.n	80018b4 <I2C_MasterHandler+0x118>
 8001834:	4620      	mov	r0, r4
 8001836:	f44f 61e0 	mov.w	r1, #1792	; 0x700
 800183a:	2200      	movs	r2, #0
 800183c:	f003 ff6e 	bl	800571c <I2C_ITConfig>
 8001840:	8821      	ldrh	r1, [r4, #0]
 8001842:	b28a      	uxth	r2, r1
 8001844:	f442 7000 	orr.w	r0, r2, #512	; 0x200
 8001848:	8020      	strh	r0, [r4, #0]
 800184a:	f855 1036 	ldr.w	r1, [r5, r6, lsl #3]
 800184e:	8a8b      	ldrh	r3, [r1, #20]
 8001850:	f443 5200 	orr.w	r2, r3, #8192	; 0x2000
 8001854:	828a      	strh	r2, [r1, #20]
 8001856:	bdf8      	pop	{r3, r4, r5, r6, r7, pc}
 8001858:	00f0      	lsls	r0, r6, #3
 800185a:	eb05 0c00 	add.w	ip, r5, r0
 800185e:	f89c 3004 	ldrb.w	r3, [ip, #4]
 8001862:	b963      	cbnz	r3, 800187e <I2C_MasterHandler+0xe2>
 8001864:	880a      	ldrh	r2, [r1, #0]
 8001866:	f002 02df 	and.w	r2, r2, #223	; 0xdf
 800186a:	2a04      	cmp	r2, #4
 800186c:	d03e      	beq.n	80018ec <I2C_MasterHandler+0x150>
 800186e:	dc38      	bgt.n	80018e2 <I2C_MasterHandler+0x146>
 8001870:	2a01      	cmp	r2, #1
 8001872:	f000 80c1 	beq.w	80019f8 <I2C_MasterHandler+0x25c>
 8001876:	2a02      	cmp	r2, #2
 8001878:	f000 80b0 	beq.w	80019dc <I2C_MasterHandler+0x240>
 800187c:	bdf8      	pop	{r3, r4, r5, r6, r7, pc}
 800187e:	8808      	ldrh	r0, [r1, #0]
 8001880:	f000 03df 	and.w	r3, r0, #223	; 0xdf
 8001884:	2b04      	cmp	r3, #4
 8001886:	d056      	beq.n	8001936 <I2C_MasterHandler+0x19a>
 8001888:	dc50      	bgt.n	800192c <I2C_MasterHandler+0x190>
 800188a:	2b01      	cmp	r3, #1
 800188c:	f000 80be 	beq.w	8001a0c <I2C_MasterHandler+0x270>
 8001890:	2b02      	cmp	r3, #2
 8001892:	d1f3      	bne.n	800187c <I2C_MasterHandler+0xe0>
 8001894:	f855 3036 	ldr.w	r3, [r5, r6, lsl #3]
 8001898:	7c18      	ldrb	r0, [r3, #16]
 800189a:	2801      	cmp	r0, #1
 800189c:	f000 8133 	beq.w	8001b06 <I2C_MasterHandler+0x36a>
 80018a0:	f855 3036 	ldr.w	r3, [r5, r6, lsl #3]
 80018a4:	f893 c010 	ldrb.w	ip, [r3, #16]
 80018a8:	f1bc 0f02 	cmp.w	ip, #2
 80018ac:	f000 8174 	beq.w	8001b98 <I2C_MasterHandler+0x3fc>
 80018b0:	8b23      	ldrh	r3, [r4, #24]
 80018b2:	bdf8      	pop	{r3, r4, r5, r6, r7, pc}
 80018b4:	f855 0036 	ldr.w	r0, [r5, r6, lsl #3]
 80018b8:	2100      	movs	r1, #0
 80018ba:	7241      	strb	r1, [r0, #9]
 80018bc:	f855 3036 	ldr.w	r3, [r5, r6, lsl #3]
 80018c0:	7459      	strb	r1, [r3, #17]
 80018c2:	f855 2036 	ldr.w	r2, [r5, r6, lsl #3]
 80018c6:	4620      	mov	r0, r4
 80018c8:	8291      	strh	r1, [r2, #20]
 80018ca:	f44f 61e0 	mov.w	r1, #1792	; 0x700
 80018ce:	2201      	movs	r2, #1
 80018d0:	f003 ff24 	bl	800571c <I2C_ITConfig>
 80018d4:	8820      	ldrh	r0, [r4, #0]
 80018d6:	b283      	uxth	r3, r0
 80018d8:	f443 7c80 	orr.w	ip, r3, #256	; 0x100
 80018dc:	f8a4 c000 	strh.w	ip, [r4]
 80018e0:	bdf8      	pop	{r3, r4, r5, r6, r7, pc}
 80018e2:	2a82      	cmp	r2, #130	; 0x82
 80018e4:	d07a      	beq.n	80019dc <I2C_MasterHandler+0x240>
 80018e6:	2a84      	cmp	r2, #132	; 0x84
 80018e8:	f040 80ee 	bne.w	8001ac8 <I2C_MasterHandler+0x32c>
 80018ec:	f855 3036 	ldr.w	r3, [r5, r6, lsl #3]
 80018f0:	7c1a      	ldrb	r2, [r3, #16]
 80018f2:	f640 038c 	movw	r3, #2188	; 0x88c
 80018f6:	f2c2 0300 	movt	r3, #8192	; 0x2000
 80018fa:	2a00      	cmp	r2, #0
 80018fc:	f000 8093 	beq.w	8001a26 <I2C_MasterHandler+0x28a>
 8001900:	f853 2036 	ldr.w	r2, [r3, r6, lsl #3]
 8001904:	68d1      	ldr	r1, [r2, #12]
 8001906:	2900      	cmp	r1, #0
 8001908:	f000 808d 	beq.w	8001a26 <I2C_MasterHandler+0x28a>
 800190c:	1819      	adds	r1, r3, r0
 800190e:	2201      	movs	r2, #1
 8001910:	710a      	strb	r2, [r1, #4]
 8001912:	8823      	ldrh	r3, [r4, #0]
 8001914:	fa1f fc83 	uxth.w	ip, r3
 8001918:	f44c 7080 	orr.w	r0, ip, #256	; 0x100
 800191c:	8020      	strh	r0, [r4, #0]
 800191e:	f44f 6180 	mov.w	r1, #1024	; 0x400
 8001922:	4620      	mov	r0, r4
 8001924:	e8bd 40f8 	ldmia.w	sp!, {r3, r4, r5, r6, r7, lr}
 8001928:	f003 bef8 	b.w	800571c <I2C_ITConfig>
 800192c:	2b40      	cmp	r3, #64	; 0x40
 800192e:	f000 8094 	beq.w	8001a5a <I2C_MasterHandler+0x2be>
 8001932:	2b44      	cmp	r3, #68	; 0x44
 8001934:	d1a2      	bne.n	800187c <I2C_MasterHandler+0xe0>
 8001936:	f855 5036 	ldr.w	r5, [r5, r6, lsl #3]
 800193a:	7c29      	ldrb	r1, [r5, #16]
 800193c:	f640 058c 	movw	r5, #2188	; 0x88c
 8001940:	2902      	cmp	r1, #2
 8001942:	f2c2 0500 	movt	r5, #8192	; 0x2000
 8001946:	f000 80eb 	beq.w	8001b20 <I2C_MasterHandler+0x384>
 800194a:	f855 1036 	ldr.w	r1, [r5, r6, lsl #3]
 800194e:	7c0a      	ldrb	r2, [r1, #16]
 8001950:	2a02      	cmp	r2, #2
 8001952:	d993      	bls.n	800187c <I2C_MasterHandler+0xe0>
 8001954:	f855 1036 	ldr.w	r1, [r5, r6, lsl #3]
 8001958:	f855 3036 	ldr.w	r3, [r5, r6, lsl #3]
 800195c:	7c0a      	ldrb	r2, [r1, #16]
 800195e:	f893 c011 	ldrb.w	ip, [r3, #17]
 8001962:	ebcc 0002 	rsb	r0, ip, r2
 8001966:	2803      	cmp	r0, #3
 8001968:	f000 8128 	beq.w	8001bbc <I2C_MasterHandler+0x420>
 800196c:	f855 2036 	ldr.w	r2, [r5, r6, lsl #3]
 8001970:	f855 1036 	ldr.w	r1, [r5, r6, lsl #3]
 8001974:	7c10      	ldrb	r0, [r2, #16]
 8001976:	7c4b      	ldrb	r3, [r1, #17]
 8001978:	ebc3 0c00 	rsb	ip, r3, r0
 800197c:	f1bc 0f02 	cmp.w	ip, #2
 8001980:	f47f af7c 	bne.w	800187c <I2C_MasterHandler+0xe0>
 8001984:	4620      	mov	r0, r4
 8001986:	f44f 61e0 	mov.w	r1, #1792	; 0x700
 800198a:	2200      	movs	r2, #0
 800198c:	f003 fec6 	bl	800571c <I2C_ITConfig>
 8001990:	8821      	ldrh	r1, [r4, #0]
 8001992:	b28a      	uxth	r2, r1
 8001994:	f442 7300 	orr.w	r3, r2, #512	; 0x200
 8001998:	8023      	strh	r3, [r4, #0]
 800199a:	f855 0036 	ldr.w	r0, [r5, r6, lsl #3]
 800199e:	f855 3036 	ldr.w	r3, [r5, r6, lsl #3]
 80019a2:	68c1      	ldr	r1, [r0, #12]
 80019a4:	f8b4 c010 	ldrh.w	ip, [r4, #16]
 80019a8:	7c5a      	ldrb	r2, [r3, #17]
 80019aa:	f801 c002 	strb.w	ip, [r1, r2]
 80019ae:	1c50      	adds	r0, r2, #1
 80019b0:	7458      	strb	r0, [r3, #17]
 80019b2:	f855 1036 	ldr.w	r1, [r5, r6, lsl #3]
 80019b6:	f855 3036 	ldr.w	r3, [r5, r6, lsl #3]
 80019ba:	68c8      	ldr	r0, [r1, #12]
 80019bc:	7c5a      	ldrb	r2, [r3, #17]
 80019be:	8a24      	ldrh	r4, [r4, #16]
 80019c0:	1c51      	adds	r1, r2, #1
 80019c2:	5484      	strb	r4, [r0, r2]
 80019c4:	7459      	strb	r1, [r3, #17]
 80019c6:	f855 0036 	ldr.w	r0, [r5, r6, lsl #3]
 80019ca:	6983      	ldr	r3, [r0, #24]
 80019cc:	2b00      	cmp	r3, #0
 80019ce:	f43f af55 	beq.w	800187c <I2C_MasterHandler+0xe0>
 80019d2:	f855 3036 	ldr.w	r3, [r5, r6, lsl #3]
 80019d6:	6998      	ldr	r0, [r3, #24]
 80019d8:	4780      	blx	r0
 80019da:	e74f      	b.n	800187c <I2C_MasterHandler+0xe0>
 80019dc:	8b23      	ldrh	r3, [r4, #24]
 80019de:	f855 0036 	ldr.w	r0, [r5, r6, lsl #3]
 80019e2:	f855 3036 	ldr.w	r3, [r5, r6, lsl #3]
 80019e6:	6841      	ldr	r1, [r0, #4]
 80019e8:	7a5a      	ldrb	r2, [r3, #9]
 80019ea:	f811 c002 	ldrb.w	ip, [r1, r2]
 80019ee:	1c50      	adds	r0, r2, #1
 80019f0:	f8a4 c010 	strh.w	ip, [r4, #16]
 80019f4:	7258      	strb	r0, [r3, #9]
 80019f6:	bdf8      	pop	{r3, r4, r5, r6, r7, pc}
 80019f8:	f855 3036 	ldr.w	r3, [r5, r6, lsl #3]
 80019fc:	7a19      	ldrb	r1, [r3, #8]
 80019fe:	2900      	cmp	r1, #0
 8001a00:	d176      	bne.n	8001af0 <I2C_MasterHandler+0x354>
 8001a02:	eb05 0c00 	add.w	ip, r5, r0
 8001a06:	2101      	movs	r1, #1
 8001a08:	f88c 1004 	strb.w	r1, [ip, #4]
 8001a0c:	f855 3036 	ldr.w	r3, [r5, r6, lsl #3]
 8001a10:	7c1a      	ldrb	r2, [r3, #16]
 8001a12:	f640 038c 	movw	r3, #2188	; 0x88c
 8001a16:	f2c2 0300 	movt	r3, #8192	; 0x2000
 8001a1a:	b122      	cbz	r2, 8001a26 <I2C_MasterHandler+0x28a>
 8001a1c:	f853 0036 	ldr.w	r0, [r3, r6, lsl #3]
 8001a20:	68c1      	ldr	r1, [r0, #12]
 8001a22:	2900      	cmp	r1, #0
 8001a24:	d148      	bne.n	8001ab8 <I2C_MasterHandler+0x31c>
 8001a26:	4620      	mov	r0, r4
 8001a28:	f44f 61e0 	mov.w	r1, #1792	; 0x700
 8001a2c:	2200      	movs	r2, #0
 8001a2e:	f003 fe75 	bl	800571c <I2C_ITConfig>
 8001a32:	8822      	ldrh	r2, [r4, #0]
 8001a34:	b290      	uxth	r0, r2
 8001a36:	f440 7100 	orr.w	r1, r0, #512	; 0x200
 8001a3a:	8021      	strh	r1, [r4, #0]
 8001a3c:	f855 3036 	ldr.w	r3, [r5, r6, lsl #3]
 8001a40:	699a      	ldr	r2, [r3, #24]
 8001a42:	f640 038c 	movw	r3, #2188	; 0x88c
 8001a46:	f2c2 0300 	movt	r3, #8192	; 0x2000
 8001a4a:	2a00      	cmp	r2, #0
 8001a4c:	f43f af16 	beq.w	800187c <I2C_MasterHandler+0xe0>
 8001a50:	f853 1036 	ldr.w	r1, [r3, r6, lsl #3]
 8001a54:	698b      	ldr	r3, [r1, #24]
 8001a56:	4798      	blx	r3
 8001a58:	bdf8      	pop	{r3, r4, r5, r6, r7, pc}
 8001a5a:	f855 3036 	ldr.w	r3, [r5, r6, lsl #3]
 8001a5e:	f893 c010 	ldrb.w	ip, [r3, #16]
 8001a62:	f1bc 0f01 	cmp.w	ip, #1
 8001a66:	f000 8087 	beq.w	8001b78 <I2C_MasterHandler+0x3dc>
 8001a6a:	f855 2036 	ldr.w	r2, [r5, r6, lsl #3]
 8001a6e:	f855 3036 	ldr.w	r3, [r5, r6, lsl #3]
 8001a72:	7c10      	ldrb	r0, [r2, #16]
 8001a74:	7c59      	ldrb	r1, [r3, #17]
 8001a76:	1a42      	subs	r2, r0, r1
 8001a78:	2a03      	cmp	r2, #3
 8001a7a:	dd09      	ble.n	8001a90 <I2C_MasterHandler+0x2f4>
 8001a7c:	f855 7036 	ldr.w	r7, [r5, r6, lsl #3]
 8001a80:	f855 3036 	ldr.w	r3, [r5, r6, lsl #3]
 8001a84:	68f8      	ldr	r0, [r7, #12]
 8001a86:	7c5a      	ldrb	r2, [r3, #17]
 8001a88:	8a27      	ldrh	r7, [r4, #16]
 8001a8a:	1c51      	adds	r1, r2, #1
 8001a8c:	5487      	strb	r7, [r0, r2]
 8001a8e:	7459      	strb	r1, [r3, #17]
 8001a90:	f855 2036 	ldr.w	r2, [r5, r6, lsl #3]
 8001a94:	f855 3036 	ldr.w	r3, [r5, r6, lsl #3]
 8001a98:	7c10      	ldrb	r0, [r2, #16]
 8001a9a:	f893 c011 	ldrb.w	ip, [r3, #17]
 8001a9e:	ebcc 0100 	rsb	r1, ip, r0
 8001aa2:	2903      	cmp	r1, #3
 8001aa4:	f47f aeea 	bne.w	800187c <I2C_MasterHandler+0xe0>
 8001aa8:	4620      	mov	r0, r4
 8001aaa:	f44f 6180 	mov.w	r1, #1024	; 0x400
 8001aae:	2200      	movs	r2, #0
 8001ab0:	e8bd 40f8 	ldmia.w	sp!, {r3, r4, r5, r6, r7, lr}
 8001ab4:	f003 be32 	b.w	800571c <I2C_ITConfig>
 8001ab8:	f853 0036 	ldr.w	r0, [r3, r6, lsl #3]
 8001abc:	7801      	ldrb	r1, [r0, #0]
 8001abe:	004b      	lsls	r3, r1, #1
 8001ac0:	f043 0201 	orr.w	r2, r3, #1
 8001ac4:	8222      	strh	r2, [r4, #16]
 8001ac6:	bdf8      	pop	{r3, r4, r5, r6, r7, pc}
 8001ac8:	2a80      	cmp	r2, #128	; 0x80
 8001aca:	f47f aed7 	bne.w	800187c <I2C_MasterHandler+0xe0>
 8001ace:	f855 1036 	ldr.w	r1, [r5, r6, lsl #3]
 8001ad2:	f855 2036 	ldr.w	r2, [r5, r6, lsl #3]
 8001ad6:	7a48      	ldrb	r0, [r1, #9]
 8001ad8:	7a12      	ldrb	r2, [r2, #8]
 8001ada:	4290      	cmp	r0, r2
 8001adc:	f47f af7f 	bne.w	80019de <I2C_MasterHandler+0x242>
 8001ae0:	4620      	mov	r0, r4
 8001ae2:	f44f 6180 	mov.w	r1, #1024	; 0x400
 8001ae6:	461a      	mov	r2, r3
 8001ae8:	e8bd 40f8 	ldmia.w	sp!, {r3, r4, r5, r6, r7, lr}
 8001aec:	f003 be16 	b.w	800571c <I2C_ITConfig>
 8001af0:	f855 1036 	ldr.w	r1, [r5, r6, lsl #3]
 8001af4:	684a      	ldr	r2, [r1, #4]
 8001af6:	2a00      	cmp	r2, #0
 8001af8:	d083      	beq.n	8001a02 <I2C_MasterHandler+0x266>
 8001afa:	f855 2036 	ldr.w	r2, [r5, r6, lsl #3]
 8001afe:	7813      	ldrb	r3, [r2, #0]
 8001b00:	0058      	lsls	r0, r3, #1
 8001b02:	8220      	strh	r0, [r4, #16]
 8001b04:	bdf8      	pop	{r3, r4, r5, r6, r7, pc}
 8001b06:	8820      	ldrh	r0, [r4, #0]
 8001b08:	f420 6180 	bic.w	r1, r0, #1024	; 0x400
 8001b0c:	040a      	lsls	r2, r1, #16
 8001b0e:	0c13      	lsrs	r3, r2, #16
 8001b10:	8023      	strh	r3, [r4, #0]
 8001b12:	8b23      	ldrh	r3, [r4, #24]
 8001b14:	8820      	ldrh	r0, [r4, #0]
 8001b16:	b281      	uxth	r1, r0
 8001b18:	f441 7200 	orr.w	r2, r1, #512	; 0x200
 8001b1c:	8022      	strh	r2, [r4, #0]
 8001b1e:	bdf8      	pop	{r3, r4, r5, r6, r7, pc}
 8001b20:	4620      	mov	r0, r4
 8001b22:	f44f 61e0 	mov.w	r1, #1792	; 0x700
 8001b26:	2200      	movs	r2, #0
 8001b28:	f003 fdf8 	bl	800571c <I2C_ITConfig>
 8001b2c:	8821      	ldrh	r1, [r4, #0]
 8001b2e:	b28a      	uxth	r2, r1
 8001b30:	f442 7300 	orr.w	r3, r2, #512	; 0x200
 8001b34:	8023      	strh	r3, [r4, #0]
 8001b36:	f855 0036 	ldr.w	r0, [r5, r6, lsl #3]
 8001b3a:	f855 3036 	ldr.w	r3, [r5, r6, lsl #3]
 8001b3e:	68c1      	ldr	r1, [r0, #12]
 8001b40:	f8b4 c010 	ldrh.w	ip, [r4, #16]
 8001b44:	7c5a      	ldrb	r2, [r3, #17]
 8001b46:	f801 c002 	strb.w	ip, [r1, r2]
 8001b4a:	1c50      	adds	r0, r2, #1
 8001b4c:	7458      	strb	r0, [r3, #17]
 8001b4e:	f855 1036 	ldr.w	r1, [r5, r6, lsl #3]
 8001b52:	f855 3036 	ldr.w	r3, [r5, r6, lsl #3]
 8001b56:	68c8      	ldr	r0, [r1, #12]
 8001b58:	7c5a      	ldrb	r2, [r3, #17]
 8001b5a:	8a24      	ldrh	r4, [r4, #16]
 8001b5c:	1c51      	adds	r1, r2, #1
 8001b5e:	5484      	strb	r4, [r0, r2]
 8001b60:	7459      	strb	r1, [r3, #17]
 8001b62:	f855 3036 	ldr.w	r3, [r5, r6, lsl #3]
 8001b66:	6998      	ldr	r0, [r3, #24]
 8001b68:	2800      	cmp	r0, #0
 8001b6a:	f43f ae87 	beq.w	800187c <I2C_MasterHandler+0xe0>
 8001b6e:	f855 3036 	ldr.w	r3, [r5, r6, lsl #3]
 8001b72:	6998      	ldr	r0, [r3, #24]
 8001b74:	4780      	blx	r0
 8001b76:	bdf8      	pop	{r3, r4, r5, r6, r7, pc}
 8001b78:	4620      	mov	r0, r4
 8001b7a:	f44f 61e0 	mov.w	r1, #1792	; 0x700
 8001b7e:	f003 fdcd 	bl	800571c <I2C_ITConfig>
 8001b82:	f855 1036 	ldr.w	r1, [r5, r6, lsl #3]
 8001b86:	f855 3036 	ldr.w	r3, [r5, r6, lsl #3]
 8001b8a:	68c8      	ldr	r0, [r1, #12]
 8001b8c:	7c5a      	ldrb	r2, [r3, #17]
 8001b8e:	8a24      	ldrh	r4, [r4, #16]
 8001b90:	1c51      	adds	r1, r2, #1
 8001b92:	5484      	strb	r4, [r0, r2]
 8001b94:	7459      	strb	r1, [r3, #17]
 8001b96:	bdf8      	pop	{r3, r4, r5, r6, r7, pc}
 8001b98:	4620      	mov	r0, r4
 8001b9a:	f44f 6180 	mov.w	r1, #1024	; 0x400
 8001b9e:	f003 fdbd 	bl	800571c <I2C_ITConfig>
 8001ba2:	8820      	ldrh	r0, [r4, #0]
 8001ba4:	f420 6180 	bic.w	r1, r0, #1024	; 0x400
 8001ba8:	040a      	lsls	r2, r1, #16
 8001baa:	0c13      	lsrs	r3, r2, #16
 8001bac:	8023      	strh	r3, [r4, #0]
 8001bae:	8820      	ldrh	r0, [r4, #0]
 8001bb0:	b281      	uxth	r1, r0
 8001bb2:	f441 6200 	orr.w	r2, r1, #2048	; 0x800
 8001bb6:	8022      	strh	r2, [r4, #0]
 8001bb8:	8b23      	ldrh	r3, [r4, #24]
 8001bba:	bdf8      	pop	{r3, r4, r5, r6, r7, pc}
 8001bbc:	8821      	ldrh	r1, [r4, #0]
 8001bbe:	f421 6380 	bic.w	r3, r1, #1024	; 0x400
 8001bc2:	041a      	lsls	r2, r3, #16
 8001bc4:	0c10      	lsrs	r0, r2, #16
 8001bc6:	8020      	strh	r0, [r4, #0]
 8001bc8:	e7db      	b.n	8001b82 <I2C_MasterHandler+0x3e6>
 8001bca:	bf00      	nop

08001bcc <I2C2_EV_IRQHandler>:
 8001bcc:	f44f 40b0 	mov.w	r0, #22528	; 0x5800
 8001bd0:	f2c4 0000 	movt	r0, #16384	; 0x4000
 8001bd4:	f7ff bde2 	b.w	800179c <I2C_MasterHandler>

08001bd8 <I2C2_ER_IRQHandler>:
 8001bd8:	f44f 40b0 	mov.w	r0, #22528	; 0x5800
 8001bdc:	f2c4 0000 	movt	r0, #16384	; 0x4000
 8001be0:	f7ff bddc 	b.w	800179c <I2C_MasterHandler>

08001be4 <LEDInit>:
 8001be4:	b500      	push	{lr}
 8001be6:	2002      	movs	r0, #2
 8001be8:	b083      	sub	sp, #12
 8001bea:	2101      	movs	r1, #1
 8001bec:	f002 facc 	bl	8004188 <RCC_AHB1PeriphClockCmd>
 8001bf0:	2002      	movs	r0, #2
 8001bf2:	2101      	movs	r1, #1
 8001bf4:	f002 fac8 	bl	8004188 <RCC_AHB1PeriphClockCmd>
 8001bf8:	a902      	add	r1, sp, #8
 8001bfa:	2003      	movs	r0, #3
 8001bfc:	f841 0d08 	str.w	r0, [r1, #-8]!
 8001c00:	f44f 6080 	mov.w	r0, #1024	; 0x400
 8001c04:	2300      	movs	r3, #0
 8001c06:	2201      	movs	r2, #1
 8001c08:	f2c4 0002 	movt	r0, #16386	; 0x4002
 8001c0c:	4669      	mov	r1, sp
 8001c0e:	f88d 2004 	strb.w	r2, [sp, #4]
 8001c12:	f88d 3006 	strb.w	r3, [sp, #6]
 8001c16:	f88d 3007 	strb.w	r3, [sp, #7]
 8001c1a:	f88d 3005 	strb.w	r3, [sp, #5]
 8001c1e:	f001 ff9f 	bl	8003b60 <GPIO_Init>
 8001c22:	b003      	add	sp, #12
 8001c24:	bd00      	pop	{pc}
 8001c26:	bf00      	nop

08001c28 <LEDToggle>:
 8001c28:	f240 021c 	movw	r2, #28
 8001c2c:	f2c2 0200 	movt	r2, #8192	; 0x2000
 8001c30:	f248 2c88 	movw	ip, #33416	; 0x8288
 8001c34:	f852 3020 	ldr.w	r3, [r2, r0, lsl #2]
 8001c38:	f6c0 0c00 	movt	ip, #2048	; 0x800
 8001c3c:	6959      	ldr	r1, [r3, #20]
 8001c3e:	f83c 0010 	ldrh.w	r0, [ip, r0, lsl #1]
 8001c42:	ea80 0201 	eor.w	r2, r0, r1
 8001c46:	615a      	str	r2, [r3, #20]
 8001c48:	4770      	bx	lr
 8001c4a:	bf00      	nop

08001c4c <LEDOn>:
 8001c4c:	f240 0c1c 	movw	ip, #28
 8001c50:	f248 2188 	movw	r1, #33416	; 0x8288
 8001c54:	f2c2 0c00 	movt	ip, #8192	; 0x2000
 8001c58:	f6c0 0100 	movt	r1, #2048	; 0x800
 8001c5c:	f85c 2020 	ldr.w	r2, [ip, r0, lsl #2]
 8001c60:	f831 3010 	ldrh.w	r3, [r1, r0, lsl #1]
 8001c64:	8313      	strh	r3, [r2, #24]
 8001c66:	4770      	bx	lr

08001c68 <LEDOff>:
 8001c68:	f240 0c1c 	movw	ip, #28
 8001c6c:	f248 2188 	movw	r1, #33416	; 0x8288
 8001c70:	f2c2 0c00 	movt	ip, #8192	; 0x2000
 8001c74:	f6c0 0100 	movt	r1, #2048	; 0x800
 8001c78:	f85c 2020 	ldr.w	r2, [ip, r0, lsl #2]
 8001c7c:	f831 3010 	ldrh.w	r3, [r1, r0, lsl #1]
 8001c80:	8353      	strh	r3, [r2, #26]
 8001c82:	4770      	bx	lr

08001c84 <InitMPU6050>:
 8001c84:	e92d 41f0 	stmdb	sp!, {r4, r5, r6, r7, r8, lr}
 8001c88:	b088      	sub	sp, #32
 8001c8a:	2369      	movs	r3, #105	; 0x69
 8001c8c:	f88d 3000 	strb.w	r3, [sp]
 8001c90:	ab07      	add	r3, sp, #28
 8001c92:	9301      	str	r3, [sp, #4]
 8001c94:	f44f 45b0 	mov.w	r5, #22528	; 0x5800
 8001c98:	f10d 031f 	add.w	r3, sp, #31
 8001c9c:	2400      	movs	r4, #0
 8001c9e:	f2c4 0500 	movt	r5, #16384	; 0x4000
 8001ca2:	9303      	str	r3, [sp, #12]
 8001ca4:	2305      	movs	r3, #5
 8001ca6:	2702      	movs	r7, #2
 8001ca8:	2601      	movs	r6, #1
 8001caa:	4669      	mov	r1, sp
 8001cac:	4622      	mov	r2, r4
 8001cae:	f88d 3012 	strb.w	r3, [sp, #18]
 8001cb2:	4628      	mov	r0, r5
 8001cb4:	236b      	movs	r3, #107	; 0x6b
 8001cb6:	f04f 0818 	mov.w	r8, #24
 8001cba:	f88d 301c 	strb.w	r3, [sp, #28]
 8001cbe:	9406      	str	r4, [sp, #24]
 8001cc0:	f88d 7008 	strb.w	r7, [sp, #8]
 8001cc4:	f88d 4010 	strb.w	r4, [sp, #16]
 8001cc8:	f88d 601d 	strb.w	r6, [sp, #29]
 8001ccc:	f7ff f902 	bl	8000ed4 <I2C_MasterTransferData>
 8001cd0:	231b      	movs	r3, #27
 8001cd2:	4669      	mov	r1, sp
 8001cd4:	4622      	mov	r2, r4
 8001cd6:	4628      	mov	r0, r5
 8001cd8:	f88d 301c 	strb.w	r3, [sp, #28]
 8001cdc:	f88d 801d 	strb.w	r8, [sp, #29]
 8001ce0:	f7ff f8f8 	bl	8000ed4 <I2C_MasterTransferData>
 8001ce4:	231c      	movs	r3, #28
 8001ce6:	4669      	mov	r1, sp
 8001ce8:	4622      	mov	r2, r4
 8001cea:	4628      	mov	r0, r5
 8001cec:	f88d 301c 	strb.w	r3, [sp, #28]
 8001cf0:	f88d 801d 	strb.w	r8, [sp, #29]
 8001cf4:	f7ff f8ee 	bl	8000ed4 <I2C_MasterTransferData>
 8001cf8:	231a      	movs	r3, #26
 8001cfa:	4669      	mov	r1, sp
 8001cfc:	4622      	mov	r2, r4
 8001cfe:	4628      	mov	r0, r5
 8001d00:	f88d 301c 	strb.w	r3, [sp, #28]
 8001d04:	f88d 701d 	strb.w	r7, [sp, #29]
 8001d08:	f7ff f8e4 	bl	8000ed4 <I2C_MasterTransferData>
 8001d0c:	2319      	movs	r3, #25
 8001d0e:	4669      	mov	r1, sp
 8001d10:	4622      	mov	r2, r4
 8001d12:	f88d 301c 	strb.w	r3, [sp, #28]
 8001d16:	4628      	mov	r0, r5
 8001d18:	2304      	movs	r3, #4
 8001d1a:	f88d 301d 	strb.w	r3, [sp, #29]
 8001d1e:	f7ff f8d9 	bl	8000ed4 <I2C_MasterTransferData>
 8001d22:	2337      	movs	r3, #55	; 0x37
 8001d24:	4669      	mov	r1, sp
 8001d26:	4622      	mov	r2, r4
 8001d28:	f88d 301c 	strb.w	r3, [sp, #28]
 8001d2c:	4628      	mov	r0, r5
 8001d2e:	2310      	movs	r3, #16
 8001d30:	f88d 301d 	strb.w	r3, [sp, #29]
 8001d34:	f7ff f8ce 	bl	8000ed4 <I2C_MasterTransferData>
 8001d38:	2338      	movs	r3, #56	; 0x38
 8001d3a:	4628      	mov	r0, r5
 8001d3c:	4669      	mov	r1, sp
 8001d3e:	4622      	mov	r2, r4
 8001d40:	f88d 301c 	strb.w	r3, [sp, #28]
 8001d44:	f88d 601d 	strb.w	r6, [sp, #29]
 8001d48:	f7ff f8c4 	bl	8000ed4 <I2C_MasterTransferData>
 8001d4c:	b008      	add	sp, #32
 8001d4e:	e8bd 81f0 	ldmia.w	sp!, {r4, r5, r6, r7, r8, pc}
 8001d52:	bf00      	nop

08001d54 <GetMPP6050ID>:
 8001d54:	b570      	push	{r4, r5, r6, lr}
 8001d56:	b088      	sub	sp, #32
 8001d58:	2300      	movs	r3, #0
 8001d5a:	9004      	str	r0, [sp, #16]
 8001d5c:	f240 0424 	movw	r4, #36	; 0x24
 8001d60:	f44f 40b0 	mov.w	r0, #22528	; 0x5800
 8001d64:	2501      	movs	r5, #1
 8001d66:	f2c2 0400 	movt	r4, #8192	; 0x2000
 8001d6a:	2669      	movs	r6, #105	; 0x69
 8001d6c:	a901      	add	r1, sp, #4
 8001d6e:	461a      	mov	r2, r3
 8001d70:	f2c4 0000 	movt	r0, #16384	; 0x4000
 8001d74:	f88d 6004 	strb.w	r6, [sp, #4]
 8001d78:	9402      	str	r4, [sp, #8]
 8001d7a:	f88d 500c 	strb.w	r5, [sp, #12]
 8001d7e:	f88d 5014 	strb.w	r5, [sp, #20]
 8001d82:	f88d 3016 	strb.w	r3, [sp, #22]
 8001d86:	9307      	str	r3, [sp, #28]
 8001d88:	f7ff f8a4 	bl	8000ed4 <I2C_MasterTransferData>
 8001d8c:	b008      	add	sp, #32
 8001d8e:	bd70      	pop	{r4, r5, r6, pc}

08001d90 <GetMPU6050Rates>:
 8001d90:	b510      	push	{r4, lr}
 8001d92:	b088      	sub	sp, #32
 8001d94:	2469      	movs	r4, #105	; 0x69
 8001d96:	f88d 4004 	strb.w	r4, [sp, #4]
 8001d9a:	4c0b      	ldr	r4, [pc, #44]	; (8001dc8 <GetMPU6050Rates+0x38>)
 8001d9c:	9004      	str	r0, [sp, #16]
 8001d9e:	2300      	movs	r3, #0
 8001da0:	9402      	str	r4, [sp, #8]
 8001da2:	f44f 40b0 	mov.w	r0, #22528	; 0x5800
 8001da6:	2401      	movs	r4, #1
 8001da8:	f88d 400c 	strb.w	r4, [sp, #12]
 8001dac:	a901      	add	r1, sp, #4
 8001dae:	240e      	movs	r4, #14
 8001db0:	461a      	mov	r2, r3
 8001db2:	f2c4 0000 	movt	r0, #16384	; 0x4000
 8001db6:	f88d 4014 	strb.w	r4, [sp, #20]
 8001dba:	f88d 3016 	strb.w	r3, [sp, #22]
 8001dbe:	9307      	str	r3, [sp, #28]
 8001dc0:	f7ff f888 	bl	8000ed4 <I2C_MasterTransferData>
 8001dc4:	b008      	add	sp, #32
 8001dc6:	bd10      	pop	{r4, pc}
 8001dc8:	20000025 	andcs	r0, r0, r5, lsr #32

08001dcc <vRxData>:
 8001dcc:	b570      	push	{r4, r5, r6, lr}
 8001dce:	460c      	mov	r4, r1
 8001dd0:	4605      	mov	r5, r0
 8001dd2:	f248 20b0 	movw	r0, #33456	; 0x82b0
 8001dd6:	2101      	movs	r1, #1
 8001dd8:	f6c0 0000 	movt	r0, #2048	; 0x800
 8001ddc:	f7fe fdfc 	bl	80009d8 <xUSBSendData>
 8001de0:	f8d4 0104 	ldr.w	r0, [r4, #260]	; 0x104
 8001de4:	7866      	ldrb	r6, [r4, #1]
 8001de6:	f242 12d5 	movw	r2, #8661	; 0x21d5
 8001dea:	f641 53cd 	movw	r3, #7629	; 0x1dcd
 8001dee:	1c41      	adds	r1, r0, #1
 8001df0:	3604      	adds	r6, #4
 8001df2:	1820      	adds	r0, r4, r0
 8001df4:	f6c0 0200 	movt	r2, #2048	; 0x800
 8001df8:	f6c0 0300 	movt	r3, #2048	; 0x800
 8001dfc:	42b1      	cmp	r1, r6
 8001dfe:	bf28      	it	cs
 8001e00:	4613      	movcs	r3, r2
 8001e02:	7085      	strb	r5, [r0, #2]
 8001e04:	f8c4 1104 	str.w	r1, [r4, #260]	; 0x104
 8001e08:	f8c4 3110 	str.w	r3, [r4, #272]	; 0x110
 8001e0c:	bd70      	pop	{r4, r5, r6, pc}
 8001e0e:	bf00      	nop

08001e10 <vRxCmd>:
 8001e10:	b570      	push	{r4, r5, r6, lr}
 8001e12:	460c      	mov	r4, r1
 8001e14:	4605      	mov	r5, r0
 8001e16:	f248 20b4 	movw	r0, #33460	; 0x82b4
 8001e1a:	2101      	movs	r1, #1
 8001e1c:	f6c0 0000 	movt	r0, #2048	; 0x800
 8001e20:	f7fe fdda 	bl	80009d8 <xUSBSendData>
 8001e24:	f8d4 2104 	ldr.w	r2, [r4, #260]	; 0x104
 8001e28:	f242 03e9 	movw	r3, #8425	; 0x20e9
 8001e2c:	18a6      	adds	r6, r4, r2
 8001e2e:	f025 0140 	bic.w	r1, r5, #64	; 0x40
 8001e32:	f6c0 0300 	movt	r3, #2048	; 0x800
 8001e36:	1c50      	adds	r0, r2, #1
 8001e38:	3902      	subs	r1, #2
 8001e3a:	f8c4 3110 	str.w	r3, [r4, #272]	; 0x110
 8001e3e:	70b5      	strb	r5, [r6, #2]
 8001e40:	f8c4 0104 	str.w	r0, [r4, #260]	; 0x104
 8001e44:	29a4      	cmp	r1, #164	; 0xa4
 8001e46:	f200 80e1 	bhi.w	800200c <vRxCmd+0x1fc>
 8001e4a:	e8df f011 	tbh	[pc, r1, lsl #1]
 8001e4e:	00b000a5 	adcseq	r0, r0, r5, lsr #1
 8001e52:	00aa00a5 	adceq	r0, sl, r5, lsr #1
 8001e56:	00b000b6 	ldrhteq	r0, [r0], r6
 8001e5a:	00b000b6 	ldrhteq	r0, [r0], r6
 8001e5e:	00a500a5 	adceq	r0, r5, r5, lsr #1
 8001e62:	00bc00eb 	adcseq	r0, ip, fp, ror #1
 8001e66:	00a500a5 	adceq	r0, r5, r5, lsr #1
 8001e6a:	00a500aa 	adceq	r0, r5, sl, lsr #1
 8001e6e:	00a500aa 	adceq	r0, r5, sl, lsr #1
 8001e72:	00a500a5 	adceq	r0, r5, r5, lsr #1
 8001e76:	00aa00a5 	adceq	r0, sl, r5, lsr #1
 8001e7a:	00cb00c5 	sbceq	r0, fp, r5, asr #1
 8001e7e:	00df00df 	ldrsbeq	r0, [pc], #15	; <UNPREDICTABLE>
 8001e82:	00df00df 	ldrsbeq	r0, [pc], #15	; <UNPREDICTABLE>
 8001e86:	00df00df 	ldrsbeq	r0, [pc], #15	; <UNPREDICTABLE>
 8001e8a:	00df00df 	ldrsbeq	r0, [pc], #15	; <UNPREDICTABLE>
 8001e8e:	00df00df 	ldrsbeq	r0, [pc], #15	; <UNPREDICTABLE>
 8001e92:	00df00df 	ldrsbeq	r0, [pc], #15	; <UNPREDICTABLE>
 8001e96:	00df00df 	ldrsbeq	r0, [pc], #15	; <UNPREDICTABLE>
 8001e9a:	00df00df 	ldrsbeq	r0, [pc], #15	; <UNPREDICTABLE>
 8001e9e:	00df00df 	ldrsbeq	r0, [pc], #15	; <UNPREDICTABLE>
 8001ea2:	00df00df 	ldrsbeq	r0, [pc], #15	; <UNPREDICTABLE>
 8001ea6:	00df00df 	ldrsbeq	r0, [pc], #15	; <UNPREDICTABLE>
 8001eaa:	00df00df 	ldrsbeq	r0, [pc], #15	; <UNPREDICTABLE>
 8001eae:	00df00df 	ldrsbeq	r0, [pc], #15	; <UNPREDICTABLE>
 8001eb2:	00df00df 	ldrsbeq	r0, [pc], #15	; <UNPREDICTABLE>
 8001eb6:	00df00df 	ldrsbeq	r0, [pc], #15	; <UNPREDICTABLE>
 8001eba:	00df00df 	ldrsbeq	r0, [pc], #15	; <UNPREDICTABLE>
 8001ebe:	00df00df 	ldrsbeq	r0, [pc], #15	; <UNPREDICTABLE>
 8001ec2:	00df00df 	ldrsbeq	r0, [pc], #15	; <UNPREDICTABLE>
 8001ec6:	00df00df 	ldrsbeq	r0, [pc], #15	; <UNPREDICTABLE>
 8001eca:	00df00df 	ldrsbeq	r0, [pc], #15	; <UNPREDICTABLE>
 8001ece:	00df00df 	ldrsbeq	r0, [pc], #15	; <UNPREDICTABLE>
 8001ed2:	00df00df 	ldrsbeq	r0, [pc], #15	; <UNPREDICTABLE>
 8001ed6:	00df00df 	ldrsbeq	r0, [pc], #15	; <UNPREDICTABLE>
 8001eda:	00df00df 	ldrsbeq	r0, [pc], #15	; <UNPREDICTABLE>
 8001ede:	00df00df 	ldrsbeq	r0, [pc], #15	; <UNPREDICTABLE>
 8001ee2:	00df00df 	ldrsbeq	r0, [pc], #15	; <UNPREDICTABLE>
 8001ee6:	00df00df 	ldrsbeq	r0, [pc], #15	; <UNPREDICTABLE>
 8001eea:	00df00df 	ldrsbeq	r0, [pc], #15	; <UNPREDICTABLE>
 8001eee:	00df00df 	ldrsbeq	r0, [pc], #15	; <UNPREDICTABLE>
 8001ef2:	00df00df 	ldrsbeq	r0, [pc], #15	; <UNPREDICTABLE>
 8001ef6:	00df00df 	ldrsbeq	r0, [pc], #15	; <UNPREDICTABLE>
 8001efa:	00df00df 	ldrsbeq	r0, [pc], #15	; <UNPREDICTABLE>
 8001efe:	00df00df 	ldrsbeq	r0, [pc], #15	; <UNPREDICTABLE>
 8001f02:	00df00df 	ldrsbeq	r0, [pc], #15	; <UNPREDICTABLE>
 8001f06:	00df00df 	ldrsbeq	r0, [pc], #15	; <UNPREDICTABLE>
 8001f0a:	00df00df 	ldrsbeq	r0, [pc], #15	; <UNPREDICTABLE>
 8001f0e:	00df00df 	ldrsbeq	r0, [pc], #15	; <UNPREDICTABLE>
 8001f12:	00df00df 	ldrsbeq	r0, [pc], #15	; <UNPREDICTABLE>
 8001f16:	00df00df 	ldrsbeq	r0, [pc], #15	; <UNPREDICTABLE>
 8001f1a:	00df00df 	ldrsbeq	r0, [pc], #15	; <UNPREDICTABLE>
 8001f1e:	00df00df 	ldrsbeq	r0, [pc], #15	; <UNPREDICTABLE>
 8001f22:	00df00df 	ldrsbeq	r0, [pc], #15	; <UNPREDICTABLE>
 8001f26:	00df00df 	ldrsbeq	r0, [pc], #15	; <UNPREDICTABLE>
 8001f2a:	00df00df 	ldrsbeq	r0, [pc], #15	; <UNPREDICTABLE>
 8001f2e:	00df00df 	ldrsbeq	r0, [pc], #15	; <UNPREDICTABLE>
 8001f32:	00df00df 	ldrsbeq	r0, [pc], #15	; <UNPREDICTABLE>
 8001f36:	00df00df 	ldrsbeq	r0, [pc], #15	; <UNPREDICTABLE>
 8001f3a:	00df00df 	ldrsbeq	r0, [pc], #15	; <UNPREDICTABLE>
 8001f3e:	00df00df 	ldrsbeq	r0, [pc], #15	; <UNPREDICTABLE>
 8001f42:	00df00df 	ldrsbeq	r0, [pc], #15	; <UNPREDICTABLE>
 8001f46:	00df00df 	ldrsbeq	r0, [pc], #15	; <UNPREDICTABLE>
 8001f4a:	00df00df 	ldrsbeq	r0, [pc], #15	; <UNPREDICTABLE>
 8001f4e:	00df00df 	ldrsbeq	r0, [pc], #15	; <UNPREDICTABLE>
 8001f52:	00df00df 	ldrsbeq	r0, [pc], #15	; <UNPREDICTABLE>
 8001f56:	00df00df 	ldrsbeq	r0, [pc], #15	; <UNPREDICTABLE>
 8001f5a:	00df00df 	ldrsbeq	r0, [pc], #15	; <UNPREDICTABLE>
 8001f5e:	00df00df 	ldrsbeq	r0, [pc], #15	; <UNPREDICTABLE>
 8001f62:	00df00df 	ldrsbeq	r0, [pc], #15	; <UNPREDICTABLE>
 8001f66:	00df00df 	ldrsbeq	r0, [pc], #15	; <UNPREDICTABLE>
 8001f6a:	00df00df 	ldrsbeq	r0, [pc], #15	; <UNPREDICTABLE>
 8001f6e:	00df00df 	ldrsbeq	r0, [pc], #15	; <UNPREDICTABLE>
 8001f72:	00df00df 	ldrsbeq	r0, [pc], #15	; <UNPREDICTABLE>
 8001f76:	00df00df 	ldrsbeq	r0, [pc], #15	; <UNPREDICTABLE>
 8001f7a:	00df00df 	ldrsbeq	r0, [pc], #15	; <UNPREDICTABLE>
 8001f7e:	00df00df 	ldrsbeq	r0, [pc], #15	; <UNPREDICTABLE>
 8001f82:	00df00df 	ldrsbeq	r0, [pc], #15	; <UNPREDICTABLE>
 8001f86:	00df00df 	ldrsbeq	r0, [pc], #15	; <UNPREDICTABLE>
 8001f8a:	00df00df 	ldrsbeq	r0, [pc], #15	; <UNPREDICTABLE>
 8001f8e:	00df00df 	ldrsbeq	r0, [pc], #15	; <UNPREDICTABLE>
 8001f92:	00df00df 	ldrsbeq	r0, [pc], #15	; <UNPREDICTABLE>
 8001f96:	210000d1 	ldrdcs	r0, [r0, -r1]
 8001f9a:	f8c4 1114 	str.w	r1, [r4, #276]	; 0x114
 8001f9e:	7061      	strb	r1, [r4, #1]
 8001fa0:	bd70      	pop	{r4, r5, r6, pc}
 8001fa2:	2000      	movs	r0, #0
 8001fa4:	2201      	movs	r2, #1
 8001fa6:	f8c4 0114 	str.w	r0, [r4, #276]	; 0x114
 8001faa:	7062      	strb	r2, [r4, #1]
 8001fac:	bd70      	pop	{r4, r5, r6, pc}
 8001fae:	2300      	movs	r3, #0
 8001fb0:	20ff      	movs	r0, #255	; 0xff
 8001fb2:	f8c4 3114 	str.w	r3, [r4, #276]	; 0x114
 8001fb6:	7060      	strb	r0, [r4, #1]
 8001fb8:	bd70      	pop	{r4, r5, r6, pc}
 8001fba:	2200      	movs	r2, #0
 8001fbc:	2142      	movs	r1, #66	; 0x42
 8001fbe:	f8c4 2114 	str.w	r2, [r4, #276]	; 0x114
 8001fc2:	7061      	strb	r1, [r4, #1]
 8001fc4:	bd70      	pop	{r4, r5, r6, pc}
 8001fc6:	f242 339d 	movw	r3, #9117	; 0x239d
 8001fca:	f6c0 0300 	movt	r3, #2048	; 0x800
 8001fce:	2000      	movs	r0, #0
 8001fd0:	f8c4 3114 	str.w	r3, [r4, #276]	; 0x114
 8001fd4:	7060      	strb	r0, [r4, #1]
 8001fd6:	bd70      	pop	{r4, r5, r6, pc}
 8001fd8:	2100      	movs	r1, #0
 8001fda:	2302      	movs	r3, #2
 8001fdc:	f8c4 1114 	str.w	r1, [r4, #276]	; 0x114
 8001fe0:	7063      	strb	r3, [r4, #1]
 8001fe2:	bd70      	pop	{r4, r5, r6, pc}
 8001fe4:	2000      	movs	r0, #0
 8001fe6:	2203      	movs	r2, #3
 8001fe8:	f8c4 0114 	str.w	r0, [r4, #276]	; 0x114
 8001fec:	7062      	strb	r2, [r4, #1]
 8001fee:	bd70      	pop	{r4, r5, r6, pc}
 8001ff0:	f8d4 3108 	ldr.w	r3, [r4, #264]	; 0x108
 8001ff4:	f8c4 2104 	str.w	r2, [r4, #260]	; 0x104
 8001ff8:	f641 6011 	movw	r0, #7697	; 0x1e11
 8001ffc:	f6c0 0000 	movt	r0, #2048	; 0x800
 8002000:	1c5a      	adds	r2, r3, #1
 8002002:	f8c4 0110 	str.w	r0, [r4, #272]	; 0x110
 8002006:	f8c4 2108 	str.w	r2, [r4, #264]	; 0x108
 800200a:	bd70      	pop	{r4, r5, r6, pc}
 800200c:	f8d4 2108 	ldr.w	r2, [r4, #264]	; 0x108
 8002010:	f242 133d 	movw	r3, #8509	; 0x213d
 8002014:	f6c0 0300 	movt	r3, #2048	; 0x800
 8002018:	1c51      	adds	r1, r2, #1
 800201a:	f8c4 3110 	str.w	r3, [r4, #272]	; 0x110
 800201e:	f8c4 1108 	str.w	r1, [r4, #264]	; 0x108
 8002022:	bd70      	pop	{r4, r5, r6, pc}
 8002024:	f242 22fd 	movw	r2, #8957	; 0x22fd
 8002028:	f6c0 0200 	movt	r2, #2048	; 0x800
 800202c:	2100      	movs	r1, #0
 800202e:	f8c4 2114 	str.w	r2, [r4, #276]	; 0x114
 8002032:	7061      	strb	r1, [r4, #1]
 8002034:	bd70      	pop	{r4, r5, r6, pc}
 8002036:	bf00      	nop

08002038 <vWaitingForSYNCorCMD>:
 8002038:	b538      	push	{r3, r4, r5, lr}
 800203a:	4605      	mov	r5, r0
 800203c:	f248 20b8 	movw	r0, #33464	; 0x82b8
 8002040:	460c      	mov	r4, r1
 8002042:	f6c0 0000 	movt	r0, #2048	; 0x800
 8002046:	2101      	movs	r1, #1
 8002048:	f7fe fcc6 	bl	80009d8 <xUSBSendData>
 800204c:	2da6      	cmp	r5, #166	; 0xa6
 800204e:	d00a      	beq.n	8002066 <vWaitingForSYNCorCMD+0x2e>
 8002050:	21a6      	movs	r1, #166	; 0xa6
 8002052:	2001      	movs	r0, #1
 8002054:	70a1      	strb	r1, [r4, #2]
 8002056:	f8c4 0104 	str.w	r0, [r4, #260]	; 0x104
 800205a:	4621      	mov	r1, r4
 800205c:	4628      	mov	r0, r5
 800205e:	e8bd 4038 	ldmia.w	sp!, {r3, r4, r5, lr}
 8002062:	f7ff bed5 	b.w	8001e10 <vRxCmd>
 8002066:	f8d4 310c 	ldr.w	r3, [r4, #268]	; 0x10c
 800206a:	4628      	mov	r0, r5
 800206c:	4621      	mov	r1, r4
 800206e:	4798      	blx	r3
 8002070:	bd38      	pop	{r3, r4, r5, pc}
 8002072:	bf00      	nop

08002074 <vTaskUSBSerialManager>:
 8002074:	e92d 41f0 	stmdb	sp!, {r4, r5, r6, r7, r8, lr}
 8002078:	f242 153d 	movw	r5, #8509	; 0x213d
 800207c:	b0c8      	sub	sp, #288	; 0x120
 800207e:	f242 0639 	movw	r6, #8249	; 0x2039
 8002082:	2300      	movs	r3, #0
 8002084:	f6c0 0500 	movt	r5, #2048	; 0x800
 8002088:	f240 1474 	movw	r4, #372	; 0x174
 800208c:	f6c0 0600 	movt	r6, #2048	; 0x800
 8002090:	f641 6711 	movw	r7, #7697	; 0x1e11
 8002094:	f88d 3004 	strb.w	r3, [sp, #4]
 8002098:	9344      	str	r3, [sp, #272]	; 0x110
 800209a:	9545      	str	r5, [sp, #276]	; 0x114
 800209c:	9346      	str	r3, [sp, #280]	; 0x118
 800209e:	9343      	str	r3, [sp, #268]	; 0x10c
 80020a0:	f2c2 0400 	movt	r4, #8192	; 0x2000
 80020a4:	f6c0 0700 	movt	r7, #2048	; 0x800
 80020a8:	46b0      	mov	r8, r6
 80020aa:	a947      	add	r1, sp, #284	; 0x11c
 80020ac:	2300      	movs	r3, #0
 80020ae:	3103      	adds	r1, #3
 80020b0:	6820      	ldr	r0, [r4, #0]
 80020b2:	f04f 32ff 	mov.w	r2, #4294967295
 80020b6:	f001 fa2f 	bl	8003518 <xQueueGenericReceive>
 80020ba:	f89d 011f 	ldrb.w	r0, [sp, #287]	; 0x11f
 80020be:	9b45      	ldr	r3, [sp, #276]	; 0x114
 80020c0:	28a6      	cmp	r0, #166	; 0xa6
 80020c2:	d002      	beq.n	80020ca <vTaskUSBSerialManager+0x56>
 80020c4:	a901      	add	r1, sp, #4
 80020c6:	4798      	blx	r3
 80020c8:	e7ef      	b.n	80020aa <vTaskUSBSerialManager+0x36>
 80020ca:	42ab      	cmp	r3, r5
 80020cc:	d007      	beq.n	80020de <vTaskUSBSerialManager+0x6a>
 80020ce:	42b3      	cmp	r3, r6
 80020d0:	d005      	beq.n	80020de <vTaskUSBSerialManager+0x6a>
 80020d2:	42bb      	cmp	r3, r7
 80020d4:	bf1c      	itt	ne
 80020d6:	9344      	strne	r3, [sp, #272]	; 0x110
 80020d8:	f8cd 8114 	strne.w	r8, [sp, #276]	; 0x114
 80020dc:	d1e5      	bne.n	80020aa <vTaskUSBSerialManager+0x36>
 80020de:	20a6      	movs	r0, #166	; 0xa6
 80020e0:	a901      	add	r1, sp, #4
 80020e2:	4798      	blx	r3
 80020e4:	e7e1      	b.n	80020aa <vTaskUSBSerialManager+0x36>
 80020e6:	bf00      	nop

080020e8 <vRxSize>:
 80020e8:	b538      	push	{r3, r4, r5, lr}
 80020ea:	460c      	mov	r4, r1
 80020ec:	4605      	mov	r5, r0
 80020ee:	f248 20bc 	movw	r0, #33468	; 0x82bc
 80020f2:	2101      	movs	r1, #1
 80020f4:	f6c0 0000 	movt	r0, #2048	; 0x800
 80020f8:	f7fe fc6e 	bl	80009d8 <xUSBSendData>
 80020fc:	7863      	ldrb	r3, [r4, #1]
 80020fe:	42ab      	cmp	r3, r5
 8002100:	d00d      	beq.n	800211e <vRxSize+0x36>
 8002102:	2bff      	cmp	r3, #255	; 0xff
 8002104:	d00b      	beq.n	800211e <vRxSize+0x36>
 8002106:	f8d4 3108 	ldr.w	r3, [r4, #264]	; 0x108
 800210a:	f242 113d 	movw	r1, #8509	; 0x213d
 800210e:	f6c0 0100 	movt	r1, #2048	; 0x800
 8002112:	1c5a      	adds	r2, r3, #1
 8002114:	f8c4 1110 	str.w	r1, [r4, #272]	; 0x110
 8002118:	f8c4 2108 	str.w	r2, [r4, #264]	; 0x108
 800211c:	bd38      	pop	{r3, r4, r5, pc}
 800211e:	f8d4 0104 	ldr.w	r0, [r4, #260]	; 0x104
 8002122:	7065      	strb	r5, [r4, #1]
 8002124:	f242 2369 	movw	r3, #8809	; 0x2269
 8002128:	1821      	adds	r1, r4, r0
 800212a:	f6c0 0300 	movt	r3, #2048	; 0x800
 800212e:	1c42      	adds	r2, r0, #1
 8002130:	f8c4 3110 	str.w	r3, [r4, #272]	; 0x110
 8002134:	708d      	strb	r5, [r1, #2]
 8002136:	f8c4 2104 	str.w	r2, [r4, #260]	; 0x104
 800213a:	bd38      	pop	{r3, r4, r5, pc}

0800213c <vWaitingForSYNC>:
 800213c:	b538      	push	{r3, r4, r5, lr}
 800213e:	4604      	mov	r4, r0
 8002140:	f248 20c0 	movw	r0, #33472	; 0x82c0
 8002144:	460d      	mov	r5, r1
 8002146:	f6c0 0000 	movt	r0, #2048	; 0x800
 800214a:	2101      	movs	r1, #1
 800214c:	f7fe fc44 	bl	80009d8 <xUSBSendData>
 8002150:	2ca6      	cmp	r4, #166	; 0xa6
 8002152:	d109      	bne.n	8002168 <vWaitingForSYNC+0x2c>
 8002154:	f641 6311 	movw	r3, #7697	; 0x1e11
 8002158:	f6c0 0300 	movt	r3, #2048	; 0x800
 800215c:	2201      	movs	r2, #1
 800215e:	70ac      	strb	r4, [r5, #2]
 8002160:	f8c5 2104 	str.w	r2, [r5, #260]	; 0x104
 8002164:	f8c5 3110 	str.w	r3, [r5, #272]	; 0x110
 8002168:	bd38      	pop	{r3, r4, r5, pc}
 800216a:	bf00      	nop

0800216c <vInitSerialManager>:
 800216c:	b530      	push	{r4, r5, lr}
 800216e:	b085      	sub	sp, #20
 8002170:	f7fe fc24 	bl	80009bc <vUSBQueueInit>
 8002174:	2400      	movs	r4, #0
 8002176:	f242 0075 	movw	r0, #8309	; 0x2075
 800217a:	f248 21c4 	movw	r1, #33476	; 0x82c4
 800217e:	2501      	movs	r5, #1
 8002180:	f6c0 0100 	movt	r1, #2048	; 0x800
 8002184:	f44f 7200 	mov.w	r2, #512	; 0x200
 8002188:	4623      	mov	r3, r4
 800218a:	f6c0 0000 	movt	r0, #2048	; 0x800
 800218e:	9500      	str	r5, [sp, #0]
 8002190:	9401      	str	r4, [sp, #4]
 8002192:	9402      	str	r4, [sp, #8]
 8002194:	9403      	str	r4, [sp, #12]
 8002196:	f000 fbd1 	bl	800293c <xTaskGenericCreate>
 800219a:	b005      	add	sp, #20
 800219c:	bd30      	pop	{r4, r5, pc}
 800219e:	bf00      	nop

080021a0 <vReturnACK>:
 80021a0:	b510      	push	{r4, lr}
 80021a2:	b082      	sub	sp, #8
 80021a4:	22a6      	movs	r2, #166	; 0xa6
 80021a6:	2301      	movs	r3, #1
 80021a8:	4604      	mov	r4, r0
 80021aa:	f88d 2004 	strb.w	r2, [sp, #4]
 80021ae:	a801      	add	r0, sp, #4
 80021b0:	2200      	movs	r2, #0
 80021b2:	2103      	movs	r1, #3
 80021b4:	f88d 3005 	strb.w	r3, [sp, #5]
 80021b8:	f88d 2006 	strb.w	r2, [sp, #6]
 80021bc:	f7fe fc22 	bl	8000a04 <CRC8>
 80021c0:	7823      	ldrb	r3, [r4, #0]
 80021c2:	f88d 0007 	strb.w	r0, [sp, #7]
 80021c6:	b91b      	cbnz	r3, 80021d0 <vReturnACK+0x30>
 80021c8:	a801      	add	r0, sp, #4
 80021ca:	2104      	movs	r1, #4
 80021cc:	f7fe fc04 	bl	80009d8 <xUSBSendData>
 80021d0:	b002      	add	sp, #8
 80021d2:	bd10      	pop	{r4, pc}

080021d4 <vRxCRC16>:
 80021d4:	b538      	push	{r3, r4, r5, lr}
 80021d6:	460c      	mov	r4, r1
 80021d8:	4605      	mov	r5, r0
 80021da:	f248 20d8 	movw	r0, #33496	; 0x82d8
 80021de:	2101      	movs	r1, #1
 80021e0:	f6c0 0000 	movt	r0, #2048	; 0x800
 80021e4:	f7fe fbf8 	bl	80009d8 <xUSBSendData>
 80021e8:	f8d4 1104 	ldr.w	r1, [r4, #260]	; 0x104
 80021ec:	7862      	ldrb	r2, [r4, #1]
 80021ee:	1c4b      	adds	r3, r1, #1
 80021f0:	1860      	adds	r0, r4, r1
 80021f2:	3206      	adds	r2, #6
 80021f4:	4293      	cmp	r3, r2
 80021f6:	7085      	strb	r5, [r0, #2]
 80021f8:	f8c4 3104 	str.w	r3, [r4, #260]	; 0x104
 80021fc:	d206      	bcs.n	800220c <vRxCRC16+0x38>
 80021fe:	f242 11d5 	movw	r1, #8661	; 0x21d5
 8002202:	f6c0 0100 	movt	r1, #2048	; 0x800
 8002206:	f8c4 1110 	str.w	r1, [r4, #272]	; 0x110
 800220a:	bd38      	pop	{r3, r4, r5, pc}
 800220c:	3901      	subs	r1, #1
 800220e:	eb04 0e01 	add.w	lr, r4, r1
 8002212:	f242 103d 	movw	r0, #8509	; 0x213d
 8002216:	f6c0 0000 	movt	r0, #2048	; 0x800
 800221a:	f89e c002 	ldrb.w	ip, [lr, #2]
 800221e:	f8c4 0110 	str.w	r0, [r4, #272]	; 0x110
 8002222:	1ca0      	adds	r0, r4, #2
 8002224:	ea45 250c 	orr.w	r5, r5, ip, lsl #8
 8002228:	f7fe fc1a 	bl	8000a60 <CRC16>
 800222c:	42a8      	cmp	r0, r5
 800222e:	d005      	beq.n	800223c <vRxCRC16+0x68>
 8002230:	f8d4 1108 	ldr.w	r1, [r4, #264]	; 0x108
 8002234:	1c4a      	adds	r2, r1, #1
 8002236:	f8c4 2108 	str.w	r2, [r4, #264]	; 0x108
 800223a:	bd38      	pop	{r3, r4, r5, pc}
 800223c:	78e3      	ldrb	r3, [r4, #3]
 800223e:	065b      	lsls	r3, r3, #25
 8002240:	d40d      	bmi.n	800225e <vRxCRC16+0x8a>
 8002242:	f8d4 3114 	ldr.w	r3, [r4, #276]	; 0x114
 8002246:	b10b      	cbz	r3, 800224c <vRxCRC16+0x78>
 8002248:	4620      	mov	r0, r4
 800224a:	4798      	blx	r3
 800224c:	f248 20dc 	movw	r0, #33500	; 0x82dc
 8002250:	f6c0 0000 	movt	r0, #2048	; 0x800
 8002254:	2102      	movs	r1, #2
 8002256:	e8bd 4038 	ldmia.w	sp!, {r3, r4, r5, lr}
 800225a:	f7fe bbbd 	b.w	80009d8 <xUSBSendData>
 800225e:	4620      	mov	r0, r4
 8002260:	f7ff ff9e 	bl	80021a0 <vReturnACK>
 8002264:	e7ed      	b.n	8002242 <vRxCRC16+0x6e>
 8002266:	bf00      	nop

08002268 <vRxCRC8>:
 8002268:	b538      	push	{r3, r4, r5, lr}
 800226a:	460c      	mov	r4, r1
 800226c:	4605      	mov	r5, r0
 800226e:	f248 20e0 	movw	r0, #33504	; 0x82e0
 8002272:	2101      	movs	r1, #1
 8002274:	f6c0 0000 	movt	r0, #2048	; 0x800
 8002278:	f7fe fbae 	bl	80009d8 <xUSBSendData>
 800227c:	f8d4 0104 	ldr.w	r0, [r4, #260]	; 0x104
 8002280:	1822      	adds	r2, r4, r0
 8002282:	1c43      	adds	r3, r0, #1
 8002284:	2103      	movs	r1, #3
 8002286:	1ca0      	adds	r0, r4, #2
 8002288:	7095      	strb	r5, [r2, #2]
 800228a:	f8c4 3104 	str.w	r3, [r4, #260]	; 0x104
 800228e:	f7fe fbb9 	bl	8000a04 <CRC8>
 8002292:	42a8      	cmp	r0, r5
 8002294:	d00b      	beq.n	80022ae <vRxCRC8+0x46>
 8002296:	f8d4 3108 	ldr.w	r3, [r4, #264]	; 0x108
 800229a:	f242 113d 	movw	r1, #8509	; 0x213d
 800229e:	f6c0 0100 	movt	r1, #2048	; 0x800
 80022a2:	1c58      	adds	r0, r3, #1
 80022a4:	f8c4 1110 	str.w	r1, [r4, #272]	; 0x110
 80022a8:	f8c4 0108 	str.w	r0, [r4, #264]	; 0x108
 80022ac:	bd38      	pop	{r3, r4, r5, pc}
 80022ae:	7861      	ldrb	r1, [r4, #1]
 80022b0:	b9c1      	cbnz	r1, 80022e4 <vRxCRC8+0x7c>
 80022b2:	f894 c003 	ldrb.w	ip, [r4, #3]
 80022b6:	f242 133d 	movw	r3, #8509	; 0x213d
 80022ba:	f6c0 0300 	movt	r3, #2048	; 0x800
 80022be:	ea5f 624c 	movs.w	r2, ip, lsl #25
 80022c2:	f8c4 3110 	str.w	r3, [r4, #272]	; 0x110
 80022c6:	d414      	bmi.n	80022f2 <vRxCRC8+0x8a>
 80022c8:	f8d4 3114 	ldr.w	r3, [r4, #276]	; 0x114
 80022cc:	b10b      	cbz	r3, 80022d2 <vRxCRC8+0x6a>
 80022ce:	4620      	mov	r0, r4
 80022d0:	4798      	blx	r3
 80022d2:	f248 20dc 	movw	r0, #33500	; 0x82dc
 80022d6:	f6c0 0000 	movt	r0, #2048	; 0x800
 80022da:	2102      	movs	r1, #2
 80022dc:	e8bd 4038 	ldmia.w	sp!, {r3, r4, r5, lr}
 80022e0:	f7fe bb7a 	b.w	80009d8 <xUSBSendData>
 80022e4:	f641 52cd 	movw	r2, #7629	; 0x1dcd
 80022e8:	f6c0 0200 	movt	r2, #2048	; 0x800
 80022ec:	f8c4 2110 	str.w	r2, [r4, #272]	; 0x110
 80022f0:	bd38      	pop	{r3, r4, r5, pc}
 80022f2:	4620      	mov	r0, r4
 80022f4:	f7ff ff54 	bl	80021a0 <vReturnACK>
 80022f8:	e7e6      	b.n	80022c8 <vRxCRC8+0x60>
 80022fa:	bf00      	nop

080022fc <vGetBootloaderVersion>:
 80022fc:	b5f0      	push	{r4, r5, r6, r7, lr}
 80022fe:	b0a1      	sub	sp, #132	; 0x84
 8002300:	2100      	movs	r1, #0
 8002302:	2280      	movs	r2, #128	; 0x80
 8002304:	4604      	mov	r4, r0
 8002306:	4668      	mov	r0, sp
 8002308:	f005 fd1c 	bl	8007d44 <memset>
 800230c:	f44f 71c2 	mov.w	r1, #388	; 0x184
 8002310:	f6c0 0100 	movt	r1, #2048	; 0x800
 8002314:	20a6      	movs	r0, #166	; 0xa6
 8002316:	780b      	ldrb	r3, [r1, #0]
 8002318:	f88d 0000 	strb.w	r0, [sp]
 800231c:	220c      	movs	r2, #12
 800231e:	f88d 2001 	strb.w	r2, [sp, #1]
 8002322:	2b00      	cmp	r3, #0
 8002324:	d034      	beq.n	8002390 <vGetBootloaderVersion+0x94>
 8002326:	f240 1287 	movw	r2, #391	; 0x187
 800232a:	f6c0 0200 	movt	r2, #2048	; 0x800
 800232e:	2504      	movs	r5, #4
 8002330:	f812 7f01 	ldrb.w	r7, [r2, #1]!
 8002334:	f80d 7005 	strb.w	r7, [sp, r5]
 8002338:	3501      	adds	r5, #1
 800233a:	2d3b      	cmp	r5, #59	; 0x3b
 800233c:	bfcc      	ite	gt
 800233e:	2100      	movgt	r1, #0
 8002340:	2101      	movle	r1, #1
 8002342:	2f00      	cmp	r7, #0
 8002344:	bf0c      	ite	eq
 8002346:	2600      	moveq	r6, #0
 8002348:	f001 0601 	andne.w	r6, r1, #1
 800234c:	2e00      	cmp	r6, #0
 800234e:	d1ef      	bne.n	8002330 <vGetBootloaderVersion+0x34>
 8002350:	1f6b      	subs	r3, r5, #5
 8002352:	1e6f      	subs	r7, r5, #1
 8002354:	1c6e      	adds	r6, r5, #1
 8002356:	2103      	movs	r1, #3
 8002358:	4668      	mov	r0, sp
 800235a:	f88d 3002 	strb.w	r3, [sp, #2]
 800235e:	f7fe fb51 	bl	8000a04 <CRC8>
 8002362:	4639      	mov	r1, r7
 8002364:	f88d 0003 	strb.w	r0, [sp, #3]
 8002368:	4668      	mov	r0, sp
 800236a:	f7fe fb79 	bl	8000a60 <CRC16>
 800236e:	a920      	add	r1, sp, #128	; 0x80
 8002370:	194d      	adds	r5, r1, r5
 8002372:	eb01 0c06 	add.w	ip, r1, r6
 8002376:	7823      	ldrb	r3, [r4, #0]
 8002378:	0a02      	lsrs	r2, r0, #8
 800237a:	f805 2c80 	strb.w	r2, [r5, #-128]
 800237e:	f80c 0c80 	strb.w	r0, [ip, #-128]
 8002382:	b91b      	cbnz	r3, 800238c <vGetBootloaderVersion+0x90>
 8002384:	4668      	mov	r0, sp
 8002386:	4631      	mov	r1, r6
 8002388:	f7fe fb26 	bl	80009d8 <xUSBSendData>
 800238c:	b021      	add	sp, #132	; 0x84
 800238e:	bdf0      	pop	{r4, r5, r6, r7, pc}
 8002390:	2605      	movs	r6, #5
 8002392:	2703      	movs	r7, #3
 8002394:	23ff      	movs	r3, #255	; 0xff
 8002396:	2504      	movs	r5, #4
 8002398:	e7dd      	b.n	8002356 <vGetBootloaderVersion+0x5a>
 800239a:	bf00      	nop

0800239c <vGetFirmwareVersion>:
 800239c:	b5f0      	push	{r4, r5, r6, r7, lr}
 800239e:	b0a1      	sub	sp, #132	; 0x84
 80023a0:	2100      	movs	r1, #0
 80023a2:	2280      	movs	r2, #128	; 0x80
 80023a4:	4604      	mov	r4, r0
 80023a6:	4668      	mov	r0, sp
 80023a8:	f005 fccc 	bl	8007d44 <memset>
 80023ac:	f44f 71c2 	mov.w	r1, #388	; 0x184
 80023b0:	f6c0 0100 	movt	r1, #2048	; 0x800
 80023b4:	20a6      	movs	r0, #166	; 0xa6
 80023b6:	780b      	ldrb	r3, [r1, #0]
 80023b8:	f88d 0000 	strb.w	r0, [sp]
 80023bc:	220d      	movs	r2, #13
 80023be:	f88d 2001 	strb.w	r2, [sp, #1]
 80023c2:	2b00      	cmp	r3, #0
 80023c4:	d02b      	beq.n	800241e <vGetFirmwareVersion+0x82>
 80023c6:	f240 1287 	movw	r2, #391	; 0x187
 80023ca:	f6c0 0200 	movt	r2, #2048	; 0x800
 80023ce:	2504      	movs	r5, #4
 80023d0:	f812 6f01 	ldrb.w	r6, [r2, #1]!
 80023d4:	f80d 6005 	strb.w	r6, [sp, r5]
 80023d8:	3501      	adds	r5, #1
 80023da:	2e00      	cmp	r6, #0
 80023dc:	d1f8      	bne.n	80023d0 <vGetFirmwareVersion+0x34>
 80023de:	1f6b      	subs	r3, r5, #5
 80023e0:	1e6f      	subs	r7, r5, #1
 80023e2:	1c6e      	adds	r6, r5, #1
 80023e4:	2103      	movs	r1, #3
 80023e6:	4668      	mov	r0, sp
 80023e8:	f88d 3002 	strb.w	r3, [sp, #2]
 80023ec:	f7fe fb0a 	bl	8000a04 <CRC8>
 80023f0:	4639      	mov	r1, r7
 80023f2:	f88d 0003 	strb.w	r0, [sp, #3]
 80023f6:	4668      	mov	r0, sp
 80023f8:	f7fe fb32 	bl	8000a60 <CRC16>
 80023fc:	a920      	add	r1, sp, #128	; 0x80
 80023fe:	194d      	adds	r5, r1, r5
 8002400:	eb01 0c06 	add.w	ip, r1, r6
 8002404:	7823      	ldrb	r3, [r4, #0]
 8002406:	0a02      	lsrs	r2, r0, #8
 8002408:	f805 2c80 	strb.w	r2, [r5, #-128]
 800240c:	f80c 0c80 	strb.w	r0, [ip, #-128]
 8002410:	b91b      	cbnz	r3, 800241a <vGetFirmwareVersion+0x7e>
 8002412:	4668      	mov	r0, sp
 8002414:	4631      	mov	r1, r6
 8002416:	f7fe fadf 	bl	80009d8 <xUSBSendData>
 800241a:	b021      	add	sp, #132	; 0x84
 800241c:	bdf0      	pop	{r4, r5, r6, r7, pc}
 800241e:	2605      	movs	r6, #5
 8002420:	2703      	movs	r7, #3
 8002422:	23ff      	movs	r3, #255	; 0xff
 8002424:	2504      	movs	r5, #4
 8002426:	e7dd      	b.n	80023e4 <vGetFirmwareVersion+0x48>

08002428 <_sbrk>:
 8002428:	f240 1380 	movw	r3, #384	; 0x180
 800242c:	f2c2 0300 	movt	r3, #8192	; 0x2000
 8002430:	f640 52b0 	movw	r2, #3504	; 0xdb0
 8002434:	6819      	ldr	r1, [r3, #0]
 8002436:	f2c2 0200 	movt	r2, #8192	; 0x2000
 800243a:	2900      	cmp	r1, #0
 800243c:	bf18      	it	ne
 800243e:	460a      	movne	r2, r1
 8002440:	1810      	adds	r0, r2, r0
 8002442:	6018      	str	r0, [r3, #0]
 8002444:	4610      	mov	r0, r2
 8002446:	4770      	bx	lr

08002448 <InitFastCounter>:
 8002448:	b510      	push	{r4, lr}
 800244a:	f240 0e14 	movw	lr, #20
 800244e:	f2c2 0e00 	movt	lr, #8192	; 0x2000
 8002452:	f64d 6c83 	movw	ip, #56963	; 0xde83
 8002456:	f8de 0000 	ldr.w	r0, [lr]
 800245a:	f2c4 3c1b 	movt	ip, #17179	; 0x431b
 800245e:	fbac 3100 	umull	r3, r1, ip, r0
 8002462:	2001      	movs	r0, #1
 8002464:	b084      	sub	sp, #16
 8002466:	0ccc      	lsrs	r4, r1, #19
 8002468:	4601      	mov	r1, r0
 800246a:	f001 feb7 	bl	80041dc <RCC_APB1PeriphClockCmd>
 800246e:	3c01      	subs	r4, #1
 8002470:	2300      	movs	r3, #0
 8002472:	a901      	add	r1, sp, #4
 8002474:	f04f 32ff 	mov.w	r2, #4294967295
 8002478:	f04f 4080 	mov.w	r0, #1073741824	; 0x40000000
 800247c:	9202      	str	r2, [sp, #8]
 800247e:	f8ad 4004 	strh.w	r4, [sp, #4]
 8002482:	f8ad 300c 	strh.w	r3, [sp, #12]
 8002486:	f8ad 3006 	strh.w	r3, [sp, #6]
 800248a:	f002 f8c3 	bl	8004614 <TIM_TimeBaseInit>
 800248e:	f04f 4080 	mov.w	r0, #1073741824	; 0x40000000
 8002492:	2101      	movs	r1, #1
 8002494:	f002 f98c 	bl	80047b0 <TIM_Cmd>
 8002498:	b004      	add	sp, #16
 800249a:	bd10      	pop	{r4, pc}

0800249c <GetFastCounterValue>:
 800249c:	f04f 4080 	mov.w	r0, #1073741824	; 0x40000000
 80024a0:	f002 b93a 	b.w	8004718 <TIM_GetCounter>

080024a4 <USB_OTG_BSP_Init>:
 80024a4:	b570      	push	{r4, r5, r6, lr}
 80024a6:	2001      	movs	r0, #1
 80024a8:	2400      	movs	r4, #0
 80024aa:	b082      	sub	sp, #8
 80024ac:	f2c4 0402 	movt	r4, #16386	; 0x4002
 80024b0:	4601      	mov	r1, r0
 80024b2:	f001 fe69 	bl	8004188 <RCC_AHB1PeriphClockCmd>
 80024b6:	2500      	movs	r5, #0
 80024b8:	f44f 53d8 	mov.w	r3, #6912	; 0x1b00
 80024bc:	2202      	movs	r2, #2
 80024be:	2603      	movs	r6, #3
 80024c0:	4669      	mov	r1, sp
 80024c2:	4620      	mov	r0, r4
 80024c4:	9300      	str	r3, [sp, #0]
 80024c6:	f88d 2004 	strb.w	r2, [sp, #4]
 80024ca:	f88d 5006 	strb.w	r5, [sp, #6]
 80024ce:	f88d 5007 	strb.w	r5, [sp, #7]
 80024d2:	f88d 6005 	strb.w	r6, [sp, #5]
 80024d6:	f001 fb43 	bl	8003b60 <GPIO_Init>
 80024da:	4620      	mov	r0, r4
 80024dc:	2108      	movs	r1, #8
 80024de:	220a      	movs	r2, #10
 80024e0:	f001 fc34 	bl	8003d4c <GPIO_PinAFConfig>
 80024e4:	4620      	mov	r0, r4
 80024e6:	2109      	movs	r1, #9
 80024e8:	220a      	movs	r2, #10
 80024ea:	f001 fc2f 	bl	8003d4c <GPIO_PinAFConfig>
 80024ee:	4620      	mov	r0, r4
 80024f0:	210b      	movs	r1, #11
 80024f2:	220a      	movs	r2, #10
 80024f4:	f001 fc2a 	bl	8003d4c <GPIO_PinAFConfig>
 80024f8:	220a      	movs	r2, #10
 80024fa:	4620      	mov	r0, r4
 80024fc:	210c      	movs	r1, #12
 80024fe:	f001 fc25 	bl	8003d4c <GPIO_PinAFConfig>
 8002502:	2501      	movs	r5, #1
 8002504:	f44f 6380 	mov.w	r3, #1024	; 0x400
 8002508:	4669      	mov	r1, sp
 800250a:	4620      	mov	r0, r4
 800250c:	9300      	str	r3, [sp, #0]
 800250e:	f88d 5006 	strb.w	r5, [sp, #6]
 8002512:	f88d 5007 	strb.w	r5, [sp, #7]
 8002516:	f88d 6005 	strb.w	r6, [sp, #5]
 800251a:	f001 fb21 	bl	8003b60 <GPIO_Init>
 800251e:	210a      	movs	r1, #10
 8002520:	460a      	mov	r2, r1
 8002522:	4620      	mov	r0, r4
 8002524:	f001 fc12 	bl	8003d4c <GPIO_PinAFConfig>
 8002528:	4629      	mov	r1, r5
 800252a:	f44f 4080 	mov.w	r0, #16384	; 0x4000
 800252e:	f001 fe63 	bl	80041f8 <RCC_APB2PeriphClockCmd>
 8002532:	2080      	movs	r0, #128	; 0x80
 8002534:	4629      	mov	r1, r5
 8002536:	f001 fe35 	bl	80041a4 <RCC_AHB2PeriphClockCmd>
 800253a:	f04f 5080 	mov.w	r0, #268435456	; 0x10000000
 800253e:	4629      	mov	r1, r5
 8002540:	f001 fe92 	bl	8004268 <RCC_APB1PeriphResetCmd>
 8002544:	b002      	add	sp, #8
 8002546:	bd70      	pop	{r4, r5, r6, pc}

08002548 <USB_OTG_BSP_EnableInterrupt>:
 8002548:	b500      	push	{lr}
 800254a:	f44f 7040 	mov.w	r0, #768	; 0x300
 800254e:	b083      	sub	sp, #12
 8002550:	f003 fb54 	bl	8005bfc <NVIC_PriorityGroupConfig>
 8002554:	2243      	movs	r2, #67	; 0x43
 8002556:	2100      	movs	r1, #0
 8002558:	2301      	movs	r3, #1
 800255a:	a801      	add	r0, sp, #4
 800255c:	f88d 2004 	strb.w	r2, [sp, #4]
 8002560:	f88d 1005 	strb.w	r1, [sp, #5]
 8002564:	f88d 3007 	strb.w	r3, [sp, #7]
 8002568:	f003 fb52 	bl	8005c10 <NVIC_Init>
 800256c:	b003      	add	sp, #12
 800256e:	bd00      	pop	{pc}

08002570 <USB_OTG_BSP_uDelay>:
 8002570:	ebc0 1000 	rsb	r0, r0, r0, lsl #4
 8002574:	f644 1125 	movw	r1, #18725	; 0x4925
 8002578:	00c2      	lsls	r2, r0, #3
 800257a:	f2c2 4192 	movt	r1, #9362	; 0x2492
 800257e:	fba1 1302 	umull	r1, r3, r1, r2
 8002582:	1ad0      	subs	r0, r2, r3
 8002584:	eb03 0250 	add.w	r2, r3, r0, lsr #1
 8002588:	0892      	lsrs	r2, r2, #2
 800258a:	f002 0101 	and.w	r1, r2, #1
 800258e:	2301      	movs	r3, #1
 8002590:	b13a      	cbz	r2, 80025a2 <USB_OTG_BSP_uDelay+0x32>
 8002592:	b111      	cbz	r1, 800259a <USB_OTG_BSP_uDelay+0x2a>
 8002594:	2302      	movs	r3, #2
 8002596:	429a      	cmp	r2, r3
 8002598:	d304      	bcc.n	80025a4 <USB_OTG_BSP_uDelay+0x34>
 800259a:	3302      	adds	r3, #2
 800259c:	429a      	cmp	r2, r3
 800259e:	d2fc      	bcs.n	800259a <USB_OTG_BSP_uDelay+0x2a>
 80025a0:	4770      	bx	lr
 80025a2:	4770      	bx	lr
 80025a4:	4770      	bx	lr
 80025a6:	bf00      	nop

080025a8 <USB_OTG_BSP_mDelay>:
 80025a8:	f24d 43c0 	movw	r3, #54464	; 0xd4c0
 80025ac:	f2c0 0301 	movt	r3, #1
 80025b0:	f644 1125 	movw	r1, #18725	; 0x4925
 80025b4:	fb03 fc00 	mul.w	ip, r3, r0
 80025b8:	f2c2 4192 	movt	r1, #9362	; 0x2492
 80025bc:	fba1 100c 	umull	r1, r0, r1, ip
 80025c0:	ebc0 020c 	rsb	r2, r0, ip
 80025c4:	eb00 0352 	add.w	r3, r0, r2, lsr #1
 80025c8:	089b      	lsrs	r3, r3, #2
 80025ca:	f003 0101 	and.w	r1, r3, #1
 80025ce:	2201      	movs	r2, #1
 80025d0:	b13b      	cbz	r3, 80025e2 <USB_OTG_BSP_mDelay+0x3a>
 80025d2:	b111      	cbz	r1, 80025da <USB_OTG_BSP_mDelay+0x32>
 80025d4:	2202      	movs	r2, #2
 80025d6:	4293      	cmp	r3, r2
 80025d8:	d304      	bcc.n	80025e4 <USB_OTG_BSP_mDelay+0x3c>
 80025da:	3202      	adds	r2, #2
 80025dc:	4293      	cmp	r3, r2
 80025de:	d2fc      	bcs.n	80025da <USB_OTG_BSP_mDelay+0x32>
 80025e0:	4770      	bx	lr
 80025e2:	4770      	bx	lr
 80025e4:	4770      	bx	lr
 80025e6:	bf00      	nop

080025e8 <cdc_Init>:
 80025e8:	2000      	movs	r0, #0
 80025ea:	4770      	bx	lr

080025ec <cdc_DeInit>:
 80025ec:	2000      	movs	r0, #0
 80025ee:	4770      	bx	lr

080025f0 <cdc_Ctrl>:
 80025f0:	2000      	movs	r0, #0
 80025f2:	4770      	bx	lr

080025f4 <cdc_DataTx>:
 80025f4:	e92d 03f0 	stmdb	sp!, {r4, r5, r6, r7, r8, r9}
 80025f8:	2900      	cmp	r1, #0
 80025fa:	d048      	beq.n	800268e <cdc_DataTx+0x9a>
 80025fc:	f240 237c 	movw	r3, #636	; 0x27c
 8002600:	f2c2 0300 	movt	r3, #8192	; 0x2000
 8002604:	2700      	movs	r7, #0
 8002606:	681e      	ldr	r6, [r3, #0]
 8002608:	f890 9000 	ldrb.w	r9, [r0]
 800260c:	1c75      	adds	r5, r6, #1
 800260e:	f5b5 6f80 	cmp.w	r5, #1024	; 0x400
 8002612:	f640 147c 	movw	r4, #2428	; 0x97c
 8002616:	bf14      	ite	ne
 8002618:	46ac      	movne	ip, r5
 800261a:	46bc      	moveq	ip, r7
 800261c:	f2c2 0400 	movt	r4, #8192	; 0x2000
 8002620:	2201      	movs	r2, #1
 8002622:	f101 38ff 	add.w	r8, r1, #4294967295
 8002626:	428a      	cmp	r2, r1
 8002628:	f8c3 c000 	str.w	ip, [r3]
 800262c:	f804 9006 	strb.w	r9, [r4, r6]
 8002630:	469c      	mov	ip, r3
 8002632:	ea08 0502 	and.w	r5, r8, r2
 8002636:	d02a      	beq.n	800268e <cdc_DataTx+0x9a>
 8002638:	b16d      	cbz	r5, 8002656 <cdc_DataTx+0x62>
 800263a:	681e      	ldr	r6, [r3, #0]
 800263c:	f810 8002 	ldrb.w	r8, [r0, r2]
 8002640:	1c75      	adds	r5, r6, #1
 8002642:	f5b5 6f80 	cmp.w	r5, #1024	; 0x400
 8002646:	f804 8006 	strb.w	r8, [r4, r6]
 800264a:	601d      	str	r5, [r3, #0]
 800264c:	bf08      	it	eq
 800264e:	601f      	streq	r7, [r3, #0]
 8002650:	3201      	adds	r2, #1
 8002652:	428a      	cmp	r2, r1
 8002654:	d01b      	beq.n	800268e <cdc_DataTx+0x9a>
 8002656:	681e      	ldr	r6, [r3, #0]
 8002658:	f810 8002 	ldrb.w	r8, [r0, r2]
 800265c:	1c75      	adds	r5, r6, #1
 800265e:	f5b5 6f80 	cmp.w	r5, #1024	; 0x400
 8002662:	601d      	str	r5, [r3, #0]
 8002664:	bf08      	it	eq
 8002666:	f8cc 7000 	streq.w	r7, [ip]
 800266a:	f804 8006 	strb.w	r8, [r4, r6]
 800266e:	3201      	adds	r2, #1
 8002670:	681e      	ldr	r6, [r3, #0]
 8002672:	f810 8002 	ldrb.w	r8, [r0, r2]
 8002676:	1c75      	adds	r5, r6, #1
 8002678:	f5b5 6f80 	cmp.w	r5, #1024	; 0x400
 800267c:	f804 8006 	strb.w	r8, [r4, r6]
 8002680:	601d      	str	r5, [r3, #0]
 8002682:	d1e5      	bne.n	8002650 <cdc_DataTx+0x5c>
 8002684:	3201      	adds	r2, #1
 8002686:	428a      	cmp	r2, r1
 8002688:	f8cc 7000 	str.w	r7, [ip]
 800268c:	d1e3      	bne.n	8002656 <cdc_DataTx+0x62>
 800268e:	2000      	movs	r0, #0
 8002690:	e8bd 03f0 	ldmia.w	sp!, {r4, r5, r6, r7, r8, r9}
 8002694:	4770      	bx	lr
 8002696:	bf00      	nop

08002698 <cdc_DataRx>:
 8002698:	e92d 43f0 	stmdb	sp!, {r4, r5, r6, r7, r8, r9, lr}
 800269c:	b083      	sub	sp, #12
 800269e:	f04f 0900 	mov.w	r9, #0
 80026a2:	4688      	mov	r8, r1
 80026a4:	4606      	mov	r6, r0
 80026a6:	f8cd 9004 	str.w	r9, [sp, #4]
 80026aa:	b369      	cbz	r1, 8002708 <cdc_DataRx+0x70>
 80026ac:	f240 1574 	movw	r5, #372	; 0x174
 80026b0:	f2c2 0500 	movt	r5, #8192	; 0x2000
 80026b4:	1e4f      	subs	r7, r1, #1
 80026b6:	2401      	movs	r4, #1
 80026b8:	6828      	ldr	r0, [r5, #0]
 80026ba:	4631      	mov	r1, r6
 80026bc:	aa01      	add	r2, sp, #4
 80026be:	464b      	mov	r3, r9
 80026c0:	f000 feda 	bl	8003478 <xQueueGenericSendFromISR>
 80026c4:	4544      	cmp	r4, r8
 80026c6:	ea07 0704 	and.w	r7, r7, r4
 80026ca:	d019      	beq.n	8002700 <cdc_DataRx+0x68>
 80026cc:	b147      	cbz	r7, 80026e0 <cdc_DataRx+0x48>
 80026ce:	1c71      	adds	r1, r6, #1
 80026d0:	6828      	ldr	r0, [r5, #0]
 80026d2:	aa01      	add	r2, sp, #4
 80026d4:	464b      	mov	r3, r9
 80026d6:	2402      	movs	r4, #2
 80026d8:	f000 fece 	bl	8003478 <xQueueGenericSendFromISR>
 80026dc:	4544      	cmp	r4, r8
 80026de:	d00f      	beq.n	8002700 <cdc_DataRx+0x68>
 80026e0:	1931      	adds	r1, r6, r4
 80026e2:	2300      	movs	r3, #0
 80026e4:	3401      	adds	r4, #1
 80026e6:	aa01      	add	r2, sp, #4
 80026e8:	6828      	ldr	r0, [r5, #0]
 80026ea:	f000 fec5 	bl	8003478 <xQueueGenericSendFromISR>
 80026ee:	1931      	adds	r1, r6, r4
 80026f0:	2300      	movs	r3, #0
 80026f2:	6828      	ldr	r0, [r5, #0]
 80026f4:	aa01      	add	r2, sp, #4
 80026f6:	3401      	adds	r4, #1
 80026f8:	f000 febe 	bl	8003478 <xQueueGenericSendFromISR>
 80026fc:	4544      	cmp	r4, r8
 80026fe:	d1ef      	bne.n	80026e0 <cdc_DataRx+0x48>
 8002700:	9b01      	ldr	r3, [sp, #4]
 8002702:	b10b      	cbz	r3, 8002708 <cdc_DataRx+0x70>
 8002704:	f001 f900 	bl	8003908 <vPortYieldFromISR>
 8002708:	2000      	movs	r0, #0
 800270a:	b003      	add	sp, #12
 800270c:	e8bd 83f0 	ldmia.w	sp!, {r4, r5, r6, r7, r8, r9, pc}

08002710 <USBD_USR_DeviceDescriptor>:
 8002710:	2312      	movs	r3, #18
 8002712:	f240 003c 	movw	r0, #60	; 0x3c
 8002716:	800b      	strh	r3, [r1, #0]
 8002718:	f2c2 0000 	movt	r0, #8192	; 0x2000
 800271c:	4770      	bx	lr
 800271e:	bf00      	nop

08002720 <USBD_USR_LangIDStrDescriptor>:
 8002720:	2304      	movs	r3, #4
 8002722:	800b      	strh	r3, [r1, #0]
 8002724:	4800      	ldr	r0, [pc, #0]	; (8002728 <USBD_USR_LangIDStrDescriptor+0x8>)
 8002726:	4770      	bx	lr
 8002728:	20000050 	andcs	r0, r0, r0, asr r0

0800272c <USBD_USR_ManufacturerStrDescriptor>:
 800272c:	b510      	push	{r4, lr}
 800272e:	f640 547c 	movw	r4, #3452	; 0xd7c
 8002732:	f2c2 0400 	movt	r4, #8192	; 0x2000
 8002736:	f248 20e4 	movw	r0, #33508	; 0x82e4
 800273a:	460a      	mov	r2, r1
 800273c:	f6c0 0000 	movt	r0, #2048	; 0x800
 8002740:	4621      	mov	r1, r4
 8002742:	f004 f82f 	bl	80067a4 <USBD_GetString>
 8002746:	4620      	mov	r0, r4
 8002748:	bd10      	pop	{r4, pc}
 800274a:	bf00      	nop

0800274c <USBD_USR_InterfaceStrDescriptor>:
 800274c:	460a      	mov	r2, r1
 800274e:	f248 20f8 	movw	r0, #33528	; 0x82f8
 8002752:	f640 517c 	movw	r1, #3452	; 0xd7c
 8002756:	b508      	push	{r3, lr}
 8002758:	f6c0 0000 	movt	r0, #2048	; 0x800
 800275c:	f2c2 0100 	movt	r1, #8192	; 0x2000
 8002760:	f004 f820 	bl	80067a4 <USBD_GetString>
 8002764:	f640 507c 	movw	r0, #3452	; 0xd7c
 8002768:	f2c2 0000 	movt	r0, #8192	; 0x2000
 800276c:	bd08      	pop	{r3, pc}
 800276e:	bf00      	nop

08002770 <USBD_USR_ConfigStrDescriptor>:
 8002770:	460a      	mov	r2, r1
 8002772:	f248 3008 	movw	r0, #33544	; 0x8308
 8002776:	f640 517c 	movw	r1, #3452	; 0xd7c
 800277a:	b508      	push	{r3, lr}
 800277c:	f6c0 0000 	movt	r0, #2048	; 0x800
 8002780:	f2c2 0100 	movt	r1, #8192	; 0x2000
 8002784:	f004 f80e 	bl	80067a4 <USBD_GetString>
 8002788:	f640 507c 	movw	r0, #3452	; 0xd7c
 800278c:	f2c2 0000 	movt	r0, #8192	; 0x2000
 8002790:	bd08      	pop	{r3, pc}
 8002792:	bf00      	nop

08002794 <USBD_USR_SerialStrDescriptor>:
 8002794:	b508      	push	{r3, lr}
 8002796:	460a      	mov	r2, r1
 8002798:	b170      	cbz	r0, 80027b8 <USBD_USR_SerialStrDescriptor+0x24>
 800279a:	f248 3024 	movw	r0, #33572	; 0x8324
 800279e:	f640 517c 	movw	r1, #3452	; 0xd7c
 80027a2:	f6c0 0000 	movt	r0, #2048	; 0x800
 80027a6:	f2c2 0100 	movt	r1, #8192	; 0x2000
 80027aa:	f003 fffb 	bl	80067a4 <USBD_GetString>
 80027ae:	f640 507c 	movw	r0, #3452	; 0xd7c
 80027b2:	f2c2 0000 	movt	r0, #8192	; 0x2000
 80027b6:	bd08      	pop	{r3, pc}
 80027b8:	f248 3014 	movw	r0, #33556	; 0x8314
 80027bc:	f640 517c 	movw	r1, #3452	; 0xd7c
 80027c0:	f6c0 0000 	movt	r0, #2048	; 0x800
 80027c4:	f2c2 0100 	movt	r1, #8192	; 0x2000
 80027c8:	f003 ffec 	bl	80067a4 <USBD_GetString>
 80027cc:	f640 507c 	movw	r0, #3452	; 0xd7c
 80027d0:	f2c2 0000 	movt	r0, #8192	; 0x2000
 80027d4:	bd08      	pop	{r3, pc}
 80027d6:	bf00      	nop

080027d8 <USBD_USR_ProductStrDescriptor>:
 80027d8:	b508      	push	{r3, lr}
 80027da:	460a      	mov	r2, r1
 80027dc:	b170      	cbz	r0, 80027fc <USBD_USR_ProductStrDescriptor+0x24>
 80027de:	f248 3058 	movw	r0, #33624	; 0x8358
 80027e2:	f640 517c 	movw	r1, #3452	; 0xd7c
 80027e6:	f6c0 0000 	movt	r0, #2048	; 0x800
 80027ea:	f2c2 0100 	movt	r1, #8192	; 0x2000
 80027ee:	f003 ffd9 	bl	80067a4 <USBD_GetString>
 80027f2:	f640 507c 	movw	r0, #3452	; 0xd7c
 80027f6:	f2c2 0000 	movt	r0, #8192	; 0x2000
 80027fa:	bd08      	pop	{r3, pc}
 80027fc:	f248 3034 	movw	r0, #33588	; 0x8334
 8002800:	f640 517c 	movw	r1, #3452	; 0xd7c
 8002804:	f6c0 0000 	movt	r0, #2048	; 0x800
 8002808:	f2c2 0100 	movt	r1, #8192	; 0x2000
 800280c:	f003 ffca 	bl	80067a4 <USBD_GetString>
 8002810:	f640 507c 	movw	r0, #3452	; 0xd7c
 8002814:	f2c2 0000 	movt	r0, #8192	; 0x2000
 8002818:	bd08      	pop	{r3, pc}
 800281a:	bf00      	nop

0800281c <USBD_USR_Init>:
 800281c:	4770      	bx	lr
 800281e:	bf00      	nop

08002820 <USBD_USR_DeviceReset>:
 8002820:	4770      	bx	lr
 8002822:	bf00      	nop

08002824 <USBD_USR_DeviceResumed>:
 8002824:	f240 1374 	movw	r3, #372	; 0x174
 8002828:	2201      	movs	r2, #1
 800282a:	f2c2 0300 	movt	r3, #8192	; 0x2000
 800282e:	4610      	mov	r0, r2
 8002830:	711a      	strb	r2, [r3, #4]
 8002832:	f7ff ba0b 	b.w	8001c4c <LEDOn>
 8002836:	bf00      	nop

08002838 <USBD_USR_DeviceConfigured>:
 8002838:	f240 1374 	movw	r3, #372	; 0x174
 800283c:	2201      	movs	r2, #1
 800283e:	f2c2 0300 	movt	r3, #8192	; 0x2000
 8002842:	4610      	mov	r0, r2
 8002844:	711a      	strb	r2, [r3, #4]
 8002846:	f7ff ba01 	b.w	8001c4c <LEDOn>
 800284a:	bf00      	nop

0800284c <USBD_USR_DeviceSuspended>:
 800284c:	f240 1374 	movw	r3, #372	; 0x174
 8002850:	f2c2 0300 	movt	r3, #8192	; 0x2000
 8002854:	2200      	movs	r2, #0
 8002856:	2001      	movs	r0, #1
 8002858:	711a      	strb	r2, [r3, #4]
 800285a:	f7ff ba05 	b.w	8001c68 <LEDOff>
 800285e:	bf00      	nop

08002860 <vListInitialise>:
 8002860:	f100 0108 	add.w	r1, r0, #8
 8002864:	f04f 32ff 	mov.w	r2, #4294967295
 8002868:	2300      	movs	r3, #0
 800286a:	6082      	str	r2, [r0, #8]
 800286c:	6041      	str	r1, [r0, #4]
 800286e:	60c1      	str	r1, [r0, #12]
 8002870:	6101      	str	r1, [r0, #16]
 8002872:	6003      	str	r3, [r0, #0]
 8002874:	4770      	bx	lr
 8002876:	bf00      	nop

08002878 <vListInitialiseItem>:
 8002878:	2300      	movs	r3, #0
 800287a:	6103      	str	r3, [r0, #16]
 800287c:	4770      	bx	lr
 800287e:	bf00      	nop

08002880 <vListInsertEnd>:
 8002880:	6843      	ldr	r3, [r0, #4]
 8002882:	685a      	ldr	r2, [r3, #4]
 8002884:	608b      	str	r3, [r1, #8]
 8002886:	604a      	str	r2, [r1, #4]
 8002888:	685a      	ldr	r2, [r3, #4]
 800288a:	6091      	str	r1, [r2, #8]
 800288c:	6059      	str	r1, [r3, #4]
 800288e:	6802      	ldr	r2, [r0, #0]
 8002890:	6041      	str	r1, [r0, #4]
 8002892:	1c53      	adds	r3, r2, #1
 8002894:	6108      	str	r0, [r1, #16]
 8002896:	6003      	str	r3, [r0, #0]
 8002898:	4770      	bx	lr
 800289a:	bf00      	nop

0800289c <vListInsert>:
 800289c:	b410      	push	{r4}
 800289e:	680c      	ldr	r4, [r1, #0]
 80028a0:	1c63      	adds	r3, r4, #1
 80028a2:	bf08      	it	eq
 80028a4:	6903      	ldreq	r3, [r0, #16]
 80028a6:	d00a      	beq.n	80028be <vListInsert+0x22>
 80028a8:	68c3      	ldr	r3, [r0, #12]
 80028aa:	681a      	ldr	r2, [r3, #0]
 80028ac:	4294      	cmp	r4, r2
 80028ae:	f100 0308 	add.w	r3, r0, #8
 80028b2:	d304      	bcc.n	80028be <vListInsert+0x22>
 80028b4:	685b      	ldr	r3, [r3, #4]
 80028b6:	685a      	ldr	r2, [r3, #4]
 80028b8:	6812      	ldr	r2, [r2, #0]
 80028ba:	4294      	cmp	r4, r2
 80028bc:	d2fa      	bcs.n	80028b4 <vListInsert+0x18>
 80028be:	685a      	ldr	r2, [r3, #4]
 80028c0:	6108      	str	r0, [r1, #16]
 80028c2:	6091      	str	r1, [r2, #8]
 80028c4:	604a      	str	r2, [r1, #4]
 80028c6:	6059      	str	r1, [r3, #4]
 80028c8:	6802      	ldr	r2, [r0, #0]
 80028ca:	608b      	str	r3, [r1, #8]
 80028cc:	1c51      	adds	r1, r2, #1
 80028ce:	6001      	str	r1, [r0, #0]
 80028d0:	bc10      	pop	{r4}
 80028d2:	4770      	bx	lr

080028d4 <vListRemove>:
 80028d4:	b410      	push	{r4}
 80028d6:	6842      	ldr	r2, [r0, #4]
 80028d8:	6884      	ldr	r4, [r0, #8]
 80028da:	6903      	ldr	r3, [r0, #16]
 80028dc:	6094      	str	r4, [r2, #8]
 80028de:	6881      	ldr	r1, [r0, #8]
 80028e0:	685c      	ldr	r4, [r3, #4]
 80028e2:	604a      	str	r2, [r1, #4]
 80028e4:	681a      	ldr	r2, [r3, #0]
 80028e6:	4284      	cmp	r4, r0
 80028e8:	bf08      	it	eq
 80028ea:	6059      	streq	r1, [r3, #4]
 80028ec:	3a01      	subs	r2, #1
 80028ee:	2100      	movs	r1, #0
 80028f0:	6101      	str	r1, [r0, #16]
 80028f2:	601a      	str	r2, [r3, #0]
 80028f4:	bc10      	pop	{r4}
 80028f6:	4770      	bx	lr

080028f8 <prvIdleTask>:
 80028f8:	e7fe      	b.n	80028f8 <prvIdleTask>
 80028fa:	bf00      	nop

080028fc <prvAddCurrentTaskToDelayedList>:
 80028fc:	f240 1384 	movw	r3, #388	; 0x184
 8002900:	f2c2 0300 	movt	r3, #8192	; 0x2000
 8002904:	b510      	push	{r4, lr}
 8002906:	6819      	ldr	r1, [r3, #0]
 8002908:	685a      	ldr	r2, [r3, #4]
 800290a:	6048      	str	r0, [r1, #4]
 800290c:	4290      	cmp	r0, r2
 800290e:	4604      	mov	r4, r0
 8002910:	d30d      	bcc.n	800292e <prvAddCurrentTaskToDelayedList+0x32>
 8002912:	68d8      	ldr	r0, [r3, #12]
 8002914:	6819      	ldr	r1, [r3, #0]
 8002916:	3104      	adds	r1, #4
 8002918:	f7ff ffc0 	bl	800289c <vListInsert>
 800291c:	f240 0098 	movw	r0, #152	; 0x98
 8002920:	f2c2 0000 	movt	r0, #8192	; 0x2000
 8002924:	6802      	ldr	r2, [r0, #0]
 8002926:	4294      	cmp	r4, r2
 8002928:	bf38      	it	cc
 800292a:	6004      	strcc	r4, [r0, #0]
 800292c:	bd10      	pop	{r4, pc}
 800292e:	6898      	ldr	r0, [r3, #8]
 8002930:	681b      	ldr	r3, [r3, #0]
 8002932:	1d19      	adds	r1, r3, #4
 8002934:	e8bd 4010 	ldmia.w	sp!, {r4, lr}
 8002938:	f7ff bfb0 	b.w	800289c <vListInsert>

0800293c <xTaskGenericCreate>:
 800293c:	e92d 4ff0 	stmdb	sp!, {r4, r5, r6, r7, r8, r9, sl, fp, lr}
 8002940:	b083      	sub	sp, #12
 8002942:	4605      	mov	r5, r0
 8002944:	9101      	str	r1, [sp, #4]
 8002946:	4614      	mov	r4, r2
 8002948:	469a      	mov	sl, r3
 800294a:	f8dd 8030 	ldr.w	r8, [sp, #48]	; 0x30
 800294e:	f8dd 9034 	ldr.w	r9, [sp, #52]	; 0x34
 8002952:	9f0e      	ldr	r7, [sp, #56]	; 0x38
 8002954:	b138      	cbz	r0, 8002966 <xTaskGenericCreate+0x2a>
 8002956:	f1b8 0f04 	cmp.w	r8, #4
 800295a:	d909      	bls.n	8002970 <xTaskGenericCreate+0x34>
 800295c:	f04f 0050 	mov.w	r0, #80	; 0x50
 8002960:	f380 8811 	msr	BASEPRI, r0
 8002964:	e7fe      	b.n	8002964 <xTaskGenericCreate+0x28>
 8002966:	f04f 0050 	mov.w	r0, #80	; 0x50
 800296a:	f380 8811 	msr	BASEPRI, r0
 800296e:	e7fe      	b.n	800296e <xTaskGenericCreate+0x32>
 8002970:	2048      	movs	r0, #72	; 0x48
 8002972:	f001 f82b 	bl	80039cc <pvPortMalloc>
 8002976:	4606      	mov	r6, r0
 8002978:	2800      	cmp	r0, #0
 800297a:	f000 80c3 	beq.w	8002b04 <xTaskGenericCreate+0x1c8>
 800297e:	2f00      	cmp	r7, #0
 8002980:	f000 80b0 	beq.w	8002ae4 <xTaskGenericCreate+0x1a8>
 8002984:	6307      	str	r7, [r0, #48]	; 0x30
 8002986:	ea4f 0b84 	mov.w	fp, r4, lsl #2
 800298a:	21a5      	movs	r1, #165	; 0xa5
 800298c:	465a      	mov	r2, fp
 800298e:	4638      	mov	r0, r7
 8002990:	f005 f9d8 	bl	8007d44 <memset>
 8002994:	6b30      	ldr	r0, [r6, #48]	; 0x30
 8002996:	9901      	ldr	r1, [sp, #4]
 8002998:	3c01      	subs	r4, #1
 800299a:	2214      	movs	r2, #20
 800299c:	eb00 0784 	add.w	r7, r0, r4, lsl #2
 80029a0:	f106 0034 	add.w	r0, r6, #52	; 0x34
 80029a4:	f005 fa14 	bl	8007dd0 <strncpy>
 80029a8:	1d34      	adds	r4, r6, #4
 80029aa:	2100      	movs	r1, #0
 80029ac:	f886 1047 	strb.w	r1, [r6, #71]	; 0x47
 80029b0:	4620      	mov	r0, r4
 80029b2:	f8c6 802c 	str.w	r8, [r6, #44]	; 0x2c
 80029b6:	f7ff ff5f 	bl	8002878 <vListInitialiseItem>
 80029ba:	f106 0018 	add.w	r0, r6, #24
 80029be:	f7ff ff5b 	bl	8002878 <vListInitialiseItem>
 80029c2:	f027 0707 	bic.w	r7, r7, #7
 80029c6:	f1c8 0305 	rsb	r3, r8, #5
 80029ca:	6136      	str	r6, [r6, #16]
 80029cc:	61b3      	str	r3, [r6, #24]
 80029ce:	6276      	str	r6, [r6, #36]	; 0x24
 80029d0:	4638      	mov	r0, r7
 80029d2:	4629      	mov	r1, r5
 80029d4:	4652      	mov	r2, sl
 80029d6:	f000 ff37 	bl	8003848 <pxPortInitialiseStack>
 80029da:	6030      	str	r0, [r6, #0]
 80029dc:	f1b9 0f00 	cmp.w	r9, #0
 80029e0:	d001      	beq.n	80029e6 <xTaskGenericCreate+0xaa>
 80029e2:	f8c9 6000 	str.w	r6, [r9]
 80029e6:	f240 1584 	movw	r5, #388	; 0x184
 80029ea:	f2c2 0500 	movt	r5, #8192	; 0x2000
 80029ee:	f000 ff93 	bl	8003918 <vPortEnterCritical>
 80029f2:	6929      	ldr	r1, [r5, #16]
 80029f4:	1c4b      	adds	r3, r1, #1
 80029f6:	612b      	str	r3, [r5, #16]
 80029f8:	682a      	ldr	r2, [r5, #0]
 80029fa:	2a00      	cmp	r2, #0
 80029fc:	d042      	beq.n	8002a84 <xTaskGenericCreate+0x148>
 80029fe:	f8d5 20c8 	ldr.w	r2, [r5, #200]	; 0xc8
 8002a02:	b93a      	cbnz	r2, 8002a14 <xTaskGenericCreate+0xd8>
 8002a04:	6829      	ldr	r1, [r5, #0]
 8002a06:	6acb      	ldr	r3, [r1, #44]	; 0x2c
 8002a08:	4598      	cmp	r8, r3
 8002a0a:	bf24      	itt	cs
 8002a0c:	462f      	movcs	r7, r5
 8002a0e:	f847 6b14 	strcs.w	r6, [r7], #20
 8002a12:	d201      	bcs.n	8002a18 <xTaskGenericCreate+0xdc>
 8002a14:	f105 0714 	add.w	r7, r5, #20
 8002a18:	6af3      	ldr	r3, [r6, #44]	; 0x2c
 8002a1a:	f8d5 10cc 	ldr.w	r1, [r5, #204]	; 0xcc
 8002a1e:	f8d5 20d0 	ldr.w	r2, [r5, #208]	; 0xd0
 8002a22:	f240 1e84 	movw	lr, #388	; 0x184
 8002a26:	f2c2 0e00 	movt	lr, #8192	; 0x2000
 8002a2a:	428b      	cmp	r3, r1
 8002a2c:	f240 1c84 	movw	ip, #388	; 0x184
 8002a30:	f8d5 10d4 	ldr.w	r1, [r5, #212]	; 0xd4
 8002a34:	bf88      	it	hi
 8002a36:	f8ce 30cc 	strhi.w	r3, [lr, #204]	; 0xcc
 8002a3a:	f2c2 0c00 	movt	ip, #8192	; 0x2000
 8002a3e:	1c50      	adds	r0, r2, #1
 8002a40:	eb03 0283 	add.w	r2, r3, r3, lsl #2
 8002a44:	428b      	cmp	r3, r1
 8002a46:	f8c5 00d0 	str.w	r0, [r5, #208]	; 0xd0
 8002a4a:	4621      	mov	r1, r4
 8002a4c:	eb07 0082 	add.w	r0, r7, r2, lsl #2
 8002a50:	bf88      	it	hi
 8002a52:	f8cc 30d4 	strhi.w	r3, [ip, #212]	; 0xd4
 8002a56:	f7ff ff13 	bl	8002880 <vListInsertEnd>
 8002a5a:	f000 ff69 	bl	8003930 <vPortExitCritical>
 8002a5e:	f8d5 00c8 	ldr.w	r0, [r5, #200]	; 0xc8
 8002a62:	f240 1384 	movw	r3, #388	; 0x184
 8002a66:	f2c2 0300 	movt	r3, #8192	; 0x2000
 8002a6a:	b118      	cbz	r0, 8002a74 <xTaskGenericCreate+0x138>
 8002a6c:	6818      	ldr	r0, [r3, #0]
 8002a6e:	6ac3      	ldr	r3, [r0, #44]	; 0x2c
 8002a70:	4598      	cmp	r8, r3
 8002a72:	d803      	bhi.n	8002a7c <xTaskGenericCreate+0x140>
 8002a74:	2001      	movs	r0, #1
 8002a76:	b003      	add	sp, #12
 8002a78:	e8bd 8ff0 	ldmia.w	sp!, {r4, r5, r6, r7, r8, r9, sl, fp, pc}
 8002a7c:	f000 ff44 	bl	8003908 <vPortYieldFromISR>
 8002a80:	2001      	movs	r0, #1
 8002a82:	e7f8      	b.n	8002a76 <xTaskGenericCreate+0x13a>
 8002a84:	602e      	str	r6, [r5, #0]
 8002a86:	6928      	ldr	r0, [r5, #16]
 8002a88:	2801      	cmp	r0, #1
 8002a8a:	f105 0714 	add.w	r7, r5, #20
 8002a8e:	d1c3      	bne.n	8002a18 <xTaskGenericCreate+0xdc>
 8002a90:	4638      	mov	r0, r7
 8002a92:	f7ff fee5 	bl	8002860 <vListInitialise>
 8002a96:	f105 0028 	add.w	r0, r5, #40	; 0x28
 8002a9a:	f7ff fee1 	bl	8002860 <vListInitialise>
 8002a9e:	f105 003c 	add.w	r0, r5, #60	; 0x3c
 8002aa2:	f7ff fedd 	bl	8002860 <vListInitialise>
 8002aa6:	f105 0050 	add.w	r0, r5, #80	; 0x50
 8002aaa:	f7ff fed9 	bl	8002860 <vListInitialise>
 8002aae:	f105 0a78 	add.w	sl, r5, #120	; 0x78
 8002ab2:	f105 0064 	add.w	r0, r5, #100	; 0x64
 8002ab6:	f7ff fed3 	bl	8002860 <vListInitialise>
 8002aba:	f105 098c 	add.w	r9, r5, #140	; 0x8c
 8002abe:	4650      	mov	r0, sl
 8002ac0:	f7ff fece 	bl	8002860 <vListInitialise>
 8002ac4:	4648      	mov	r0, r9
 8002ac6:	f7ff fecb 	bl	8002860 <vListInitialise>
 8002aca:	f105 00a0 	add.w	r0, r5, #160	; 0xa0
 8002ace:	f7ff fec7 	bl	8002860 <vListInitialise>
 8002ad2:	f105 00b4 	add.w	r0, r5, #180	; 0xb4
 8002ad6:	f7ff fec3 	bl	8002860 <vListInitialise>
 8002ada:	f8c5 a00c 	str.w	sl, [r5, #12]
 8002ade:	f8c5 9008 	str.w	r9, [r5, #8]
 8002ae2:	e799      	b.n	8002a18 <xTaskGenericCreate+0xdc>
 8002ae4:	ea4f 0b84 	mov.w	fp, r4, lsl #2
 8002ae8:	4658      	mov	r0, fp
 8002aea:	f000 ff6f 	bl	80039cc <pvPortMalloc>
 8002aee:	4607      	mov	r7, r0
 8002af0:	6330      	str	r0, [r6, #48]	; 0x30
 8002af2:	2800      	cmp	r0, #0
 8002af4:	f47f af49 	bne.w	800298a <xTaskGenericCreate+0x4e>
 8002af8:	4630      	mov	r0, r6
 8002afa:	f000 ff8b 	bl	8003a14 <vPortFree>
 8002afe:	f04f 30ff 	mov.w	r0, #4294967295
 8002b02:	e7b8      	b.n	8002a76 <xTaskGenericCreate+0x13a>
 8002b04:	f04f 30ff 	mov.w	r0, #4294967295
 8002b08:	e7b5      	b.n	8002a76 <xTaskGenericCreate+0x13a>
 8002b0a:	bf00      	nop

08002b0c <xTaskIsTaskSuspended>:
 8002b0c:	b128      	cbz	r0, 8002b1a <xTaskIsTaskSuspended+0xe>
 8002b0e:	6943      	ldr	r3, [r0, #20]
 8002b10:	4a0a      	ldr	r2, [pc, #40]	; (8002b3c <xTaskIsTaskSuspended+0x30>)
 8002b12:	4293      	cmp	r3, r2
 8002b14:	d006      	beq.n	8002b24 <xTaskIsTaskSuspended+0x18>
 8002b16:	2000      	movs	r0, #0
 8002b18:	4770      	bx	lr
 8002b1a:	f04f 0050 	mov.w	r0, #80	; 0x50
 8002b1e:	f380 8811 	msr	BASEPRI, r0
 8002b22:	e7fe      	b.n	8002b22 <xTaskIsTaskSuspended+0x16>
 8002b24:	6a80      	ldr	r0, [r0, #40]	; 0x28
 8002b26:	3b14      	subs	r3, #20
 8002b28:	4298      	cmp	r0, r3
 8002b2a:	d004      	beq.n	8002b36 <xTaskIsTaskSuspended+0x2a>
 8002b2c:	f1d0 0001 	rsbs	r0, r0, #1
 8002b30:	bf38      	it	cc
 8002b32:	2000      	movcc	r0, #0
 8002b34:	4770      	bx	lr
 8002b36:	2000      	movs	r0, #0
 8002b38:	4770      	bx	lr
 8002b3a:	bf00      	nop
 8002b3c:	20000238 	andcs	r0, r0, r8, lsr r2

08002b40 <vTaskResume>:
 8002b40:	b570      	push	{r4, r5, r6, lr}
 8002b42:	4604      	mov	r4, r0
 8002b44:	b190      	cbz	r0, 8002b6c <vTaskResume+0x2c>
 8002b46:	f240 1584 	movw	r5, #388	; 0x184
 8002b4a:	f2c2 0500 	movt	r5, #8192	; 0x2000
 8002b4e:	682b      	ldr	r3, [r5, #0]
 8002b50:	4298      	cmp	r0, r3
 8002b52:	d00a      	beq.n	8002b6a <vTaskResume+0x2a>
 8002b54:	f000 fee0 	bl	8003918 <vPortEnterCritical>
 8002b58:	4620      	mov	r0, r4
 8002b5a:	f7ff ffd7 	bl	8002b0c <xTaskIsTaskSuspended>
 8002b5e:	2801      	cmp	r0, #1
 8002b60:	d009      	beq.n	8002b76 <vTaskResume+0x36>
 8002b62:	e8bd 4070 	ldmia.w	sp!, {r4, r5, r6, lr}
 8002b66:	f000 bee3 	b.w	8003930 <vPortExitCritical>
 8002b6a:	bd70      	pop	{r4, r5, r6, pc}
 8002b6c:	f04f 0050 	mov.w	r0, #80	; 0x50
 8002b70:	f380 8811 	msr	BASEPRI, r0
 8002b74:	e7fe      	b.n	8002b74 <vTaskResume+0x34>
 8002b76:	1d26      	adds	r6, r4, #4
 8002b78:	4630      	mov	r0, r6
 8002b7a:	f7ff feab 	bl	80028d4 <vListRemove>
 8002b7e:	6ae3      	ldr	r3, [r4, #44]	; 0x2c
 8002b80:	f8d5 00d4 	ldr.w	r0, [r5, #212]	; 0xd4
 8002b84:	4a09      	ldr	r2, [pc, #36]	; (8002bac <vTaskResume+0x6c>)
 8002b86:	eb03 0c83 	add.w	ip, r3, r3, lsl #2
 8002b8a:	4283      	cmp	r3, r0
 8002b8c:	4631      	mov	r1, r6
 8002b8e:	eb02 008c 	add.w	r0, r2, ip, lsl #2
 8002b92:	bf88      	it	hi
 8002b94:	f8c5 30d4 	strhi.w	r3, [r5, #212]	; 0xd4
 8002b98:	f7ff fe72 	bl	8002880 <vListInsertEnd>
 8002b9c:	6829      	ldr	r1, [r5, #0]
 8002b9e:	6ae2      	ldr	r2, [r4, #44]	; 0x2c
 8002ba0:	6ac8      	ldr	r0, [r1, #44]	; 0x2c
 8002ba2:	4282      	cmp	r2, r0
 8002ba4:	d3dd      	bcc.n	8002b62 <vTaskResume+0x22>
 8002ba6:	f000 feaf 	bl	8003908 <vPortYieldFromISR>
 8002baa:	e7da      	b.n	8002b62 <vTaskResume+0x22>
 8002bac:	20000198 	mulcs	r0, r8, r1

08002bb0 <xTaskResumeFromISR>:
 8002bb0:	b5f8      	push	{r3, r4, r5, r6, r7, lr}
 8002bb2:	4606      	mov	r6, r0
 8002bb4:	b178      	cbz	r0, 8002bd6 <xTaskResumeFromISR+0x26>
 8002bb6:	f04f 0050 	mov.w	r0, #80	; 0x50
 8002bba:	f380 8811 	msr	BASEPRI, r0
 8002bbe:	4630      	mov	r0, r6
 8002bc0:	f7ff ffa4 	bl	8002b0c <xTaskIsTaskSuspended>
 8002bc4:	2400      	movs	r4, #0
 8002bc6:	2801      	cmp	r0, #1
 8002bc8:	d00a      	beq.n	8002be0 <xTaskResumeFromISR+0x30>
 8002bca:	f04f 0000 	mov.w	r0, #0
 8002bce:	f380 8811 	msr	BASEPRI, r0
 8002bd2:	4620      	mov	r0, r4
 8002bd4:	bdf8      	pop	{r3, r4, r5, r6, r7, pc}
 8002bd6:	f04f 0050 	mov.w	r0, #80	; 0x50
 8002bda:	f380 8811 	msr	BASEPRI, r0
 8002bde:	e7fe      	b.n	8002bde <xTaskResumeFromISR+0x2e>
 8002be0:	f240 1584 	movw	r5, #388	; 0x184
 8002be4:	f2c2 0500 	movt	r5, #8192	; 0x2000
 8002be8:	f8d5 30d8 	ldr.w	r3, [r5, #216]	; 0xd8
 8002bec:	b9fb      	cbnz	r3, 8002c2e <xTaskResumeFromISR+0x7e>
 8002bee:	682f      	ldr	r7, [r5, #0]
 8002bf0:	6af4      	ldr	r4, [r6, #44]	; 0x2c
 8002bf2:	6afa      	ldr	r2, [r7, #44]	; 0x2c
 8002bf4:	1d37      	adds	r7, r6, #4
 8002bf6:	4638      	mov	r0, r7
 8002bf8:	4294      	cmp	r4, r2
 8002bfa:	bf34      	ite	cc
 8002bfc:	2400      	movcc	r4, #0
 8002bfe:	2401      	movcs	r4, #1
 8002c00:	f7ff fe68 	bl	80028d4 <vListRemove>
 8002c04:	6af1      	ldr	r1, [r6, #44]	; 0x2c
 8002c06:	f8d5 30d4 	ldr.w	r3, [r5, #212]	; 0xd4
 8002c0a:	4a0f      	ldr	r2, [pc, #60]	; (8002c48 <xTaskResumeFromISR+0x98>)
 8002c0c:	4299      	cmp	r1, r3
 8002c0e:	eb01 0081 	add.w	r0, r1, r1, lsl #2
 8002c12:	bf88      	it	hi
 8002c14:	f8c5 10d4 	strhi.w	r1, [r5, #212]	; 0xd4
 8002c18:	eb02 0080 	add.w	r0, r2, r0, lsl #2
 8002c1c:	4639      	mov	r1, r7
 8002c1e:	f7ff fe2f 	bl	8002880 <vListInsertEnd>
 8002c22:	f04f 0000 	mov.w	r0, #0
 8002c26:	f380 8811 	msr	BASEPRI, r0
 8002c2a:	4620      	mov	r0, r4
 8002c2c:	bdf8      	pop	{r3, r4, r5, r6, r7, pc}
 8002c2e:	f105 00a0 	add.w	r0, r5, #160	; 0xa0
 8002c32:	f106 0118 	add.w	r1, r6, #24
 8002c36:	f7ff fe23 	bl	8002880 <vListInsertEnd>
 8002c3a:	2400      	movs	r4, #0
 8002c3c:	f04f 0000 	mov.w	r0, #0
 8002c40:	f380 8811 	msr	BASEPRI, r0
 8002c44:	4620      	mov	r0, r4
 8002c46:	bdf8      	pop	{r3, r4, r5, r6, r7, pc}
 8002c48:	20000198 	mulcs	r0, r8, r1

08002c4c <vTaskStartScheduler>:
 8002c4c:	b510      	push	{r4, lr}
 8002c4e:	f642 00f9 	movw	r0, #10489	; 0x28f9
 8002c52:	2400      	movs	r4, #0
 8002c54:	b084      	sub	sp, #16
 8002c56:	f248 317c 	movw	r1, #33660	; 0x837c
 8002c5a:	2282      	movs	r2, #130	; 0x82
 8002c5c:	4623      	mov	r3, r4
 8002c5e:	f6c0 0000 	movt	r0, #2048	; 0x800
 8002c62:	f6c0 0100 	movt	r1, #2048	; 0x800
 8002c66:	9400      	str	r4, [sp, #0]
 8002c68:	9401      	str	r4, [sp, #4]
 8002c6a:	9402      	str	r4, [sp, #8]
 8002c6c:	9403      	str	r4, [sp, #12]
 8002c6e:	f7ff fe65 	bl	800293c <xTaskGenericCreate>
 8002c72:	2801      	cmp	r0, #1
 8002c74:	4603      	mov	r3, r0
 8002c76:	d007      	beq.n	8002c88 <vTaskStartScheduler+0x3c>
 8002c78:	b920      	cbnz	r0, 8002c84 <vTaskStartScheduler+0x38>
 8002c7a:	f04f 0050 	mov.w	r0, #80	; 0x50
 8002c7e:	f380 8811 	msr	BASEPRI, r0
 8002c82:	e7fe      	b.n	8002c82 <vTaskStartScheduler+0x36>
 8002c84:	b004      	add	sp, #16
 8002c86:	bd10      	pop	{r4, pc}
 8002c88:	f04f 0050 	mov.w	r0, #80	; 0x50
 8002c8c:	f380 8811 	msr	BASEPRI, r0
 8002c90:	f240 1284 	movw	r2, #388	; 0x184
 8002c94:	f2c2 0200 	movt	r2, #8192	; 0x2000
 8002c98:	f8c2 30c8 	str.w	r3, [r2, #200]	; 0xc8
 8002c9c:	6054      	str	r4, [r2, #4]
 8002c9e:	f7ff fbd3 	bl	8002448 <InitFastCounter>
 8002ca2:	b004      	add	sp, #16
 8002ca4:	e8bd 4010 	ldmia.w	sp!, {r4, lr}
 8002ca8:	f000 bdec 	b.w	8003884 <xPortStartScheduler>

08002cac <vTaskEndScheduler>:
 8002cac:	f04f 0050 	mov.w	r0, #80	; 0x50
 8002cb0:	f380 8811 	msr	BASEPRI, r0
 8002cb4:	f240 1384 	movw	r3, #388	; 0x184
 8002cb8:	f2c2 0300 	movt	r3, #8192	; 0x2000
 8002cbc:	2200      	movs	r2, #0
 8002cbe:	f8c3 20c8 	str.w	r2, [r3, #200]	; 0xc8
 8002cc2:	f000 be1f 	b.w	8003904 <vPortEndScheduler>
 8002cc6:	bf00      	nop

08002cc8 <vTaskSuspendAll>:
 8002cc8:	f240 1384 	movw	r3, #388	; 0x184
 8002ccc:	f2c2 0300 	movt	r3, #8192	; 0x2000
 8002cd0:	f8d3 00d8 	ldr.w	r0, [r3, #216]	; 0xd8
 8002cd4:	1c42      	adds	r2, r0, #1
 8002cd6:	f8c3 20d8 	str.w	r2, [r3, #216]	; 0xd8
 8002cda:	4770      	bx	lr

08002cdc <xTaskGetTickCount>:
 8002cdc:	b510      	push	{r4, lr}
 8002cde:	f000 fe1b 	bl	8003918 <vPortEnterCritical>
 8002ce2:	f240 1384 	movw	r3, #388	; 0x184
 8002ce6:	f2c2 0300 	movt	r3, #8192	; 0x2000
 8002cea:	685c      	ldr	r4, [r3, #4]
 8002cec:	f000 fe20 	bl	8003930 <vPortExitCritical>
 8002cf0:	4620      	mov	r0, r4
 8002cf2:	bd10      	pop	{r4, pc}

08002cf4 <xTaskGetTickCountFromISR>:
 8002cf4:	f04f 0050 	mov.w	r0, #80	; 0x50
 8002cf8:	f380 8811 	msr	BASEPRI, r0
 8002cfc:	f240 1084 	movw	r0, #388	; 0x184
 8002d00:	f2c2 0000 	movt	r0, #8192	; 0x2000
 8002d04:	6843      	ldr	r3, [r0, #4]
 8002d06:	f04f 0000 	mov.w	r0, #0
 8002d0a:	f380 8811 	msr	BASEPRI, r0
 8002d0e:	4618      	mov	r0, r3
 8002d10:	4770      	bx	lr
 8002d12:	bf00      	nop

08002d14 <uxTaskGetNumberOfTasks>:
 8002d14:	f240 1384 	movw	r3, #388	; 0x184
 8002d18:	f2c2 0300 	movt	r3, #8192	; 0x2000
 8002d1c:	6918      	ldr	r0, [r3, #16]
 8002d1e:	4770      	bx	lr

08002d20 <vTaskIncrementTick>:
 8002d20:	e92d 43f8 	stmdb	sp!, {r3, r4, r5, r6, r7, r8, r9, lr}
 8002d24:	f240 1484 	movw	r4, #388	; 0x184
 8002d28:	f2c2 0400 	movt	r4, #8192	; 0x2000
 8002d2c:	f8d4 30d8 	ldr.w	r3, [r4, #216]	; 0xd8
 8002d30:	2b00      	cmp	r3, #0
 8002d32:	d14f      	bne.n	8002dd4 <vTaskIncrementTick+0xb4>
 8002d34:	6862      	ldr	r2, [r4, #4]
 8002d36:	1c51      	adds	r1, r2, #1
 8002d38:	6061      	str	r1, [r4, #4]
 8002d3a:	6860      	ldr	r0, [r4, #4]
 8002d3c:	2800      	cmp	r0, #0
 8002d3e:	d050      	beq.n	8002de2 <vTaskIncrementTick+0xc2>
 8002d40:	f240 0598 	movw	r5, #152	; 0x98
 8002d44:	f2c2 0500 	movt	r5, #8192	; 0x2000
 8002d48:	682b      	ldr	r3, [r5, #0]
 8002d4a:	6862      	ldr	r2, [r4, #4]
 8002d4c:	f240 1684 	movw	r6, #388	; 0x184
 8002d50:	429a      	cmp	r2, r3
 8002d52:	f2c2 0600 	movt	r6, #8192	; 0x2000
 8002d56:	d342      	bcc.n	8002dde <vTaskIncrementTick+0xbe>
 8002d58:	68f0      	ldr	r0, [r6, #12]
 8002d5a:	6803      	ldr	r3, [r0, #0]
 8002d5c:	2b00      	cmp	r3, #0
 8002d5e:	d034      	beq.n	8002dca <vTaskIncrementTick+0xaa>
 8002d60:	68f3      	ldr	r3, [r6, #12]
 8002d62:	68da      	ldr	r2, [r3, #12]
 8002d64:	f8d2 800c 	ldr.w	r8, [r2, #12]
 8002d68:	6871      	ldr	r1, [r6, #4]
 8002d6a:	f8d8 3004 	ldr.w	r3, [r8, #4]
 8002d6e:	428b      	cmp	r3, r1
 8002d70:	bf98      	it	ls
 8002d72:	f106 0714 	addls.w	r7, r6, #20
 8002d76:	d909      	bls.n	8002d8c <vTaskIncrementTick+0x6c>
 8002d78:	e04f      	b.n	8002e1a <vTaskIncrementTick+0xfa>
 8002d7a:	68f3      	ldr	r3, [r6, #12]
 8002d7c:	68da      	ldr	r2, [r3, #12]
 8002d7e:	f8d2 800c 	ldr.w	r8, [r2, #12]
 8002d82:	6871      	ldr	r1, [r6, #4]
 8002d84:	f8d8 3004 	ldr.w	r3, [r8, #4]
 8002d88:	428b      	cmp	r3, r1
 8002d8a:	d846      	bhi.n	8002e1a <vTaskIncrementTick+0xfa>
 8002d8c:	f108 0904 	add.w	r9, r8, #4
 8002d90:	4648      	mov	r0, r9
 8002d92:	f7ff fd9f 	bl	80028d4 <vListRemove>
 8002d96:	f8d8 0028 	ldr.w	r0, [r8, #40]	; 0x28
 8002d9a:	b118      	cbz	r0, 8002da4 <vTaskIncrementTick+0x84>
 8002d9c:	f108 0018 	add.w	r0, r8, #24
 8002da0:	f7ff fd98 	bl	80028d4 <vListRemove>
 8002da4:	f8d4 00d4 	ldr.w	r0, [r4, #212]	; 0xd4
 8002da8:	f8d8 302c 	ldr.w	r3, [r8, #44]	; 0x2c
 8002dac:	4283      	cmp	r3, r0
 8002dae:	eb03 0c83 	add.w	ip, r3, r3, lsl #2
 8002db2:	4649      	mov	r1, r9
 8002db4:	bf88      	it	hi
 8002db6:	f8c6 30d4 	strhi.w	r3, [r6, #212]	; 0xd4
 8002dba:	eb07 008c 	add.w	r0, r7, ip, lsl #2
 8002dbe:	f7ff fd5f 	bl	8002880 <vListInsertEnd>
 8002dc2:	68e2      	ldr	r2, [r4, #12]
 8002dc4:	6811      	ldr	r1, [r2, #0]
 8002dc6:	2900      	cmp	r1, #0
 8002dc8:	d1d7      	bne.n	8002d7a <vTaskIncrementTick+0x5a>
 8002dca:	f04f 30ff 	mov.w	r0, #4294967295
 8002dce:	6028      	str	r0, [r5, #0]
 8002dd0:	e8bd 83f8 	ldmia.w	sp!, {r3, r4, r5, r6, r7, r8, r9, pc}
 8002dd4:	f8d4 20e0 	ldr.w	r2, [r4, #224]	; 0xe0
 8002dd8:	1c51      	adds	r1, r2, #1
 8002dda:	f8c4 10e0 	str.w	r1, [r4, #224]	; 0xe0
 8002dde:	e8bd 83f8 	ldmia.w	sp!, {r3, r4, r5, r6, r7, r8, r9, pc}
 8002de2:	68e6      	ldr	r6, [r4, #12]
 8002de4:	6835      	ldr	r5, [r6, #0]
 8002de6:	b125      	cbz	r5, 8002df2 <vTaskIncrementTick+0xd2>
 8002de8:	f04f 0050 	mov.w	r0, #80	; 0x50
 8002dec:	f380 8811 	msr	BASEPRI, r0
 8002df0:	e7fe      	b.n	8002df0 <vTaskIncrementTick+0xd0>
 8002df2:	68e5      	ldr	r5, [r4, #12]
 8002df4:	68a6      	ldr	r6, [r4, #8]
 8002df6:	60e6      	str	r6, [r4, #12]
 8002df8:	60a5      	str	r5, [r4, #8]
 8002dfa:	f8d4 20dc 	ldr.w	r2, [r4, #220]	; 0xdc
 8002dfe:	1c51      	adds	r1, r2, #1
 8002e00:	f8c4 10dc 	str.w	r1, [r4, #220]	; 0xdc
 8002e04:	68e0      	ldr	r0, [r4, #12]
 8002e06:	6803      	ldr	r3, [r0, #0]
 8002e08:	b953      	cbnz	r3, 8002e20 <vTaskIncrementTick+0x100>
 8002e0a:	f240 0598 	movw	r5, #152	; 0x98
 8002e0e:	f2c2 0500 	movt	r5, #8192	; 0x2000
 8002e12:	f04f 33ff 	mov.w	r3, #4294967295
 8002e16:	602b      	str	r3, [r5, #0]
 8002e18:	e797      	b.n	8002d4a <vTaskIncrementTick+0x2a>
 8002e1a:	602b      	str	r3, [r5, #0]
 8002e1c:	e8bd 83f8 	ldmia.w	sp!, {r3, r4, r5, r6, r7, r8, r9, pc}
 8002e20:	68e1      	ldr	r1, [r4, #12]
 8002e22:	68c8      	ldr	r0, [r1, #12]
 8002e24:	68c3      	ldr	r3, [r0, #12]
 8002e26:	f240 0598 	movw	r5, #152	; 0x98
 8002e2a:	685b      	ldr	r3, [r3, #4]
 8002e2c:	f2c2 0500 	movt	r5, #8192	; 0x2000
 8002e30:	602b      	str	r3, [r5, #0]
 8002e32:	e78a      	b.n	8002d4a <vTaskIncrementTick+0x2a>

08002e34 <xTaskResumeAll>:
 8002e34:	e92d 43f8 	stmdb	sp!, {r3, r4, r5, r6, r7, r8, r9, lr}
 8002e38:	f240 1484 	movw	r4, #388	; 0x184
 8002e3c:	f2c2 0400 	movt	r4, #8192	; 0x2000
 8002e40:	f8d4 30d8 	ldr.w	r3, [r4, #216]	; 0xd8
 8002e44:	b923      	cbnz	r3, 8002e50 <xTaskResumeAll+0x1c>
 8002e46:	f04f 0050 	mov.w	r0, #80	; 0x50
 8002e4a:	f380 8811 	msr	BASEPRI, r0
 8002e4e:	e7fe      	b.n	8002e4e <xTaskResumeAll+0x1a>
 8002e50:	f000 fd62 	bl	8003918 <vPortEnterCritical>
 8002e54:	f8d4 10d8 	ldr.w	r1, [r4, #216]	; 0xd8
 8002e58:	1e48      	subs	r0, r1, #1
 8002e5a:	f8c4 00d8 	str.w	r0, [r4, #216]	; 0xd8
 8002e5e:	f8d4 60d8 	ldr.w	r6, [r4, #216]	; 0xd8
 8002e62:	2e00      	cmp	r6, #0
 8002e64:	d146      	bne.n	8002ef4 <xTaskResumeAll+0xc0>
 8002e66:	6923      	ldr	r3, [r4, #16]
 8002e68:	2b00      	cmp	r3, #0
 8002e6a:	d049      	beq.n	8002f00 <xTaskResumeAll+0xcc>
 8002e6c:	4627      	mov	r7, r4
 8002e6e:	f104 0814 	add.w	r8, r4, #20
 8002e72:	e01f      	b.n	8002eb4 <xTaskResumeAll+0x80>
 8002e74:	f8d7 50ac 	ldr.w	r5, [r7, #172]	; 0xac
 8002e78:	68ed      	ldr	r5, [r5, #12]
 8002e7a:	f105 0018 	add.w	r0, r5, #24
 8002e7e:	f105 0904 	add.w	r9, r5, #4
 8002e82:	f7ff fd27 	bl	80028d4 <vListRemove>
 8002e86:	4648      	mov	r0, r9
 8002e88:	f7ff fd24 	bl	80028d4 <vListRemove>
 8002e8c:	6aeb      	ldr	r3, [r5, #44]	; 0x2c
 8002e8e:	f8d7 20d4 	ldr.w	r2, [r7, #212]	; 0xd4
 8002e92:	eb03 0183 	add.w	r1, r3, r3, lsl #2
 8002e96:	4293      	cmp	r3, r2
 8002e98:	bf88      	it	hi
 8002e9a:	f8c7 30d4 	strhi.w	r3, [r7, #212]	; 0xd4
 8002e9e:	eb08 0081 	add.w	r0, r8, r1, lsl #2
 8002ea2:	4649      	mov	r1, r9
 8002ea4:	f7ff fcec 	bl	8002880 <vListInsertEnd>
 8002ea8:	6820      	ldr	r0, [r4, #0]
 8002eaa:	6aea      	ldr	r2, [r5, #44]	; 0x2c
 8002eac:	6ac3      	ldr	r3, [r0, #44]	; 0x2c
 8002eae:	429a      	cmp	r2, r3
 8002eb0:	bf28      	it	cs
 8002eb2:	2601      	movcs	r6, #1
 8002eb4:	f8d4 00a0 	ldr.w	r0, [r4, #160]	; 0xa0
 8002eb8:	f240 1384 	movw	r3, #388	; 0x184
 8002ebc:	f2c2 0300 	movt	r3, #8192	; 0x2000
 8002ec0:	2800      	cmp	r0, #0
 8002ec2:	d1d7      	bne.n	8002e74 <xTaskResumeAll+0x40>
 8002ec4:	f8d3 20e0 	ldr.w	r2, [r3, #224]	; 0xe0
 8002ec8:	b1e2      	cbz	r2, 8002f04 <xTaskResumeAll+0xd0>
 8002eca:	f8d3 10e0 	ldr.w	r1, [r3, #224]	; 0xe0
 8002ece:	b151      	cbz	r1, 8002ee6 <xTaskResumeAll+0xb2>
 8002ed0:	f7ff ff26 	bl	8002d20 <vTaskIncrementTick>
 8002ed4:	f8d4 00e0 	ldr.w	r0, [r4, #224]	; 0xe0
 8002ed8:	1e42      	subs	r2, r0, #1
 8002eda:	f8c4 20e0 	str.w	r2, [r4, #224]	; 0xe0
 8002ede:	f8d4 30e0 	ldr.w	r3, [r4, #224]	; 0xe0
 8002ee2:	2b00      	cmp	r3, #0
 8002ee4:	d1f4      	bne.n	8002ed0 <xTaskResumeAll+0x9c>
 8002ee6:	2300      	movs	r3, #0
 8002ee8:	f8c4 30e4 	str.w	r3, [r4, #228]	; 0xe4
 8002eec:	2401      	movs	r4, #1
 8002eee:	f000 fd0b 	bl	8003908 <vPortYieldFromISR>
 8002ef2:	e000      	b.n	8002ef6 <xTaskResumeAll+0xc2>
 8002ef4:	2400      	movs	r4, #0
 8002ef6:	f000 fd1b 	bl	8003930 <vPortExitCritical>
 8002efa:	4620      	mov	r0, r4
 8002efc:	e8bd 83f8 	ldmia.w	sp!, {r3, r4, r5, r6, r7, r8, r9, pc}
 8002f00:	461c      	mov	r4, r3
 8002f02:	e7f8      	b.n	8002ef6 <xTaskResumeAll+0xc2>
 8002f04:	2e01      	cmp	r6, #1
 8002f06:	d0ee      	beq.n	8002ee6 <xTaskResumeAll+0xb2>
 8002f08:	f8d3 10e4 	ldr.w	r1, [r3, #228]	; 0xe4
 8002f0c:	2901      	cmp	r1, #1
 8002f0e:	bf18      	it	ne
 8002f10:	4614      	movne	r4, r2
 8002f12:	d1f0      	bne.n	8002ef6 <xTaskResumeAll+0xc2>
 8002f14:	e7e7      	b.n	8002ee6 <xTaskResumeAll+0xb2>
 8002f16:	bf00      	nop

08002f18 <vTaskDelay>:
 8002f18:	b510      	push	{r4, lr}
 8002f1a:	b918      	cbnz	r0, 8002f24 <vTaskDelay+0xc>
 8002f1c:	e8bd 4010 	ldmia.w	sp!, {r4, lr}
 8002f20:	f000 bcf2 	b.w	8003908 <vPortYieldFromISR>
 8002f24:	f240 1184 	movw	r1, #388	; 0x184
 8002f28:	f2c2 0100 	movt	r1, #8192	; 0x2000
 8002f2c:	f8d1 30d8 	ldr.w	r3, [r1, #216]	; 0xd8
 8002f30:	1c5a      	adds	r2, r3, #1
 8002f32:	f8c1 20d8 	str.w	r2, [r1, #216]	; 0xd8
 8002f36:	684c      	ldr	r4, [r1, #4]
 8002f38:	680b      	ldr	r3, [r1, #0]
 8002f3a:	1904      	adds	r4, r0, r4
 8002f3c:	1d18      	adds	r0, r3, #4
 8002f3e:	f7ff fcc9 	bl	80028d4 <vListRemove>
 8002f42:	4620      	mov	r0, r4
 8002f44:	f7ff fcda 	bl	80028fc <prvAddCurrentTaskToDelayedList>
 8002f48:	f7ff ff74 	bl	8002e34 <xTaskResumeAll>
 8002f4c:	2800      	cmp	r0, #0
 8002f4e:	d0e5      	beq.n	8002f1c <vTaskDelay+0x4>
 8002f50:	bd10      	pop	{r4, pc}
 8002f52:	bf00      	nop

08002f54 <vTaskDelayUntil>:
 8002f54:	b538      	push	{r3, r4, r5, lr}
 8002f56:	b1b8      	cbz	r0, 8002f88 <vTaskDelayUntil+0x34>
 8002f58:	b921      	cbnz	r1, 8002f64 <vTaskDelayUntil+0x10>
 8002f5a:	f04f 0050 	mov.w	r0, #80	; 0x50
 8002f5e:	f380 8811 	msr	BASEPRI, r0
 8002f62:	e7fe      	b.n	8002f62 <vTaskDelayUntil+0xe>
 8002f64:	f240 1384 	movw	r3, #388	; 0x184
 8002f68:	f2c2 0300 	movt	r3, #8192	; 0x2000
 8002f6c:	6802      	ldr	r2, [r0, #0]
 8002f6e:	f8d3 50d8 	ldr.w	r5, [r3, #216]	; 0xd8
 8002f72:	1c6c      	adds	r4, r5, #1
 8002f74:	f8c3 40d8 	str.w	r4, [r3, #216]	; 0xd8
 8002f78:	685d      	ldr	r5, [r3, #4]
 8002f7a:	42aa      	cmp	r2, r5
 8002f7c:	eb02 0401 	add.w	r4, r2, r1
 8002f80:	d907      	bls.n	8002f92 <vTaskDelayUntil+0x3e>
 8002f82:	42a2      	cmp	r2, r4
 8002f84:	d90a      	bls.n	8002f9c <vTaskDelayUntil+0x48>
 8002f86:	e006      	b.n	8002f96 <vTaskDelayUntil+0x42>
 8002f88:	f04f 0050 	mov.w	r0, #80	; 0x50
 8002f8c:	f380 8811 	msr	BASEPRI, r0
 8002f90:	e7fe      	b.n	8002f90 <vTaskDelayUntil+0x3c>
 8002f92:	42a2      	cmp	r2, r4
 8002f94:	d807      	bhi.n	8002fa6 <vTaskDelayUntil+0x52>
 8002f96:	685a      	ldr	r2, [r3, #4]
 8002f98:	4294      	cmp	r4, r2
 8002f9a:	d804      	bhi.n	8002fa6 <vTaskDelayUntil+0x52>
 8002f9c:	6004      	str	r4, [r0, #0]
 8002f9e:	f7ff ff49 	bl	8002e34 <xTaskResumeAll>
 8002fa2:	b160      	cbz	r0, 8002fbe <vTaskDelayUntil+0x6a>
 8002fa4:	bd38      	pop	{r3, r4, r5, pc}
 8002fa6:	681b      	ldr	r3, [r3, #0]
 8002fa8:	6004      	str	r4, [r0, #0]
 8002faa:	1d18      	adds	r0, r3, #4
 8002fac:	f7ff fc92 	bl	80028d4 <vListRemove>
 8002fb0:	4620      	mov	r0, r4
 8002fb2:	f7ff fca3 	bl	80028fc <prvAddCurrentTaskToDelayedList>
 8002fb6:	f7ff ff3d 	bl	8002e34 <xTaskResumeAll>
 8002fba:	2800      	cmp	r0, #0
 8002fbc:	d1f2      	bne.n	8002fa4 <vTaskDelayUntil+0x50>
 8002fbe:	e8bd 4038 	ldmia.w	sp!, {r3, r4, r5, lr}
 8002fc2:	f000 bca1 	b.w	8003908 <vPortYieldFromISR>
 8002fc6:	bf00      	nop

08002fc8 <vTaskSwitchContext>:
 8002fc8:	f240 1384 	movw	r3, #388	; 0x184
 8002fcc:	f2c2 0300 	movt	r3, #8192	; 0x2000
 8002fd0:	f8d3 20d8 	ldr.w	r2, [r3, #216]	; 0xd8
 8002fd4:	2a00      	cmp	r2, #0
 8002fd6:	d130      	bne.n	800303a <vTaskSwitchContext+0x72>
 8002fd8:	f8d3 00d4 	ldr.w	r0, [r3, #212]	; 0xd4
 8002fdc:	eb00 0180 	add.w	r1, r0, r0, lsl #2
 8002fe0:	008a      	lsls	r2, r1, #2
 8002fe2:	f103 0014 	add.w	r0, r3, #20
 8002fe6:	5881      	ldr	r1, [r0, r2]
 8002fe8:	b9a1      	cbnz	r1, 8003014 <vTaskSwitchContext+0x4c>
 8002fea:	f8d3 20d4 	ldr.w	r2, [r3, #212]	; 0xd4
 8002fee:	4619      	mov	r1, r3
 8002ff0:	b91a      	cbnz	r2, 8002ffa <vTaskSwitchContext+0x32>
 8002ff2:	e026      	b.n	8003042 <vTaskSwitchContext+0x7a>
 8002ff4:	f8d1 20d4 	ldr.w	r2, [r1, #212]	; 0xd4
 8002ff8:	b31a      	cbz	r2, 8003042 <vTaskSwitchContext+0x7a>
 8002ffa:	f8d3 20d4 	ldr.w	r2, [r3, #212]	; 0xd4
 8002ffe:	3a01      	subs	r2, #1
 8003000:	f8c3 20d4 	str.w	r2, [r3, #212]	; 0xd4
 8003004:	f8d3 20d4 	ldr.w	r2, [r3, #212]	; 0xd4
 8003008:	eb02 0c82 	add.w	ip, r2, r2, lsl #2
 800300c:	f850 202c 	ldr.w	r2, [r0, ip, lsl #2]
 8003010:	2a00      	cmp	r2, #0
 8003012:	d0ef      	beq.n	8002ff4 <vTaskSwitchContext+0x2c>
 8003014:	f8d3 10d4 	ldr.w	r1, [r3, #212]	; 0xd4
 8003018:	eb01 0281 	add.w	r2, r1, r1, lsl #2
 800301c:	eb00 0182 	add.w	r1, r0, r2, lsl #2
 8003020:	f101 0c08 	add.w	ip, r1, #8
 8003024:	6848      	ldr	r0, [r1, #4]
 8003026:	6842      	ldr	r2, [r0, #4]
 8003028:	4562      	cmp	r2, ip
 800302a:	604a      	str	r2, [r1, #4]
 800302c:	bf08      	it	eq
 800302e:	6852      	ldreq	r2, [r2, #4]
 8003030:	68d0      	ldr	r0, [r2, #12]
 8003032:	bf08      	it	eq
 8003034:	604a      	streq	r2, [r1, #4]
 8003036:	6018      	str	r0, [r3, #0]
 8003038:	4770      	bx	lr
 800303a:	2101      	movs	r1, #1
 800303c:	f8c3 10e4 	str.w	r1, [r3, #228]	; 0xe4
 8003040:	4770      	bx	lr
 8003042:	f04f 0050 	mov.w	r0, #80	; 0x50
 8003046:	f380 8811 	msr	BASEPRI, r0
 800304a:	e7fe      	b.n	800304a <vTaskSwitchContext+0x82>

0800304c <vTaskSuspend>:
 800304c:	b570      	push	{r4, r5, r6, lr}
 800304e:	4604      	mov	r4, r0
 8003050:	f000 fc62 	bl	8003918 <vPortEnterCritical>
 8003054:	f240 1384 	movw	r3, #388	; 0x184
 8003058:	f2c2 0300 	movt	r3, #8192	; 0x2000
 800305c:	681a      	ldr	r2, [r3, #0]
 800305e:	4294      	cmp	r4, r2
 8003060:	d025      	beq.n	80030ae <vTaskSuspend+0x62>
 8003062:	4625      	mov	r5, r4
 8003064:	2c00      	cmp	r4, #0
 8003066:	d022      	beq.n	80030ae <vTaskSuspend+0x62>
 8003068:	1d2e      	adds	r6, r5, #4
 800306a:	4630      	mov	r0, r6
 800306c:	f7ff fc32 	bl	80028d4 <vListRemove>
 8003070:	6aab      	ldr	r3, [r5, #40]	; 0x28
 8003072:	b11b      	cbz	r3, 800307c <vTaskSuspend+0x30>
 8003074:	f105 0018 	add.w	r0, r5, #24
 8003078:	f7ff fc2c 	bl	80028d4 <vListRemove>
 800307c:	f240 1584 	movw	r5, #388	; 0x184
 8003080:	f2c2 0500 	movt	r5, #8192	; 0x2000
 8003084:	f105 00b4 	add.w	r0, r5, #180	; 0xb4
 8003088:	4631      	mov	r1, r6
 800308a:	f7ff fbf9 	bl	8002880 <vListInsertEnd>
 800308e:	f000 fc4f 	bl	8003930 <vPortExitCritical>
 8003092:	b104      	cbz	r4, 8003096 <vTaskSuspend+0x4a>
 8003094:	bd70      	pop	{r4, r5, r6, pc}
 8003096:	f8d5 00c8 	ldr.w	r0, [r5, #200]	; 0xc8
 800309a:	b968      	cbnz	r0, 80030b8 <vTaskSuspend+0x6c>
 800309c:	f8d5 10b4 	ldr.w	r1, [r5, #180]	; 0xb4
 80030a0:	692a      	ldr	r2, [r5, #16]
 80030a2:	4291      	cmp	r1, r2
 80030a4:	d006      	beq.n	80030b4 <vTaskSuspend+0x68>
 80030a6:	e8bd 4070 	ldmia.w	sp!, {r4, r5, r6, lr}
 80030aa:	f7ff bf8d 	b.w	8002fc8 <vTaskSwitchContext>
 80030ae:	681d      	ldr	r5, [r3, #0]
 80030b0:	2400      	movs	r4, #0
 80030b2:	e7d9      	b.n	8003068 <vTaskSuspend+0x1c>
 80030b4:	602c      	str	r4, [r5, #0]
 80030b6:	bd70      	pop	{r4, r5, r6, pc}
 80030b8:	e8bd 4070 	ldmia.w	sp!, {r4, r5, r6, lr}
 80030bc:	f000 bc24 	b.w	8003908 <vPortYieldFromISR>

080030c0 <vTaskPlaceOnEventList>:
 80030c0:	b538      	push	{r3, r4, r5, lr}
 80030c2:	460d      	mov	r5, r1
 80030c4:	b198      	cbz	r0, 80030ee <vTaskPlaceOnEventList+0x2e>
 80030c6:	f240 1484 	movw	r4, #388	; 0x184
 80030ca:	f2c2 0400 	movt	r4, #8192	; 0x2000
 80030ce:	6821      	ldr	r1, [r4, #0]
 80030d0:	3118      	adds	r1, #24
 80030d2:	f7ff fbe3 	bl	800289c <vListInsert>
 80030d6:	6820      	ldr	r0, [r4, #0]
 80030d8:	3004      	adds	r0, #4
 80030da:	f7ff fbfb 	bl	80028d4 <vListRemove>
 80030de:	1c6b      	adds	r3, r5, #1
 80030e0:	d00a      	beq.n	80030f8 <vTaskPlaceOnEventList+0x38>
 80030e2:	6862      	ldr	r2, [r4, #4]
 80030e4:	18a8      	adds	r0, r5, r2
 80030e6:	e8bd 4038 	ldmia.w	sp!, {r3, r4, r5, lr}
 80030ea:	f7ff bc07 	b.w	80028fc <prvAddCurrentTaskToDelayedList>
 80030ee:	f04f 0050 	mov.w	r0, #80	; 0x50
 80030f2:	f380 8811 	msr	BASEPRI, r0
 80030f6:	e7fe      	b.n	80030f6 <vTaskPlaceOnEventList+0x36>
 80030f8:	4620      	mov	r0, r4
 80030fa:	f850 1bb4 	ldr.w	r1, [r0], #180
 80030fe:	3104      	adds	r1, #4
 8003100:	e8bd 4038 	ldmia.w	sp!, {r3, r4, r5, lr}
 8003104:	f7ff bbbc 	b.w	8002880 <vListInsertEnd>

08003108 <xTaskRemoveFromEventList>:
 8003108:	68c3      	ldr	r3, [r0, #12]
 800310a:	b570      	push	{r4, r5, r6, lr}
 800310c:	68dd      	ldr	r5, [r3, #12]
 800310e:	b335      	cbz	r5, 800315e <xTaskRemoveFromEventList+0x56>
 8003110:	f240 1484 	movw	r4, #388	; 0x184
 8003114:	f105 0618 	add.w	r6, r5, #24
 8003118:	f2c2 0400 	movt	r4, #8192	; 0x2000
 800311c:	4630      	mov	r0, r6
 800311e:	f7ff fbd9 	bl	80028d4 <vListRemove>
 8003122:	f8d4 00d8 	ldr.w	r0, [r4, #216]	; 0xd8
 8003126:	b9f8      	cbnz	r0, 8003168 <xTaskRemoveFromEventList+0x60>
 8003128:	1d2e      	adds	r6, r5, #4
 800312a:	4630      	mov	r0, r6
 800312c:	f7ff fbd2 	bl	80028d4 <vListRemove>
 8003130:	6aeb      	ldr	r3, [r5, #44]	; 0x2c
 8003132:	f8d4 00d4 	ldr.w	r0, [r4, #212]	; 0xd4
 8003136:	4a0f      	ldr	r2, [pc, #60]	; (8003174 <xTaskRemoveFromEventList+0x6c>)
 8003138:	eb03 0183 	add.w	r1, r3, r3, lsl #2
 800313c:	4283      	cmp	r3, r0
 800313e:	eb02 0081 	add.w	r0, r2, r1, lsl #2
 8003142:	4631      	mov	r1, r6
 8003144:	bf88      	it	hi
 8003146:	f8c4 30d4 	strhi.w	r3, [r4, #212]	; 0xd4
 800314a:	f7ff fb99 	bl	8002880 <vListInsertEnd>
 800314e:	6821      	ldr	r1, [r4, #0]
 8003150:	6ae8      	ldr	r0, [r5, #44]	; 0x2c
 8003152:	6aca      	ldr	r2, [r1, #44]	; 0x2c
 8003154:	4290      	cmp	r0, r2
 8003156:	bf34      	ite	cc
 8003158:	2000      	movcc	r0, #0
 800315a:	2001      	movcs	r0, #1
 800315c:	bd70      	pop	{r4, r5, r6, pc}
 800315e:	f04f 0050 	mov.w	r0, #80	; 0x50
 8003162:	f380 8811 	msr	BASEPRI, r0
 8003166:	e7fe      	b.n	8003166 <xTaskRemoveFromEventList+0x5e>
 8003168:	f104 00a0 	add.w	r0, r4, #160	; 0xa0
 800316c:	4631      	mov	r1, r6
 800316e:	f7ff fb87 	bl	8002880 <vListInsertEnd>
 8003172:	e7ec      	b.n	800314e <xTaskRemoveFromEventList+0x46>
 8003174:	20000198 	mulcs	r0, r8, r1

08003178 <vTaskSetTimeOutState>:
 8003178:	b148      	cbz	r0, 800318e <vTaskSetTimeOutState+0x16>
 800317a:	f240 1384 	movw	r3, #388	; 0x184
 800317e:	f2c2 0300 	movt	r3, #8192	; 0x2000
 8003182:	f8d3 20dc 	ldr.w	r2, [r3, #220]	; 0xdc
 8003186:	685b      	ldr	r3, [r3, #4]
 8003188:	e880 000c 	stmia.w	r0, {r2, r3}
 800318c:	4770      	bx	lr
 800318e:	f04f 0050 	mov.w	r0, #80	; 0x50
 8003192:	f380 8811 	msr	BASEPRI, r0
 8003196:	e7fe      	b.n	8003196 <vTaskSetTimeOutState+0x1e>

08003198 <xTaskCheckForTimeOut>:
 8003198:	b570      	push	{r4, r5, r6, lr}
 800319a:	4604      	mov	r4, r0
 800319c:	460d      	mov	r5, r1
 800319e:	2800      	cmp	r0, #0
 80031a0:	d036      	beq.n	8003210 <xTaskCheckForTimeOut+0x78>
 80031a2:	2900      	cmp	r1, #0
 80031a4:	d02f      	beq.n	8003206 <xTaskCheckForTimeOut+0x6e>
 80031a6:	f000 fbb7 	bl	8003918 <vPortEnterCritical>
 80031aa:	6829      	ldr	r1, [r5, #0]
 80031ac:	1c4a      	adds	r2, r1, #1
 80031ae:	d034      	beq.n	800321a <xTaskCheckForTimeOut+0x82>
 80031b0:	f240 1384 	movw	r3, #388	; 0x184
 80031b4:	f2c2 0300 	movt	r3, #8192	; 0x2000
 80031b8:	6820      	ldr	r0, [r4, #0]
 80031ba:	f8d3 20dc 	ldr.w	r2, [r3, #220]	; 0xdc
 80031be:	4290      	cmp	r0, r2
 80031c0:	bf08      	it	eq
 80031c2:	6862      	ldreq	r2, [r4, #4]
 80031c4:	d003      	beq.n	80031ce <xTaskCheckForTimeOut+0x36>
 80031c6:	6858      	ldr	r0, [r3, #4]
 80031c8:	6862      	ldr	r2, [r4, #4]
 80031ca:	4282      	cmp	r2, r0
 80031cc:	d916      	bls.n	80031fc <xTaskCheckForTimeOut+0x64>
 80031ce:	6858      	ldr	r0, [r3, #4]
 80031d0:	ebc2 0c00 	rsb	ip, r2, r0
 80031d4:	f240 1384 	movw	r3, #388	; 0x184
 80031d8:	4561      	cmp	r1, ip
 80031da:	f2c2 0300 	movt	r3, #8192	; 0x2000
 80031de:	d90d      	bls.n	80031fc <xTaskCheckForTimeOut+0x64>
 80031e0:	685e      	ldr	r6, [r3, #4]
 80031e2:	f8d3 00dc 	ldr.w	r0, [r3, #220]	; 0xdc
 80031e6:	685b      	ldr	r3, [r3, #4]
 80031e8:	1b89      	subs	r1, r1, r6
 80031ea:	188a      	adds	r2, r1, r2
 80031ec:	602a      	str	r2, [r5, #0]
 80031ee:	e884 0009 	stmia.w	r4, {r0, r3}
 80031f2:	2500      	movs	r5, #0
 80031f4:	f000 fb9c 	bl	8003930 <vPortExitCritical>
 80031f8:	4628      	mov	r0, r5
 80031fa:	bd70      	pop	{r4, r5, r6, pc}
 80031fc:	2501      	movs	r5, #1
 80031fe:	f000 fb97 	bl	8003930 <vPortExitCritical>
 8003202:	4628      	mov	r0, r5
 8003204:	bd70      	pop	{r4, r5, r6, pc}
 8003206:	f04f 0050 	mov.w	r0, #80	; 0x50
 800320a:	f380 8811 	msr	BASEPRI, r0
 800320e:	e7fe      	b.n	800320e <xTaskCheckForTimeOut+0x76>
 8003210:	f04f 0050 	mov.w	r0, #80	; 0x50
 8003214:	f380 8811 	msr	BASEPRI, r0
 8003218:	e7fe      	b.n	8003218 <xTaskCheckForTimeOut+0x80>
 800321a:	2500      	movs	r5, #0
 800321c:	f000 fb88 	bl	8003930 <vPortExitCritical>
 8003220:	4628      	mov	r0, r5
 8003222:	bd70      	pop	{r4, r5, r6, pc}

08003224 <vTaskMissedYield>:
 8003224:	f240 1384 	movw	r3, #388	; 0x184
 8003228:	f2c2 0300 	movt	r3, #8192	; 0x2000
 800322c:	2201      	movs	r2, #1
 800322e:	f8c3 20e4 	str.w	r2, [r3, #228]	; 0xe4
 8003232:	4770      	bx	lr

08003234 <prvUnlockQueue>:
 8003234:	b538      	push	{r3, r4, r5, lr}
 8003236:	4604      	mov	r4, r0
 8003238:	f000 fb6e 	bl	8003918 <vPortEnterCritical>
 800323c:	6ca3      	ldr	r3, [r4, #72]	; 0x48
 800323e:	2b00      	cmp	r3, #0
 8003240:	dd17      	ble.n	8003272 <prvUnlockQueue+0x3e>
 8003242:	6a60      	ldr	r0, [r4, #36]	; 0x24
 8003244:	b1a8      	cbz	r0, 8003272 <prvUnlockQueue+0x3e>
 8003246:	f104 0524 	add.w	r5, r4, #36	; 0x24
 800324a:	e006      	b.n	800325a <prvUnlockQueue+0x26>
 800324c:	6ca3      	ldr	r3, [r4, #72]	; 0x48
 800324e:	1e5a      	subs	r2, r3, #1
 8003250:	2a00      	cmp	r2, #0
 8003252:	64a2      	str	r2, [r4, #72]	; 0x48
 8003254:	dd0d      	ble.n	8003272 <prvUnlockQueue+0x3e>
 8003256:	6a61      	ldr	r1, [r4, #36]	; 0x24
 8003258:	b159      	cbz	r1, 8003272 <prvUnlockQueue+0x3e>
 800325a:	4628      	mov	r0, r5
 800325c:	f7ff ff54 	bl	8003108 <xTaskRemoveFromEventList>
 8003260:	2800      	cmp	r0, #0
 8003262:	d0f3      	beq.n	800324c <prvUnlockQueue+0x18>
 8003264:	f7ff ffde 	bl	8003224 <vTaskMissedYield>
 8003268:	6ca3      	ldr	r3, [r4, #72]	; 0x48
 800326a:	1e5a      	subs	r2, r3, #1
 800326c:	2a00      	cmp	r2, #0
 800326e:	64a2      	str	r2, [r4, #72]	; 0x48
 8003270:	dcf1      	bgt.n	8003256 <prvUnlockQueue+0x22>
 8003272:	f04f 31ff 	mov.w	r1, #4294967295
 8003276:	64a1      	str	r1, [r4, #72]	; 0x48
 8003278:	f000 fb5a 	bl	8003930 <vPortExitCritical>
 800327c:	f000 fb4c 	bl	8003918 <vPortEnterCritical>
 8003280:	6c60      	ldr	r0, [r4, #68]	; 0x44
 8003282:	2800      	cmp	r0, #0
 8003284:	dd17      	ble.n	80032b6 <prvUnlockQueue+0x82>
 8003286:	6922      	ldr	r2, [r4, #16]
 8003288:	b1aa      	cbz	r2, 80032b6 <prvUnlockQueue+0x82>
 800328a:	f104 0510 	add.w	r5, r4, #16
 800328e:	e006      	b.n	800329e <prvUnlockQueue+0x6a>
 8003290:	6c61      	ldr	r1, [r4, #68]	; 0x44
 8003292:	1e48      	subs	r0, r1, #1
 8003294:	2800      	cmp	r0, #0
 8003296:	6460      	str	r0, [r4, #68]	; 0x44
 8003298:	dd0d      	ble.n	80032b6 <prvUnlockQueue+0x82>
 800329a:	6923      	ldr	r3, [r4, #16]
 800329c:	b15b      	cbz	r3, 80032b6 <prvUnlockQueue+0x82>
 800329e:	4628      	mov	r0, r5
 80032a0:	f7ff ff32 	bl	8003108 <xTaskRemoveFromEventList>
 80032a4:	2800      	cmp	r0, #0
 80032a6:	d0f3      	beq.n	8003290 <prvUnlockQueue+0x5c>
 80032a8:	f7ff ffbc 	bl	8003224 <vTaskMissedYield>
 80032ac:	6c61      	ldr	r1, [r4, #68]	; 0x44
 80032ae:	1e48      	subs	r0, r1, #1
 80032b0:	2800      	cmp	r0, #0
 80032b2:	6460      	str	r0, [r4, #68]	; 0x44
 80032b4:	dcf1      	bgt.n	800329a <prvUnlockQueue+0x66>
 80032b6:	f04f 32ff 	mov.w	r2, #4294967295
 80032ba:	6462      	str	r2, [r4, #68]	; 0x44
 80032bc:	e8bd 4038 	ldmia.w	sp!, {r3, r4, r5, lr}
 80032c0:	f000 bb36 	b.w	8003930 <vPortExitCritical>

080032c4 <xQueueGenericReset>:
 80032c4:	b510      	push	{r4, lr}
 80032c6:	4604      	mov	r4, r0
 80032c8:	b318      	cbz	r0, 8003312 <xQueueGenericReset+0x4e>
 80032ca:	2901      	cmp	r1, #1
 80032cc:	d006      	beq.n	80032dc <xQueueGenericReset+0x18>
 80032ce:	6a43      	ldr	r3, [r0, #36]	; 0x24
 80032d0:	6900      	ldr	r0, [r0, #16]
 80032d2:	b908      	cbnz	r0, 80032d8 <xQueueGenericReset+0x14>
 80032d4:	b113      	cbz	r3, 80032dc <xQueueGenericReset+0x18>
 80032d6:	bd10      	pop	{r4, pc}
 80032d8:	2000      	movs	r0, #0
 80032da:	bd10      	pop	{r4, pc}
 80032dc:	6823      	ldr	r3, [r4, #0]
 80032de:	6be1      	ldr	r1, [r4, #60]	; 0x3c
 80032e0:	6c22      	ldr	r2, [r4, #64]	; 0x40
 80032e2:	60a3      	str	r3, [r4, #8]
 80032e4:	1e48      	subs	r0, r1, #1
 80032e6:	fb01 3102 	mla	r1, r1, r2, r3
 80032ea:	6061      	str	r1, [r4, #4]
 80032ec:	fb02 3200 	mla	r2, r2, r0, r3
 80032f0:	2100      	movs	r1, #0
 80032f2:	f04f 33ff 	mov.w	r3, #4294967295
 80032f6:	f104 0010 	add.w	r0, r4, #16
 80032fa:	63a1      	str	r1, [r4, #56]	; 0x38
 80032fc:	60e2      	str	r2, [r4, #12]
 80032fe:	6463      	str	r3, [r4, #68]	; 0x44
 8003300:	64a3      	str	r3, [r4, #72]	; 0x48
 8003302:	f7ff faad 	bl	8002860 <vListInitialise>
 8003306:	f104 0024 	add.w	r0, r4, #36	; 0x24
 800330a:	f7ff faa9 	bl	8002860 <vListInitialise>
 800330e:	2001      	movs	r0, #1
 8003310:	bd10      	pop	{r4, pc}
 8003312:	f04f 0050 	mov.w	r0, #80	; 0x50
 8003316:	f380 8811 	msr	BASEPRI, r0
 800331a:	e7fe      	b.n	800331a <xQueueGenericReset+0x56>

0800331c <xQueueGenericCreate>:
 800331c:	b570      	push	{r4, r5, r6, lr}
 800331e:	4605      	mov	r5, r0
 8003320:	460e      	mov	r6, r1
 8003322:	b1b0      	cbz	r0, 8003352 <xQueueGenericCreate+0x36>
 8003324:	204c      	movs	r0, #76	; 0x4c
 8003326:	f000 fb51 	bl	80039cc <pvPortMalloc>
 800332a:	4604      	mov	r4, r0
 800332c:	b188      	cbz	r0, 8003352 <xQueueGenericCreate+0x36>
 800332e:	fb05 f006 	mul.w	r0, r5, r6
 8003332:	3001      	adds	r0, #1
 8003334:	f000 fb4a 	bl	80039cc <pvPortMalloc>
 8003338:	6020      	str	r0, [r4, #0]
 800333a:	b138      	cbz	r0, 800334c <xQueueGenericCreate+0x30>
 800333c:	63e5      	str	r5, [r4, #60]	; 0x3c
 800333e:	6426      	str	r6, [r4, #64]	; 0x40
 8003340:	4620      	mov	r0, r4
 8003342:	2101      	movs	r1, #1
 8003344:	f7ff ffbe 	bl	80032c4 <xQueueGenericReset>
 8003348:	4620      	mov	r0, r4
 800334a:	bd70      	pop	{r4, r5, r6, pc}
 800334c:	4620      	mov	r0, r4
 800334e:	f000 fb61 	bl	8003a14 <vPortFree>
 8003352:	f04f 0050 	mov.w	r0, #80	; 0x50
 8003356:	f380 8811 	msr	BASEPRI, r0
 800335a:	e7fe      	b.n	800335a <xQueueGenericCreate+0x3e>

0800335c <xQueueGenericSend>:
 800335c:	e92d 43f0 	stmdb	sp!, {r4, r5, r6, r7, r8, r9, lr}
 8003360:	b085      	sub	sp, #20
 8003362:	4604      	mov	r4, r0
 8003364:	460d      	mov	r5, r1
 8003366:	9201      	str	r2, [sp, #4]
 8003368:	461f      	mov	r7, r3
 800336a:	2800      	cmp	r0, #0
 800336c:	d060      	beq.n	8003430 <xQueueGenericSend+0xd4>
 800336e:	f04f 0800 	mov.w	r8, #0
 8003372:	2900      	cmp	r1, #0
 8003374:	d06e      	beq.n	8003454 <xQueueGenericSend+0xf8>
 8003376:	f000 facf 	bl	8003918 <vPortEnterCritical>
 800337a:	6ba2      	ldr	r2, [r4, #56]	; 0x38
 800337c:	6be0      	ldr	r0, [r4, #60]	; 0x3c
 800337e:	2600      	movs	r6, #0
 8003380:	4282      	cmp	r2, r0
 8003382:	d334      	bcc.n	80033ee <xQueueGenericSend+0x92>
 8003384:	f8dd 9004 	ldr.w	r9, [sp, #4]
 8003388:	f1b9 0f00 	cmp.w	r9, #0
 800338c:	d05e      	beq.n	800344c <xQueueGenericSend+0xf0>
 800338e:	f1b8 0f00 	cmp.w	r8, #0
 8003392:	d049      	beq.n	8003428 <xQueueGenericSend+0xcc>
 8003394:	f000 facc 	bl	8003930 <vPortExitCritical>
 8003398:	f7ff fc96 	bl	8002cc8 <vTaskSuspendAll>
 800339c:	f000 fabc 	bl	8003918 <vPortEnterCritical>
 80033a0:	6c62      	ldr	r2, [r4, #68]	; 0x44
 80033a2:	1c53      	adds	r3, r2, #1
 80033a4:	6ca3      	ldr	r3, [r4, #72]	; 0x48
 80033a6:	bf08      	it	eq
 80033a8:	6466      	streq	r6, [r4, #68]	; 0x44
 80033aa:	3301      	adds	r3, #1
 80033ac:	bf08      	it	eq
 80033ae:	64a6      	streq	r6, [r4, #72]	; 0x48
 80033b0:	f000 fabe 	bl	8003930 <vPortExitCritical>
 80033b4:	a802      	add	r0, sp, #8
 80033b6:	a901      	add	r1, sp, #4
 80033b8:	f7ff feee 	bl	8003198 <xTaskCheckForTimeOut>
 80033bc:	2800      	cmp	r0, #0
 80033be:	d13c      	bne.n	800343a <xQueueGenericSend+0xde>
 80033c0:	f000 faaa 	bl	8003918 <vPortEnterCritical>
 80033c4:	f8d4 9038 	ldr.w	r9, [r4, #56]	; 0x38
 80033c8:	f8d4 803c 	ldr.w	r8, [r4, #60]	; 0x3c
 80033cc:	f000 fab0 	bl	8003930 <vPortExitCritical>
 80033d0:	45c1      	cmp	r9, r8
 80033d2:	d018      	beq.n	8003406 <xQueueGenericSend+0xaa>
 80033d4:	4620      	mov	r0, r4
 80033d6:	f7ff ff2d 	bl	8003234 <prvUnlockQueue>
 80033da:	f7ff fd2b 	bl	8002e34 <xTaskResumeAll>
 80033de:	f04f 0801 	mov.w	r8, #1
 80033e2:	f000 fa99 	bl	8003918 <vPortEnterCritical>
 80033e6:	6ba2      	ldr	r2, [r4, #56]	; 0x38
 80033e8:	6be0      	ldr	r0, [r4, #60]	; 0x3c
 80033ea:	4282      	cmp	r2, r0
 80033ec:	d2ca      	bcs.n	8003384 <xQueueGenericSend+0x28>
 80033ee:	4629      	mov	r1, r5
 80033f0:	4620      	mov	r0, r4
 80033f2:	463a      	mov	r2, r7
 80033f4:	f004 fda2 	bl	8007f3c <prvCopyDataToQueue>
 80033f8:	6a61      	ldr	r1, [r4, #36]	; 0x24
 80033fa:	2900      	cmp	r1, #0
 80033fc:	d133      	bne.n	8003466 <xQueueGenericSend+0x10a>
 80033fe:	f000 fa97 	bl	8003930 <vPortExitCritical>
 8003402:	2001      	movs	r0, #1
 8003404:	e01f      	b.n	8003446 <xQueueGenericSend+0xea>
 8003406:	9901      	ldr	r1, [sp, #4]
 8003408:	f104 0010 	add.w	r0, r4, #16
 800340c:	f7ff fe58 	bl	80030c0 <vTaskPlaceOnEventList>
 8003410:	4620      	mov	r0, r4
 8003412:	f7ff ff0f 	bl	8003234 <prvUnlockQueue>
 8003416:	f7ff fd0d 	bl	8002e34 <xTaskResumeAll>
 800341a:	2800      	cmp	r0, #0
 800341c:	d1df      	bne.n	80033de <xQueueGenericSend+0x82>
 800341e:	f000 fa73 	bl	8003908 <vPortYieldFromISR>
 8003422:	f04f 0801 	mov.w	r8, #1
 8003426:	e7dc      	b.n	80033e2 <xQueueGenericSend+0x86>
 8003428:	a802      	add	r0, sp, #8
 800342a:	f7ff fea5 	bl	8003178 <vTaskSetTimeOutState>
 800342e:	e7b1      	b.n	8003394 <xQueueGenericSend+0x38>
 8003430:	f04f 0050 	mov.w	r0, #80	; 0x50
 8003434:	f380 8811 	msr	BASEPRI, r0
 8003438:	e7fe      	b.n	8003438 <xQueueGenericSend+0xdc>
 800343a:	4620      	mov	r0, r4
 800343c:	f7ff fefa 	bl	8003234 <prvUnlockQueue>
 8003440:	f7ff fcf8 	bl	8002e34 <xTaskResumeAll>
 8003444:	2000      	movs	r0, #0
 8003446:	b005      	add	sp, #20
 8003448:	e8bd 83f0 	ldmia.w	sp!, {r4, r5, r6, r7, r8, r9, pc}
 800344c:	f000 fa70 	bl	8003930 <vPortExitCritical>
 8003450:	4648      	mov	r0, r9
 8003452:	e7f8      	b.n	8003446 <xQueueGenericSend+0xea>
 8003454:	6c03      	ldr	r3, [r0, #64]	; 0x40
 8003456:	4688      	mov	r8, r1
 8003458:	2b00      	cmp	r3, #0
 800345a:	d08c      	beq.n	8003376 <xQueueGenericSend+0x1a>
 800345c:	f04f 0050 	mov.w	r0, #80	; 0x50
 8003460:	f380 8811 	msr	BASEPRI, r0
 8003464:	e7fe      	b.n	8003464 <xQueueGenericSend+0x108>
 8003466:	f104 0024 	add.w	r0, r4, #36	; 0x24
 800346a:	f7ff fe4d 	bl	8003108 <xTaskRemoveFromEventList>
 800346e:	2801      	cmp	r0, #1
 8003470:	d1c5      	bne.n	80033fe <xQueueGenericSend+0xa2>
 8003472:	f000 fa49 	bl	8003908 <vPortYieldFromISR>
 8003476:	e7c2      	b.n	80033fe <xQueueGenericSend+0xa2>

08003478 <xQueueGenericSendFromISR>:
 8003478:	b538      	push	{r3, r4, r5, lr}
 800347a:	4604      	mov	r4, r0
 800347c:	4615      	mov	r5, r2
 800347e:	b190      	cbz	r0, 80034a6 <xQueueGenericSendFromISR+0x2e>
 8003480:	2a00      	cmp	r2, #0
 8003482:	d02d      	beq.n	80034e0 <xQueueGenericSendFromISR+0x68>
 8003484:	2900      	cmp	r1, #0
 8003486:	d023      	beq.n	80034d0 <xQueueGenericSendFromISR+0x58>
 8003488:	f04f 0050 	mov.w	r0, #80	; 0x50
 800348c:	f380 8811 	msr	BASEPRI, r0
 8003490:	6ba0      	ldr	r0, [r4, #56]	; 0x38
 8003492:	6be2      	ldr	r2, [r4, #60]	; 0x3c
 8003494:	4290      	cmp	r0, r2
 8003496:	d30b      	bcc.n	80034b0 <xQueueGenericSendFromISR+0x38>
 8003498:	2300      	movs	r3, #0
 800349a:	f04f 0000 	mov.w	r0, #0
 800349e:	f380 8811 	msr	BASEPRI, r0
 80034a2:	4618      	mov	r0, r3
 80034a4:	bd38      	pop	{r3, r4, r5, pc}
 80034a6:	f04f 0050 	mov.w	r0, #80	; 0x50
 80034aa:	f380 8811 	msr	BASEPRI, r0
 80034ae:	e7fe      	b.n	80034ae <xQueueGenericSendFromISR+0x36>
 80034b0:	461a      	mov	r2, r3
 80034b2:	4620      	mov	r0, r4
 80034b4:	f004 fd42 	bl	8007f3c <prvCopyDataToQueue>
 80034b8:	6ca3      	ldr	r3, [r4, #72]	; 0x48
 80034ba:	1c5a      	adds	r2, r3, #1
 80034bc:	d015      	beq.n	80034ea <xQueueGenericSendFromISR+0x72>
 80034be:	1c59      	adds	r1, r3, #1
 80034c0:	64a1      	str	r1, [r4, #72]	; 0x48
 80034c2:	2301      	movs	r3, #1
 80034c4:	f04f 0000 	mov.w	r0, #0
 80034c8:	f380 8811 	msr	BASEPRI, r0
 80034cc:	4618      	mov	r0, r3
 80034ce:	bd38      	pop	{r3, r4, r5, pc}
 80034d0:	6c02      	ldr	r2, [r0, #64]	; 0x40
 80034d2:	2a00      	cmp	r2, #0
 80034d4:	d0d8      	beq.n	8003488 <xQueueGenericSendFromISR+0x10>
 80034d6:	f04f 0050 	mov.w	r0, #80	; 0x50
 80034da:	f380 8811 	msr	BASEPRI, r0
 80034de:	e7fe      	b.n	80034de <xQueueGenericSendFromISR+0x66>
 80034e0:	f04f 0050 	mov.w	r0, #80	; 0x50
 80034e4:	f380 8811 	msr	BASEPRI, r0
 80034e8:	e7fe      	b.n	80034e8 <xQueueGenericSendFromISR+0x70>
 80034ea:	6a63      	ldr	r3, [r4, #36]	; 0x24
 80034ec:	b933      	cbnz	r3, 80034fc <xQueueGenericSendFromISR+0x84>
 80034ee:	2301      	movs	r3, #1
 80034f0:	f04f 0000 	mov.w	r0, #0
 80034f4:	f380 8811 	msr	BASEPRI, r0
 80034f8:	4618      	mov	r0, r3
 80034fa:	bd38      	pop	{r3, r4, r5, pc}
 80034fc:	f104 0024 	add.w	r0, r4, #36	; 0x24
 8003500:	f7ff fe02 	bl	8003108 <xTaskRemoveFromEventList>
 8003504:	2301      	movs	r3, #1
 8003506:	2800      	cmp	r0, #0
 8003508:	d0c7      	beq.n	800349a <xQueueGenericSendFromISR+0x22>
 800350a:	602b      	str	r3, [r5, #0]
 800350c:	f04f 0000 	mov.w	r0, #0
 8003510:	f380 8811 	msr	BASEPRI, r0
 8003514:	4618      	mov	r0, r3
 8003516:	bd38      	pop	{r3, r4, r5, pc}

08003518 <xQueueGenericReceive>:
 8003518:	e92d 43f0 	stmdb	sp!, {r4, r5, r6, r7, r8, r9, lr}
 800351c:	b085      	sub	sp, #20
 800351e:	4604      	mov	r4, r0
 8003520:	460d      	mov	r5, r1
 8003522:	9201      	str	r2, [sp, #4]
 8003524:	461f      	mov	r7, r3
 8003526:	2800      	cmp	r0, #0
 8003528:	d064      	beq.n	80035f4 <xQueueGenericReceive+0xdc>
 800352a:	f04f 0800 	mov.w	r8, #0
 800352e:	2900      	cmp	r1, #0
 8003530:	d072      	beq.n	8003618 <xQueueGenericReceive+0x100>
 8003532:	f000 f9f1 	bl	8003918 <vPortEnterCritical>
 8003536:	6ba0      	ldr	r0, [r4, #56]	; 0x38
 8003538:	2600      	movs	r6, #0
 800353a:	2800      	cmp	r0, #0
 800353c:	d138      	bne.n	80035b0 <xQueueGenericReceive+0x98>
 800353e:	f8dd 9004 	ldr.w	r9, [sp, #4]
 8003542:	f1b9 0f00 	cmp.w	r9, #0
 8003546:	d063      	beq.n	8003610 <xQueueGenericReceive+0xf8>
 8003548:	f1b8 0f00 	cmp.w	r8, #0
 800354c:	d04e      	beq.n	80035ec <xQueueGenericReceive+0xd4>
 800354e:	f000 f9ef 	bl	8003930 <vPortExitCritical>
 8003552:	f7ff fbb9 	bl	8002cc8 <vTaskSuspendAll>
 8003556:	f000 f9df 	bl	8003918 <vPortEnterCritical>
 800355a:	6c62      	ldr	r2, [r4, #68]	; 0x44
 800355c:	6ca1      	ldr	r1, [r4, #72]	; 0x48
 800355e:	1c53      	adds	r3, r2, #1
 8003560:	bf08      	it	eq
 8003562:	6466      	streq	r6, [r4, #68]	; 0x44
 8003564:	1c4b      	adds	r3, r1, #1
 8003566:	bf08      	it	eq
 8003568:	64a6      	streq	r6, [r4, #72]	; 0x48
 800356a:	f000 f9e1 	bl	8003930 <vPortExitCritical>
 800356e:	a802      	add	r0, sp, #8
 8003570:	a901      	add	r1, sp, #4
 8003572:	f7ff fe11 	bl	8003198 <xTaskCheckForTimeOut>
 8003576:	2800      	cmp	r0, #0
 8003578:	d141      	bne.n	80035fe <xQueueGenericReceive+0xe6>
 800357a:	f000 f9cd 	bl	8003918 <vPortEnterCritical>
 800357e:	f8d4 8038 	ldr.w	r8, [r4, #56]	; 0x38
 8003582:	f000 f9d5 	bl	8003930 <vPortExitCritical>
 8003586:	f1b8 0f00 	cmp.w	r8, #0
 800358a:	d127      	bne.n	80035dc <xQueueGenericReceive+0xc4>
 800358c:	9901      	ldr	r1, [sp, #4]
 800358e:	f104 0024 	add.w	r0, r4, #36	; 0x24
 8003592:	f7ff fd95 	bl	80030c0 <vTaskPlaceOnEventList>
 8003596:	4620      	mov	r0, r4
 8003598:	f7ff fe4c 	bl	8003234 <prvUnlockQueue>
 800359c:	f7ff fc4a 	bl	8002e34 <xTaskResumeAll>
 80035a0:	b1b8      	cbz	r0, 80035d2 <xQueueGenericReceive+0xba>
 80035a2:	f04f 0801 	mov.w	r8, #1
 80035a6:	f000 f9b7 	bl	8003918 <vPortEnterCritical>
 80035aa:	6ba0      	ldr	r0, [r4, #56]	; 0x38
 80035ac:	2800      	cmp	r0, #0
 80035ae:	d0c6      	beq.n	800353e <xQueueGenericReceive+0x26>
 80035b0:	4629      	mov	r1, r5
 80035b2:	4620      	mov	r0, r4
 80035b4:	68e5      	ldr	r5, [r4, #12]
 80035b6:	f004 fcad 	bl	8007f14 <prvCopyDataFromQueue>
 80035ba:	2f00      	cmp	r7, #0
 80035bc:	d13c      	bne.n	8003638 <xQueueGenericReceive+0x120>
 80035be:	6ba3      	ldr	r3, [r4, #56]	; 0x38
 80035c0:	1e5a      	subs	r2, r3, #1
 80035c2:	63a2      	str	r2, [r4, #56]	; 0x38
 80035c4:	6921      	ldr	r1, [r4, #16]
 80035c6:	2900      	cmp	r1, #0
 80035c8:	d12f      	bne.n	800362a <xQueueGenericReceive+0x112>
 80035ca:	f000 f9b1 	bl	8003930 <vPortExitCritical>
 80035ce:	2001      	movs	r0, #1
 80035d0:	e01b      	b.n	800360a <xQueueGenericReceive+0xf2>
 80035d2:	f000 f999 	bl	8003908 <vPortYieldFromISR>
 80035d6:	f04f 0801 	mov.w	r8, #1
 80035da:	e7e4      	b.n	80035a6 <xQueueGenericReceive+0x8e>
 80035dc:	4620      	mov	r0, r4
 80035de:	f7ff fe29 	bl	8003234 <prvUnlockQueue>
 80035e2:	f04f 0801 	mov.w	r8, #1
 80035e6:	f7ff fc25 	bl	8002e34 <xTaskResumeAll>
 80035ea:	e7dc      	b.n	80035a6 <xQueueGenericReceive+0x8e>
 80035ec:	a802      	add	r0, sp, #8
 80035ee:	f7ff fdc3 	bl	8003178 <vTaskSetTimeOutState>
 80035f2:	e7ac      	b.n	800354e <xQueueGenericReceive+0x36>
 80035f4:	f04f 0050 	mov.w	r0, #80	; 0x50
 80035f8:	f380 8811 	msr	BASEPRI, r0
 80035fc:	e7fe      	b.n	80035fc <xQueueGenericReceive+0xe4>
 80035fe:	4620      	mov	r0, r4
 8003600:	f7ff fe18 	bl	8003234 <prvUnlockQueue>
 8003604:	f7ff fc16 	bl	8002e34 <xTaskResumeAll>
 8003608:	2000      	movs	r0, #0
 800360a:	b005      	add	sp, #20
 800360c:	e8bd 83f0 	ldmia.w	sp!, {r4, r5, r6, r7, r8, r9, pc}
 8003610:	f000 f98e 	bl	8003930 <vPortExitCritical>
 8003614:	4648      	mov	r0, r9
 8003616:	e7f8      	b.n	800360a <xQueueGenericReceive+0xf2>
 8003618:	6c03      	ldr	r3, [r0, #64]	; 0x40
 800361a:	4688      	mov	r8, r1
 800361c:	2b00      	cmp	r3, #0
 800361e:	d088      	beq.n	8003532 <xQueueGenericReceive+0x1a>
 8003620:	f04f 0050 	mov.w	r0, #80	; 0x50
 8003624:	f380 8811 	msr	BASEPRI, r0
 8003628:	e7fe      	b.n	8003628 <xQueueGenericReceive+0x110>
 800362a:	f104 0010 	add.w	r0, r4, #16
 800362e:	f7ff fd6b 	bl	8003108 <xTaskRemoveFromEventList>
 8003632:	2801      	cmp	r0, #1
 8003634:	d1c9      	bne.n	80035ca <xQueueGenericReceive+0xb2>
 8003636:	e009      	b.n	800364c <xQueueGenericReceive+0x134>
 8003638:	6a60      	ldr	r0, [r4, #36]	; 0x24
 800363a:	60e5      	str	r5, [r4, #12]
 800363c:	2800      	cmp	r0, #0
 800363e:	d0c4      	beq.n	80035ca <xQueueGenericReceive+0xb2>
 8003640:	f104 0024 	add.w	r0, r4, #36	; 0x24
 8003644:	f7ff fd60 	bl	8003108 <xTaskRemoveFromEventList>
 8003648:	2800      	cmp	r0, #0
 800364a:	d0be      	beq.n	80035ca <xQueueGenericReceive+0xb2>
 800364c:	f000 f95c 	bl	8003908 <vPortYieldFromISR>
 8003650:	e7bb      	b.n	80035ca <xQueueGenericReceive+0xb2>
 8003652:	bf00      	nop

08003654 <xQueueReceiveFromISR>:
 8003654:	b538      	push	{r3, r4, r5, lr}
 8003656:	4604      	mov	r4, r0
 8003658:	4615      	mov	r5, r2
 800365a:	b170      	cbz	r0, 800367a <xQueueReceiveFromISR+0x26>
 800365c:	2a00      	cmp	r2, #0
 800365e:	d02b      	beq.n	80036b8 <xQueueReceiveFromISR+0x64>
 8003660:	b311      	cbz	r1, 80036a8 <xQueueReceiveFromISR+0x54>
 8003662:	f04f 0050 	mov.w	r0, #80	; 0x50
 8003666:	f380 8811 	msr	BASEPRI, r0
 800366a:	6ba3      	ldr	r3, [r4, #56]	; 0x38
 800366c:	b953      	cbnz	r3, 8003684 <xQueueReceiveFromISR+0x30>
 800366e:	f04f 0000 	mov.w	r0, #0
 8003672:	f380 8811 	msr	BASEPRI, r0
 8003676:	4618      	mov	r0, r3
 8003678:	bd38      	pop	{r3, r4, r5, pc}
 800367a:	f04f 0050 	mov.w	r0, #80	; 0x50
 800367e:	f380 8811 	msr	BASEPRI, r0
 8003682:	e7fe      	b.n	8003682 <xQueueReceiveFromISR+0x2e>
 8003684:	4620      	mov	r0, r4
 8003686:	f004 fc45 	bl	8007f14 <prvCopyDataFromQueue>
 800368a:	6ba0      	ldr	r0, [r4, #56]	; 0x38
 800368c:	6c63      	ldr	r3, [r4, #68]	; 0x44
 800368e:	1e42      	subs	r2, r0, #1
 8003690:	1c59      	adds	r1, r3, #1
 8003692:	63a2      	str	r2, [r4, #56]	; 0x38
 8003694:	d015      	beq.n	80036c2 <xQueueReceiveFromISR+0x6e>
 8003696:	3301      	adds	r3, #1
 8003698:	6463      	str	r3, [r4, #68]	; 0x44
 800369a:	2301      	movs	r3, #1
 800369c:	f04f 0000 	mov.w	r0, #0
 80036a0:	f380 8811 	msr	BASEPRI, r0
 80036a4:	4618      	mov	r0, r3
 80036a6:	bd38      	pop	{r3, r4, r5, pc}
 80036a8:	6c03      	ldr	r3, [r0, #64]	; 0x40
 80036aa:	2b00      	cmp	r3, #0
 80036ac:	d0d9      	beq.n	8003662 <xQueueReceiveFromISR+0xe>
 80036ae:	f04f 0050 	mov.w	r0, #80	; 0x50
 80036b2:	f380 8811 	msr	BASEPRI, r0
 80036b6:	e7fe      	b.n	80036b6 <xQueueReceiveFromISR+0x62>
 80036b8:	f04f 0050 	mov.w	r0, #80	; 0x50
 80036bc:	f380 8811 	msr	BASEPRI, r0
 80036c0:	e7fe      	b.n	80036c0 <xQueueReceiveFromISR+0x6c>
 80036c2:	6921      	ldr	r1, [r4, #16]
 80036c4:	b931      	cbnz	r1, 80036d4 <xQueueReceiveFromISR+0x80>
 80036c6:	2301      	movs	r3, #1
 80036c8:	f04f 0000 	mov.w	r0, #0
 80036cc:	f380 8811 	msr	BASEPRI, r0
 80036d0:	4618      	mov	r0, r3
 80036d2:	bd38      	pop	{r3, r4, r5, pc}
 80036d4:	f104 0010 	add.w	r0, r4, #16
 80036d8:	f7ff fd16 	bl	8003108 <xTaskRemoveFromEventList>
 80036dc:	2301      	movs	r3, #1
 80036de:	2800      	cmp	r0, #0
 80036e0:	d0c5      	beq.n	800366e <xQueueReceiveFromISR+0x1a>
 80036e2:	602b      	str	r3, [r5, #0]
 80036e4:	f04f 0000 	mov.w	r0, #0
 80036e8:	f380 8811 	msr	BASEPRI, r0
 80036ec:	4618      	mov	r0, r3
 80036ee:	bd38      	pop	{r3, r4, r5, pc}

080036f0 <uxQueueMessagesWaiting>:
 80036f0:	b510      	push	{r4, lr}
 80036f2:	4604      	mov	r4, r0
 80036f4:	b130      	cbz	r0, 8003704 <uxQueueMessagesWaiting+0x14>
 80036f6:	f000 f90f 	bl	8003918 <vPortEnterCritical>
 80036fa:	6ba4      	ldr	r4, [r4, #56]	; 0x38
 80036fc:	f000 f918 	bl	8003930 <vPortExitCritical>
 8003700:	4620      	mov	r0, r4
 8003702:	bd10      	pop	{r4, pc}
 8003704:	f04f 0050 	mov.w	r0, #80	; 0x50
 8003708:	f380 8811 	msr	BASEPRI, r0
 800370c:	e7fe      	b.n	800370c <uxQueueMessagesWaiting+0x1c>
 800370e:	bf00      	nop

08003710 <uxQueueMessagesWaitingFromISR>:
 8003710:	b108      	cbz	r0, 8003716 <uxQueueMessagesWaitingFromISR+0x6>
 8003712:	6b80      	ldr	r0, [r0, #56]	; 0x38
 8003714:	4770      	bx	lr
 8003716:	f04f 0050 	mov.w	r0, #80	; 0x50
 800371a:	f380 8811 	msr	BASEPRI, r0
 800371e:	e7fe      	b.n	800371e <uxQueueMessagesWaitingFromISR+0xe>

08003720 <vQueueDelete>:
 8003720:	b510      	push	{r4, lr}
 8003722:	4604      	mov	r4, r0
 8003724:	2800      	cmp	r0, #0
 8003726:	d023      	beq.n	8003770 <vQueueDelete+0x50>
 8003728:	f640 03b0 	movw	r3, #2224	; 0x8b0
 800372c:	f2c2 0300 	movt	r3, #8192	; 0x2000
 8003730:	685a      	ldr	r2, [r3, #4]
 8003732:	4290      	cmp	r0, r2
 8003734:	d026      	beq.n	8003784 <vQueueDelete+0x64>
 8003736:	68d9      	ldr	r1, [r3, #12]
 8003738:	4288      	cmp	r0, r1
 800373a:	d025      	beq.n	8003788 <vQueueDelete+0x68>
 800373c:	695a      	ldr	r2, [r3, #20]
 800373e:	4290      	cmp	r0, r2
 8003740:	d024      	beq.n	800378c <vQueueDelete+0x6c>
 8003742:	69d9      	ldr	r1, [r3, #28]
 8003744:	4288      	cmp	r0, r1
 8003746:	d023      	beq.n	8003790 <vQueueDelete+0x70>
 8003748:	6a5a      	ldr	r2, [r3, #36]	; 0x24
 800374a:	4290      	cmp	r0, r2
 800374c:	d022      	beq.n	8003794 <vQueueDelete+0x74>
 800374e:	6ad9      	ldr	r1, [r3, #44]	; 0x2c
 8003750:	4288      	cmp	r0, r1
 8003752:	d021      	beq.n	8003798 <vQueueDelete+0x78>
 8003754:	6b5a      	ldr	r2, [r3, #52]	; 0x34
 8003756:	4290      	cmp	r0, r2
 8003758:	d020      	beq.n	800379c <vQueueDelete+0x7c>
 800375a:	6bd9      	ldr	r1, [r3, #60]	; 0x3c
 800375c:	4288      	cmp	r0, r1
 800375e:	d00c      	beq.n	800377a <vQueueDelete+0x5a>
 8003760:	6820      	ldr	r0, [r4, #0]
 8003762:	f000 f957 	bl	8003a14 <vPortFree>
 8003766:	4620      	mov	r0, r4
 8003768:	e8bd 4010 	ldmia.w	sp!, {r4, lr}
 800376c:	f000 b952 	b.w	8003a14 <vPortFree>
 8003770:	f04f 0050 	mov.w	r0, #80	; 0x50
 8003774:	f380 8811 	msr	BASEPRI, r0
 8003778:	e7fe      	b.n	8003778 <vQueueDelete+0x58>
 800377a:	2207      	movs	r2, #7
 800377c:	2000      	movs	r0, #0
 800377e:	f843 0032 	str.w	r0, [r3, r2, lsl #3]
 8003782:	e7ed      	b.n	8003760 <vQueueDelete+0x40>
 8003784:	2200      	movs	r2, #0
 8003786:	e7f9      	b.n	800377c <vQueueDelete+0x5c>
 8003788:	2201      	movs	r2, #1
 800378a:	e7f7      	b.n	800377c <vQueueDelete+0x5c>
 800378c:	2202      	movs	r2, #2
 800378e:	e7f5      	b.n	800377c <vQueueDelete+0x5c>
 8003790:	2203      	movs	r2, #3
 8003792:	e7f3      	b.n	800377c <vQueueDelete+0x5c>
 8003794:	2204      	movs	r2, #4
 8003796:	e7f1      	b.n	800377c <vQueueDelete+0x5c>
 8003798:	2205      	movs	r2, #5
 800379a:	e7ef      	b.n	800377c <vQueueDelete+0x5c>
 800379c:	2206      	movs	r2, #6
 800379e:	e7ed      	b.n	800377c <vQueueDelete+0x5c>

080037a0 <xQueueIsQueueEmptyFromISR>:
 80037a0:	b128      	cbz	r0, 80037ae <xQueueIsQueueEmptyFromISR+0xe>
 80037a2:	6b80      	ldr	r0, [r0, #56]	; 0x38
 80037a4:	f1d0 0001 	rsbs	r0, r0, #1
 80037a8:	bf38      	it	cc
 80037aa:	2000      	movcc	r0, #0
 80037ac:	4770      	bx	lr
 80037ae:	f04f 0050 	mov.w	r0, #80	; 0x50
 80037b2:	f380 8811 	msr	BASEPRI, r0
 80037b6:	e7fe      	b.n	80037b6 <xQueueIsQueueEmptyFromISR+0x16>

080037b8 <xQueueIsQueueFullFromISR>:
 80037b8:	b130      	cbz	r0, 80037c8 <xQueueIsQueueFullFromISR+0x10>
 80037ba:	6b82      	ldr	r2, [r0, #56]	; 0x38
 80037bc:	6bc3      	ldr	r3, [r0, #60]	; 0x3c
 80037be:	1ad1      	subs	r1, r2, r3
 80037c0:	4248      	negs	r0, r1
 80037c2:	eb40 0001 	adc.w	r0, r0, r1
 80037c6:	4770      	bx	lr
 80037c8:	f04f 0050 	mov.w	r0, #80	; 0x50
 80037cc:	f380 8811 	msr	BASEPRI, r0
 80037d0:	e7fe      	b.n	80037d0 <xQueueIsQueueFullFromISR+0x18>
 80037d2:	bf00      	nop

080037d4 <vQueueAddToRegistry>:
 80037d4:	f640 03b0 	movw	r3, #2224	; 0x8b0
 80037d8:	f2c2 0300 	movt	r3, #8192	; 0x2000
 80037dc:	b410      	push	{r4}
 80037de:	681a      	ldr	r2, [r3, #0]
 80037e0:	b182      	cbz	r2, 8003804 <vQueueAddToRegistry+0x30>
 80037e2:	689a      	ldr	r2, [r3, #8]
 80037e4:	b1a2      	cbz	r2, 8003810 <vQueueAddToRegistry+0x3c>
 80037e6:	691a      	ldr	r2, [r3, #16]
 80037e8:	b1a2      	cbz	r2, 8003814 <vQueueAddToRegistry+0x40>
 80037ea:	699a      	ldr	r2, [r3, #24]
 80037ec:	b1a2      	cbz	r2, 8003818 <vQueueAddToRegistry+0x44>
 80037ee:	6a1a      	ldr	r2, [r3, #32]
 80037f0:	b1a2      	cbz	r2, 800381c <vQueueAddToRegistry+0x48>
 80037f2:	6a9a      	ldr	r2, [r3, #40]	; 0x28
 80037f4:	b1a2      	cbz	r2, 8003820 <vQueueAddToRegistry+0x4c>
 80037f6:	6b1a      	ldr	r2, [r3, #48]	; 0x30
 80037f8:	b11a      	cbz	r2, 8003802 <vQueueAddToRegistry+0x2e>
 80037fa:	6b9a      	ldr	r2, [r3, #56]	; 0x38
 80037fc:	b192      	cbz	r2, 8003824 <vQueueAddToRegistry+0x50>
 80037fe:	bc10      	pop	{r4}
 8003800:	4770      	bx	lr
 8003802:	2206      	movs	r2, #6
 8003804:	eb03 04c2 	add.w	r4, r3, r2, lsl #3
 8003808:	f843 1032 	str.w	r1, [r3, r2, lsl #3]
 800380c:	6060      	str	r0, [r4, #4]
 800380e:	e7f6      	b.n	80037fe <vQueueAddToRegistry+0x2a>
 8003810:	2201      	movs	r2, #1
 8003812:	e7f7      	b.n	8003804 <vQueueAddToRegistry+0x30>
 8003814:	2202      	movs	r2, #2
 8003816:	e7f5      	b.n	8003804 <vQueueAddToRegistry+0x30>
 8003818:	2203      	movs	r2, #3
 800381a:	e7f3      	b.n	8003804 <vQueueAddToRegistry+0x30>
 800381c:	2204      	movs	r2, #4
 800381e:	e7f1      	b.n	8003804 <vQueueAddToRegistry+0x30>
 8003820:	2205      	movs	r2, #5
 8003822:	e7ef      	b.n	8003804 <vQueueAddToRegistry+0x30>
 8003824:	2207      	movs	r2, #7
 8003826:	e7ed      	b.n	8003804 <vQueueAddToRegistry+0x30>

08003828 <vPortStartFirstTask>:
 8003828:	4866      	ldr	r0, [pc, #408]	; (80039c4 <SysTick_Handler+0x28>)
 800382a:	6800      	ldr	r0, [r0, #0]
 800382c:	6800      	ldr	r0, [r0, #0]
 800382e:	f380 8808 	msr	MSP, r0
 8003832:	b662      	cpsie	i
 8003834:	df00      	svc	0
 8003836:	bf00      	nop

08003838 <vPortEnableVFP>:
 8003838:	f8df 018c 	ldr.w	r0, [pc, #396]	; 80039c8 <SysTick_Handler+0x2c>
 800383c:	6801      	ldr	r1, [r0, #0]
 800383e:	f441 0170 	orr.w	r1, r1, #15728640	; 0xf00000
 8003842:	6001      	str	r1, [r0, #0]
 8003844:	4770      	bx	lr
 8003846:	bf00      	nop

08003848 <pxPortInitialiseStack>:
 8003848:	f04f 7380 	mov.w	r3, #16777216	; 0x1000000
 800384c:	e900 000a 	stmdb	r0, {r1, r3}
 8003850:	2100      	movs	r1, #0
 8003852:	f06f 0302 	mvn.w	r3, #2
 8003856:	f840 1c0c 	str.w	r1, [r0, #-12]
 800385a:	f840 2c20 	str.w	r2, [r0, #-32]
 800385e:	f840 3c24 	str.w	r3, [r0, #-36]
 8003862:	3844      	subs	r0, #68	; 0x44
 8003864:	4770      	bx	lr
 8003866:	bf00      	nop

08003868 <SVC_Handler>:
 8003868:	4b05      	ldr	r3, [pc, #20]	; (8003880 <pxCurrentTCBConst2>)
 800386a:	6819      	ldr	r1, [r3, #0]
 800386c:	6808      	ldr	r0, [r1, #0]
 800386e:	e8b0 4ff0 	ldmia.w	r0!, {r4, r5, r6, r7, r8, r9, sl, fp, lr}
 8003872:	f380 8809 	msr	PSP, r0
 8003876:	f04f 0000 	mov.w	r0, #0
 800387a:	f380 8811 	msr	BASEPRI, r0
 800387e:	4770      	bx	lr

08003880 <pxCurrentTCBConst2>:
 8003880:	20000184 	andcs	r0, r0, r4, lsl #3

08003884 <xPortStartScheduler>:
 8003884:	b510      	push	{r4, lr}
 8003886:	f64e 5e20 	movw	lr, #60704	; 0xed20
 800388a:	f2ce 0e00 	movt	lr, #57344	; 0xe000
 800388e:	f240 0c14 	movw	ip, #20
 8003892:	f8de 1000 	ldr.w	r1, [lr]
 8003896:	f441 0070 	orr.w	r0, r1, #15728640	; 0xf00000
 800389a:	f8ce 0000 	str.w	r0, [lr]
 800389e:	f8de 3000 	ldr.w	r3, [lr]
 80038a2:	f2c2 0c00 	movt	ip, #8192	; 0x2000
 80038a6:	f043 4270 	orr.w	r2, r3, #4026531840	; 0xf0000000
 80038aa:	f8ce 2000 	str.w	r2, [lr]
 80038ae:	f8dc 1000 	ldr.w	r1, [ip]
 80038b2:	f644 54d3 	movw	r4, #19923	; 0x4dd3
 80038b6:	f2c1 0462 	movt	r4, #4194	; 0x1062
 80038ba:	fba4 2001 	umull	r2, r0, r4, r1
 80038be:	f24e 0214 	movw	r2, #57364	; 0xe014
 80038c2:	0983      	lsrs	r3, r0, #6
 80038c4:	f2ce 0200 	movt	r2, #57344	; 0xe000
 80038c8:	f24e 0e10 	movw	lr, #57360	; 0xe010
 80038cc:	f240 0c9c 	movw	ip, #156	; 0x9c
 80038d0:	1e5c      	subs	r4, r3, #1
 80038d2:	f2ce 0e00 	movt	lr, #57344	; 0xe000
 80038d6:	f2c2 0c00 	movt	ip, #8192	; 0x2000
 80038da:	6014      	str	r4, [r2, #0]
 80038dc:	2107      	movs	r1, #7
 80038de:	2400      	movs	r4, #0
 80038e0:	f8ce 1000 	str.w	r1, [lr]
 80038e4:	f8cc 4000 	str.w	r4, [ip]
 80038e8:	f7ff ffa6 	bl	8003838 <vPortEnableVFP>
 80038ec:	f64e 7334 	movw	r3, #61236	; 0xef34
 80038f0:	f2ce 0300 	movt	r3, #57344	; 0xe000
 80038f4:	6818      	ldr	r0, [r3, #0]
 80038f6:	f040 4240 	orr.w	r2, r0, #3221225472	; 0xc0000000
 80038fa:	601a      	str	r2, [r3, #0]
 80038fc:	f7ff ff94 	bl	8003828 <vPortStartFirstTask>
 8003900:	4620      	mov	r0, r4
 8003902:	bd10      	pop	{r4, pc}

08003904 <vPortEndScheduler>:
 8003904:	4770      	bx	lr
 8003906:	bf00      	nop

08003908 <vPortYieldFromISR>:
 8003908:	f64e 5304 	movw	r3, #60676	; 0xed04
 800390c:	f2ce 0300 	movt	r3, #57344	; 0xe000
 8003910:	f04f 5280 	mov.w	r2, #268435456	; 0x10000000
 8003914:	601a      	str	r2, [r3, #0]
 8003916:	4770      	bx	lr

08003918 <vPortEnterCritical>:
 8003918:	f04f 0050 	mov.w	r0, #80	; 0x50
 800391c:	f380 8811 	msr	BASEPRI, r0
 8003920:	f240 039c 	movw	r3, #156	; 0x9c
 8003924:	f2c2 0300 	movt	r3, #8192	; 0x2000
 8003928:	6818      	ldr	r0, [r3, #0]
 800392a:	1c42      	adds	r2, r0, #1
 800392c:	601a      	str	r2, [r3, #0]
 800392e:	4770      	bx	lr

08003930 <vPortExitCritical>:
 8003930:	f240 039c 	movw	r3, #156	; 0x9c
 8003934:	f2c2 0300 	movt	r3, #8192	; 0x2000
 8003938:	6818      	ldr	r0, [r3, #0]
 800393a:	1e42      	subs	r2, r0, #1
 800393c:	601a      	str	r2, [r3, #0]
 800393e:	b91a      	cbnz	r2, 8003948 <vPortExitCritical+0x18>
 8003940:	f04f 0000 	mov.w	r0, #0
 8003944:	f380 8811 	msr	BASEPRI, r0
 8003948:	4770      	bx	lr
 800394a:	bf00      	nop

0800394c <PendSV_Handler>:
 800394c:	f3ef 8009 	mrs	r0, PSP
 8003950:	4b11      	ldr	r3, [pc, #68]	; (8003998 <pxCurrentTCBConst>)
 8003952:	681a      	ldr	r2, [r3, #0]
 8003954:	f01e 0f10 	tst.w	lr, #16
 8003958:	bf08      	it	eq
 800395a:	ed20 8a10 	vstmdbeq	r0!, {s16-s31}
 800395e:	e920 4ff0 	stmdb	r0!, {r4, r5, r6, r7, r8, r9, sl, fp, lr}
 8003962:	6010      	str	r0, [r2, #0]
 8003964:	e92d 4008 	stmdb	sp!, {r3, lr}
 8003968:	f04f 0050 	mov.w	r0, #80	; 0x50
 800396c:	f380 8811 	msr	BASEPRI, r0
 8003970:	f7ff fb2a 	bl	8002fc8 <vTaskSwitchContext>
 8003974:	f04f 0000 	mov.w	r0, #0
 8003978:	f380 8811 	msr	BASEPRI, r0
 800397c:	e8bd 4008 	ldmia.w	sp!, {r3, lr}
 8003980:	6819      	ldr	r1, [r3, #0]
 8003982:	6808      	ldr	r0, [r1, #0]
 8003984:	e8b0 4ff0 	ldmia.w	r0!, {r4, r5, r6, r7, r8, r9, sl, fp, lr}
 8003988:	f01e 0f10 	tst.w	lr, #16
 800398c:	bf08      	it	eq
 800398e:	ecb0 8a10 	vldmiaeq	r0!, {s16-s31}
 8003992:	f380 8809 	msr	PSP, r0
 8003996:	4770      	bx	lr

08003998 <pxCurrentTCBConst>:
 8003998:	20000184 	andcs	r0, r0, r4, lsl #3

0800399c <SysTick_Handler>:
 800399c:	b508      	push	{r3, lr}
 800399e:	f64e 5304 	movw	r3, #60676	; 0xed04
 80039a2:	f2ce 0300 	movt	r3, #57344	; 0xe000
 80039a6:	f04f 5280 	mov.w	r2, #268435456	; 0x10000000
 80039aa:	601a      	str	r2, [r3, #0]
 80039ac:	f04f 0050 	mov.w	r0, #80	; 0x50
 80039b0:	f380 8811 	msr	BASEPRI, r0
 80039b4:	f7ff f9b4 	bl	8002d20 <vTaskIncrementTick>
 80039b8:	f04f 0000 	mov.w	r0, #0
 80039bc:	f380 8811 	msr	BASEPRI, r0
 80039c0:	bd08      	pop	{r3, pc}
 80039c2:	ed080000 	stc	0, cr0, [r8, #-0]
 80039c6:	ed88e000 	stc	0, cr14, [r8]
 80039ca:	b538e000 	ldrlt	lr, [r8, #-0]!

080039cc <pvPortMalloc>:
 80039cc:	b538      	push	{r3, r4, r5, lr}
 80039ce:	0743      	lsls	r3, r0, #29
 80039d0:	4605      	mov	r5, r0
 80039d2:	bf1c      	itt	ne
 80039d4:	f020 0507 	bicne.w	r5, r0, #7
 80039d8:	3508      	addne	r5, #8
 80039da:	f7ff f975 	bl	8002cc8 <vTaskSuspendAll>
 80039de:	f240 236c 	movw	r3, #620	; 0x26c
 80039e2:	f2c2 0300 	movt	r3, #8192	; 0x2000
 80039e6:	681a      	ldr	r2, [r3, #0]
 80039e8:	18ad      	adds	r5, r5, r2
 80039ea:	f5b5 3f80 	cmp.w	r5, #65536	; 0x10000
 80039ee:	d20b      	bcs.n	8003a08 <pvPortMalloc+0x3c>
 80039f0:	42aa      	cmp	r2, r5
 80039f2:	d209      	bcs.n	8003a08 <pvPortMalloc+0x3c>
 80039f4:	f240 0400 	movw	r4, #0
 80039f8:	f2c1 0400 	movt	r4, #4096	; 0x1000
 80039fc:	18a4      	adds	r4, r4, r2
 80039fe:	601d      	str	r5, [r3, #0]
 8003a00:	f7ff fa18 	bl	8002e34 <xTaskResumeAll>
 8003a04:	4620      	mov	r0, r4
 8003a06:	bd38      	pop	{r3, r4, r5, pc}
 8003a08:	2400      	movs	r4, #0
 8003a0a:	f7ff fa13 	bl	8002e34 <xTaskResumeAll>
 8003a0e:	4620      	mov	r0, r4
 8003a10:	bd38      	pop	{r3, r4, r5, pc}
 8003a12:	bf00      	nop

08003a14 <vPortFree>:
 8003a14:	4770      	bx	lr
 8003a16:	bf00      	nop

08003a18 <vPortInitialiseBlocks>:
 8003a18:	f240 236c 	movw	r3, #620	; 0x26c
 8003a1c:	f2c2 0300 	movt	r3, #8192	; 0x2000
 8003a20:	2200      	movs	r2, #0
 8003a22:	601a      	str	r2, [r3, #0]
 8003a24:	4770      	bx	lr
 8003a26:	bf00      	nop

08003a28 <xPortGetFreeHeapSize>:
 8003a28:	f240 236c 	movw	r3, #620	; 0x26c
 8003a2c:	f2c2 0300 	movt	r3, #8192	; 0x2000
 8003a30:	6818      	ldr	r0, [r3, #0]
 8003a32:	f5c0 3080 	rsb	r0, r0, #65536	; 0x10000
 8003a36:	4770      	bx	lr

08003a38 <GPIO_DeInit>:
 8003a38:	b508      	push	{r3, lr}
 8003a3a:	2300      	movs	r3, #0
 8003a3c:	f2c4 0302 	movt	r3, #16386	; 0x4002
 8003a40:	4298      	cmp	r0, r3
 8003a42:	d03c      	beq.n	8003abe <GPIO_DeInit+0x86>
 8003a44:	f44f 6180 	mov.w	r1, #1024	; 0x400
 8003a48:	f2c4 0102 	movt	r1, #16386	; 0x4002
 8003a4c:	4288      	cmp	r0, r1
 8003a4e:	d040      	beq.n	8003ad2 <GPIO_DeInit+0x9a>
 8003a50:	f44f 6200 	mov.w	r2, #2048	; 0x800
 8003a54:	f2c4 0202 	movt	r2, #16386	; 0x4002
 8003a58:	4290      	cmp	r0, r2
 8003a5a:	d044      	beq.n	8003ae6 <GPIO_DeInit+0xae>
 8003a5c:	f44f 6c40 	mov.w	ip, #3072	; 0xc00
 8003a60:	f2c4 0c02 	movt	ip, #16386	; 0x4002
 8003a64:	4560      	cmp	r0, ip
 8003a66:	d048      	beq.n	8003afa <GPIO_DeInit+0xc2>
 8003a68:	f44f 5380 	mov.w	r3, #4096	; 0x1000
 8003a6c:	f2c4 0302 	movt	r3, #16386	; 0x4002
 8003a70:	4298      	cmp	r0, r3
 8003a72:	d04c      	beq.n	8003b0e <GPIO_DeInit+0xd6>
 8003a74:	f44f 51a0 	mov.w	r1, #5120	; 0x1400
 8003a78:	f2c4 0102 	movt	r1, #16386	; 0x4002
 8003a7c:	4288      	cmp	r0, r1
 8003a7e:	d050      	beq.n	8003b22 <GPIO_DeInit+0xea>
 8003a80:	f44f 52c0 	mov.w	r2, #6144	; 0x1800
 8003a84:	f2c4 0202 	movt	r2, #16386	; 0x4002
 8003a88:	4290      	cmp	r0, r2
 8003a8a:	d054      	beq.n	8003b36 <GPIO_DeInit+0xfe>
 8003a8c:	f44f 5ce0 	mov.w	ip, #7168	; 0x1c00
 8003a90:	f2c4 0c02 	movt	ip, #16386	; 0x4002
 8003a94:	4560      	cmp	r0, ip
 8003a96:	d058      	beq.n	8003b4a <GPIO_DeInit+0x112>
 8003a98:	f44f 5300 	mov.w	r3, #8192	; 0x2000
 8003a9c:	f2c4 0302 	movt	r3, #16386	; 0x4002
 8003aa0:	4298      	cmp	r0, r3
 8003aa2:	d000      	beq.n	8003aa6 <GPIO_DeInit+0x6e>
 8003aa4:	bd08      	pop	{r3, pc}
 8003aa6:	2101      	movs	r1, #1
 8003aa8:	f44f 7080 	mov.w	r0, #256	; 0x100
 8003aac:	f000 fbb2 	bl	8004214 <RCC_AHB1PeriphResetCmd>
 8003ab0:	f44f 7080 	mov.w	r0, #256	; 0x100
 8003ab4:	2100      	movs	r1, #0
 8003ab6:	e8bd 4008 	ldmia.w	sp!, {r3, lr}
 8003aba:	f000 bbab 	b.w	8004214 <RCC_AHB1PeriphResetCmd>
 8003abe:	2001      	movs	r0, #1
 8003ac0:	4601      	mov	r1, r0
 8003ac2:	f000 fba7 	bl	8004214 <RCC_AHB1PeriphResetCmd>
 8003ac6:	2001      	movs	r0, #1
 8003ac8:	2100      	movs	r1, #0
 8003aca:	e8bd 4008 	ldmia.w	sp!, {r3, lr}
 8003ace:	f000 bba1 	b.w	8004214 <RCC_AHB1PeriphResetCmd>
 8003ad2:	2002      	movs	r0, #2
 8003ad4:	2101      	movs	r1, #1
 8003ad6:	f000 fb9d 	bl	8004214 <RCC_AHB1PeriphResetCmd>
 8003ada:	2002      	movs	r0, #2
 8003adc:	2100      	movs	r1, #0
 8003ade:	e8bd 4008 	ldmia.w	sp!, {r3, lr}
 8003ae2:	f000 bb97 	b.w	8004214 <RCC_AHB1PeriphResetCmd>
 8003ae6:	2004      	movs	r0, #4
 8003ae8:	2101      	movs	r1, #1
 8003aea:	f000 fb93 	bl	8004214 <RCC_AHB1PeriphResetCmd>
 8003aee:	2004      	movs	r0, #4
 8003af0:	2100      	movs	r1, #0
 8003af2:	e8bd 4008 	ldmia.w	sp!, {r3, lr}
 8003af6:	f000 bb8d 	b.w	8004214 <RCC_AHB1PeriphResetCmd>
 8003afa:	2008      	movs	r0, #8
 8003afc:	2101      	movs	r1, #1
 8003afe:	f000 fb89 	bl	8004214 <RCC_AHB1PeriphResetCmd>
 8003b02:	2008      	movs	r0, #8
 8003b04:	2100      	movs	r1, #0
 8003b06:	e8bd 4008 	ldmia.w	sp!, {r3, lr}
 8003b0a:	f000 bb83 	b.w	8004214 <RCC_AHB1PeriphResetCmd>
 8003b0e:	2010      	movs	r0, #16
 8003b10:	2101      	movs	r1, #1
 8003b12:	f000 fb7f 	bl	8004214 <RCC_AHB1PeriphResetCmd>
 8003b16:	2010      	movs	r0, #16
 8003b18:	2100      	movs	r1, #0
 8003b1a:	e8bd 4008 	ldmia.w	sp!, {r3, lr}
 8003b1e:	f000 bb79 	b.w	8004214 <RCC_AHB1PeriphResetCmd>
 8003b22:	2020      	movs	r0, #32
 8003b24:	2101      	movs	r1, #1
 8003b26:	f000 fb75 	bl	8004214 <RCC_AHB1PeriphResetCmd>
 8003b2a:	2020      	movs	r0, #32
 8003b2c:	2100      	movs	r1, #0
 8003b2e:	e8bd 4008 	ldmia.w	sp!, {r3, lr}
 8003b32:	f000 bb6f 	b.w	8004214 <RCC_AHB1PeriphResetCmd>
 8003b36:	2040      	movs	r0, #64	; 0x40
 8003b38:	2101      	movs	r1, #1
 8003b3a:	f000 fb6b 	bl	8004214 <RCC_AHB1PeriphResetCmd>
 8003b3e:	2040      	movs	r0, #64	; 0x40
 8003b40:	2100      	movs	r1, #0
 8003b42:	e8bd 4008 	ldmia.w	sp!, {r3, lr}
 8003b46:	f000 bb65 	b.w	8004214 <RCC_AHB1PeriphResetCmd>
 8003b4a:	2080      	movs	r0, #128	; 0x80
 8003b4c:	2101      	movs	r1, #1
 8003b4e:	f000 fb61 	bl	8004214 <RCC_AHB1PeriphResetCmd>
 8003b52:	2080      	movs	r0, #128	; 0x80
 8003b54:	2100      	movs	r1, #0
 8003b56:	e8bd 4008 	ldmia.w	sp!, {r3, lr}
 8003b5a:	f000 bb5b 	b.w	8004214 <RCC_AHB1PeriphResetCmd>
 8003b5e:	bf00      	nop

08003b60 <GPIO_Init>:
 8003b60:	2300      	movs	r3, #0
 8003b62:	e92d 07f0 	stmdb	sp!, {r4, r5, r6, r7, r8, r9, sl}
 8003b66:	680a      	ldr	r2, [r1, #0]
 8003b68:	461c      	mov	r4, r3
 8003b6a:	2601      	movs	r6, #1
 8003b6c:	f04f 0c03 	mov.w	ip, #3
 8003b70:	e00b      	b.n	8003b8a <GPIO_Init+0x2a>
 8003b72:	3401      	adds	r4, #1
 8003b74:	fa06 f504 	lsl.w	r5, r6, r4
 8003b78:	ea05 0702 	and.w	r7, r5, r2
 8003b7c:	3302      	adds	r3, #2
 8003b7e:	42af      	cmp	r7, r5
 8003b80:	d035      	beq.n	8003bee <GPIO_Init+0x8e>
 8003b82:	3401      	adds	r4, #1
 8003b84:	3302      	adds	r3, #2
 8003b86:	2c10      	cmp	r4, #16
 8003b88:	d059      	beq.n	8003c3e <GPIO_Init+0xde>
 8003b8a:	fa06 f504 	lsl.w	r5, r6, r4
 8003b8e:	ea05 0702 	and.w	r7, r5, r2
 8003b92:	42af      	cmp	r7, r5
 8003b94:	d1ed      	bne.n	8003b72 <GPIO_Init+0x12>
 8003b96:	f8d0 9000 	ldr.w	r9, [r0]
 8003b9a:	f891 8004 	ldrb.w	r8, [r1, #4]
 8003b9e:	fa0c f503 	lsl.w	r5, ip, r3
 8003ba2:	43ed      	mvns	r5, r5
 8003ba4:	ea05 0a09 	and.w	sl, r5, r9
 8003ba8:	f8c0 a000 	str.w	sl, [r0]
 8003bac:	f8d0 9000 	ldr.w	r9, [r0]
 8003bb0:	fa08 fa03 	lsl.w	sl, r8, r3
 8003bb4:	f108 38ff 	add.w	r8, r8, #4294967295
 8003bb8:	fa5f f888 	uxtb.w	r8, r8
 8003bbc:	ea4a 0909 	orr.w	r9, sl, r9
 8003bc0:	f1b8 0f01 	cmp.w	r8, #1
 8003bc4:	f8c0 9000 	str.w	r9, [r0]
 8003bc8:	d93c      	bls.n	8003c44 <GPIO_Init+0xe4>
 8003bca:	68c7      	ldr	r7, [r0, #12]
 8003bcc:	f891 8007 	ldrb.w	r8, [r1, #7]
 8003bd0:	403d      	ands	r5, r7
 8003bd2:	60c5      	str	r5, [r0, #12]
 8003bd4:	68c7      	ldr	r7, [r0, #12]
 8003bd6:	fa08 f503 	lsl.w	r5, r8, r3
 8003bda:	433d      	orrs	r5, r7
 8003bdc:	3401      	adds	r4, #1
 8003bde:	60c5      	str	r5, [r0, #12]
 8003be0:	fa06 f504 	lsl.w	r5, r6, r4
 8003be4:	ea05 0702 	and.w	r7, r5, r2
 8003be8:	3302      	adds	r3, #2
 8003bea:	42af      	cmp	r7, r5
 8003bec:	d1c9      	bne.n	8003b82 <GPIO_Init+0x22>
 8003bee:	f8d0 9000 	ldr.w	r9, [r0]
 8003bf2:	f891 8004 	ldrb.w	r8, [r1, #4]
 8003bf6:	fa0c f503 	lsl.w	r5, ip, r3
 8003bfa:	43ed      	mvns	r5, r5
 8003bfc:	ea05 0a09 	and.w	sl, r5, r9
 8003c00:	f8c0 a000 	str.w	sl, [r0]
 8003c04:	f8d0 9000 	ldr.w	r9, [r0]
 8003c08:	fa08 fa03 	lsl.w	sl, r8, r3
 8003c0c:	f108 38ff 	add.w	r8, r8, #4294967295
 8003c10:	fa5f f888 	uxtb.w	r8, r8
 8003c14:	ea4a 0909 	orr.w	r9, sl, r9
 8003c18:	f1b8 0f01 	cmp.w	r8, #1
 8003c1c:	f8c0 9000 	str.w	r9, [r0]
 8003c20:	d930      	bls.n	8003c84 <GPIO_Init+0x124>
 8003c22:	68c7      	ldr	r7, [r0, #12]
 8003c24:	f891 8007 	ldrb.w	r8, [r1, #7]
 8003c28:	402f      	ands	r7, r5
 8003c2a:	60c7      	str	r7, [r0, #12]
 8003c2c:	68c7      	ldr	r7, [r0, #12]
 8003c2e:	fa08 f503 	lsl.w	r5, r8, r3
 8003c32:	3401      	adds	r4, #1
 8003c34:	433d      	orrs	r5, r7
 8003c36:	3302      	adds	r3, #2
 8003c38:	2c10      	cmp	r4, #16
 8003c3a:	60c5      	str	r5, [r0, #12]
 8003c3c:	d1a5      	bne.n	8003b8a <GPIO_Init+0x2a>
 8003c3e:	e8bd 07f0 	ldmia.w	sp!, {r4, r5, r6, r7, r8, r9, sl}
 8003c42:	4770      	bx	lr
 8003c44:	f8d0 a008 	ldr.w	sl, [r0, #8]
 8003c48:	f891 9005 	ldrb.w	r9, [r1, #5]
 8003c4c:	f891 8006 	ldrb.w	r8, [r1, #6]
 8003c50:	ea05 0a0a 	and.w	sl, r5, sl
 8003c54:	f8c0 a008 	str.w	sl, [r0, #8]
 8003c58:	f8d0 a008 	ldr.w	sl, [r0, #8]
 8003c5c:	fa09 f903 	lsl.w	r9, r9, r3
 8003c60:	ea49 090a 	orr.w	r9, r9, sl
 8003c64:	f8c0 9008 	str.w	r9, [r0, #8]
 8003c68:	f8d0 9004 	ldr.w	r9, [r0, #4]
 8003c6c:	ea29 0707 	bic.w	r7, r9, r7
 8003c70:	6047      	str	r7, [r0, #4]
 8003c72:	6847      	ldr	r7, [r0, #4]
 8003c74:	fa08 f804 	lsl.w	r8, r8, r4
 8003c78:	fa1f f888 	uxth.w	r8, r8
 8003c7c:	ea48 0707 	orr.w	r7, r8, r7
 8003c80:	6047      	str	r7, [r0, #4]
 8003c82:	e7a2      	b.n	8003bca <GPIO_Init+0x6a>
 8003c84:	f8d0 a008 	ldr.w	sl, [r0, #8]
 8003c88:	f891 9005 	ldrb.w	r9, [r1, #5]
 8003c8c:	f891 8006 	ldrb.w	r8, [r1, #6]
 8003c90:	ea05 0a0a 	and.w	sl, r5, sl
 8003c94:	f8c0 a008 	str.w	sl, [r0, #8]
 8003c98:	f8d0 a008 	ldr.w	sl, [r0, #8]
 8003c9c:	fa09 f903 	lsl.w	r9, r9, r3
 8003ca0:	ea49 090a 	orr.w	r9, r9, sl
 8003ca4:	f8c0 9008 	str.w	r9, [r0, #8]
 8003ca8:	f8d0 9004 	ldr.w	r9, [r0, #4]
 8003cac:	ea29 0707 	bic.w	r7, r9, r7
 8003cb0:	6047      	str	r7, [r0, #4]
 8003cb2:	6847      	ldr	r7, [r0, #4]
 8003cb4:	fa08 f804 	lsl.w	r8, r8, r4
 8003cb8:	fa1f f888 	uxth.w	r8, r8
 8003cbc:	ea48 0707 	orr.w	r7, r8, r7
 8003cc0:	6047      	str	r7, [r0, #4]
 8003cc2:	e7ae      	b.n	8003c22 <GPIO_Init+0xc2>

08003cc4 <GPIO_StructInit>:
 8003cc4:	2300      	movs	r3, #0
 8003cc6:	f64f 72ff 	movw	r2, #65535	; 0xffff
 8003cca:	6002      	str	r2, [r0, #0]
 8003ccc:	7103      	strb	r3, [r0, #4]
 8003cce:	7143      	strb	r3, [r0, #5]
 8003cd0:	7183      	strb	r3, [r0, #6]
 8003cd2:	71c3      	strb	r3, [r0, #7]
 8003cd4:	4770      	bx	lr
 8003cd6:	bf00      	nop

08003cd8 <GPIO_PinLockConfig>:
 8003cd8:	b082      	sub	sp, #8
 8003cda:	f44f 3280 	mov.w	r2, #65536	; 0x10000
 8003cde:	9201      	str	r2, [sp, #4]
 8003ce0:	9b01      	ldr	r3, [sp, #4]
 8003ce2:	ea41 0203 	orr.w	r2, r1, r3
 8003ce6:	9201      	str	r2, [sp, #4]
 8003ce8:	9b01      	ldr	r3, [sp, #4]
 8003cea:	61c3      	str	r3, [r0, #28]
 8003cec:	61c1      	str	r1, [r0, #28]
 8003cee:	9a01      	ldr	r2, [sp, #4]
 8003cf0:	61c2      	str	r2, [r0, #28]
 8003cf2:	69c1      	ldr	r1, [r0, #28]
 8003cf4:	9101      	str	r1, [sp, #4]
 8003cf6:	69c3      	ldr	r3, [r0, #28]
 8003cf8:	9301      	str	r3, [sp, #4]
 8003cfa:	b002      	add	sp, #8
 8003cfc:	4770      	bx	lr
 8003cfe:	bf00      	nop

08003d00 <GPIO_ReadInputDataBit>:
 8003d00:	6903      	ldr	r3, [r0, #16]
 8003d02:	4219      	tst	r1, r3
 8003d04:	bf0c      	ite	eq
 8003d06:	2000      	moveq	r0, #0
 8003d08:	2001      	movne	r0, #1
 8003d0a:	4770      	bx	lr

08003d0c <GPIO_ReadInputData>:
 8003d0c:	6900      	ldr	r0, [r0, #16]
 8003d0e:	b280      	uxth	r0, r0
 8003d10:	4770      	bx	lr
 8003d12:	bf00      	nop

08003d14 <GPIO_ReadOutputDataBit>:
 8003d14:	6943      	ldr	r3, [r0, #20]
 8003d16:	4219      	tst	r1, r3
 8003d18:	bf0c      	ite	eq
 8003d1a:	2000      	moveq	r0, #0
 8003d1c:	2001      	movne	r0, #1
 8003d1e:	4770      	bx	lr

08003d20 <GPIO_ReadOutputData>:
 8003d20:	6940      	ldr	r0, [r0, #20]
 8003d22:	b280      	uxth	r0, r0
 8003d24:	4770      	bx	lr
 8003d26:	bf00      	nop

08003d28 <GPIO_SetBits>:
 8003d28:	8301      	strh	r1, [r0, #24]
 8003d2a:	4770      	bx	lr

08003d2c <GPIO_ResetBits>:
 8003d2c:	8341      	strh	r1, [r0, #26]
 8003d2e:	4770      	bx	lr

08003d30 <GPIO_WriteBit>:
 8003d30:	b90a      	cbnz	r2, 8003d36 <GPIO_WriteBit+0x6>
 8003d32:	8341      	strh	r1, [r0, #26]
 8003d34:	4770      	bx	lr
 8003d36:	8301      	strh	r1, [r0, #24]
 8003d38:	4770      	bx	lr
 8003d3a:	bf00      	nop

08003d3c <GPIO_Write>:
 8003d3c:	6141      	str	r1, [r0, #20]
 8003d3e:	4770      	bx	lr

08003d40 <GPIO_ToggleBits>:
 8003d40:	6942      	ldr	r2, [r0, #20]
 8003d42:	ea81 0302 	eor.w	r3, r1, r2
 8003d46:	6143      	str	r3, [r0, #20]
 8003d48:	4770      	bx	lr
 8003d4a:	bf00      	nop

08003d4c <GPIO_PinAFConfig>:
 8003d4c:	08cb      	lsrs	r3, r1, #3
 8003d4e:	3308      	adds	r3, #8
 8003d50:	f001 0107 	and.w	r1, r1, #7
 8003d54:	b430      	push	{r4, r5}
 8003d56:	0089      	lsls	r1, r1, #2
 8003d58:	f850 5023 	ldr.w	r5, [r0, r3, lsl #2]
 8003d5c:	240f      	movs	r4, #15
 8003d5e:	fa04 fc01 	lsl.w	ip, r4, r1
 8003d62:	ea25 040c 	bic.w	r4, r5, ip
 8003d66:	f840 4023 	str.w	r4, [r0, r3, lsl #2]
 8003d6a:	f850 4023 	ldr.w	r4, [r0, r3, lsl #2]
 8003d6e:	fa02 f101 	lsl.w	r1, r2, r1
 8003d72:	430c      	orrs	r4, r1
 8003d74:	f840 4023 	str.w	r4, [r0, r3, lsl #2]
 8003d78:	bc30      	pop	{r4, r5}
 8003d7a:	4770      	bx	lr

08003d7c <EXTI_DeInit>:
 8003d7c:	f44f 5370 	mov.w	r3, #15360	; 0x3c00
 8003d80:	f2c4 0301 	movt	r3, #16385	; 0x4001
 8003d84:	f64f 71ff 	movw	r1, #65535	; 0xffff
 8003d88:	2200      	movs	r2, #0
 8003d8a:	f2c0 017f 	movt	r1, #127	; 0x7f
 8003d8e:	601a      	str	r2, [r3, #0]
 8003d90:	605a      	str	r2, [r3, #4]
 8003d92:	609a      	str	r2, [r3, #8]
 8003d94:	60da      	str	r2, [r3, #12]
 8003d96:	6159      	str	r1, [r3, #20]
 8003d98:	4770      	bx	lr
 8003d9a:	bf00      	nop

08003d9c <EXTI_Init>:
 8003d9c:	7983      	ldrb	r3, [r0, #6]
 8003d9e:	b470      	push	{r4, r5, r6}
 8003da0:	b343      	cbz	r3, 8003df4 <EXTI_Init+0x58>
 8003da2:	f44f 5370 	mov.w	r3, #15360	; 0x3c00
 8003da6:	f2c4 0301 	movt	r3, #16385	; 0x4001
 8003daa:	6801      	ldr	r1, [r0, #0]
 8003dac:	681e      	ldr	r6, [r3, #0]
 8003dae:	7902      	ldrb	r2, [r0, #4]
 8003db0:	7945      	ldrb	r5, [r0, #5]
 8003db2:	43cc      	mvns	r4, r1
 8003db4:	4026      	ands	r6, r4
 8003db6:	601e      	str	r6, [r3, #0]
 8003db8:	685e      	ldr	r6, [r3, #4]
 8003dba:	f102 4c80 	add.w	ip, r2, #1073741824	; 0x40000000
 8003dbe:	f50c 329e 	add.w	r2, ip, #80896	; 0x13c00
 8003dc2:	4034      	ands	r4, r6
 8003dc4:	605c      	str	r4, [r3, #4]
 8003dc6:	6814      	ldr	r4, [r2, #0]
 8003dc8:	4321      	orrs	r1, r4
 8003dca:	6011      	str	r1, [r2, #0]
 8003dcc:	6802      	ldr	r2, [r0, #0]
 8003dce:	6898      	ldr	r0, [r3, #8]
 8003dd0:	43d1      	mvns	r1, r2
 8003dd2:	4008      	ands	r0, r1
 8003dd4:	6098      	str	r0, [r3, #8]
 8003dd6:	68d8      	ldr	r0, [r3, #12]
 8003dd8:	2d10      	cmp	r5, #16
 8003dda:	ea01 0100 	and.w	r1, r1, r0
 8003dde:	60d9      	str	r1, [r3, #12]
 8003de0:	d016      	beq.n	8003e10 <EXTI_Init+0x74>
 8003de2:	f105 4580 	add.w	r5, r5, #1073741824	; 0x40000000
 8003de6:	f505 359e 	add.w	r5, r5, #80896	; 0x13c00
 8003dea:	6828      	ldr	r0, [r5, #0]
 8003dec:	ea40 0302 	orr.w	r3, r0, r2
 8003df0:	602b      	str	r3, [r5, #0]
 8003df2:	e00b      	b.n	8003e0c <EXTI_Init+0x70>
 8003df4:	7902      	ldrb	r2, [r0, #4]
 8003df6:	6801      	ldr	r1, [r0, #0]
 8003df8:	f102 4080 	add.w	r0, r2, #1073741824	; 0x40000000
 8003dfc:	f500 3c9e 	add.w	ip, r0, #80896	; 0x13c00
 8003e00:	f8dc 3000 	ldr.w	r3, [ip]
 8003e04:	ea23 0201 	bic.w	r2, r3, r1
 8003e08:	f8cc 2000 	str.w	r2, [ip]
 8003e0c:	bc70      	pop	{r4, r5, r6}
 8003e0e:	4770      	bx	lr
 8003e10:	6899      	ldr	r1, [r3, #8]
 8003e12:	ea41 0002 	orr.w	r0, r1, r2
 8003e16:	6098      	str	r0, [r3, #8]
 8003e18:	68d9      	ldr	r1, [r3, #12]
 8003e1a:	ea41 0002 	orr.w	r0, r1, r2
 8003e1e:	60d8      	str	r0, [r3, #12]
 8003e20:	e7f4      	b.n	8003e0c <EXTI_Init+0x70>
 8003e22:	bf00      	nop

08003e24 <EXTI_StructInit>:
 8003e24:	2300      	movs	r3, #0
 8003e26:	220c      	movs	r2, #12
 8003e28:	6003      	str	r3, [r0, #0]
 8003e2a:	7103      	strb	r3, [r0, #4]
 8003e2c:	7142      	strb	r2, [r0, #5]
 8003e2e:	7183      	strb	r3, [r0, #6]
 8003e30:	4770      	bx	lr
 8003e32:	bf00      	nop

08003e34 <EXTI_GenerateSWInterrupt>:
 8003e34:	f44f 5370 	mov.w	r3, #15360	; 0x3c00
 8003e38:	f2c4 0301 	movt	r3, #16385	; 0x4001
 8003e3c:	6919      	ldr	r1, [r3, #16]
 8003e3e:	ea40 0201 	orr.w	r2, r0, r1
 8003e42:	611a      	str	r2, [r3, #16]
 8003e44:	4770      	bx	lr
 8003e46:	bf00      	nop

08003e48 <EXTI_GetFlagStatus>:
 8003e48:	f44f 5170 	mov.w	r1, #15360	; 0x3c00
 8003e4c:	f2c4 0101 	movt	r1, #16385	; 0x4001
 8003e50:	694b      	ldr	r3, [r1, #20]
 8003e52:	4218      	tst	r0, r3
 8003e54:	bf0c      	ite	eq
 8003e56:	2000      	moveq	r0, #0
 8003e58:	2001      	movne	r0, #1
 8003e5a:	4770      	bx	lr

08003e5c <EXTI_ClearFlag>:
 8003e5c:	f44f 5370 	mov.w	r3, #15360	; 0x3c00
 8003e60:	f2c4 0301 	movt	r3, #16385	; 0x4001
 8003e64:	6158      	str	r0, [r3, #20]
 8003e66:	4770      	bx	lr

08003e68 <EXTI_GetITStatus>:
 8003e68:	f44f 5170 	mov.w	r1, #15360	; 0x3c00
 8003e6c:	f2c4 0101 	movt	r1, #16385	; 0x4001
 8003e70:	680a      	ldr	r2, [r1, #0]
 8003e72:	694b      	ldr	r3, [r1, #20]
 8003e74:	4003      	ands	r3, r0
 8003e76:	d004      	beq.n	8003e82 <EXTI_GetITStatus+0x1a>
 8003e78:	4210      	tst	r0, r2
 8003e7a:	bf0c      	ite	eq
 8003e7c:	2000      	moveq	r0, #0
 8003e7e:	2001      	movne	r0, #1
 8003e80:	4770      	bx	lr
 8003e82:	4618      	mov	r0, r3
 8003e84:	4770      	bx	lr
 8003e86:	bf00      	nop

08003e88 <EXTI_ClearITPendingBit>:
 8003e88:	f44f 5370 	mov.w	r3, #15360	; 0x3c00
 8003e8c:	f2c4 0301 	movt	r3, #16385	; 0x4001
 8003e90:	6158      	str	r0, [r3, #20]
 8003e92:	4770      	bx	lr

08003e94 <RCC_DeInit>:
 8003e94:	f44f 5360 	mov.w	r3, #14336	; 0x3800
 8003e98:	f2c4 0302 	movt	r3, #16386	; 0x4002
 8003e9c:	2200      	movs	r2, #0
 8003e9e:	6818      	ldr	r0, [r3, #0]
 8003ea0:	f040 0101 	orr.w	r1, r0, #1
 8003ea4:	6019      	str	r1, [r3, #0]
 8003ea6:	609a      	str	r2, [r3, #8]
 8003ea8:	6818      	ldr	r0, [r3, #0]
 8003eaa:	f243 0110 	movw	r1, #12304	; 0x3010
 8003eae:	f020 7c84 	bic.w	ip, r0, #17301504	; 0x1080000
 8003eb2:	f42c 3080 	bic.w	r0, ip, #65536	; 0x10000
 8003eb6:	f2c2 4100 	movt	r1, #9216	; 0x2400
 8003eba:	6018      	str	r0, [r3, #0]
 8003ebc:	6059      	str	r1, [r3, #4]
 8003ebe:	6818      	ldr	r0, [r3, #0]
 8003ec0:	f420 2180 	bic.w	r1, r0, #262144	; 0x40000
 8003ec4:	6019      	str	r1, [r3, #0]
 8003ec6:	60da      	str	r2, [r3, #12]
 8003ec8:	4770      	bx	lr
 8003eca:	bf00      	nop

08003ecc <RCC_HSEConfig>:
 8003ecc:	f643 0302 	movw	r3, #14338	; 0x3802
 8003ed0:	f2c4 0302 	movt	r3, #16386	; 0x4002
 8003ed4:	2200      	movs	r2, #0
 8003ed6:	701a      	strb	r2, [r3, #0]
 8003ed8:	7018      	strb	r0, [r3, #0]
 8003eda:	4770      	bx	lr

08003edc <RCC_WaitForHSEStartUp>:
 8003edc:	b082      	sub	sp, #8
 8003ede:	f44f 5160 	mov.w	r1, #14336	; 0x3800
 8003ee2:	2300      	movs	r3, #0
 8003ee4:	9301      	str	r3, [sp, #4]
 8003ee6:	f2c4 0102 	movt	r1, #16386	; 0x4002
 8003eea:	680a      	ldr	r2, [r1, #0]
 8003eec:	9801      	ldr	r0, [sp, #4]
 8003eee:	1c43      	adds	r3, r0, #1
 8003ef0:	9301      	str	r3, [sp, #4]
 8003ef2:	9801      	ldr	r0, [sp, #4]
 8003ef4:	f5b0 4fa0 	cmp.w	r0, #20480	; 0x5000
 8003ef8:	d001      	beq.n	8003efe <RCC_WaitForHSEStartUp+0x22>
 8003efa:	0393      	lsls	r3, r2, #14
 8003efc:	d5f5      	bpl.n	8003eea <RCC_WaitForHSEStartUp+0xe>
 8003efe:	f44f 5260 	mov.w	r2, #14336	; 0x3800
 8003f02:	f2c4 0202 	movt	r2, #16386	; 0x4002
 8003f06:	6811      	ldr	r1, [r2, #0]
 8003f08:	f3c1 4040 	ubfx	r0, r1, #17, #1
 8003f0c:	b002      	add	sp, #8
 8003f0e:	4770      	bx	lr

08003f10 <RCC_AdjustHSICalibrationValue>:
 8003f10:	f44f 5360 	mov.w	r3, #14336	; 0x3800
 8003f14:	f2c4 0302 	movt	r3, #16386	; 0x4002
 8003f18:	681a      	ldr	r2, [r3, #0]
 8003f1a:	f022 01f8 	bic.w	r1, r2, #248	; 0xf8
 8003f1e:	ea41 02c0 	orr.w	r2, r1, r0, lsl #3
 8003f22:	601a      	str	r2, [r3, #0]
 8003f24:	4770      	bx	lr
 8003f26:	bf00      	nop

08003f28 <RCC_HSICmd>:
 8003f28:	2300      	movs	r3, #0
 8003f2a:	f2c4 2347 	movt	r3, #16967	; 0x4247
 8003f2e:	6018      	str	r0, [r3, #0]
 8003f30:	4770      	bx	lr
 8003f32:	bf00      	nop

08003f34 <RCC_LSEConfig>:
 8003f34:	f643 0370 	movw	r3, #14448	; 0x3870
 8003f38:	f2c4 0302 	movt	r3, #16386	; 0x4002
 8003f3c:	2200      	movs	r2, #0
 8003f3e:	2801      	cmp	r0, #1
 8003f40:	701a      	strb	r2, [r3, #0]
 8003f42:	701a      	strb	r2, [r3, #0]
 8003f44:	d004      	beq.n	8003f50 <RCC_LSEConfig+0x1c>
 8003f46:	2804      	cmp	r0, #4
 8003f48:	d101      	bne.n	8003f4e <RCC_LSEConfig+0x1a>
 8003f4a:	2005      	movs	r0, #5
 8003f4c:	7018      	strb	r0, [r3, #0]
 8003f4e:	4770      	bx	lr
 8003f50:	7018      	strb	r0, [r3, #0]
 8003f52:	4770      	bx	lr

08003f54 <RCC_LSICmd>:
 8003f54:	f44f 6368 	mov.w	r3, #3712	; 0xe80
 8003f58:	f2c4 2347 	movt	r3, #16967	; 0x4247
 8003f5c:	6018      	str	r0, [r3, #0]
 8003f5e:	4770      	bx	lr

08003f60 <RCC_PLLConfig>:
 8003f60:	4308      	orrs	r0, r1
 8003f62:	ea40 1c82 	orr.w	ip, r0, r2, lsl #6
 8003f66:	9a00      	ldr	r2, [sp, #0]
 8003f68:	085b      	lsrs	r3, r3, #1
 8003f6a:	f44f 5060 	mov.w	r0, #14336	; 0x3800
 8003f6e:	ea4c 6102 	orr.w	r1, ip, r2, lsl #24
 8003f72:	3b01      	subs	r3, #1
 8003f74:	f2c4 0002 	movt	r0, #16386	; 0x4002
 8003f78:	ea41 4203 	orr.w	r2, r1, r3, lsl #16
 8003f7c:	6042      	str	r2, [r0, #4]
 8003f7e:	4770      	bx	lr

08003f80 <RCC_PLLCmd>:
 8003f80:	2360      	movs	r3, #96	; 0x60
 8003f82:	f2c4 2347 	movt	r3, #16967	; 0x4247
 8003f86:	6018      	str	r0, [r3, #0]
 8003f88:	4770      	bx	lr
 8003f8a:	bf00      	nop

08003f8c <RCC_PLLI2SConfig>:
 8003f8c:	f44f 5360 	mov.w	r3, #14336	; 0x3800
 8003f90:	0180      	lsls	r0, r0, #6
 8003f92:	f2c4 0302 	movt	r3, #16386	; 0x4002
 8003f96:	ea40 7101 	orr.w	r1, r0, r1, lsl #28
 8003f9a:	f8c3 1084 	str.w	r1, [r3, #132]	; 0x84
 8003f9e:	4770      	bx	lr

08003fa0 <RCC_PLLI2SCmd>:
 8003fa0:	2368      	movs	r3, #104	; 0x68
 8003fa2:	f2c4 2347 	movt	r3, #16967	; 0x4247
 8003fa6:	6018      	str	r0, [r3, #0]
 8003fa8:	4770      	bx	lr
 8003faa:	bf00      	nop

08003fac <RCC_ClockSecuritySystemCmd>:
 8003fac:	234c      	movs	r3, #76	; 0x4c
 8003fae:	f2c4 2347 	movt	r3, #16967	; 0x4247
 8003fb2:	6018      	str	r0, [r3, #0]
 8003fb4:	4770      	bx	lr
 8003fb6:	bf00      	nop

08003fb8 <RCC_MCO1Config>:
 8003fb8:	f44f 5360 	mov.w	r3, #14336	; 0x3800
 8003fbc:	f2c4 0302 	movt	r3, #16386	; 0x4002
 8003fc0:	689a      	ldr	r2, [r3, #8]
 8003fc2:	f022 6cec 	bic.w	ip, r2, #123731968	; 0x7600000
 8003fc6:	ea40 000c 	orr.w	r0, r0, ip
 8003fca:	ea40 0201 	orr.w	r2, r0, r1
 8003fce:	609a      	str	r2, [r3, #8]
 8003fd0:	4770      	bx	lr
 8003fd2:	bf00      	nop

08003fd4 <RCC_MCO2Config>:
 8003fd4:	f44f 5360 	mov.w	r3, #14336	; 0x3800
 8003fd8:	f2c4 0302 	movt	r3, #16386	; 0x4002
 8003fdc:	689a      	ldr	r2, [r3, #8]
 8003fde:	f022 4c78 	bic.w	ip, r2, #4160749568	; 0xf8000000
 8003fe2:	ea40 000c 	orr.w	r0, r0, ip
 8003fe6:	ea40 0201 	orr.w	r2, r0, r1
 8003fea:	609a      	str	r2, [r3, #8]
 8003fec:	4770      	bx	lr
 8003fee:	bf00      	nop

08003ff0 <RCC_SYSCLKConfig>:
 8003ff0:	f44f 5360 	mov.w	r3, #14336	; 0x3800
 8003ff4:	f2c4 0302 	movt	r3, #16386	; 0x4002
 8003ff8:	689a      	ldr	r2, [r3, #8]
 8003ffa:	f022 0103 	bic.w	r1, r2, #3
 8003ffe:	ea40 0201 	orr.w	r2, r0, r1
 8004002:	609a      	str	r2, [r3, #8]
 8004004:	4770      	bx	lr
 8004006:	bf00      	nop

08004008 <RCC_GetSYSCLKSource>:
 8004008:	f44f 5360 	mov.w	r3, #14336	; 0x3800
 800400c:	f2c4 0302 	movt	r3, #16386	; 0x4002
 8004010:	6898      	ldr	r0, [r3, #8]
 8004012:	f000 000c 	and.w	r0, r0, #12
 8004016:	4770      	bx	lr

08004018 <RCC_HCLKConfig>:
 8004018:	f44f 5360 	mov.w	r3, #14336	; 0x3800
 800401c:	f2c4 0302 	movt	r3, #16386	; 0x4002
 8004020:	689a      	ldr	r2, [r3, #8]
 8004022:	f022 01f0 	bic.w	r1, r2, #240	; 0xf0
 8004026:	ea40 0201 	orr.w	r2, r0, r1
 800402a:	609a      	str	r2, [r3, #8]
 800402c:	4770      	bx	lr
 800402e:	bf00      	nop

08004030 <RCC_PCLK1Config>:
 8004030:	f44f 5360 	mov.w	r3, #14336	; 0x3800
 8004034:	f2c4 0302 	movt	r3, #16386	; 0x4002
 8004038:	689a      	ldr	r2, [r3, #8]
 800403a:	f422 51e0 	bic.w	r1, r2, #7168	; 0x1c00
 800403e:	ea40 0201 	orr.w	r2, r0, r1
 8004042:	609a      	str	r2, [r3, #8]
 8004044:	4770      	bx	lr
 8004046:	bf00      	nop

08004048 <RCC_PCLK2Config>:
 8004048:	f44f 5360 	mov.w	r3, #14336	; 0x3800
 800404c:	f2c4 0302 	movt	r3, #16386	; 0x4002
 8004050:	689a      	ldr	r2, [r3, #8]
 8004052:	f422 4160 	bic.w	r1, r2, #57344	; 0xe000
 8004056:	ea41 02c0 	orr.w	r2, r1, r0, lsl #3
 800405a:	609a      	str	r2, [r3, #8]
 800405c:	4770      	bx	lr
 800405e:	bf00      	nop

08004060 <RCC_GetClocksFreq>:
 8004060:	f44f 5360 	mov.w	r3, #14336	; 0x3800
 8004064:	f2c4 0302 	movt	r3, #16386	; 0x4002
 8004068:	b410      	push	{r4}
 800406a:	689a      	ldr	r2, [r3, #8]
 800406c:	f002 020c 	and.w	r2, r2, #12
 8004070:	2a04      	cmp	r2, #4
 8004072:	bf02      	ittt	eq
 8004074:	f44f 51d8 	moveq.w	r1, #6912	; 0x1b00
 8004078:	f2c0 01b7 	movteq	r1, #183	; 0xb7
 800407c:	6001      	streq	r1, [r0, #0]
 800407e:	d007      	beq.n	8004090 <RCC_GetClocksFreq+0x30>
 8004080:	2a08      	cmp	r2, #8
 8004082:	bf1e      	ittt	ne
 8004084:	f44f 5110 	movne.w	r1, #9216	; 0x2400
 8004088:	f2c0 01f4 	movtne	r1, #244	; 0xf4
 800408c:	6001      	strne	r1, [r0, #0]
 800408e:	d021      	beq.n	80040d4 <RCC_GetClocksFreq+0x74>
 8004090:	f44f 5360 	mov.w	r3, #14336	; 0x3800
 8004094:	f2c4 0302 	movt	r3, #16386	; 0x4002
 8004098:	f240 0ca0 	movw	ip, #160	; 0xa0
 800409c:	689a      	ldr	r2, [r3, #8]
 800409e:	f2c2 0c00 	movt	ip, #8192	; 0x2000
 80040a2:	f3c2 1403 	ubfx	r4, r2, #4, #4
 80040a6:	f81c 2004 	ldrb.w	r2, [ip, r4]
 80040aa:	fa21 f102 	lsr.w	r1, r1, r2
 80040ae:	6041      	str	r1, [r0, #4]
 80040b0:	689c      	ldr	r4, [r3, #8]
 80040b2:	f3c4 2282 	ubfx	r2, r4, #10, #3
 80040b6:	f81c 4002 	ldrb.w	r4, [ip, r2]
 80040ba:	fa21 f404 	lsr.w	r4, r1, r4
 80040be:	6084      	str	r4, [r0, #8]
 80040c0:	689a      	ldr	r2, [r3, #8]
 80040c2:	f3c2 3342 	ubfx	r3, r2, #13, #3
 80040c6:	f81c 2003 	ldrb.w	r2, [ip, r3]
 80040ca:	fa21 f302 	lsr.w	r3, r1, r2
 80040ce:	60c3      	str	r3, [r0, #12]
 80040d0:	bc10      	pop	{r4}
 80040d2:	4770      	bx	lr
 80040d4:	685c      	ldr	r4, [r3, #4]
 80040d6:	685a      	ldr	r2, [r3, #4]
 80040d8:	6859      	ldr	r1, [r3, #4]
 80040da:	f414 0f80 	tst.w	r4, #4194304	; 0x400000
 80040de:	f44f 5c60 	mov.w	ip, #14336	; 0x3800
 80040e2:	bf14      	ite	ne
 80040e4:	f44f 53d8 	movne.w	r3, #6912	; 0x1b00
 80040e8:	f44f 5310 	moveq.w	r3, #9216	; 0x2400
 80040ec:	f2c4 0c02 	movt	ip, #16386	; 0x4002
 80040f0:	bf14      	ite	ne
 80040f2:	f2c0 03b7 	movtne	r3, #183	; 0xb7
 80040f6:	f2c0 03f4 	movteq	r3, #244	; 0xf4
 80040fa:	f002 023f 	and.w	r2, r2, #63	; 0x3f
 80040fe:	f3c1 1488 	ubfx	r4, r1, #6, #9
 8004102:	fbb3 f1f2 	udiv	r1, r3, r2
 8004106:	f8dc 3004 	ldr.w	r3, [ip, #4]
 800410a:	f3c3 4201 	ubfx	r2, r3, #16, #2
 800410e:	fb01 f104 	mul.w	r1, r1, r4
 8004112:	1c54      	adds	r4, r2, #1
 8004114:	0063      	lsls	r3, r4, #1
 8004116:	fbb1 f1f3 	udiv	r1, r1, r3
 800411a:	6001      	str	r1, [r0, #0]
 800411c:	e7b8      	b.n	8004090 <RCC_GetClocksFreq+0x30>
 800411e:	bf00      	nop

08004120 <RCC_RTCCLKConfig>:
 8004120:	f400 7340 	and.w	r3, r0, #768	; 0x300
 8004124:	f5b3 7f40 	cmp.w	r3, #768	; 0x300
 8004128:	d10f      	bne.n	800414a <RCC_RTCCLKConfig+0x2a>
 800412a:	f44f 5c60 	mov.w	ip, #14336	; 0x3800
 800412e:	f2c4 0c02 	movt	ip, #16386	; 0x4002
 8004132:	f020 4370 	bic.w	r3, r0, #4026531840	; 0xf0000000
 8004136:	f8dc 2008 	ldr.w	r2, [ip, #8]
 800413a:	f423 7140 	bic.w	r1, r3, #768	; 0x300
 800413e:	f422 13f8 	bic.w	r3, r2, #2031616	; 0x1f0000
 8004142:	ea41 0203 	orr.w	r2, r1, r3
 8004146:	f8cc 2008 	str.w	r2, [ip, #8]
 800414a:	f44f 5c60 	mov.w	ip, #14336	; 0x3800
 800414e:	f2c4 0c02 	movt	ip, #16386	; 0x4002
 8004152:	0503      	lsls	r3, r0, #20
 8004154:	f8dc 2070 	ldr.w	r2, [ip, #112]	; 0x70
 8004158:	0d19      	lsrs	r1, r3, #20
 800415a:	ea41 0002 	orr.w	r0, r1, r2
 800415e:	f8cc 0070 	str.w	r0, [ip, #112]	; 0x70
 8004162:	4770      	bx	lr

08004164 <RCC_RTCCLKCmd>:
 8004164:	f640 633c 	movw	r3, #3644	; 0xe3c
 8004168:	f2c4 2347 	movt	r3, #16967	; 0x4247
 800416c:	6018      	str	r0, [r3, #0]
 800416e:	4770      	bx	lr

08004170 <RCC_BackupResetCmd>:
 8004170:	f44f 6364 	mov.w	r3, #3648	; 0xe40
 8004174:	f2c4 2347 	movt	r3, #16967	; 0x4247
 8004178:	6018      	str	r0, [r3, #0]
 800417a:	4770      	bx	lr

0800417c <RCC_I2SCLKConfig>:
 800417c:	f44f 73ae 	mov.w	r3, #348	; 0x15c
 8004180:	f2c4 2347 	movt	r3, #16967	; 0x4247
 8004184:	6018      	str	r0, [r3, #0]
 8004186:	4770      	bx	lr

08004188 <RCC_AHB1PeriphClockCmd>:
 8004188:	f44f 5360 	mov.w	r3, #14336	; 0x3800
 800418c:	f2c4 0302 	movt	r3, #16386	; 0x4002
 8004190:	6b1a      	ldr	r2, [r3, #48]	; 0x30
 8004192:	b919      	cbnz	r1, 800419c <RCC_AHB1PeriphClockCmd+0x14>
 8004194:	ea22 0100 	bic.w	r1, r2, r0
 8004198:	6319      	str	r1, [r3, #48]	; 0x30
 800419a:	4770      	bx	lr
 800419c:	4310      	orrs	r0, r2
 800419e:	6318      	str	r0, [r3, #48]	; 0x30
 80041a0:	4770      	bx	lr
 80041a2:	bf00      	nop

080041a4 <RCC_AHB2PeriphClockCmd>:
 80041a4:	f44f 5360 	mov.w	r3, #14336	; 0x3800
 80041a8:	f2c4 0302 	movt	r3, #16386	; 0x4002
 80041ac:	6b5a      	ldr	r2, [r3, #52]	; 0x34
 80041ae:	b919      	cbnz	r1, 80041b8 <RCC_AHB2PeriphClockCmd+0x14>
 80041b0:	ea22 0100 	bic.w	r1, r2, r0
 80041b4:	6359      	str	r1, [r3, #52]	; 0x34
 80041b6:	4770      	bx	lr
 80041b8:	4310      	orrs	r0, r2
 80041ba:	6358      	str	r0, [r3, #52]	; 0x34
 80041bc:	4770      	bx	lr
 80041be:	bf00      	nop

080041c0 <RCC_AHB3PeriphClockCmd>:
 80041c0:	f44f 5360 	mov.w	r3, #14336	; 0x3800
 80041c4:	f2c4 0302 	movt	r3, #16386	; 0x4002
 80041c8:	6b9a      	ldr	r2, [r3, #56]	; 0x38
 80041ca:	b919      	cbnz	r1, 80041d4 <RCC_AHB3PeriphClockCmd+0x14>
 80041cc:	ea22 0100 	bic.w	r1, r2, r0
 80041d0:	6399      	str	r1, [r3, #56]	; 0x38
 80041d2:	4770      	bx	lr
 80041d4:	4310      	orrs	r0, r2
 80041d6:	6398      	str	r0, [r3, #56]	; 0x38
 80041d8:	4770      	bx	lr
 80041da:	bf00      	nop

080041dc <RCC_APB1PeriphClockCmd>:
 80041dc:	f44f 5360 	mov.w	r3, #14336	; 0x3800
 80041e0:	f2c4 0302 	movt	r3, #16386	; 0x4002
 80041e4:	6c1a      	ldr	r2, [r3, #64]	; 0x40
 80041e6:	b919      	cbnz	r1, 80041f0 <RCC_APB1PeriphClockCmd+0x14>
 80041e8:	ea22 0100 	bic.w	r1, r2, r0
 80041ec:	6419      	str	r1, [r3, #64]	; 0x40
 80041ee:	4770      	bx	lr
 80041f0:	4310      	orrs	r0, r2
 80041f2:	6418      	str	r0, [r3, #64]	; 0x40
 80041f4:	4770      	bx	lr
 80041f6:	bf00      	nop

080041f8 <RCC_APB2PeriphClockCmd>:
 80041f8:	f44f 5360 	mov.w	r3, #14336	; 0x3800
 80041fc:	f2c4 0302 	movt	r3, #16386	; 0x4002
 8004200:	6c5a      	ldr	r2, [r3, #68]	; 0x44
 8004202:	b919      	cbnz	r1, 800420c <RCC_APB2PeriphClockCmd+0x14>
 8004204:	ea22 0100 	bic.w	r1, r2, r0
 8004208:	6459      	str	r1, [r3, #68]	; 0x44
 800420a:	4770      	bx	lr
 800420c:	4310      	orrs	r0, r2
 800420e:	6458      	str	r0, [r3, #68]	; 0x44
 8004210:	4770      	bx	lr
 8004212:	bf00      	nop

08004214 <RCC_AHB1PeriphResetCmd>:
 8004214:	f44f 5360 	mov.w	r3, #14336	; 0x3800
 8004218:	f2c4 0302 	movt	r3, #16386	; 0x4002
 800421c:	691a      	ldr	r2, [r3, #16]
 800421e:	b919      	cbnz	r1, 8004228 <RCC_AHB1PeriphResetCmd+0x14>
 8004220:	ea22 0100 	bic.w	r1, r2, r0
 8004224:	6119      	str	r1, [r3, #16]
 8004226:	4770      	bx	lr
 8004228:	4310      	orrs	r0, r2
 800422a:	6118      	str	r0, [r3, #16]
 800422c:	4770      	bx	lr
 800422e:	bf00      	nop

08004230 <RCC_AHB2PeriphResetCmd>:
 8004230:	f44f 5360 	mov.w	r3, #14336	; 0x3800
 8004234:	f2c4 0302 	movt	r3, #16386	; 0x4002
 8004238:	695a      	ldr	r2, [r3, #20]
 800423a:	b919      	cbnz	r1, 8004244 <RCC_AHB2PeriphResetCmd+0x14>
 800423c:	ea22 0100 	bic.w	r1, r2, r0
 8004240:	6159      	str	r1, [r3, #20]
 8004242:	4770      	bx	lr
 8004244:	4310      	orrs	r0, r2
 8004246:	6158      	str	r0, [r3, #20]
 8004248:	4770      	bx	lr
 800424a:	bf00      	nop

0800424c <RCC_AHB3PeriphResetCmd>:
 800424c:	f44f 5360 	mov.w	r3, #14336	; 0x3800
 8004250:	f2c4 0302 	movt	r3, #16386	; 0x4002
 8004254:	699a      	ldr	r2, [r3, #24]
 8004256:	b919      	cbnz	r1, 8004260 <RCC_AHB3PeriphResetCmd+0x14>
 8004258:	ea22 0100 	bic.w	r1, r2, r0
 800425c:	6199      	str	r1, [r3, #24]
 800425e:	4770      	bx	lr
 8004260:	4310      	orrs	r0, r2
 8004262:	6198      	str	r0, [r3, #24]
 8004264:	4770      	bx	lr
 8004266:	bf00      	nop

08004268 <RCC_APB1PeriphResetCmd>:
 8004268:	f44f 5360 	mov.w	r3, #14336	; 0x3800
 800426c:	f2c4 0302 	movt	r3, #16386	; 0x4002
 8004270:	6a1a      	ldr	r2, [r3, #32]
 8004272:	b919      	cbnz	r1, 800427c <RCC_APB1PeriphResetCmd+0x14>
 8004274:	ea22 0100 	bic.w	r1, r2, r0
 8004278:	6219      	str	r1, [r3, #32]
 800427a:	4770      	bx	lr
 800427c:	4310      	orrs	r0, r2
 800427e:	6218      	str	r0, [r3, #32]
 8004280:	4770      	bx	lr
 8004282:	bf00      	nop

08004284 <RCC_APB2PeriphResetCmd>:
 8004284:	f44f 5360 	mov.w	r3, #14336	; 0x3800
 8004288:	f2c4 0302 	movt	r3, #16386	; 0x4002
 800428c:	6a5a      	ldr	r2, [r3, #36]	; 0x24
 800428e:	b919      	cbnz	r1, 8004298 <RCC_APB2PeriphResetCmd+0x14>
 8004290:	ea22 0100 	bic.w	r1, r2, r0
 8004294:	6259      	str	r1, [r3, #36]	; 0x24
 8004296:	4770      	bx	lr
 8004298:	4310      	orrs	r0, r2
 800429a:	6258      	str	r0, [r3, #36]	; 0x24
 800429c:	4770      	bx	lr
 800429e:	bf00      	nop

080042a0 <RCC_AHB1PeriphClockLPModeCmd>:
 80042a0:	f44f 5360 	mov.w	r3, #14336	; 0x3800
 80042a4:	f2c4 0302 	movt	r3, #16386	; 0x4002
 80042a8:	6d1a      	ldr	r2, [r3, #80]	; 0x50
 80042aa:	b919      	cbnz	r1, 80042b4 <RCC_AHB1PeriphClockLPModeCmd+0x14>
 80042ac:	ea22 0100 	bic.w	r1, r2, r0
 80042b0:	6519      	str	r1, [r3, #80]	; 0x50
 80042b2:	4770      	bx	lr
 80042b4:	4310      	orrs	r0, r2
 80042b6:	6518      	str	r0, [r3, #80]	; 0x50
 80042b8:	4770      	bx	lr
 80042ba:	bf00      	nop

080042bc <RCC_AHB2PeriphClockLPModeCmd>:
 80042bc:	f44f 5360 	mov.w	r3, #14336	; 0x3800
 80042c0:	f2c4 0302 	movt	r3, #16386	; 0x4002
 80042c4:	6d5a      	ldr	r2, [r3, #84]	; 0x54
 80042c6:	b919      	cbnz	r1, 80042d0 <RCC_AHB2PeriphClockLPModeCmd+0x14>
 80042c8:	ea22 0100 	bic.w	r1, r2, r0
 80042cc:	6559      	str	r1, [r3, #84]	; 0x54
 80042ce:	4770      	bx	lr
 80042d0:	4310      	orrs	r0, r2
 80042d2:	6558      	str	r0, [r3, #84]	; 0x54
 80042d4:	4770      	bx	lr
 80042d6:	bf00      	nop

080042d8 <RCC_AHB3PeriphClockLPModeCmd>:
 80042d8:	f44f 5360 	mov.w	r3, #14336	; 0x3800
 80042dc:	f2c4 0302 	movt	r3, #16386	; 0x4002
 80042e0:	6d9a      	ldr	r2, [r3, #88]	; 0x58
 80042e2:	b919      	cbnz	r1, 80042ec <RCC_AHB3PeriphClockLPModeCmd+0x14>
 80042e4:	ea22 0100 	bic.w	r1, r2, r0
 80042e8:	6599      	str	r1, [r3, #88]	; 0x58
 80042ea:	4770      	bx	lr
 80042ec:	4310      	orrs	r0, r2
 80042ee:	6598      	str	r0, [r3, #88]	; 0x58
 80042f0:	4770      	bx	lr
 80042f2:	bf00      	nop

080042f4 <RCC_APB1PeriphClockLPModeCmd>:
 80042f4:	f44f 5360 	mov.w	r3, #14336	; 0x3800
 80042f8:	f2c4 0302 	movt	r3, #16386	; 0x4002
 80042fc:	6e1a      	ldr	r2, [r3, #96]	; 0x60
 80042fe:	b919      	cbnz	r1, 8004308 <RCC_APB1PeriphClockLPModeCmd+0x14>
 8004300:	ea22 0100 	bic.w	r1, r2, r0
 8004304:	6619      	str	r1, [r3, #96]	; 0x60
 8004306:	4770      	bx	lr
 8004308:	4310      	orrs	r0, r2
 800430a:	6618      	str	r0, [r3, #96]	; 0x60
 800430c:	4770      	bx	lr
 800430e:	bf00      	nop

08004310 <RCC_APB2PeriphClockLPModeCmd>:
 8004310:	f44f 5360 	mov.w	r3, #14336	; 0x3800
 8004314:	f2c4 0302 	movt	r3, #16386	; 0x4002
 8004318:	6e5a      	ldr	r2, [r3, #100]	; 0x64
 800431a:	b919      	cbnz	r1, 8004324 <RCC_APB2PeriphClockLPModeCmd+0x14>
 800431c:	ea22 0100 	bic.w	r1, r2, r0
 8004320:	6659      	str	r1, [r3, #100]	; 0x64
 8004322:	4770      	bx	lr
 8004324:	4310      	orrs	r0, r2
 8004326:	6658      	str	r0, [r3, #100]	; 0x64
 8004328:	4770      	bx	lr
 800432a:	bf00      	nop

0800432c <RCC_ITConfig>:
 800432c:	f643 030d 	movw	r3, #14349	; 0x380d
 8004330:	f2c4 0302 	movt	r3, #16386	; 0x4002
 8004334:	781a      	ldrb	r2, [r3, #0]
 8004336:	b919      	cbnz	r1, 8004340 <RCC_ITConfig+0x14>
 8004338:	ea22 0100 	bic.w	r1, r2, r0
 800433c:	7019      	strb	r1, [r3, #0]
 800433e:	4770      	bx	lr
 8004340:	4310      	orrs	r0, r2
 8004342:	7018      	strb	r0, [r3, #0]
 8004344:	4770      	bx	lr
 8004346:	bf00      	nop

08004348 <RCC_GetFlagStatus>:
 8004348:	0943      	lsrs	r3, r0, #5
 800434a:	2b01      	cmp	r3, #1
 800434c:	d00e      	beq.n	800436c <RCC_GetFlagStatus+0x24>
 800434e:	2b02      	cmp	r3, #2
 8004350:	f44f 5360 	mov.w	r3, #14336	; 0x3800
 8004354:	f2c4 0302 	movt	r3, #16386	; 0x4002
 8004358:	f000 011f 	and.w	r1, r0, #31
 800435c:	bf0c      	ite	eq
 800435e:	6f1b      	ldreq	r3, [r3, #112]	; 0x70
 8004360:	6f5b      	ldrne	r3, [r3, #116]	; 0x74
 8004362:	fa23 f001 	lsr.w	r0, r3, r1
 8004366:	f000 0001 	and.w	r0, r0, #1
 800436a:	4770      	bx	lr
 800436c:	f44f 5360 	mov.w	r3, #14336	; 0x3800
 8004370:	f2c4 0302 	movt	r3, #16386	; 0x4002
 8004374:	f000 011f 	and.w	r1, r0, #31
 8004378:	681b      	ldr	r3, [r3, #0]
 800437a:	fa23 f001 	lsr.w	r0, r3, r1
 800437e:	f000 0001 	and.w	r0, r0, #1
 8004382:	4770      	bx	lr

08004384 <RCC_ClearFlag>:
 8004384:	f44f 5360 	mov.w	r3, #14336	; 0x3800
 8004388:	f2c4 0302 	movt	r3, #16386	; 0x4002
 800438c:	6f58      	ldr	r0, [r3, #116]	; 0x74
 800438e:	f040 7280 	orr.w	r2, r0, #16777216	; 0x1000000
 8004392:	675a      	str	r2, [r3, #116]	; 0x74
 8004394:	4770      	bx	lr
 8004396:	bf00      	nop

08004398 <RCC_GetITStatus>:
 8004398:	f44f 5160 	mov.w	r1, #14336	; 0x3800
 800439c:	f2c4 0102 	movt	r1, #16386	; 0x4002
 80043a0:	68cb      	ldr	r3, [r1, #12]
 80043a2:	4218      	tst	r0, r3
 80043a4:	bf0c      	ite	eq
 80043a6:	2000      	moveq	r0, #0
 80043a8:	2001      	movne	r0, #1
 80043aa:	4770      	bx	lr

080043ac <RCC_ClearITPendingBit>:
 80043ac:	f643 030e 	movw	r3, #14350	; 0x380e
 80043b0:	f2c4 0302 	movt	r3, #16386	; 0x4002
 80043b4:	7018      	strb	r0, [r3, #0]
 80043b6:	4770      	bx	lr

080043b8 <SYSCFG_DeInit>:
 80043b8:	b508      	push	{r3, lr}
 80043ba:	2101      	movs	r1, #1
 80043bc:	f44f 4080 	mov.w	r0, #16384	; 0x4000
 80043c0:	f7ff ff60 	bl	8004284 <RCC_APB2PeriphResetCmd>
 80043c4:	f44f 4080 	mov.w	r0, #16384	; 0x4000
 80043c8:	2100      	movs	r1, #0
 80043ca:	e8bd 4008 	ldmia.w	sp!, {r3, lr}
 80043ce:	f7ff bf59 	b.w	8004284 <RCC_APB2PeriphResetCmd>
 80043d2:	bf00      	nop

080043d4 <SYSCFG_MemoryRemapConfig>:
 80043d4:	f44f 5360 	mov.w	r3, #14336	; 0x3800
 80043d8:	f2c4 0301 	movt	r3, #16385	; 0x4001
 80043dc:	6018      	str	r0, [r3, #0]
 80043de:	4770      	bx	lr

080043e0 <SYSCFG_EXTILineConfig>:
 80043e0:	b430      	push	{r4, r5}
 80043e2:	f44f 5360 	mov.w	r3, #14336	; 0x3800
 80043e6:	088d      	lsrs	r5, r1, #2
 80043e8:	f2c4 0301 	movt	r3, #16385	; 0x4001
 80043ec:	1caa      	adds	r2, r5, #2
 80043ee:	f001 0103 	and.w	r1, r1, #3
 80043f2:	f853 5022 	ldr.w	r5, [r3, r2, lsl #2]
 80043f6:	0089      	lsls	r1, r1, #2
 80043f8:	240f      	movs	r4, #15
 80043fa:	fa04 fc01 	lsl.w	ip, r4, r1
 80043fe:	ea25 040c 	bic.w	r4, r5, ip
 8004402:	f843 4022 	str.w	r4, [r3, r2, lsl #2]
 8004406:	f853 4022 	ldr.w	r4, [r3, r2, lsl #2]
 800440a:	fa00 f101 	lsl.w	r1, r0, r1
 800440e:	430c      	orrs	r4, r1
 8004410:	f843 4022 	str.w	r4, [r3, r2, lsl #2]
 8004414:	bc30      	pop	{r4, r5}
 8004416:	4770      	bx	lr

08004418 <SYSCFG_ETH_MediaInterfaceConfig>:
 8004418:	23dc      	movs	r3, #220	; 0xdc
 800441a:	f2c4 2327 	movt	r3, #16935	; 0x4227
 800441e:	6018      	str	r0, [r3, #0]
 8004420:	4770      	bx	lr
 8004422:	bf00      	nop

08004424 <SYSCFG_CompensationCellCmd>:
 8004424:	f44f 6380 	mov.w	r3, #1024	; 0x400
 8004428:	f2c4 2327 	movt	r3, #16935	; 0x4227
 800442c:	6018      	str	r0, [r3, #0]
 800442e:	4770      	bx	lr

08004430 <SYSCFG_GetCompensationCellStatus>:
 8004430:	f44f 5360 	mov.w	r3, #14336	; 0x3800
 8004434:	f2c4 0301 	movt	r3, #16385	; 0x4001
 8004438:	6a18      	ldr	r0, [r3, #32]
 800443a:	f3c0 2000 	ubfx	r0, r0, #8, #1
 800443e:	4770      	bx	lr

08004440 <TIM_DeInit>:
 8004440:	b508      	push	{r3, lr}
 8004442:	2300      	movs	r3, #0
 8004444:	f2c4 0301 	movt	r3, #16385	; 0x4001
 8004448:	4298      	cmp	r0, r3
 800444a:	d05b      	beq.n	8004504 <TIM_DeInit+0xc4>
 800444c:	f1b0 4f80 	cmp.w	r0, #1073741824	; 0x40000000
 8004450:	d062      	beq.n	8004518 <TIM_DeInit+0xd8>
 8004452:	f44f 6180 	mov.w	r1, #1024	; 0x400
 8004456:	f2c4 0100 	movt	r1, #16384	; 0x4000
 800445a:	4288      	cmp	r0, r1
 800445c:	d066      	beq.n	800452c <TIM_DeInit+0xec>
 800445e:	f44f 6200 	mov.w	r2, #2048	; 0x800
 8004462:	f2c4 0200 	movt	r2, #16384	; 0x4000
 8004466:	4290      	cmp	r0, r2
 8004468:	d06a      	beq.n	8004540 <TIM_DeInit+0x100>
 800446a:	f44f 6c40 	mov.w	ip, #3072	; 0xc00
 800446e:	f2c4 0c00 	movt	ip, #16384	; 0x4000
 8004472:	4560      	cmp	r0, ip
 8004474:	d06e      	beq.n	8004554 <TIM_DeInit+0x114>
 8004476:	f44f 5380 	mov.w	r3, #4096	; 0x1000
 800447a:	f2c4 0300 	movt	r3, #16384	; 0x4000
 800447e:	4298      	cmp	r0, r3
 8004480:	d072      	beq.n	8004568 <TIM_DeInit+0x128>
 8004482:	f44f 51a0 	mov.w	r1, #5120	; 0x1400
 8004486:	f2c4 0100 	movt	r1, #16384	; 0x4000
 800448a:	4288      	cmp	r0, r1
 800448c:	d076      	beq.n	800457c <TIM_DeInit+0x13c>
 800448e:	f44f 6280 	mov.w	r2, #1024	; 0x400
 8004492:	f2c4 0201 	movt	r2, #16385	; 0x4001
 8004496:	4290      	cmp	r0, r2
 8004498:	d07a      	beq.n	8004590 <TIM_DeInit+0x150>
 800449a:	f44f 4c80 	mov.w	ip, #16384	; 0x4000
 800449e:	f2c4 0c01 	movt	ip, #16385	; 0x4001
 80044a2:	4560      	cmp	r0, ip
 80044a4:	d07e      	beq.n	80045a4 <TIM_DeInit+0x164>
 80044a6:	f44f 4388 	mov.w	r3, #17408	; 0x4400
 80044aa:	f2c4 0301 	movt	r3, #16385	; 0x4001
 80044ae:	4298      	cmp	r0, r3
 80044b0:	f000 8084 	beq.w	80045bc <TIM_DeInit+0x17c>
 80044b4:	f44f 4190 	mov.w	r1, #18432	; 0x4800
 80044b8:	f2c4 0101 	movt	r1, #16385	; 0x4001
 80044bc:	4288      	cmp	r0, r1
 80044be:	f000 8089 	beq.w	80045d4 <TIM_DeInit+0x194>
 80044c2:	f44f 52c0 	mov.w	r2, #6144	; 0x1800
 80044c6:	f2c4 0200 	movt	r2, #16384	; 0x4000
 80044ca:	4290      	cmp	r0, r2
 80044cc:	f000 808e 	beq.w	80045ec <TIM_DeInit+0x1ac>
 80044d0:	f44f 5ce0 	mov.w	ip, #7168	; 0x1c00
 80044d4:	f2c4 0c00 	movt	ip, #16384	; 0x4000
 80044d8:	4560      	cmp	r0, ip
 80044da:	f000 8091 	beq.w	8004600 <TIM_DeInit+0x1c0>
 80044de:	f44f 5300 	mov.w	r3, #8192	; 0x2000
 80044e2:	f2c4 0300 	movt	r3, #16384	; 0x4000
 80044e6:	4298      	cmp	r0, r3
 80044e8:	d000      	beq.n	80044ec <TIM_DeInit+0xac>
 80044ea:	bd08      	pop	{r3, pc}
 80044ec:	2101      	movs	r1, #1
 80044ee:	f44f 7080 	mov.w	r0, #256	; 0x100
 80044f2:	f7ff feb9 	bl	8004268 <RCC_APB1PeriphResetCmd>
 80044f6:	f44f 7080 	mov.w	r0, #256	; 0x100
 80044fa:	2100      	movs	r1, #0
 80044fc:	e8bd 4008 	ldmia.w	sp!, {r3, lr}
 8004500:	f7ff beb2 	b.w	8004268 <RCC_APB1PeriphResetCmd>
 8004504:	2001      	movs	r0, #1
 8004506:	4601      	mov	r1, r0
 8004508:	f7ff febc 	bl	8004284 <RCC_APB2PeriphResetCmd>
 800450c:	2001      	movs	r0, #1
 800450e:	2100      	movs	r1, #0
 8004510:	e8bd 4008 	ldmia.w	sp!, {r3, lr}
 8004514:	f7ff beb6 	b.w	8004284 <RCC_APB2PeriphResetCmd>
 8004518:	2001      	movs	r0, #1
 800451a:	4601      	mov	r1, r0
 800451c:	f7ff fea4 	bl	8004268 <RCC_APB1PeriphResetCmd>
 8004520:	2001      	movs	r0, #1
 8004522:	2100      	movs	r1, #0
 8004524:	e8bd 4008 	ldmia.w	sp!, {r3, lr}
 8004528:	f7ff be9e 	b.w	8004268 <RCC_APB1PeriphResetCmd>
 800452c:	2002      	movs	r0, #2
 800452e:	2101      	movs	r1, #1
 8004530:	f7ff fe9a 	bl	8004268 <RCC_APB1PeriphResetCmd>
 8004534:	2002      	movs	r0, #2
 8004536:	2100      	movs	r1, #0
 8004538:	e8bd 4008 	ldmia.w	sp!, {r3, lr}
 800453c:	f7ff be94 	b.w	8004268 <RCC_APB1PeriphResetCmd>
 8004540:	2004      	movs	r0, #4
 8004542:	2101      	movs	r1, #1
 8004544:	f7ff fe90 	bl	8004268 <RCC_APB1PeriphResetCmd>
 8004548:	2004      	movs	r0, #4
 800454a:	2100      	movs	r1, #0
 800454c:	e8bd 4008 	ldmia.w	sp!, {r3, lr}
 8004550:	f7ff be8a 	b.w	8004268 <RCC_APB1PeriphResetCmd>
 8004554:	2008      	movs	r0, #8
 8004556:	2101      	movs	r1, #1
 8004558:	f7ff fe86 	bl	8004268 <RCC_APB1PeriphResetCmd>
 800455c:	2008      	movs	r0, #8
 800455e:	2100      	movs	r1, #0
 8004560:	e8bd 4008 	ldmia.w	sp!, {r3, lr}
 8004564:	f7ff be80 	b.w	8004268 <RCC_APB1PeriphResetCmd>
 8004568:	2010      	movs	r0, #16
 800456a:	2101      	movs	r1, #1
 800456c:	f7ff fe7c 	bl	8004268 <RCC_APB1PeriphResetCmd>
 8004570:	2010      	movs	r0, #16
 8004572:	2100      	movs	r1, #0
 8004574:	e8bd 4008 	ldmia.w	sp!, {r3, lr}
 8004578:	f7ff be76 	b.w	8004268 <RCC_APB1PeriphResetCmd>
 800457c:	2020      	movs	r0, #32
 800457e:	2101      	movs	r1, #1
 8004580:	f7ff fe72 	bl	8004268 <RCC_APB1PeriphResetCmd>
 8004584:	2020      	movs	r0, #32
 8004586:	2100      	movs	r1, #0
 8004588:	e8bd 4008 	ldmia.w	sp!, {r3, lr}
 800458c:	f7ff be6c 	b.w	8004268 <RCC_APB1PeriphResetCmd>
 8004590:	2002      	movs	r0, #2
 8004592:	2101      	movs	r1, #1
 8004594:	f7ff fe76 	bl	8004284 <RCC_APB2PeriphResetCmd>
 8004598:	2002      	movs	r0, #2
 800459a:	2100      	movs	r1, #0
 800459c:	e8bd 4008 	ldmia.w	sp!, {r3, lr}
 80045a0:	f7ff be70 	b.w	8004284 <RCC_APB2PeriphResetCmd>
 80045a4:	2101      	movs	r1, #1
 80045a6:	f44f 3080 	mov.w	r0, #65536	; 0x10000
 80045aa:	f7ff fe6b 	bl	8004284 <RCC_APB2PeriphResetCmd>
 80045ae:	f44f 3080 	mov.w	r0, #65536	; 0x10000
 80045b2:	2100      	movs	r1, #0
 80045b4:	e8bd 4008 	ldmia.w	sp!, {r3, lr}
 80045b8:	f7ff be64 	b.w	8004284 <RCC_APB2PeriphResetCmd>
 80045bc:	2101      	movs	r1, #1
 80045be:	f44f 3000 	mov.w	r0, #131072	; 0x20000
 80045c2:	f7ff fe5f 	bl	8004284 <RCC_APB2PeriphResetCmd>
 80045c6:	f44f 3000 	mov.w	r0, #131072	; 0x20000
 80045ca:	2100      	movs	r1, #0
 80045cc:	e8bd 4008 	ldmia.w	sp!, {r3, lr}
 80045d0:	f7ff be58 	b.w	8004284 <RCC_APB2PeriphResetCmd>
 80045d4:	2101      	movs	r1, #1
 80045d6:	f44f 2080 	mov.w	r0, #262144	; 0x40000
 80045da:	f7ff fe53 	bl	8004284 <RCC_APB2PeriphResetCmd>
 80045de:	f44f 2080 	mov.w	r0, #262144	; 0x40000
 80045e2:	2100      	movs	r1, #0
 80045e4:	e8bd 4008 	ldmia.w	sp!, {r3, lr}
 80045e8:	f7ff be4c 	b.w	8004284 <RCC_APB2PeriphResetCmd>
 80045ec:	2040      	movs	r0, #64	; 0x40
 80045ee:	2101      	movs	r1, #1
 80045f0:	f7ff fe3a 	bl	8004268 <RCC_APB1PeriphResetCmd>
 80045f4:	2040      	movs	r0, #64	; 0x40
 80045f6:	2100      	movs	r1, #0
 80045f8:	e8bd 4008 	ldmia.w	sp!, {r3, lr}
 80045fc:	f7ff be34 	b.w	8004268 <RCC_APB1PeriphResetCmd>
 8004600:	2080      	movs	r0, #128	; 0x80
 8004602:	2101      	movs	r1, #1
 8004604:	f7ff fe30 	bl	8004268 <RCC_APB1PeriphResetCmd>
 8004608:	2080      	movs	r0, #128	; 0x80
 800460a:	2100      	movs	r1, #0
 800460c:	e8bd 4008 	ldmia.w	sp!, {r3, lr}
 8004610:	f7ff be2a 	b.w	8004268 <RCC_APB1PeriphResetCmd>

08004614 <TIM_TimeBaseInit>:
 8004614:	2300      	movs	r3, #0
 8004616:	f2c4 0301 	movt	r3, #16385	; 0x4001
 800461a:	b430      	push	{r4, r5}
 800461c:	1ac5      	subs	r5, r0, r3
 800461e:	426b      	negs	r3, r5
 8004620:	f44f 6280 	mov.w	r2, #1024	; 0x400
 8004624:	f2c4 0201 	movt	r2, #16385	; 0x4001
 8004628:	eb43 0305 	adc.w	r3, r3, r5
 800462c:	4290      	cmp	r0, r2
 800462e:	bf08      	it	eq
 8004630:	f043 0301 	orreq.w	r3, r3, #1
 8004634:	8804      	ldrh	r4, [r0, #0]
 8004636:	b983      	cbnz	r3, 800465a <TIM_TimeBaseInit+0x46>
 8004638:	f1a0 4c80 	sub.w	ip, r0, #1073741824	; 0x40000000
 800463c:	f1dc 0500 	rsbs	r5, ip, #0
 8004640:	f44f 6280 	mov.w	r2, #1024	; 0x400
 8004644:	f2c4 0200 	movt	r2, #16384	; 0x4000
 8004648:	eb45 0c0c 	adc.w	ip, r5, ip
 800464c:	4290      	cmp	r0, r2
 800464e:	bf14      	ite	ne
 8004650:	4662      	movne	r2, ip
 8004652:	f04c 0201 	orreq.w	r2, ip, #1
 8004656:	2a00      	cmp	r2, #0
 8004658:	d02c      	beq.n	80046b4 <TIM_TimeBaseInit+0xa0>
 800465a:	f64f 728f 	movw	r2, #65423	; 0xff8f
 800465e:	f8b1 c002 	ldrh.w	ip, [r1, #2]
 8004662:	4014      	ands	r4, r2
 8004664:	ea44 040c 	orr.w	r4, r4, ip
 8004668:	f44f 5580 	mov.w	r5, #4096	; 0x1000
 800466c:	f2c4 0500 	movt	r5, #16384	; 0x4000
 8004670:	1b42      	subs	r2, r0, r5
 8004672:	f44f 5ca0 	mov.w	ip, #5120	; 0x1400
 8004676:	f2c4 0c00 	movt	ip, #16384	; 0x4000
 800467a:	bf18      	it	ne
 800467c:	2201      	movne	r2, #1
 800467e:	4560      	cmp	r0, ip
 8004680:	bf0c      	ite	eq
 8004682:	2500      	moveq	r5, #0
 8004684:	f002 0501 	andne.w	r5, r2, #1
 8004688:	b135      	cbz	r5, 8004698 <TIM_TimeBaseInit+0x84>
 800468a:	f64f 42ff 	movw	r2, #64767	; 0xfcff
 800468e:	f8b1 c008 	ldrh.w	ip, [r1, #8]
 8004692:	4014      	ands	r4, r2
 8004694:	ea44 040c 	orr.w	r4, r4, ip
 8004698:	684d      	ldr	r5, [r1, #4]
 800469a:	f8b1 c000 	ldrh.w	ip, [r1]
 800469e:	8004      	strh	r4, [r0, #0]
 80046a0:	62c5      	str	r5, [r0, #44]	; 0x2c
 80046a2:	f8a0 c028 	strh.w	ip, [r0, #40]	; 0x28
 80046a6:	b10b      	cbz	r3, 80046ac <TIM_TimeBaseInit+0x98>
 80046a8:	7a89      	ldrb	r1, [r1, #10]
 80046aa:	8601      	strh	r1, [r0, #48]	; 0x30
 80046ac:	2301      	movs	r3, #1
 80046ae:	8283      	strh	r3, [r0, #20]
 80046b0:	bc30      	pop	{r4, r5}
 80046b2:	4770      	bx	lr
 80046b4:	f44f 6500 	mov.w	r5, #2048	; 0x800
 80046b8:	f2c4 0500 	movt	r5, #16384	; 0x4000
 80046bc:	ebc5 0c00 	rsb	ip, r5, r0
 80046c0:	f1dc 0500 	rsbs	r5, ip, #0
 80046c4:	f44f 6240 	mov.w	r2, #3072	; 0xc00
 80046c8:	f2c4 0200 	movt	r2, #16384	; 0x4000
 80046cc:	eb45 050c 	adc.w	r5, r5, ip
 80046d0:	4290      	cmp	r0, r2
 80046d2:	bf14      	ite	ne
 80046d4:	462a      	movne	r2, r5
 80046d6:	f045 0201 	orreq.w	r2, r5, #1
 80046da:	2a00      	cmp	r2, #0
 80046dc:	d0c4      	beq.n	8004668 <TIM_TimeBaseInit+0x54>
 80046de:	e7bc      	b.n	800465a <TIM_TimeBaseInit+0x46>

080046e0 <TIM_TimeBaseStructInit>:
 80046e0:	2300      	movs	r3, #0
 80046e2:	f04f 31ff 	mov.w	r1, #4294967295
 80046e6:	6041      	str	r1, [r0, #4]
 80046e8:	8003      	strh	r3, [r0, #0]
 80046ea:	8103      	strh	r3, [r0, #8]
 80046ec:	8043      	strh	r3, [r0, #2]
 80046ee:	7283      	strb	r3, [r0, #10]
 80046f0:	4770      	bx	lr
 80046f2:	bf00      	nop

080046f4 <TIM_PrescalerConfig>:
 80046f4:	8501      	strh	r1, [r0, #40]	; 0x28
 80046f6:	8282      	strh	r2, [r0, #20]
 80046f8:	4770      	bx	lr
 80046fa:	bf00      	nop

080046fc <TIM_CounterModeConfig>:
 80046fc:	f8b0 c000 	ldrh.w	ip, [r0]
 8004700:	f02c 0270 	bic.w	r2, ip, #112	; 0x70
 8004704:	0413      	lsls	r3, r2, #16
 8004706:	0c1a      	lsrs	r2, r3, #16
 8004708:	ea41 0302 	orr.w	r3, r1, r2
 800470c:	8003      	strh	r3, [r0, #0]
 800470e:	4770      	bx	lr

08004710 <TIM_SetCounter>:
 8004710:	6241      	str	r1, [r0, #36]	; 0x24
 8004712:	4770      	bx	lr

08004714 <TIM_SetAutoreload>:
 8004714:	62c1      	str	r1, [r0, #44]	; 0x2c
 8004716:	4770      	bx	lr

08004718 <TIM_GetCounter>:
 8004718:	6a40      	ldr	r0, [r0, #36]	; 0x24
 800471a:	4770      	bx	lr

0800471c <TIM_GetPrescaler>:
 800471c:	8d00      	ldrh	r0, [r0, #40]	; 0x28
 800471e:	b280      	uxth	r0, r0
 8004720:	4770      	bx	lr
 8004722:	bf00      	nop

08004724 <TIM_UpdateDisableConfig>:
 8004724:	8803      	ldrh	r3, [r0, #0]
 8004726:	b929      	cbnz	r1, 8004734 <TIM_UpdateDisableConfig+0x10>
 8004728:	f023 0102 	bic.w	r1, r3, #2
 800472c:	040b      	lsls	r3, r1, #16
 800472e:	0c1a      	lsrs	r2, r3, #16
 8004730:	8002      	strh	r2, [r0, #0]
 8004732:	4770      	bx	lr
 8004734:	b299      	uxth	r1, r3
 8004736:	f041 0302 	orr.w	r3, r1, #2
 800473a:	8003      	strh	r3, [r0, #0]
 800473c:	4770      	bx	lr
 800473e:	bf00      	nop

08004740 <TIM_UpdateRequestConfig>:
 8004740:	8803      	ldrh	r3, [r0, #0]
 8004742:	b929      	cbnz	r1, 8004750 <TIM_UpdateRequestConfig+0x10>
 8004744:	f023 0104 	bic.w	r1, r3, #4
 8004748:	040b      	lsls	r3, r1, #16
 800474a:	0c1a      	lsrs	r2, r3, #16
 800474c:	8002      	strh	r2, [r0, #0]
 800474e:	4770      	bx	lr
 8004750:	b299      	uxth	r1, r3
 8004752:	f041 0304 	orr.w	r3, r1, #4
 8004756:	8003      	strh	r3, [r0, #0]
 8004758:	4770      	bx	lr
 800475a:	bf00      	nop

0800475c <TIM_ARRPreloadConfig>:
 800475c:	8803      	ldrh	r3, [r0, #0]
 800475e:	b929      	cbnz	r1, 800476c <TIM_ARRPreloadConfig+0x10>
 8004760:	f023 0180 	bic.w	r1, r3, #128	; 0x80
 8004764:	040b      	lsls	r3, r1, #16
 8004766:	0c1a      	lsrs	r2, r3, #16
 8004768:	8002      	strh	r2, [r0, #0]
 800476a:	4770      	bx	lr
 800476c:	b299      	uxth	r1, r3
 800476e:	f041 0380 	orr.w	r3, r1, #128	; 0x80
 8004772:	8003      	strh	r3, [r0, #0]
 8004774:	4770      	bx	lr
 8004776:	bf00      	nop

08004778 <TIM_SelectOnePulseMode>:
 8004778:	8802      	ldrh	r2, [r0, #0]
 800477a:	f022 0308 	bic.w	r3, r2, #8
 800477e:	041a      	lsls	r2, r3, #16
 8004780:	0c13      	lsrs	r3, r2, #16
 8004782:	8003      	strh	r3, [r0, #0]
 8004784:	f8b0 c000 	ldrh.w	ip, [r0]
 8004788:	fa1f f28c 	uxth.w	r2, ip
 800478c:	ea41 0302 	orr.w	r3, r1, r2
 8004790:	8003      	strh	r3, [r0, #0]
 8004792:	4770      	bx	lr

08004794 <TIM_SetClockDivision>:
 8004794:	8802      	ldrh	r2, [r0, #0]
 8004796:	f422 7340 	bic.w	r3, r2, #768	; 0x300
 800479a:	041a      	lsls	r2, r3, #16
 800479c:	0c13      	lsrs	r3, r2, #16
 800479e:	8003      	strh	r3, [r0, #0]
 80047a0:	f8b0 c000 	ldrh.w	ip, [r0]
 80047a4:	fa1f f28c 	uxth.w	r2, ip
 80047a8:	ea41 0302 	orr.w	r3, r1, r2
 80047ac:	8003      	strh	r3, [r0, #0]
 80047ae:	4770      	bx	lr

080047b0 <TIM_Cmd>:
 80047b0:	8803      	ldrh	r3, [r0, #0]
 80047b2:	b929      	cbnz	r1, 80047c0 <TIM_Cmd+0x10>
 80047b4:	f023 0101 	bic.w	r1, r3, #1
 80047b8:	040b      	lsls	r3, r1, #16
 80047ba:	0c1a      	lsrs	r2, r3, #16
 80047bc:	8002      	strh	r2, [r0, #0]
 80047be:	4770      	bx	lr
 80047c0:	b299      	uxth	r1, r3
 80047c2:	f041 0301 	orr.w	r3, r1, #1
 80047c6:	8003      	strh	r3, [r0, #0]
 80047c8:	4770      	bx	lr
 80047ca:	bf00      	nop

080047cc <TIM_OC1Init>:
 80047cc:	e92d 01f0 	stmdb	sp!, {r4, r5, r6, r7, r8}
 80047d0:	8c05      	ldrh	r5, [r0, #32]
 80047d2:	f8b1 8002 	ldrh.w	r8, [r1, #2]
 80047d6:	898f      	ldrh	r7, [r1, #12]
 80047d8:	f8b1 c000 	ldrh.w	ip, [r1]
 80047dc:	f025 0201 	bic.w	r2, r5, #1
 80047e0:	0416      	lsls	r6, r2, #16
 80047e2:	0c34      	lsrs	r4, r6, #16
 80047e4:	8404      	strh	r4, [r0, #32]
 80047e6:	8c05      	ldrh	r5, [r0, #32]
 80047e8:	8884      	ldrh	r4, [r0, #4]
 80047ea:	8b03      	ldrh	r3, [r0, #24]
 80047ec:	2600      	movs	r6, #0
 80047ee:	f2c4 0601 	movt	r6, #16385	; 0x4001
 80047f2:	f023 0273 	bic.w	r2, r3, #115	; 0x73
 80047f6:	f025 0302 	bic.w	r3, r5, #2
 80047fa:	0412      	lsls	r2, r2, #16
 80047fc:	041b      	lsls	r3, r3, #16
 80047fe:	f44f 6580 	mov.w	r5, #1024	; 0x400
 8004802:	42b0      	cmp	r0, r6
 8004804:	bf14      	ite	ne
 8004806:	2600      	movne	r6, #0
 8004808:	2601      	moveq	r6, #1
 800480a:	ea48 0707 	orr.w	r7, r8, r7
 800480e:	f2c4 0501 	movt	r5, #16385	; 0x4001
 8004812:	0c12      	lsrs	r2, r2, #16
 8004814:	0c1b      	lsrs	r3, r3, #16
 8004816:	b2bf      	uxth	r7, r7
 8004818:	42a8      	cmp	r0, r5
 800481a:	bf14      	ite	ne
 800481c:	4635      	movne	r5, r6
 800481e:	f046 0501 	orreq.w	r5, r6, #1
 8004822:	ea42 020c 	orr.w	r2, r2, ip
 8004826:	433b      	orrs	r3, r7
 8004828:	b1c5      	cbz	r5, 800485c <TIM_OC1Init+0x90>
 800482a:	f64f 75f7 	movw	r5, #65527	; 0xfff7
 800482e:	f8b1 c00e 	ldrh.w	ip, [r1, #14]
 8004832:	f8b1 8012 	ldrh.w	r8, [r1, #18]
 8004836:	8a0f      	ldrh	r7, [r1, #16]
 8004838:	888e      	ldrh	r6, [r1, #4]
 800483a:	401d      	ands	r5, r3
 800483c:	ea45 0c0c 	orr.w	ip, r5, ip
 8004840:	f64f 73fb 	movw	r3, #65531	; 0xfffb
 8004844:	f64f 45ff 	movw	r5, #64767	; 0xfcff
 8004848:	ea48 0707 	orr.w	r7, r8, r7
 800484c:	ea0c 0303 	and.w	r3, ip, r3
 8004850:	4025      	ands	r5, r4
 8004852:	fa1f fc87 	uxth.w	ip, r7
 8004856:	4333      	orrs	r3, r6
 8004858:	ea4c 0405 	orr.w	r4, ip, r5
 800485c:	6889      	ldr	r1, [r1, #8]
 800485e:	8084      	strh	r4, [r0, #4]
 8004860:	8302      	strh	r2, [r0, #24]
 8004862:	6341      	str	r1, [r0, #52]	; 0x34
 8004864:	8403      	strh	r3, [r0, #32]
 8004866:	e8bd 01f0 	ldmia.w	sp!, {r4, r5, r6, r7, r8}
 800486a:	4770      	bx	lr

0800486c <TIM_OC2Init>:
 800486c:	e92d 01f0 	stmdb	sp!, {r4, r5, r6, r7, r8}
 8004870:	8c06      	ldrh	r6, [r0, #32]
 8004872:	f8b1 8000 	ldrh.w	r8, [r1]
 8004876:	f8b1 c00c 	ldrh.w	ip, [r1, #12]
 800487a:	884f      	ldrh	r7, [r1, #2]
 800487c:	f026 0310 	bic.w	r3, r6, #16
 8004880:	041d      	lsls	r5, r3, #16
 8004882:	0c2c      	lsrs	r4, r5, #16
 8004884:	8404      	strh	r4, [r0, #32]
 8004886:	8c02      	ldrh	r2, [r0, #32]
 8004888:	8884      	ldrh	r4, [r0, #4]
 800488a:	8b06      	ldrh	r6, [r0, #24]
 800488c:	f022 0520 	bic.w	r5, r2, #32
 8004890:	f426 43e6 	bic.w	r3, r6, #29440	; 0x7300
 8004894:	2600      	movs	r6, #0
 8004896:	f2c4 0601 	movt	r6, #16385	; 0x4001
 800489a:	041a      	lsls	r2, r3, #16
 800489c:	042b      	lsls	r3, r5, #16
 800489e:	0c12      	lsrs	r2, r2, #16
 80048a0:	0c1b      	lsrs	r3, r3, #16
 80048a2:	f44f 6580 	mov.w	r5, #1024	; 0x400
 80048a6:	42b0      	cmp	r0, r6
 80048a8:	f2c4 0501 	movt	r5, #16385	; 0x4001
 80048ac:	bf14      	ite	ne
 80048ae:	2600      	movne	r6, #0
 80048b0:	2601      	moveq	r6, #1
 80048b2:	ea43 130c 	orr.w	r3, r3, ip, lsl #4
 80048b6:	42a8      	cmp	r0, r5
 80048b8:	bf14      	ite	ne
 80048ba:	4635      	movne	r5, r6
 80048bc:	f046 0501 	orreq.w	r5, r6, #1
 80048c0:	ea42 2208 	orr.w	r2, r2, r8, lsl #8
 80048c4:	ea43 1307 	orr.w	r3, r3, r7, lsl #4
 80048c8:	b1bd      	cbz	r5, 80048fa <TIM_OC2Init+0x8e>
 80048ca:	89cd      	ldrh	r5, [r1, #14]
 80048cc:	f8b1 c010 	ldrh.w	ip, [r1, #16]
 80048d0:	f8b1 8004 	ldrh.w	r8, [r1, #4]
 80048d4:	8a4f      	ldrh	r7, [r1, #18]
 80048d6:	f64f 767f 	movw	r6, #65407	; 0xff7f
 80048da:	401e      	ands	r6, r3
 80048dc:	ea46 1605 	orr.w	r6, r6, r5, lsl #4
 80048e0:	f24f 35ff 	movw	r5, #62463	; 0xf3ff
 80048e4:	f64f 73bf 	movw	r3, #65471	; 0xffbf
 80048e8:	4025      	ands	r5, r4
 80048ea:	ea45 0c8c 	orr.w	ip, r5, ip, lsl #2
 80048ee:	ea06 0403 	and.w	r4, r6, r3
 80048f2:	ea44 1308 	orr.w	r3, r4, r8, lsl #4
 80048f6:	ea4c 0487 	orr.w	r4, ip, r7, lsl #2
 80048fa:	6889      	ldr	r1, [r1, #8]
 80048fc:	8084      	strh	r4, [r0, #4]
 80048fe:	8302      	strh	r2, [r0, #24]
 8004900:	6381      	str	r1, [r0, #56]	; 0x38
 8004902:	8403      	strh	r3, [r0, #32]
 8004904:	e8bd 01f0 	ldmia.w	sp!, {r4, r5, r6, r7, r8}
 8004908:	4770      	bx	lr
 800490a:	bf00      	nop

0800490c <TIM_OC3Init>:
 800490c:	8c03      	ldrh	r3, [r0, #32]
 800490e:	f8b1 c000 	ldrh.w	ip, [r1]
 8004912:	e92d 01f0 	stmdb	sp!, {r4, r5, r6, r7, r8}
 8004916:	f423 7580 	bic.w	r5, r3, #256	; 0x100
 800491a:	042a      	lsls	r2, r5, #16
 800491c:	0c14      	lsrs	r4, r2, #16
 800491e:	f8b1 800c 	ldrh.w	r8, [r1, #12]
 8004922:	884f      	ldrh	r7, [r1, #2]
 8004924:	8404      	strh	r4, [r0, #32]
 8004926:	8c06      	ldrh	r6, [r0, #32]
 8004928:	8884      	ldrh	r4, [r0, #4]
 800492a:	8b83      	ldrh	r3, [r0, #28]
 800492c:	f426 7500 	bic.w	r5, r6, #512	; 0x200
 8004930:	2600      	movs	r6, #0
 8004932:	f2c4 0601 	movt	r6, #16385	; 0x4001
 8004936:	042a      	lsls	r2, r5, #16
 8004938:	f023 0373 	bic.w	r3, r3, #115	; 0x73
 800493c:	041b      	lsls	r3, r3, #16
 800493e:	0c12      	lsrs	r2, r2, #16
 8004940:	f44f 6580 	mov.w	r5, #1024	; 0x400
 8004944:	42b0      	cmp	r0, r6
 8004946:	bf14      	ite	ne
 8004948:	2600      	movne	r6, #0
 800494a:	2601      	moveq	r6, #1
 800494c:	f2c4 0501 	movt	r5, #16385	; 0x4001
 8004950:	0c1b      	lsrs	r3, r3, #16
 8004952:	ea42 2208 	orr.w	r2, r2, r8, lsl #8
 8004956:	42a8      	cmp	r0, r5
 8004958:	bf14      	ite	ne
 800495a:	4635      	movne	r5, r6
 800495c:	f046 0501 	orreq.w	r5, r6, #1
 8004960:	ea43 030c 	orr.w	r3, r3, ip
 8004964:	ea42 2207 	orr.w	r2, r2, r7, lsl #8
 8004968:	b1bd      	cbz	r5, 800499a <TIM_OC3Init+0x8e>
 800496a:	89cd      	ldrh	r5, [r1, #14]
 800496c:	f8b1 c010 	ldrh.w	ip, [r1, #16]
 8004970:	f8b1 8004 	ldrh.w	r8, [r1, #4]
 8004974:	8a4f      	ldrh	r7, [r1, #18]
 8004976:	f24f 76ff 	movw	r6, #63487	; 0xf7ff
 800497a:	4016      	ands	r6, r2
 800497c:	ea46 2605 	orr.w	r6, r6, r5, lsl #8
 8004980:	f64c 75ff 	movw	r5, #53247	; 0xcfff
 8004984:	f64f 32ff 	movw	r2, #64511	; 0xfbff
 8004988:	4025      	ands	r5, r4
 800498a:	ea45 1c0c 	orr.w	ip, r5, ip, lsl #4
 800498e:	ea06 0402 	and.w	r4, r6, r2
 8004992:	ea44 2208 	orr.w	r2, r4, r8, lsl #8
 8004996:	ea4c 1407 	orr.w	r4, ip, r7, lsl #4
 800499a:	6889      	ldr	r1, [r1, #8]
 800499c:	8084      	strh	r4, [r0, #4]
 800499e:	8383      	strh	r3, [r0, #28]
 80049a0:	63c1      	str	r1, [r0, #60]	; 0x3c
 80049a2:	8402      	strh	r2, [r0, #32]
 80049a4:	e8bd 01f0 	ldmia.w	sp!, {r4, r5, r6, r7, r8}
 80049a8:	4770      	bx	lr
 80049aa:	bf00      	nop

080049ac <TIM_OC4Init>:
 80049ac:	e92d 01f0 	stmdb	sp!, {r4, r5, r6, r7, r8}
 80049b0:	8c06      	ldrh	r6, [r0, #32]
 80049b2:	f8b1 8000 	ldrh.w	r8, [r1]
 80049b6:	f8b1 c00c 	ldrh.w	ip, [r1, #12]
 80049ba:	884f      	ldrh	r7, [r1, #2]
 80049bc:	f426 5380 	bic.w	r3, r6, #4096	; 0x1000
 80049c0:	041d      	lsls	r5, r3, #16
 80049c2:	0c2c      	lsrs	r4, r5, #16
 80049c4:	8404      	strh	r4, [r0, #32]
 80049c6:	8c02      	ldrh	r2, [r0, #32]
 80049c8:	8884      	ldrh	r4, [r0, #4]
 80049ca:	8b86      	ldrh	r6, [r0, #28]
 80049cc:	f422 5500 	bic.w	r5, r2, #8192	; 0x2000
 80049d0:	f426 43e6 	bic.w	r3, r6, #29440	; 0x7300
 80049d4:	2600      	movs	r6, #0
 80049d6:	f2c4 0601 	movt	r6, #16385	; 0x4001
 80049da:	041a      	lsls	r2, r3, #16
 80049dc:	042b      	lsls	r3, r5, #16
 80049de:	0c12      	lsrs	r2, r2, #16
 80049e0:	0c1b      	lsrs	r3, r3, #16
 80049e2:	f44f 6580 	mov.w	r5, #1024	; 0x400
 80049e6:	42b0      	cmp	r0, r6
 80049e8:	f2c4 0501 	movt	r5, #16385	; 0x4001
 80049ec:	bf14      	ite	ne
 80049ee:	2600      	movne	r6, #0
 80049f0:	2601      	moveq	r6, #1
 80049f2:	ea43 330c 	orr.w	r3, r3, ip, lsl #12
 80049f6:	42a8      	cmp	r0, r5
 80049f8:	bf14      	ite	ne
 80049fa:	4635      	movne	r5, r6
 80049fc:	f046 0501 	orreq.w	r5, r6, #1
 8004a00:	ea42 2208 	orr.w	r2, r2, r8, lsl #8
 8004a04:	ea43 3307 	orr.w	r3, r3, r7, lsl #12
 8004a08:	b135      	cbz	r5, 8004a18 <TIM_OC4Init+0x6c>
 8004a0a:	f64b 7cff 	movw	ip, #49151	; 0xbfff
 8004a0e:	8a0e      	ldrh	r6, [r1, #16]
 8004a10:	ea04 050c 	and.w	r5, r4, ip
 8004a14:	ea45 1486 	orr.w	r4, r5, r6, lsl #6
 8004a18:	6889      	ldr	r1, [r1, #8]
 8004a1a:	8084      	strh	r4, [r0, #4]
 8004a1c:	8382      	strh	r2, [r0, #28]
 8004a1e:	6401      	str	r1, [r0, #64]	; 0x40
 8004a20:	8403      	strh	r3, [r0, #32]
 8004a22:	e8bd 01f0 	ldmia.w	sp!, {r4, r5, r6, r7, r8}
 8004a26:	4770      	bx	lr

08004a28 <TIM_OCStructInit>:
 8004a28:	2300      	movs	r3, #0
 8004a2a:	8003      	strh	r3, [r0, #0]
 8004a2c:	8043      	strh	r3, [r0, #2]
 8004a2e:	8083      	strh	r3, [r0, #4]
 8004a30:	6083      	str	r3, [r0, #8]
 8004a32:	8183      	strh	r3, [r0, #12]
 8004a34:	81c3      	strh	r3, [r0, #14]
 8004a36:	8203      	strh	r3, [r0, #16]
 8004a38:	8243      	strh	r3, [r0, #18]
 8004a3a:	4770      	bx	lr

08004a3c <TIM_SelectOCxM>:
 8004a3c:	b430      	push	{r4, r5}
 8004a3e:	8c04      	ldrh	r4, [r0, #32]
 8004a40:	2301      	movs	r3, #1
 8004a42:	b2a5      	uxth	r5, r4
 8004a44:	fa03 f401 	lsl.w	r4, r3, r1
 8004a48:	f1d1 0301 	rsbs	r3, r1, #1
 8004a4c:	bf38      	it	cc
 8004a4e:	2300      	movcc	r3, #0
 8004a50:	ea25 0404 	bic.w	r4, r5, r4
 8004a54:	2908      	cmp	r1, #8
 8004a56:	bf08      	it	eq
 8004a58:	f043 0301 	orreq.w	r3, r3, #1
 8004a5c:	f100 0518 	add.w	r5, r0, #24
 8004a60:	8404      	strh	r4, [r0, #32]
 8004a62:	b983      	cbnz	r3, 8004a86 <TIM_SelectOCxM+0x4a>
 8004a64:	3904      	subs	r1, #4
 8004a66:	f3c1 014e 	ubfx	r1, r1, #1, #15
 8004a6a:	f648 7cff 	movw	ip, #36863	; 0x8fff
 8004a6e:	594b      	ldr	r3, [r1, r5]
 8004a70:	ea03 000c 	and.w	r0, r3, ip
 8004a74:	5148      	str	r0, [r1, r5]
 8004a76:	0212      	lsls	r2, r2, #8
 8004a78:	594b      	ldr	r3, [r1, r5]
 8004a7a:	b290      	uxth	r0, r2
 8004a7c:	ea43 0200 	orr.w	r2, r3, r0
 8004a80:	514a      	str	r2, [r1, r5]
 8004a82:	bc30      	pop	{r4, r5}
 8004a84:	4770      	bx	lr
 8004a86:	0849      	lsrs	r1, r1, #1
 8004a88:	f64f 7c8f 	movw	ip, #65423	; 0xff8f
 8004a8c:	5948      	ldr	r0, [r1, r5]
 8004a8e:	ea00 030c 	and.w	r3, r0, ip
 8004a92:	514b      	str	r3, [r1, r5]
 8004a94:	5948      	ldr	r0, [r1, r5]
 8004a96:	4302      	orrs	r2, r0
 8004a98:	514a      	str	r2, [r1, r5]
 8004a9a:	e7f2      	b.n	8004a82 <TIM_SelectOCxM+0x46>

08004a9c <TIM_SetCompare1>:
 8004a9c:	6341      	str	r1, [r0, #52]	; 0x34
 8004a9e:	4770      	bx	lr

08004aa0 <TIM_SetCompare2>:
 8004aa0:	6381      	str	r1, [r0, #56]	; 0x38
 8004aa2:	4770      	bx	lr

08004aa4 <TIM_SetCompare3>:
 8004aa4:	63c1      	str	r1, [r0, #60]	; 0x3c
 8004aa6:	4770      	bx	lr

08004aa8 <TIM_SetCompare4>:
 8004aa8:	6401      	str	r1, [r0, #64]	; 0x40
 8004aaa:	4770      	bx	lr

08004aac <TIM_ForcedOC1Config>:
 8004aac:	f8b0 c018 	ldrh.w	ip, [r0, #24]
 8004ab0:	f02c 0270 	bic.w	r2, ip, #112	; 0x70
 8004ab4:	0413      	lsls	r3, r2, #16
 8004ab6:	0c1a      	lsrs	r2, r3, #16
 8004ab8:	ea41 0302 	orr.w	r3, r1, r2
 8004abc:	8303      	strh	r3, [r0, #24]
 8004abe:	4770      	bx	lr

08004ac0 <TIM_ForcedOC2Config>:
 8004ac0:	f8b0 c018 	ldrh.w	ip, [r0, #24]
 8004ac4:	f42c 42e0 	bic.w	r2, ip, #28672	; 0x7000
 8004ac8:	0413      	lsls	r3, r2, #16
 8004aca:	0c1a      	lsrs	r2, r3, #16
 8004acc:	ea42 2301 	orr.w	r3, r2, r1, lsl #8
 8004ad0:	8303      	strh	r3, [r0, #24]
 8004ad2:	4770      	bx	lr

08004ad4 <TIM_ForcedOC3Config>:
 8004ad4:	f8b0 c01c 	ldrh.w	ip, [r0, #28]
 8004ad8:	f02c 0270 	bic.w	r2, ip, #112	; 0x70
 8004adc:	0413      	lsls	r3, r2, #16
 8004ade:	0c1a      	lsrs	r2, r3, #16
 8004ae0:	ea41 0302 	orr.w	r3, r1, r2
 8004ae4:	8383      	strh	r3, [r0, #28]
 8004ae6:	4770      	bx	lr

08004ae8 <TIM_ForcedOC4Config>:
 8004ae8:	f8b0 c01c 	ldrh.w	ip, [r0, #28]
 8004aec:	f42c 42e0 	bic.w	r2, ip, #28672	; 0x7000
 8004af0:	0413      	lsls	r3, r2, #16
 8004af2:	0c1a      	lsrs	r2, r3, #16
 8004af4:	ea42 2301 	orr.w	r3, r2, r1, lsl #8
 8004af8:	8383      	strh	r3, [r0, #28]
 8004afa:	4770      	bx	lr

08004afc <TIM_OC1PreloadConfig>:
 8004afc:	f8b0 c018 	ldrh.w	ip, [r0, #24]
 8004b00:	f02c 0208 	bic.w	r2, ip, #8
 8004b04:	0413      	lsls	r3, r2, #16
 8004b06:	0c1a      	lsrs	r2, r3, #16
 8004b08:	ea41 0302 	orr.w	r3, r1, r2
 8004b0c:	8303      	strh	r3, [r0, #24]
 8004b0e:	4770      	bx	lr

08004b10 <TIM_OC2PreloadConfig>:
 8004b10:	f8b0 c018 	ldrh.w	ip, [r0, #24]
 8004b14:	f42c 6200 	bic.w	r2, ip, #2048	; 0x800
 8004b18:	0413      	lsls	r3, r2, #16
 8004b1a:	0c1a      	lsrs	r2, r3, #16
 8004b1c:	ea42 2301 	orr.w	r3, r2, r1, lsl #8
 8004b20:	8303      	strh	r3, [r0, #24]
 8004b22:	4770      	bx	lr

08004b24 <TIM_OC3PreloadConfig>:
 8004b24:	f8b0 c01c 	ldrh.w	ip, [r0, #28]
 8004b28:	f02c 0208 	bic.w	r2, ip, #8
 8004b2c:	0413      	lsls	r3, r2, #16
 8004b2e:	0c1a      	lsrs	r2, r3, #16
 8004b30:	ea41 0302 	orr.w	r3, r1, r2
 8004b34:	8383      	strh	r3, [r0, #28]
 8004b36:	4770      	bx	lr

08004b38 <TIM_OC4PreloadConfig>:
 8004b38:	f8b0 c01c 	ldrh.w	ip, [r0, #28]
 8004b3c:	f42c 6200 	bic.w	r2, ip, #2048	; 0x800
 8004b40:	0413      	lsls	r3, r2, #16
 8004b42:	0c1a      	lsrs	r2, r3, #16
 8004b44:	ea42 2301 	orr.w	r3, r2, r1, lsl #8
 8004b48:	8383      	strh	r3, [r0, #28]
 8004b4a:	4770      	bx	lr

08004b4c <TIM_OC1FastConfig>:
 8004b4c:	f8b0 c018 	ldrh.w	ip, [r0, #24]
 8004b50:	f02c 0204 	bic.w	r2, ip, #4
 8004b54:	0413      	lsls	r3, r2, #16
 8004b56:	0c1a      	lsrs	r2, r3, #16
 8004b58:	ea41 0302 	orr.w	r3, r1, r2
 8004b5c:	8303      	strh	r3, [r0, #24]
 8004b5e:	4770      	bx	lr

08004b60 <TIM_OC2FastConfig>:
 8004b60:	f8b0 c018 	ldrh.w	ip, [r0, #24]
 8004b64:	f42c 6280 	bic.w	r2, ip, #1024	; 0x400
 8004b68:	0413      	lsls	r3, r2, #16
 8004b6a:	0c1a      	lsrs	r2, r3, #16
 8004b6c:	ea42 2301 	orr.w	r3, r2, r1, lsl #8
 8004b70:	8303      	strh	r3, [r0, #24]
 8004b72:	4770      	bx	lr

08004b74 <TIM_OC3FastConfig>:
 8004b74:	f8b0 c01c 	ldrh.w	ip, [r0, #28]
 8004b78:	f02c 0204 	bic.w	r2, ip, #4
 8004b7c:	0413      	lsls	r3, r2, #16
 8004b7e:	0c1a      	lsrs	r2, r3, #16
 8004b80:	ea41 0302 	orr.w	r3, r1, r2
 8004b84:	8383      	strh	r3, [r0, #28]
 8004b86:	4770      	bx	lr

08004b88 <TIM_OC4FastConfig>:
 8004b88:	f8b0 c01c 	ldrh.w	ip, [r0, #28]
 8004b8c:	f42c 6280 	bic.w	r2, ip, #1024	; 0x400
 8004b90:	0413      	lsls	r3, r2, #16
 8004b92:	0c1a      	lsrs	r2, r3, #16
 8004b94:	ea42 2301 	orr.w	r3, r2, r1, lsl #8
 8004b98:	8383      	strh	r3, [r0, #28]
 8004b9a:	4770      	bx	lr

08004b9c <TIM_ClearOC1Ref>:
 8004b9c:	f8b0 c018 	ldrh.w	ip, [r0, #24]
 8004ba0:	f02c 0280 	bic.w	r2, ip, #128	; 0x80
 8004ba4:	0413      	lsls	r3, r2, #16
 8004ba6:	0c1a      	lsrs	r2, r3, #16
 8004ba8:	ea41 0302 	orr.w	r3, r1, r2
 8004bac:	8303      	strh	r3, [r0, #24]
 8004bae:	4770      	bx	lr

08004bb0 <TIM_ClearOC2Ref>:
 8004bb0:	8b02      	ldrh	r2, [r0, #24]
 8004bb2:	0453      	lsls	r3, r2, #17
 8004bb4:	0c5a      	lsrs	r2, r3, #17
 8004bb6:	ea42 2301 	orr.w	r3, r2, r1, lsl #8
 8004bba:	8303      	strh	r3, [r0, #24]
 8004bbc:	4770      	bx	lr
 8004bbe:	bf00      	nop

08004bc0 <TIM_ClearOC3Ref>:
 8004bc0:	f8b0 c01c 	ldrh.w	ip, [r0, #28]
 8004bc4:	f02c 0280 	bic.w	r2, ip, #128	; 0x80
 8004bc8:	0413      	lsls	r3, r2, #16
 8004bca:	0c1a      	lsrs	r2, r3, #16
 8004bcc:	ea41 0302 	orr.w	r3, r1, r2
 8004bd0:	8383      	strh	r3, [r0, #28]
 8004bd2:	4770      	bx	lr

08004bd4 <TIM_ClearOC4Ref>:
 8004bd4:	8b82      	ldrh	r2, [r0, #28]
 8004bd6:	0453      	lsls	r3, r2, #17
 8004bd8:	0c5a      	lsrs	r2, r3, #17
 8004bda:	ea42 2301 	orr.w	r3, r2, r1, lsl #8
 8004bde:	8383      	strh	r3, [r0, #28]
 8004be0:	4770      	bx	lr
 8004be2:	bf00      	nop

08004be4 <TIM_OC1PolarityConfig>:
 8004be4:	f8b0 c020 	ldrh.w	ip, [r0, #32]
 8004be8:	f02c 0202 	bic.w	r2, ip, #2
 8004bec:	0413      	lsls	r3, r2, #16
 8004bee:	0c1a      	lsrs	r2, r3, #16
 8004bf0:	ea41 0302 	orr.w	r3, r1, r2
 8004bf4:	8403      	strh	r3, [r0, #32]
 8004bf6:	4770      	bx	lr

08004bf8 <TIM_OC1NPolarityConfig>:
 8004bf8:	f8b0 c020 	ldrh.w	ip, [r0, #32]
 8004bfc:	f02c 0208 	bic.w	r2, ip, #8
 8004c00:	0413      	lsls	r3, r2, #16
 8004c02:	0c1a      	lsrs	r2, r3, #16
 8004c04:	ea41 0302 	orr.w	r3, r1, r2
 8004c08:	8403      	strh	r3, [r0, #32]
 8004c0a:	4770      	bx	lr

08004c0c <TIM_OC2PolarityConfig>:
 8004c0c:	f8b0 c020 	ldrh.w	ip, [r0, #32]
 8004c10:	f02c 0220 	bic.w	r2, ip, #32
 8004c14:	0413      	lsls	r3, r2, #16
 8004c16:	0c1a      	lsrs	r2, r3, #16
 8004c18:	ea42 1301 	orr.w	r3, r2, r1, lsl #4
 8004c1c:	8403      	strh	r3, [r0, #32]
 8004c1e:	4770      	bx	lr

08004c20 <TIM_OC2NPolarityConfig>:
 8004c20:	f8b0 c020 	ldrh.w	ip, [r0, #32]
 8004c24:	f02c 0280 	bic.w	r2, ip, #128	; 0x80
 8004c28:	0413      	lsls	r3, r2, #16
 8004c2a:	0c1a      	lsrs	r2, r3, #16
 8004c2c:	ea42 1301 	orr.w	r3, r2, r1, lsl #4
 8004c30:	8403      	strh	r3, [r0, #32]
 8004c32:	4770      	bx	lr

08004c34 <TIM_OC3PolarityConfig>:
 8004c34:	f8b0 c020 	ldrh.w	ip, [r0, #32]
 8004c38:	f42c 7200 	bic.w	r2, ip, #512	; 0x200
 8004c3c:	0413      	lsls	r3, r2, #16
 8004c3e:	0c1a      	lsrs	r2, r3, #16
 8004c40:	ea42 2301 	orr.w	r3, r2, r1, lsl #8
 8004c44:	8403      	strh	r3, [r0, #32]
 8004c46:	4770      	bx	lr

08004c48 <TIM_OC3NPolarityConfig>:
 8004c48:	f8b0 c020 	ldrh.w	ip, [r0, #32]
 8004c4c:	f42c 6200 	bic.w	r2, ip, #2048	; 0x800
 8004c50:	0413      	lsls	r3, r2, #16
 8004c52:	0c1a      	lsrs	r2, r3, #16
 8004c54:	ea42 2301 	orr.w	r3, r2, r1, lsl #8
 8004c58:	8403      	strh	r3, [r0, #32]
 8004c5a:	4770      	bx	lr

08004c5c <TIM_OC4PolarityConfig>:
 8004c5c:	f8b0 c020 	ldrh.w	ip, [r0, #32]
 8004c60:	f42c 5200 	bic.w	r2, ip, #8192	; 0x2000
 8004c64:	0413      	lsls	r3, r2, #16
 8004c66:	0c1a      	lsrs	r2, r3, #16
 8004c68:	ea42 3301 	orr.w	r3, r2, r1, lsl #12
 8004c6c:	8403      	strh	r3, [r0, #32]
 8004c6e:	4770      	bx	lr

08004c70 <TIM_CCxCmd>:
 8004c70:	b410      	push	{r4}
 8004c72:	8c04      	ldrh	r4, [r0, #32]
 8004c74:	2301      	movs	r3, #1
 8004c76:	fa03 fc01 	lsl.w	ip, r3, r1
 8004c7a:	b2a4      	uxth	r4, r4
 8004c7c:	ea24 030c 	bic.w	r3, r4, ip
 8004c80:	8403      	strh	r3, [r0, #32]
 8004c82:	f8b0 c020 	ldrh.w	ip, [r0, #32]
 8004c86:	fa02 f101 	lsl.w	r1, r2, r1
 8004c8a:	ea41 030c 	orr.w	r3, r1, ip
 8004c8e:	8403      	strh	r3, [r0, #32]
 8004c90:	bc10      	pop	{r4}
 8004c92:	4770      	bx	lr

08004c94 <TIM_CCxNCmd>:
 8004c94:	b410      	push	{r4}
 8004c96:	8c04      	ldrh	r4, [r0, #32]
 8004c98:	2304      	movs	r3, #4
 8004c9a:	fa03 fc01 	lsl.w	ip, r3, r1
 8004c9e:	b2a4      	uxth	r4, r4
 8004ca0:	ea24 030c 	bic.w	r3, r4, ip
 8004ca4:	8403      	strh	r3, [r0, #32]
 8004ca6:	f8b0 c020 	ldrh.w	ip, [r0, #32]
 8004caa:	fa02 f101 	lsl.w	r1, r2, r1
 8004cae:	ea41 030c 	orr.w	r3, r1, ip
 8004cb2:	8403      	strh	r3, [r0, #32]
 8004cb4:	bc10      	pop	{r4}
 8004cb6:	4770      	bx	lr

08004cb8 <TIM_ICInit>:
 8004cb8:	880b      	ldrh	r3, [r1, #0]
 8004cba:	b4f0      	push	{r4, r5, r6, r7}
 8004cbc:	2b00      	cmp	r3, #0
 8004cbe:	d033      	beq.n	8004d28 <TIM_ICInit+0x70>
 8004cc0:	2b04      	cmp	r3, #4
 8004cc2:	d05f      	beq.n	8004d84 <TIM_ICInit+0xcc>
 8004cc4:	2b08      	cmp	r3, #8
 8004cc6:	8c03      	ldrh	r3, [r0, #32]
 8004cc8:	f000 808b 	beq.w	8004de2 <TIM_ICInit+0x12a>
 8004ccc:	f423 5280 	bic.w	r2, r3, #4096	; 0x1000
 8004cd0:	884f      	ldrh	r7, [r1, #2]
 8004cd2:	888e      	ldrh	r6, [r1, #4]
 8004cd4:	890d      	ldrh	r5, [r1, #8]
 8004cd6:	88cc      	ldrh	r4, [r1, #6]
 8004cd8:	0411      	lsls	r1, r2, #16
 8004cda:	0c0b      	lsrs	r3, r1, #16
 8004cdc:	8403      	strh	r3, [r0, #32]
 8004cde:	f8b0 c01c 	ldrh.w	ip, [r0, #28]
 8004ce2:	8c02      	ldrh	r2, [r0, #32]
 8004ce4:	f422 5100 	bic.w	r1, r2, #8192	; 0x2000
 8004ce8:	f42c 7340 	bic.w	r3, ip, #768	; 0x300
 8004cec:	044a      	lsls	r2, r1, #17
 8004cee:	0c52      	lsrs	r2, r2, #17
 8004cf0:	0519      	lsls	r1, r3, #20
 8004cf2:	0d0b      	lsrs	r3, r1, #20
 8004cf4:	ea42 3107 	orr.w	r1, r2, r7, lsl #12
 8004cf8:	ea43 2306 	orr.w	r3, r3, r6, lsl #8
 8004cfc:	b28a      	uxth	r2, r1
 8004cfe:	ea43 3c05 	orr.w	ip, r3, r5, lsl #12
 8004d02:	f442 5180 	orr.w	r1, r2, #4096	; 0x1000
 8004d06:	f8a0 c01c 	strh.w	ip, [r0, #28]
 8004d0a:	8401      	strh	r1, [r0, #32]
 8004d0c:	8b82      	ldrh	r2, [r0, #28]
 8004d0e:	f422 6140 	bic.w	r1, r2, #3072	; 0xc00
 8004d12:	040b      	lsls	r3, r1, #16
 8004d14:	0c1a      	lsrs	r2, r3, #16
 8004d16:	8382      	strh	r2, [r0, #28]
 8004d18:	8b81      	ldrh	r1, [r0, #28]
 8004d1a:	b28b      	uxth	r3, r1
 8004d1c:	ea43 2c04 	orr.w	ip, r3, r4, lsl #8
 8004d20:	f8a0 c01c 	strh.w	ip, [r0, #28]
 8004d24:	bcf0      	pop	{r4, r5, r6, r7}
 8004d26:	4770      	bx	lr
 8004d28:	f8b0 c020 	ldrh.w	ip, [r0, #32]
 8004d2c:	884e      	ldrh	r6, [r1, #2]
 8004d2e:	888d      	ldrh	r5, [r1, #4]
 8004d30:	890f      	ldrh	r7, [r1, #8]
 8004d32:	88cc      	ldrh	r4, [r1, #6]
 8004d34:	f02c 0201 	bic.w	r2, ip, #1
 8004d38:	0411      	lsls	r1, r2, #16
 8004d3a:	0c0b      	lsrs	r3, r1, #16
 8004d3c:	8403      	strh	r3, [r0, #32]
 8004d3e:	8b02      	ldrh	r2, [r0, #24]
 8004d40:	f8b0 c020 	ldrh.w	ip, [r0, #32]
 8004d44:	f022 01f3 	bic.w	r1, r2, #243	; 0xf3
 8004d48:	040b      	lsls	r3, r1, #16
 8004d4a:	0c1a      	lsrs	r2, r3, #16
 8004d4c:	f02c 010a 	bic.w	r1, ip, #10
 8004d50:	ea42 1207 	orr.w	r2, r2, r7, lsl #4
 8004d54:	040b      	lsls	r3, r1, #16
 8004d56:	fa1f fc82 	uxth.w	ip, r2
 8004d5a:	f046 0101 	orr.w	r1, r6, #1
 8004d5e:	0c1b      	lsrs	r3, r3, #16
 8004d60:	ea4c 0205 	orr.w	r2, ip, r5
 8004d64:	430b      	orrs	r3, r1
 8004d66:	8302      	strh	r2, [r0, #24]
 8004d68:	8403      	strh	r3, [r0, #32]
 8004d6a:	f8b0 c018 	ldrh.w	ip, [r0, #24]
 8004d6e:	f02c 020c 	bic.w	r2, ip, #12
 8004d72:	0411      	lsls	r1, r2, #16
 8004d74:	0c0b      	lsrs	r3, r1, #16
 8004d76:	8303      	strh	r3, [r0, #24]
 8004d78:	8b02      	ldrh	r2, [r0, #24]
 8004d7a:	b291      	uxth	r1, r2
 8004d7c:	ea41 0304 	orr.w	r3, r1, r4
 8004d80:	8303      	strh	r3, [r0, #24]
 8004d82:	e7cf      	b.n	8004d24 <TIM_ICInit+0x6c>
 8004d84:	8c02      	ldrh	r2, [r0, #32]
 8004d86:	884e      	ldrh	r6, [r1, #2]
 8004d88:	888d      	ldrh	r5, [r1, #4]
 8004d8a:	890f      	ldrh	r7, [r1, #8]
 8004d8c:	88cc      	ldrh	r4, [r1, #6]
 8004d8e:	f022 0310 	bic.w	r3, r2, #16
 8004d92:	041a      	lsls	r2, r3, #16
 8004d94:	0c11      	lsrs	r1, r2, #16
 8004d96:	8401      	strh	r1, [r0, #32]
 8004d98:	8b03      	ldrh	r3, [r0, #24]
 8004d9a:	f8b0 c020 	ldrh.w	ip, [r0, #32]
 8004d9e:	f423 7240 	bic.w	r2, r3, #768	; 0x300
 8004da2:	0511      	lsls	r1, r2, #20
 8004da4:	f02c 03a0 	bic.w	r3, ip, #160	; 0xa0
 8004da8:	0d0a      	lsrs	r2, r1, #20
 8004daa:	0419      	lsls	r1, r3, #16
 8004dac:	0c0b      	lsrs	r3, r1, #16
 8004dae:	ea43 1c06 	orr.w	ip, r3, r6, lsl #4
 8004db2:	ea42 3207 	orr.w	r2, r2, r7, lsl #12
 8004db6:	b291      	uxth	r1, r2
 8004db8:	fa1f f28c 	uxth.w	r2, ip
 8004dbc:	f042 0310 	orr.w	r3, r2, #16
 8004dc0:	ea41 2105 	orr.w	r1, r1, r5, lsl #8
 8004dc4:	8301      	strh	r1, [r0, #24]
 8004dc6:	8403      	strh	r3, [r0, #32]
 8004dc8:	f8b0 c018 	ldrh.w	ip, [r0, #24]
 8004dcc:	f42c 6240 	bic.w	r2, ip, #3072	; 0xc00
 8004dd0:	0411      	lsls	r1, r2, #16
 8004dd2:	0c0b      	lsrs	r3, r1, #16
 8004dd4:	8303      	strh	r3, [r0, #24]
 8004dd6:	8b02      	ldrh	r2, [r0, #24]
 8004dd8:	b291      	uxth	r1, r2
 8004dda:	ea41 2304 	orr.w	r3, r1, r4, lsl #8
 8004dde:	8303      	strh	r3, [r0, #24]
 8004de0:	e7a0      	b.n	8004d24 <TIM_ICInit+0x6c>
 8004de2:	f423 7280 	bic.w	r2, r3, #256	; 0x100
 8004de6:	884e      	ldrh	r6, [r1, #2]
 8004de8:	888d      	ldrh	r5, [r1, #4]
 8004dea:	890f      	ldrh	r7, [r1, #8]
 8004dec:	88cc      	ldrh	r4, [r1, #6]
 8004dee:	0411      	lsls	r1, r2, #16
 8004df0:	0c0b      	lsrs	r3, r1, #16
 8004df2:	8403      	strh	r3, [r0, #32]
 8004df4:	8b82      	ldrh	r2, [r0, #28]
 8004df6:	f8b0 c020 	ldrh.w	ip, [r0, #32]
 8004dfa:	f022 01f3 	bic.w	r1, r2, #243	; 0xf3
 8004dfe:	f42c 6320 	bic.w	r3, ip, #2560	; 0xa00
 8004e02:	040a      	lsls	r2, r1, #16
 8004e04:	0419      	lsls	r1, r3, #16
 8004e06:	0c12      	lsrs	r2, r2, #16
 8004e08:	0c0b      	lsrs	r3, r1, #16
 8004e0a:	ea42 1c07 	orr.w	ip, r2, r7, lsl #4
 8004e0e:	ea43 2106 	orr.w	r1, r3, r6, lsl #8
 8004e12:	fa1f f28c 	uxth.w	r2, ip
 8004e16:	b28b      	uxth	r3, r1
 8004e18:	ea42 0c05 	orr.w	ip, r2, r5
 8004e1c:	f443 7180 	orr.w	r1, r3, #256	; 0x100
 8004e20:	f8a0 c01c 	strh.w	ip, [r0, #28]
 8004e24:	8401      	strh	r1, [r0, #32]
 8004e26:	8b82      	ldrh	r2, [r0, #28]
 8004e28:	f022 030c 	bic.w	r3, r2, #12
 8004e2c:	0419      	lsls	r1, r3, #16
 8004e2e:	0c0a      	lsrs	r2, r1, #16
 8004e30:	8382      	strh	r2, [r0, #28]
 8004e32:	8b83      	ldrh	r3, [r0, #28]
 8004e34:	fa1f fc83 	uxth.w	ip, r3
 8004e38:	ea4c 0104 	orr.w	r1, ip, r4
 8004e3c:	8381      	strh	r1, [r0, #28]
 8004e3e:	e771      	b.n	8004d24 <TIM_ICInit+0x6c>

08004e40 <TIM_ICStructInit>:
 8004e40:	2300      	movs	r3, #0
 8004e42:	2201      	movs	r2, #1
 8004e44:	8003      	strh	r3, [r0, #0]
 8004e46:	8043      	strh	r3, [r0, #2]
 8004e48:	8082      	strh	r2, [r0, #4]
 8004e4a:	80c3      	strh	r3, [r0, #6]
 8004e4c:	8103      	strh	r3, [r0, #8]
 8004e4e:	4770      	bx	lr

08004e50 <TIM_PWMIConfig>:
 8004e50:	e92d 01f0 	stmdb	sp!, {r4, r5, r6, r7, r8}
 8004e54:	888a      	ldrh	r2, [r1, #4]
 8004e56:	f8b1 8002 	ldrh.w	r8, [r1, #2]
 8004e5a:	880b      	ldrh	r3, [r1, #0]
 8004e5c:	f1b8 0f00 	cmp.w	r8, #0
 8004e60:	bf0c      	ite	eq
 8004e62:	2502      	moveq	r5, #2
 8004e64:	2500      	movne	r5, #0
 8004e66:	2a01      	cmp	r2, #1
 8004e68:	bf14      	ite	ne
 8004e6a:	2601      	movne	r6, #1
 8004e6c:	2602      	moveq	r6, #2
 8004e6e:	2b00      	cmp	r3, #0
 8004e70:	d050      	beq.n	8004f14 <TIM_PWMIConfig+0xc4>
 8004e72:	8c04      	ldrh	r4, [r0, #32]
 8004e74:	f8b1 c008 	ldrh.w	ip, [r1, #8]
 8004e78:	88cf      	ldrh	r7, [r1, #6]
 8004e7a:	f024 0310 	bic.w	r3, r4, #16
 8004e7e:	041c      	lsls	r4, r3, #16
 8004e80:	0c21      	lsrs	r1, r4, #16
 8004e82:	8401      	strh	r1, [r0, #32]
 8004e84:	8b03      	ldrh	r3, [r0, #24]
 8004e86:	8c01      	ldrh	r1, [r0, #32]
 8004e88:	f423 7440 	bic.w	r4, r3, #768	; 0x300
 8004e8c:	0523      	lsls	r3, r4, #20
 8004e8e:	f021 01a0 	bic.w	r1, r1, #160	; 0xa0
 8004e92:	0d1c      	lsrs	r4, r3, #20
 8004e94:	040b      	lsls	r3, r1, #16
 8004e96:	0c19      	lsrs	r1, r3, #16
 8004e98:	ea44 340c 	orr.w	r4, r4, ip, lsl #12
 8004e9c:	ea41 1308 	orr.w	r3, r1, r8, lsl #4
 8004ea0:	b299      	uxth	r1, r3
 8004ea2:	b2a4      	uxth	r4, r4
 8004ea4:	f041 0310 	orr.w	r3, r1, #16
 8004ea8:	ea44 2202 	orr.w	r2, r4, r2, lsl #8
 8004eac:	8302      	strh	r2, [r0, #24]
 8004eae:	8403      	strh	r3, [r0, #32]
 8004eb0:	8b01      	ldrh	r1, [r0, #24]
 8004eb2:	f421 6340 	bic.w	r3, r1, #3072	; 0xc00
 8004eb6:	041a      	lsls	r2, r3, #16
 8004eb8:	0c11      	lsrs	r1, r2, #16
 8004eba:	8301      	strh	r1, [r0, #24]
 8004ebc:	8b03      	ldrh	r3, [r0, #24]
 8004ebe:	b29a      	uxth	r2, r3
 8004ec0:	ea42 2107 	orr.w	r1, r2, r7, lsl #8
 8004ec4:	8301      	strh	r1, [r0, #24]
 8004ec6:	8c03      	ldrh	r3, [r0, #32]
 8004ec8:	f023 0201 	bic.w	r2, r3, #1
 8004ecc:	0411      	lsls	r1, r2, #16
 8004ece:	0c0b      	lsrs	r3, r1, #16
 8004ed0:	8403      	strh	r3, [r0, #32]
 8004ed2:	8b02      	ldrh	r2, [r0, #24]
 8004ed4:	8c03      	ldrh	r3, [r0, #32]
 8004ed6:	f022 01f3 	bic.w	r1, r2, #243	; 0xf3
 8004eda:	040a      	lsls	r2, r1, #16
 8004edc:	f023 010a 	bic.w	r1, r3, #10
 8004ee0:	0c12      	lsrs	r2, r2, #16
 8004ee2:	040b      	lsls	r3, r1, #16
 8004ee4:	0c1b      	lsrs	r3, r3, #16
 8004ee6:	ea42 110c 	orr.w	r1, r2, ip, lsl #4
 8004eea:	b28a      	uxth	r2, r1
 8004eec:	f043 0c01 	orr.w	ip, r3, #1
 8004ef0:	4316      	orrs	r6, r2
 8004ef2:	ea4c 0505 	orr.w	r5, ip, r5
 8004ef6:	8306      	strh	r6, [r0, #24]
 8004ef8:	8405      	strh	r5, [r0, #32]
 8004efa:	8b01      	ldrh	r1, [r0, #24]
 8004efc:	f021 030c 	bic.w	r3, r1, #12
 8004f00:	041a      	lsls	r2, r3, #16
 8004f02:	0c11      	lsrs	r1, r2, #16
 8004f04:	8301      	strh	r1, [r0, #24]
 8004f06:	8b03      	ldrh	r3, [r0, #24]
 8004f08:	b29a      	uxth	r2, r3
 8004f0a:	4317      	orrs	r7, r2
 8004f0c:	8307      	strh	r7, [r0, #24]
 8004f0e:	e8bd 01f0 	ldmia.w	sp!, {r4, r5, r6, r7, r8}
 8004f12:	4770      	bx	lr
 8004f14:	f8b0 c020 	ldrh.w	ip, [r0, #32]
 8004f18:	890f      	ldrh	r7, [r1, #8]
 8004f1a:	88cc      	ldrh	r4, [r1, #6]
 8004f1c:	f02c 0101 	bic.w	r1, ip, #1
 8004f20:	040b      	lsls	r3, r1, #16
 8004f22:	0c19      	lsrs	r1, r3, #16
 8004f24:	8401      	strh	r1, [r0, #32]
 8004f26:	8b03      	ldrh	r3, [r0, #24]
 8004f28:	f8b0 c020 	ldrh.w	ip, [r0, #32]
 8004f2c:	f023 01f3 	bic.w	r1, r3, #243	; 0xf3
 8004f30:	040b      	lsls	r3, r1, #16
 8004f32:	0c19      	lsrs	r1, r3, #16
 8004f34:	f02c 030a 	bic.w	r3, ip, #10
 8004f38:	041b      	lsls	r3, r3, #16
 8004f3a:	ea41 1c07 	orr.w	ip, r1, r7, lsl #4
 8004f3e:	fa1f f18c 	uxth.w	r1, ip
 8004f42:	0c1b      	lsrs	r3, r3, #16
 8004f44:	f048 0801 	orr.w	r8, r8, #1
 8004f48:	430a      	orrs	r2, r1
 8004f4a:	ea43 0c08 	orr.w	ip, r3, r8
 8004f4e:	8302      	strh	r2, [r0, #24]
 8004f50:	f8a0 c020 	strh.w	ip, [r0, #32]
 8004f54:	8b01      	ldrh	r1, [r0, #24]
 8004f56:	f021 030c 	bic.w	r3, r1, #12
 8004f5a:	041a      	lsls	r2, r3, #16
 8004f5c:	0c11      	lsrs	r1, r2, #16
 8004f5e:	8301      	strh	r1, [r0, #24]
 8004f60:	8b03      	ldrh	r3, [r0, #24]
 8004f62:	fa1f fc83 	uxth.w	ip, r3
 8004f66:	ea4c 0204 	orr.w	r2, ip, r4
 8004f6a:	8302      	strh	r2, [r0, #24]
 8004f6c:	8c01      	ldrh	r1, [r0, #32]
 8004f6e:	f021 0310 	bic.w	r3, r1, #16
 8004f72:	041a      	lsls	r2, r3, #16
 8004f74:	0c11      	lsrs	r1, r2, #16
 8004f76:	8401      	strh	r1, [r0, #32]
 8004f78:	8b03      	ldrh	r3, [r0, #24]
 8004f7a:	f8b0 c020 	ldrh.w	ip, [r0, #32]
 8004f7e:	f423 7240 	bic.w	r2, r3, #768	; 0x300
 8004f82:	0511      	lsls	r1, r2, #20
 8004f84:	f02c 03a0 	bic.w	r3, ip, #160	; 0xa0
 8004f88:	0d0a      	lsrs	r2, r1, #20
 8004f8a:	0419      	lsls	r1, r3, #16
 8004f8c:	ea42 3207 	orr.w	r2, r2, r7, lsl #12
 8004f90:	0c0b      	lsrs	r3, r1, #16
 8004f92:	f043 0310 	orr.w	r3, r3, #16
 8004f96:	b291      	uxth	r1, r2
 8004f98:	ea41 2606 	orr.w	r6, r1, r6, lsl #8
 8004f9c:	ea43 1505 	orr.w	r5, r3, r5, lsl #4
 8004fa0:	8306      	strh	r6, [r0, #24]
 8004fa2:	8405      	strh	r5, [r0, #32]
 8004fa4:	f8b0 c018 	ldrh.w	ip, [r0, #24]
 8004fa8:	f42c 6240 	bic.w	r2, ip, #3072	; 0xc00
 8004fac:	0411      	lsls	r1, r2, #16
 8004fae:	0c0b      	lsrs	r3, r1, #16
 8004fb0:	8303      	strh	r3, [r0, #24]
 8004fb2:	8b02      	ldrh	r2, [r0, #24]
 8004fb4:	b291      	uxth	r1, r2
 8004fb6:	ea41 2404 	orr.w	r4, r1, r4, lsl #8
 8004fba:	8304      	strh	r4, [r0, #24]
 8004fbc:	e7a7      	b.n	8004f0e <TIM_PWMIConfig+0xbe>
 8004fbe:	bf00      	nop

08004fc0 <TIM_GetCapture1>:
 8004fc0:	6b40      	ldr	r0, [r0, #52]	; 0x34
 8004fc2:	4770      	bx	lr

08004fc4 <TIM_GetCapture2>:
 8004fc4:	6b80      	ldr	r0, [r0, #56]	; 0x38
 8004fc6:	4770      	bx	lr

08004fc8 <TIM_GetCapture3>:
 8004fc8:	6bc0      	ldr	r0, [r0, #60]	; 0x3c
 8004fca:	4770      	bx	lr

08004fcc <TIM_GetCapture4>:
 8004fcc:	6c00      	ldr	r0, [r0, #64]	; 0x40
 8004fce:	4770      	bx	lr

08004fd0 <TIM_SetIC1Prescaler>:
 8004fd0:	8b02      	ldrh	r2, [r0, #24]
 8004fd2:	f022 030c 	bic.w	r3, r2, #12
 8004fd6:	041a      	lsls	r2, r3, #16
 8004fd8:	0c13      	lsrs	r3, r2, #16
 8004fda:	8303      	strh	r3, [r0, #24]
 8004fdc:	f8b0 c018 	ldrh.w	ip, [r0, #24]
 8004fe0:	fa1f f28c 	uxth.w	r2, ip
 8004fe4:	ea41 0302 	orr.w	r3, r1, r2
 8004fe8:	8303      	strh	r3, [r0, #24]
 8004fea:	4770      	bx	lr

08004fec <TIM_SetIC2Prescaler>:
 8004fec:	8b02      	ldrh	r2, [r0, #24]
 8004fee:	f422 6340 	bic.w	r3, r2, #3072	; 0xc00
 8004ff2:	041a      	lsls	r2, r3, #16
 8004ff4:	0c13      	lsrs	r3, r2, #16
 8004ff6:	8303      	strh	r3, [r0, #24]
 8004ff8:	f8b0 c018 	ldrh.w	ip, [r0, #24]
 8004ffc:	fa1f f28c 	uxth.w	r2, ip
 8005000:	ea42 2301 	orr.w	r3, r2, r1, lsl #8
 8005004:	8303      	strh	r3, [r0, #24]
 8005006:	4770      	bx	lr

08005008 <TIM_SetIC3Prescaler>:
 8005008:	8b82      	ldrh	r2, [r0, #28]
 800500a:	f022 030c 	bic.w	r3, r2, #12
 800500e:	041a      	lsls	r2, r3, #16
 8005010:	0c13      	lsrs	r3, r2, #16
 8005012:	8383      	strh	r3, [r0, #28]
 8005014:	f8b0 c01c 	ldrh.w	ip, [r0, #28]
 8005018:	fa1f f28c 	uxth.w	r2, ip
 800501c:	ea41 0302 	orr.w	r3, r1, r2
 8005020:	8383      	strh	r3, [r0, #28]
 8005022:	4770      	bx	lr

08005024 <TIM_SetIC4Prescaler>:
 8005024:	8b82      	ldrh	r2, [r0, #28]
 8005026:	f422 6340 	bic.w	r3, r2, #3072	; 0xc00
 800502a:	041a      	lsls	r2, r3, #16
 800502c:	0c13      	lsrs	r3, r2, #16
 800502e:	8383      	strh	r3, [r0, #28]
 8005030:	f8b0 c01c 	ldrh.w	ip, [r0, #28]
 8005034:	fa1f f28c 	uxth.w	r2, ip
 8005038:	ea42 2301 	orr.w	r3, r2, r1, lsl #8
 800503c:	8383      	strh	r3, [r0, #28]
 800503e:	4770      	bx	lr

08005040 <TIM_BDTRConfig>:
 8005040:	880b      	ldrh	r3, [r1, #0]
 8005042:	f8b1 c002 	ldrh.w	ip, [r1, #2]
 8005046:	898a      	ldrh	r2, [r1, #12]
 8005048:	b4f0      	push	{r4, r5, r6, r7}
 800504a:	888f      	ldrh	r7, [r1, #4]
 800504c:	88ce      	ldrh	r6, [r1, #6]
 800504e:	890d      	ldrh	r5, [r1, #8]
 8005050:	894c      	ldrh	r4, [r1, #10]
 8005052:	ea4c 0c03 	orr.w	ip, ip, r3
 8005056:	ea4c 0107 	orr.w	r1, ip, r7
 800505a:	ea41 0306 	orr.w	r3, r1, r6
 800505e:	ea43 0c05 	orr.w	ip, r3, r5
 8005062:	ea4c 0104 	orr.w	r1, ip, r4
 8005066:	ea41 0302 	orr.w	r3, r1, r2
 800506a:	f8a0 3044 	strh.w	r3, [r0, #68]	; 0x44
 800506e:	bcf0      	pop	{r4, r5, r6, r7}
 8005070:	4770      	bx	lr
 8005072:	bf00      	nop

08005074 <TIM_BDTRStructInit>:
 8005074:	2300      	movs	r3, #0
 8005076:	8003      	strh	r3, [r0, #0]
 8005078:	8043      	strh	r3, [r0, #2]
 800507a:	8083      	strh	r3, [r0, #4]
 800507c:	80c3      	strh	r3, [r0, #6]
 800507e:	8103      	strh	r3, [r0, #8]
 8005080:	8143      	strh	r3, [r0, #10]
 8005082:	8183      	strh	r3, [r0, #12]
 8005084:	4770      	bx	lr
 8005086:	bf00      	nop

08005088 <TIM_CtrlPWMOutputs>:
 8005088:	f8b0 3044 	ldrh.w	r3, [r0, #68]	; 0x44
 800508c:	b921      	cbnz	r1, 8005098 <TIM_CtrlPWMOutputs+0x10>
 800508e:	045b      	lsls	r3, r3, #17
 8005090:	0c5a      	lsrs	r2, r3, #17
 8005092:	f8a0 2044 	strh.w	r2, [r0, #68]	; 0x44
 8005096:	4770      	bx	lr
 8005098:	ea6f 4143 	mvn.w	r1, r3, lsl #17
 800509c:	ea6f 4351 	mvn.w	r3, r1, lsr #17
 80050a0:	f8a0 3044 	strh.w	r3, [r0, #68]	; 0x44
 80050a4:	4770      	bx	lr
 80050a6:	bf00      	nop

080050a8 <TIM_SelectCOM>:
 80050a8:	8883      	ldrh	r3, [r0, #4]
 80050aa:	b929      	cbnz	r1, 80050b8 <TIM_SelectCOM+0x10>
 80050ac:	f023 0104 	bic.w	r1, r3, #4
 80050b0:	040b      	lsls	r3, r1, #16
 80050b2:	0c1a      	lsrs	r2, r3, #16
 80050b4:	8082      	strh	r2, [r0, #4]
 80050b6:	4770      	bx	lr
 80050b8:	b299      	uxth	r1, r3
 80050ba:	f041 0304 	orr.w	r3, r1, #4
 80050be:	8083      	strh	r3, [r0, #4]
 80050c0:	4770      	bx	lr
 80050c2:	bf00      	nop

080050c4 <TIM_CCPreloadControl>:
 80050c4:	8883      	ldrh	r3, [r0, #4]
 80050c6:	b929      	cbnz	r1, 80050d4 <TIM_CCPreloadControl+0x10>
 80050c8:	f023 0101 	bic.w	r1, r3, #1
 80050cc:	040b      	lsls	r3, r1, #16
 80050ce:	0c1a      	lsrs	r2, r3, #16
 80050d0:	8082      	strh	r2, [r0, #4]
 80050d2:	4770      	bx	lr
 80050d4:	b299      	uxth	r1, r3
 80050d6:	f041 0301 	orr.w	r3, r1, #1
 80050da:	8083      	strh	r3, [r0, #4]
 80050dc:	4770      	bx	lr
 80050de:	bf00      	nop

080050e0 <TIM_ITConfig>:
 80050e0:	8983      	ldrh	r3, [r0, #12]
 80050e2:	b29b      	uxth	r3, r3
 80050e4:	b91a      	cbnz	r2, 80050ee <TIM_ITConfig+0xe>
 80050e6:	ea23 0201 	bic.w	r2, r3, r1
 80050ea:	8182      	strh	r2, [r0, #12]
 80050ec:	4770      	bx	lr
 80050ee:	4319      	orrs	r1, r3
 80050f0:	8181      	strh	r1, [r0, #12]
 80050f2:	4770      	bx	lr

080050f4 <TIM_GenerateEvent>:
 80050f4:	8281      	strh	r1, [r0, #20]
 80050f6:	4770      	bx	lr

080050f8 <TIM_GetFlagStatus>:
 80050f8:	8a03      	ldrh	r3, [r0, #16]
 80050fa:	4219      	tst	r1, r3
 80050fc:	bf0c      	ite	eq
 80050fe:	2000      	moveq	r0, #0
 8005100:	2001      	movne	r0, #1
 8005102:	4770      	bx	lr

08005104 <TIM_ClearFlag>:
 8005104:	43c9      	mvns	r1, r1
 8005106:	8201      	strh	r1, [r0, #16]
 8005108:	4770      	bx	lr
 800510a:	bf00      	nop

0800510c <TIM_GetITStatus>:
 800510c:	8a03      	ldrh	r3, [r0, #16]
 800510e:	8982      	ldrh	r2, [r0, #12]
 8005110:	4211      	tst	r1, r2
 8005112:	bf0c      	ite	eq
 8005114:	2000      	moveq	r0, #0
 8005116:	2001      	movne	r0, #1
 8005118:	4219      	tst	r1, r3
 800511a:	bf0c      	ite	eq
 800511c:	2000      	moveq	r0, #0
 800511e:	f000 0001 	andne.w	r0, r0, #1
 8005122:	4770      	bx	lr

08005124 <TIM_ClearITPendingBit>:
 8005124:	43c9      	mvns	r1, r1
 8005126:	8201      	strh	r1, [r0, #16]
 8005128:	4770      	bx	lr
 800512a:	bf00      	nop

0800512c <TIM_DMAConfig>:
 800512c:	430a      	orrs	r2, r1
 800512e:	f8a0 2048 	strh.w	r2, [r0, #72]	; 0x48
 8005132:	4770      	bx	lr

08005134 <TIM_DMACmd>:
 8005134:	8983      	ldrh	r3, [r0, #12]
 8005136:	b29b      	uxth	r3, r3
 8005138:	b91a      	cbnz	r2, 8005142 <TIM_DMACmd+0xe>
 800513a:	ea23 0201 	bic.w	r2, r3, r1
 800513e:	8182      	strh	r2, [r0, #12]
 8005140:	4770      	bx	lr
 8005142:	4319      	orrs	r1, r3
 8005144:	8181      	strh	r1, [r0, #12]
 8005146:	4770      	bx	lr

08005148 <TIM_SelectCCDMA>:
 8005148:	8883      	ldrh	r3, [r0, #4]
 800514a:	b929      	cbnz	r1, 8005158 <TIM_SelectCCDMA+0x10>
 800514c:	f023 0108 	bic.w	r1, r3, #8
 8005150:	040b      	lsls	r3, r1, #16
 8005152:	0c1a      	lsrs	r2, r3, #16
 8005154:	8082      	strh	r2, [r0, #4]
 8005156:	4770      	bx	lr
 8005158:	b299      	uxth	r1, r3
 800515a:	f041 0308 	orr.w	r3, r1, #8
 800515e:	8083      	strh	r3, [r0, #4]
 8005160:	4770      	bx	lr
 8005162:	bf00      	nop

08005164 <TIM_InternalClockConfig>:
 8005164:	f8b0 c008 	ldrh.w	ip, [r0, #8]
 8005168:	f02c 0207 	bic.w	r2, ip, #7
 800516c:	0411      	lsls	r1, r2, #16
 800516e:	0c0b      	lsrs	r3, r1, #16
 8005170:	8103      	strh	r3, [r0, #8]
 8005172:	4770      	bx	lr

08005174 <TIM_ITRxExternalClockConfig>:
 8005174:	8902      	ldrh	r2, [r0, #8]
 8005176:	f022 0370 	bic.w	r3, r2, #112	; 0x70
 800517a:	041a      	lsls	r2, r3, #16
 800517c:	0c13      	lsrs	r3, r2, #16
 800517e:	ea41 0c03 	orr.w	ip, r1, r3
 8005182:	f8a0 c008 	strh.w	ip, [r0, #8]
 8005186:	8902      	ldrh	r2, [r0, #8]
 8005188:	b291      	uxth	r1, r2
 800518a:	f041 0307 	orr.w	r3, r1, #7
 800518e:	8103      	strh	r3, [r0, #8]
 8005190:	4770      	bx	lr
 8005192:	bf00      	nop

08005194 <TIM_TIxExternalClockConfig>:
 8005194:	2960      	cmp	r1, #96	; 0x60
 8005196:	b430      	push	{r4, r5}
 8005198:	8c04      	ldrh	r4, [r0, #32]
 800519a:	d029      	beq.n	80051f0 <TIM_TIxExternalClockConfig+0x5c>
 800519c:	f024 0401 	bic.w	r4, r4, #1
 80051a0:	0425      	lsls	r5, r4, #16
 80051a2:	0c2c      	lsrs	r4, r5, #16
 80051a4:	8404      	strh	r4, [r0, #32]
 80051a6:	8b05      	ldrh	r5, [r0, #24]
 80051a8:	f8b0 c020 	ldrh.w	ip, [r0, #32]
 80051ac:	f025 04f3 	bic.w	r4, r5, #243	; 0xf3
 80051b0:	0425      	lsls	r5, r4, #16
 80051b2:	f02c 040a 	bic.w	r4, ip, #10
 80051b6:	0424      	lsls	r4, r4, #16
 80051b8:	0c2d      	lsrs	r5, r5, #16
 80051ba:	0c24      	lsrs	r4, r4, #16
 80051bc:	f045 0501 	orr.w	r5, r5, #1
 80051c0:	f044 0401 	orr.w	r4, r4, #1
 80051c4:	ea45 1303 	orr.w	r3, r5, r3, lsl #4
 80051c8:	4322      	orrs	r2, r4
 80051ca:	8303      	strh	r3, [r0, #24]
 80051cc:	8402      	strh	r2, [r0, #32]
 80051ce:	f8b0 c008 	ldrh.w	ip, [r0, #8]
 80051d2:	f02c 0270 	bic.w	r2, ip, #112	; 0x70
 80051d6:	0413      	lsls	r3, r2, #16
 80051d8:	0c1a      	lsrs	r2, r3, #16
 80051da:	ea41 0c02 	orr.w	ip, r1, r2
 80051de:	f8a0 c008 	strh.w	ip, [r0, #8]
 80051e2:	8903      	ldrh	r3, [r0, #8]
 80051e4:	b29a      	uxth	r2, r3
 80051e6:	f042 0107 	orr.w	r1, r2, #7
 80051ea:	8101      	strh	r1, [r0, #8]
 80051ec:	bc30      	pop	{r4, r5}
 80051ee:	4770      	bx	lr
 80051f0:	f024 0510 	bic.w	r5, r4, #16
 80051f4:	042c      	lsls	r4, r5, #16
 80051f6:	0c25      	lsrs	r5, r4, #16
 80051f8:	8405      	strh	r5, [r0, #32]
 80051fa:	8b04      	ldrh	r4, [r0, #24]
 80051fc:	f8b0 c020 	ldrh.w	ip, [r0, #32]
 8005200:	f424 7540 	bic.w	r5, r4, #768	; 0x300
 8005204:	f02c 04a0 	bic.w	r4, ip, #160	; 0xa0
 8005208:	052d      	lsls	r5, r5, #20
 800520a:	0424      	lsls	r4, r4, #16
 800520c:	0d2d      	lsrs	r5, r5, #20
 800520e:	0c24      	lsrs	r4, r4, #16
 8005210:	f445 7580 	orr.w	r5, r5, #256	; 0x100
 8005214:	f044 0410 	orr.w	r4, r4, #16
 8005218:	ea45 3303 	orr.w	r3, r5, r3, lsl #12
 800521c:	ea44 1202 	orr.w	r2, r4, r2, lsl #4
 8005220:	8303      	strh	r3, [r0, #24]
 8005222:	8402      	strh	r2, [r0, #32]
 8005224:	e7d3      	b.n	80051ce <TIM_TIxExternalClockConfig+0x3a>
 8005226:	bf00      	nop

08005228 <TIM_ETRClockMode1Config>:
 8005228:	b410      	push	{r4}
 800522a:	8904      	ldrh	r4, [r0, #8]
 800522c:	fa5f fc84 	uxtb.w	ip, r4
 8005230:	ea41 010c 	orr.w	r1, r1, ip
 8005234:	ea42 0401 	orr.w	r4, r2, r1
 8005238:	ea44 2403 	orr.w	r4, r4, r3, lsl #8
 800523c:	8104      	strh	r4, [r0, #8]
 800523e:	8901      	ldrh	r1, [r0, #8]
 8005240:	f021 0377 	bic.w	r3, r1, #119	; 0x77
 8005244:	041a      	lsls	r2, r3, #16
 8005246:	0c11      	lsrs	r1, r2, #16
 8005248:	f041 0377 	orr.w	r3, r1, #119	; 0x77
 800524c:	8103      	strh	r3, [r0, #8]
 800524e:	bc10      	pop	{r4}
 8005250:	4770      	bx	lr
 8005252:	bf00      	nop

08005254 <TIM_ETRClockMode2Config>:
 8005254:	b410      	push	{r4}
 8005256:	8904      	ldrh	r4, [r0, #8]
 8005258:	fa5f fc84 	uxtb.w	ip, r4
 800525c:	ea41 010c 	orr.w	r1, r1, ip
 8005260:	ea42 0401 	orr.w	r4, r2, r1
 8005264:	ea44 2403 	orr.w	r4, r4, r3, lsl #8
 8005268:	8104      	strh	r4, [r0, #8]
 800526a:	8902      	ldrh	r2, [r0, #8]
 800526c:	b291      	uxth	r1, r2
 800526e:	f441 4380 	orr.w	r3, r1, #16384	; 0x4000
 8005272:	8103      	strh	r3, [r0, #8]
 8005274:	bc10      	pop	{r4}
 8005276:	4770      	bx	lr

08005278 <TIM_SelectInputTrigger>:
 8005278:	f8b0 c008 	ldrh.w	ip, [r0, #8]
 800527c:	f02c 0270 	bic.w	r2, ip, #112	; 0x70
 8005280:	0413      	lsls	r3, r2, #16
 8005282:	0c1a      	lsrs	r2, r3, #16
 8005284:	ea41 0302 	orr.w	r3, r1, r2
 8005288:	8103      	strh	r3, [r0, #8]
 800528a:	4770      	bx	lr

0800528c <TIM_SelectOutputTrigger>:
 800528c:	8882      	ldrh	r2, [r0, #4]
 800528e:	f022 0370 	bic.w	r3, r2, #112	; 0x70
 8005292:	041a      	lsls	r2, r3, #16
 8005294:	0c13      	lsrs	r3, r2, #16
 8005296:	8083      	strh	r3, [r0, #4]
 8005298:	f8b0 c004 	ldrh.w	ip, [r0, #4]
 800529c:	fa1f f28c 	uxth.w	r2, ip
 80052a0:	ea41 0302 	orr.w	r3, r1, r2
 80052a4:	8083      	strh	r3, [r0, #4]
 80052a6:	4770      	bx	lr

080052a8 <TIM_SelectSlaveMode>:
 80052a8:	8902      	ldrh	r2, [r0, #8]
 80052aa:	f022 0307 	bic.w	r3, r2, #7
 80052ae:	041a      	lsls	r2, r3, #16
 80052b0:	0c13      	lsrs	r3, r2, #16
 80052b2:	8103      	strh	r3, [r0, #8]
 80052b4:	f8b0 c008 	ldrh.w	ip, [r0, #8]
 80052b8:	fa1f f28c 	uxth.w	r2, ip
 80052bc:	ea41 0302 	orr.w	r3, r1, r2
 80052c0:	8103      	strh	r3, [r0, #8]
 80052c2:	4770      	bx	lr

080052c4 <TIM_SelectMasterSlaveMode>:
 80052c4:	8902      	ldrh	r2, [r0, #8]
 80052c6:	f022 0380 	bic.w	r3, r2, #128	; 0x80
 80052ca:	041a      	lsls	r2, r3, #16
 80052cc:	0c13      	lsrs	r3, r2, #16
 80052ce:	8103      	strh	r3, [r0, #8]
 80052d0:	f8b0 c008 	ldrh.w	ip, [r0, #8]
 80052d4:	fa1f f28c 	uxth.w	r2, ip
 80052d8:	ea41 0302 	orr.w	r3, r1, r2
 80052dc:	8103      	strh	r3, [r0, #8]
 80052de:	4770      	bx	lr

080052e0 <TIM_ETRConfig>:
 80052e0:	b410      	push	{r4}
 80052e2:	8904      	ldrh	r4, [r0, #8]
 80052e4:	fa5f fc84 	uxtb.w	ip, r4
 80052e8:	ea41 010c 	orr.w	r1, r1, ip
 80052ec:	ea42 0401 	orr.w	r4, r2, r1
 80052f0:	ea44 2403 	orr.w	r4, r4, r3, lsl #8
 80052f4:	8104      	strh	r4, [r0, #8]
 80052f6:	bc10      	pop	{r4}
 80052f8:	4770      	bx	lr
 80052fa:	bf00      	nop

080052fc <TIM_EncoderInterfaceConfig>:
 80052fc:	f8b0 c008 	ldrh.w	ip, [r0, #8]
 8005300:	b470      	push	{r4, r5, r6}
 8005302:	8b05      	ldrh	r5, [r0, #24]
 8005304:	8c06      	ldrh	r6, [r0, #32]
 8005306:	f425 7440 	bic.w	r4, r5, #768	; 0x300
 800530a:	f024 0403 	bic.w	r4, r4, #3
 800530e:	f026 0522 	bic.w	r5, r6, #34	; 0x22
 8005312:	042e      	lsls	r6, r5, #16
 8005314:	0424      	lsls	r4, r4, #16
 8005316:	f02c 0507 	bic.w	r5, ip, #7
 800531a:	0c36      	lsrs	r6, r6, #16
 800531c:	042d      	lsls	r5, r5, #16
 800531e:	0c24      	lsrs	r4, r4, #16
 8005320:	4316      	orrs	r6, r2
 8005322:	0c2d      	lsrs	r5, r5, #16
 8005324:	f444 7480 	orr.w	r4, r4, #256	; 0x100
 8005328:	ea46 1603 	orr.w	r6, r6, r3, lsl #4
 800532c:	4329      	orrs	r1, r5
 800532e:	f044 0401 	orr.w	r4, r4, #1
 8005332:	8101      	strh	r1, [r0, #8]
 8005334:	8304      	strh	r4, [r0, #24]
 8005336:	8406      	strh	r6, [r0, #32]
 8005338:	bc70      	pop	{r4, r5, r6}
 800533a:	4770      	bx	lr

0800533c <TIM_SelectHallSensor>:
 800533c:	8883      	ldrh	r3, [r0, #4]
 800533e:	b929      	cbnz	r1, 800534c <TIM_SelectHallSensor+0x10>
 8005340:	f023 0180 	bic.w	r1, r3, #128	; 0x80
 8005344:	040b      	lsls	r3, r1, #16
 8005346:	0c1a      	lsrs	r2, r3, #16
 8005348:	8082      	strh	r2, [r0, #4]
 800534a:	4770      	bx	lr
 800534c:	b299      	uxth	r1, r3
 800534e:	f041 0380 	orr.w	r3, r1, #128	; 0x80
 8005352:	8083      	strh	r3, [r0, #4]
 8005354:	4770      	bx	lr
 8005356:	bf00      	nop

08005358 <TIM_RemapConfig>:
 8005358:	f8a0 1050 	strh.w	r1, [r0, #80]	; 0x50
 800535c:	4770      	bx	lr
 800535e:	bf00      	nop

08005360 <I2C_DeInit>:
 8005360:	b508      	push	{r3, lr}
 8005362:	f44f 43a8 	mov.w	r3, #21504	; 0x5400
 8005366:	f2c4 0300 	movt	r3, #16384	; 0x4000
 800536a:	4298      	cmp	r0, r3
 800536c:	d018      	beq.n	80053a0 <I2C_DeInit+0x40>
 800536e:	f44f 41b0 	mov.w	r1, #22528	; 0x5800
 8005372:	f2c4 0100 	movt	r1, #16384	; 0x4000
 8005376:	4288      	cmp	r0, r1
 8005378:	d01e      	beq.n	80053b8 <I2C_DeInit+0x58>
 800537a:	f44f 42b8 	mov.w	r2, #23552	; 0x5c00
 800537e:	f2c4 0200 	movt	r2, #16384	; 0x4000
 8005382:	4290      	cmp	r0, r2
 8005384:	d000      	beq.n	8005388 <I2C_DeInit+0x28>
 8005386:	bd08      	pop	{r3, pc}
 8005388:	2101      	movs	r1, #1
 800538a:	f44f 0000 	mov.w	r0, #8388608	; 0x800000
 800538e:	f7fe ff6b 	bl	8004268 <RCC_APB1PeriphResetCmd>
 8005392:	f44f 0000 	mov.w	r0, #8388608	; 0x800000
 8005396:	2100      	movs	r1, #0
 8005398:	e8bd 4008 	ldmia.w	sp!, {r3, lr}
 800539c:	f7fe bf64 	b.w	8004268 <RCC_APB1PeriphResetCmd>
 80053a0:	2101      	movs	r1, #1
 80053a2:	f44f 1000 	mov.w	r0, #2097152	; 0x200000
 80053a6:	f7fe ff5f 	bl	8004268 <RCC_APB1PeriphResetCmd>
 80053aa:	f44f 1000 	mov.w	r0, #2097152	; 0x200000
 80053ae:	2100      	movs	r1, #0
 80053b0:	e8bd 4008 	ldmia.w	sp!, {r3, lr}
 80053b4:	f7fe bf58 	b.w	8004268 <RCC_APB1PeriphResetCmd>
 80053b8:	2101      	movs	r1, #1
 80053ba:	f44f 0080 	mov.w	r0, #4194304	; 0x400000
 80053be:	f7fe ff53 	bl	8004268 <RCC_APB1PeriphResetCmd>
 80053c2:	f44f 0080 	mov.w	r0, #4194304	; 0x400000
 80053c6:	2100      	movs	r1, #0
 80053c8:	e8bd 4008 	ldmia.w	sp!, {r3, lr}
 80053cc:	f7fe bf4c 	b.w	8004268 <RCC_APB1PeriphResetCmd>

080053d0 <I2C_Init>:
 80053d0:	b570      	push	{r4, r5, r6, lr}
 80053d2:	4604      	mov	r4, r0
 80053d4:	b084      	sub	sp, #16
 80053d6:	88a2      	ldrh	r2, [r4, #4]
 80053d8:	4668      	mov	r0, sp
 80053da:	460d      	mov	r5, r1
 80053dc:	f022 063f 	bic.w	r6, r2, #63	; 0x3f
 80053e0:	f7fe fe3e 	bl	8004060 <RCC_GetClocksFreq>
 80053e4:	9802      	ldr	r0, [sp, #8]
 80053e6:	682a      	ldr	r2, [r5, #0]
 80053e8:	f64d 6383 	movw	r3, #56963	; 0xde83
 80053ec:	f2c4 331b 	movt	r3, #17179	; 0x431b
 80053f0:	0436      	lsls	r6, r6, #16
 80053f2:	fba3 3100 	umull	r3, r1, r3, r0
 80053f6:	0c36      	lsrs	r6, r6, #16
 80053f8:	0c89      	lsrs	r1, r1, #18
 80053fa:	ea41 0306 	orr.w	r3, r1, r6
 80053fe:	80a3      	strh	r3, [r4, #4]
 8005400:	f8b4 c000 	ldrh.w	ip, [r4]
 8005404:	f02c 0601 	bic.w	r6, ip, #1
 8005408:	0433      	lsls	r3, r6, #16
 800540a:	f248 66a0 	movw	r6, #34464	; 0x86a0
 800540e:	f2c0 0601 	movt	r6, #1
 8005412:	0c1b      	lsrs	r3, r3, #16
 8005414:	42b2      	cmp	r2, r6
 8005416:	8023      	strh	r3, [r4, #0]
 8005418:	d828      	bhi.n	800546c <I2C_Init+0x9c>
 800541a:	0053      	lsls	r3, r2, #1
 800541c:	fbb0 f0f3 	udiv	r0, r0, r3
 8005420:	b280      	uxth	r0, r0
 8005422:	3101      	adds	r1, #1
 8005424:	8421      	strh	r1, [r4, #32]
 8005426:	2803      	cmp	r0, #3
 8005428:	bf98      	it	ls
 800542a:	2004      	movls	r0, #4
 800542c:	83a0      	strh	r0, [r4, #28]
 800542e:	f8b4 e000 	ldrh.w	lr, [r4]
 8005432:	88a8      	ldrh	r0, [r5, #4]
 8005434:	896e      	ldrh	r6, [r5, #10]
 8005436:	8929      	ldrh	r1, [r5, #8]
 8005438:	f8b5 c00c 	ldrh.w	ip, [r5, #12]
 800543c:	fa1f f28e 	uxth.w	r2, lr
 8005440:	f042 0301 	orr.w	r3, r2, #1
 8005444:	8023      	strh	r3, [r4, #0]
 8005446:	f8b4 e000 	ldrh.w	lr, [r4]
 800544a:	f42e 6280 	bic.w	r2, lr, #1024	; 0x400
 800544e:	f022 030a 	bic.w	r3, r2, #10
 8005452:	041a      	lsls	r2, r3, #16
 8005454:	0c12      	lsrs	r2, r2, #16
 8005456:	ea46 0300 	orr.w	r3, r6, r0
 800545a:	ea42 0e03 	orr.w	lr, r2, r3
 800545e:	ea41 000c 	orr.w	r0, r1, ip
 8005462:	f8a4 e000 	strh.w	lr, [r4]
 8005466:	8120      	strh	r0, [r4, #8]
 8005468:	b004      	add	sp, #16
 800546a:	bd70      	pop	{r4, r5, r6, pc}
 800546c:	88eb      	ldrh	r3, [r5, #6]
 800546e:	f64b 7eff 	movw	lr, #49151	; 0xbfff
 8005472:	4573      	cmp	r3, lr
 8005474:	bf1d      	ittte	ne
 8005476:	eb02 0282 	addne.w	r2, r2, r2, lsl #2
 800547a:	eb02 0282 	addne.w	r2, r2, r2, lsl #2
 800547e:	fbb0 f0f2 	udivne	r0, r0, r2
 8005482:	eb02 0242 	addeq.w	r2, r2, r2, lsl #1
 8005486:	bf16      	itet	ne
 8005488:	b280      	uxthne	r0, r0
 800548a:	fbb0 f0f2 	udiveq	r0, r0, r2
 800548e:	f440 4080 	orrne.w	r0, r0, #16384	; 0x4000
 8005492:	0502      	lsls	r2, r0, #20
 8005494:	0d16      	lsrs	r6, r2, #20
 8005496:	b90e      	cbnz	r6, 800549c <I2C_Init+0xcc>
 8005498:	f040 0001 	orr.w	r0, r0, #1
 800549c:	f44f 7396 	mov.w	r3, #300	; 0x12c
 80054a0:	f644 56d3 	movw	r6, #19923	; 0x4dd3
 80054a4:	fb03 f201 	mul.w	r2, r3, r1
 80054a8:	f2c1 0662 	movt	r6, #4194	; 0x1062
 80054ac:	fb86 2302 	smull	r2, r3, r6, r2
 80054b0:	099e      	lsrs	r6, r3, #6
 80054b2:	ea6f 4c40 	mvn.w	ip, r0, lsl #17
 80054b6:	1c71      	adds	r1, r6, #1
 80054b8:	ea6f 405c 	mvn.w	r0, ip, lsr #17
 80054bc:	8421      	strh	r1, [r4, #32]
 80054be:	e7b5      	b.n	800542c <I2C_Init+0x5c>

080054c0 <I2C_StructInit>:
 80054c0:	f241 3388 	movw	r3, #5000	; 0x1388
 80054c4:	2100      	movs	r1, #0
 80054c6:	6003      	str	r3, [r0, #0]
 80054c8:	f64b 72ff 	movw	r2, #49151	; 0xbfff
 80054cc:	f44f 4380 	mov.w	r3, #16384	; 0x4000
 80054d0:	8081      	strh	r1, [r0, #4]
 80054d2:	80c2      	strh	r2, [r0, #6]
 80054d4:	8101      	strh	r1, [r0, #8]
 80054d6:	8141      	strh	r1, [r0, #10]
 80054d8:	8183      	strh	r3, [r0, #12]
 80054da:	4770      	bx	lr

080054dc <I2C_Cmd>:
 80054dc:	8803      	ldrh	r3, [r0, #0]
 80054de:	b929      	cbnz	r1, 80054ec <I2C_Cmd+0x10>
 80054e0:	f023 0101 	bic.w	r1, r3, #1
 80054e4:	040b      	lsls	r3, r1, #16
 80054e6:	0c1a      	lsrs	r2, r3, #16
 80054e8:	8002      	strh	r2, [r0, #0]
 80054ea:	4770      	bx	lr
 80054ec:	b299      	uxth	r1, r3
 80054ee:	f041 0301 	orr.w	r3, r1, #1
 80054f2:	8003      	strh	r3, [r0, #0]
 80054f4:	4770      	bx	lr
 80054f6:	bf00      	nop

080054f8 <I2C_GenerateSTART>:
 80054f8:	8803      	ldrh	r3, [r0, #0]
 80054fa:	b929      	cbnz	r1, 8005508 <I2C_GenerateSTART+0x10>
 80054fc:	f423 7180 	bic.w	r1, r3, #256	; 0x100
 8005500:	040b      	lsls	r3, r1, #16
 8005502:	0c1a      	lsrs	r2, r3, #16
 8005504:	8002      	strh	r2, [r0, #0]
 8005506:	4770      	bx	lr
 8005508:	b299      	uxth	r1, r3
 800550a:	f441 7380 	orr.w	r3, r1, #256	; 0x100
 800550e:	8003      	strh	r3, [r0, #0]
 8005510:	4770      	bx	lr
 8005512:	bf00      	nop

08005514 <I2C_GenerateSTOP>:
 8005514:	8803      	ldrh	r3, [r0, #0]
 8005516:	b929      	cbnz	r1, 8005524 <I2C_GenerateSTOP+0x10>
 8005518:	f423 7100 	bic.w	r1, r3, #512	; 0x200
 800551c:	040b      	lsls	r3, r1, #16
 800551e:	0c1a      	lsrs	r2, r3, #16
 8005520:	8002      	strh	r2, [r0, #0]
 8005522:	4770      	bx	lr
 8005524:	b299      	uxth	r1, r3
 8005526:	f441 7300 	orr.w	r3, r1, #512	; 0x200
 800552a:	8003      	strh	r3, [r0, #0]
 800552c:	4770      	bx	lr
 800552e:	bf00      	nop

08005530 <I2C_Send7bitAddress>:
 8005530:	b91a      	cbnz	r2, 800553a <I2C_Send7bitAddress+0xa>
 8005532:	f001 01fe 	and.w	r1, r1, #254	; 0xfe
 8005536:	8201      	strh	r1, [r0, #16]
 8005538:	4770      	bx	lr
 800553a:	f041 0101 	orr.w	r1, r1, #1
 800553e:	8201      	strh	r1, [r0, #16]
 8005540:	4770      	bx	lr
 8005542:	bf00      	nop

08005544 <I2C_AcknowledgeConfig>:
 8005544:	8803      	ldrh	r3, [r0, #0]
 8005546:	b929      	cbnz	r1, 8005554 <I2C_AcknowledgeConfig+0x10>
 8005548:	f423 6180 	bic.w	r1, r3, #1024	; 0x400
 800554c:	040b      	lsls	r3, r1, #16
 800554e:	0c1a      	lsrs	r2, r3, #16
 8005550:	8002      	strh	r2, [r0, #0]
 8005552:	4770      	bx	lr
 8005554:	b299      	uxth	r1, r3
 8005556:	f441 6380 	orr.w	r3, r1, #1024	; 0x400
 800555a:	8003      	strh	r3, [r0, #0]
 800555c:	4770      	bx	lr
 800555e:	bf00      	nop

08005560 <I2C_OwnAddress2Config>:
 8005560:	f8b0 c00c 	ldrh.w	ip, [r0, #12]
 8005564:	f02c 02fe 	bic.w	r2, ip, #254	; 0xfe
 8005568:	0413      	lsls	r3, r2, #16
 800556a:	f001 01fe 	and.w	r1, r1, #254	; 0xfe
 800556e:	0c1a      	lsrs	r2, r3, #16
 8005570:	ea41 0302 	orr.w	r3, r1, r2
 8005574:	8183      	strh	r3, [r0, #12]
 8005576:	4770      	bx	lr

08005578 <I2C_DualAddressCmd>:
 8005578:	8983      	ldrh	r3, [r0, #12]
 800557a:	b929      	cbnz	r1, 8005588 <I2C_DualAddressCmd+0x10>
 800557c:	f023 0101 	bic.w	r1, r3, #1
 8005580:	040b      	lsls	r3, r1, #16
 8005582:	0c1a      	lsrs	r2, r3, #16
 8005584:	8182      	strh	r2, [r0, #12]
 8005586:	4770      	bx	lr
 8005588:	b299      	uxth	r1, r3
 800558a:	f041 0301 	orr.w	r3, r1, #1
 800558e:	8183      	strh	r3, [r0, #12]
 8005590:	4770      	bx	lr
 8005592:	bf00      	nop

08005594 <I2C_GeneralCallCmd>:
 8005594:	8803      	ldrh	r3, [r0, #0]
 8005596:	b929      	cbnz	r1, 80055a4 <I2C_GeneralCallCmd+0x10>
 8005598:	f023 0140 	bic.w	r1, r3, #64	; 0x40
 800559c:	040b      	lsls	r3, r1, #16
 800559e:	0c1a      	lsrs	r2, r3, #16
 80055a0:	8002      	strh	r2, [r0, #0]
 80055a2:	4770      	bx	lr
 80055a4:	b299      	uxth	r1, r3
 80055a6:	f041 0340 	orr.w	r3, r1, #64	; 0x40
 80055aa:	8003      	strh	r3, [r0, #0]
 80055ac:	4770      	bx	lr
 80055ae:	bf00      	nop

080055b0 <I2C_SoftwareResetCmd>:
 80055b0:	8803      	ldrh	r3, [r0, #0]
 80055b2:	b919      	cbnz	r1, 80055bc <I2C_SoftwareResetCmd+0xc>
 80055b4:	045b      	lsls	r3, r3, #17
 80055b6:	0c5a      	lsrs	r2, r3, #17
 80055b8:	8002      	strh	r2, [r0, #0]
 80055ba:	4770      	bx	lr
 80055bc:	ea6f 4143 	mvn.w	r1, r3, lsl #17
 80055c0:	ea6f 4351 	mvn.w	r3, r1, lsr #17
 80055c4:	8003      	strh	r3, [r0, #0]
 80055c6:	4770      	bx	lr

080055c8 <I2C_StretchClockCmd>:
 80055c8:	8803      	ldrh	r3, [r0, #0]
 80055ca:	b129      	cbz	r1, 80055d8 <I2C_StretchClockCmd+0x10>
 80055cc:	f023 0180 	bic.w	r1, r3, #128	; 0x80
 80055d0:	040b      	lsls	r3, r1, #16
 80055d2:	0c1a      	lsrs	r2, r3, #16
 80055d4:	8002      	strh	r2, [r0, #0]
 80055d6:	4770      	bx	lr
 80055d8:	b299      	uxth	r1, r3
 80055da:	f041 0380 	orr.w	r3, r1, #128	; 0x80
 80055de:	8003      	strh	r3, [r0, #0]
 80055e0:	4770      	bx	lr
 80055e2:	bf00      	nop

080055e4 <I2C_FastModeDutyCycleConfig>:
 80055e4:	f5b1 4f80 	cmp.w	r1, #16384	; 0x4000
 80055e8:	8b83      	ldrh	r3, [r0, #28]
 80055ea:	d005      	beq.n	80055f8 <I2C_FastModeDutyCycleConfig+0x14>
 80055ec:	f423 4280 	bic.w	r2, r3, #16384	; 0x4000
 80055f0:	0411      	lsls	r1, r2, #16
 80055f2:	0c0b      	lsrs	r3, r1, #16
 80055f4:	8383      	strh	r3, [r0, #28]
 80055f6:	4770      	bx	lr
 80055f8:	b29b      	uxth	r3, r3
 80055fa:	f443 4c80 	orr.w	ip, r3, #16384	; 0x4000
 80055fe:	f8a0 c01c 	strh.w	ip, [r0, #28]
 8005602:	4770      	bx	lr

08005604 <I2C_NACKPositionConfig>:
 8005604:	f5b1 6f00 	cmp.w	r1, #2048	; 0x800
 8005608:	8803      	ldrh	r3, [r0, #0]
 800560a:	d005      	beq.n	8005618 <I2C_NACKPositionConfig+0x14>
 800560c:	f423 6100 	bic.w	r1, r3, #2048	; 0x800
 8005610:	040b      	lsls	r3, r1, #16
 8005612:	0c1a      	lsrs	r2, r3, #16
 8005614:	8002      	strh	r2, [r0, #0]
 8005616:	4770      	bx	lr
 8005618:	b299      	uxth	r1, r3
 800561a:	f441 6300 	orr.w	r3, r1, #2048	; 0x800
 800561e:	8003      	strh	r3, [r0, #0]
 8005620:	4770      	bx	lr
 8005622:	bf00      	nop

08005624 <I2C_SMBusAlertConfig>:
 8005624:	f5b1 5f00 	cmp.w	r1, #8192	; 0x2000
 8005628:	8803      	ldrh	r3, [r0, #0]
 800562a:	d005      	beq.n	8005638 <I2C_SMBusAlertConfig+0x14>
 800562c:	f423 5100 	bic.w	r1, r3, #8192	; 0x2000
 8005630:	040b      	lsls	r3, r1, #16
 8005632:	0c1a      	lsrs	r2, r3, #16
 8005634:	8002      	strh	r2, [r0, #0]
 8005636:	4770      	bx	lr
 8005638:	b299      	uxth	r1, r3
 800563a:	f441 5300 	orr.w	r3, r1, #8192	; 0x2000
 800563e:	8003      	strh	r3, [r0, #0]
 8005640:	4770      	bx	lr
 8005642:	bf00      	nop

08005644 <I2C_ARPCmd>:
 8005644:	8803      	ldrh	r3, [r0, #0]
 8005646:	b929      	cbnz	r1, 8005654 <I2C_ARPCmd+0x10>
 8005648:	f023 0110 	bic.w	r1, r3, #16
 800564c:	040b      	lsls	r3, r1, #16
 800564e:	0c1a      	lsrs	r2, r3, #16
 8005650:	8002      	strh	r2, [r0, #0]
 8005652:	4770      	bx	lr
 8005654:	b299      	uxth	r1, r3
 8005656:	f041 0310 	orr.w	r3, r1, #16
 800565a:	8003      	strh	r3, [r0, #0]
 800565c:	4770      	bx	lr
 800565e:	bf00      	nop

08005660 <I2C_SendData>:
 8005660:	8201      	strh	r1, [r0, #16]
 8005662:	4770      	bx	lr

08005664 <I2C_ReceiveData>:
 8005664:	8a00      	ldrh	r0, [r0, #16]
 8005666:	b2c0      	uxtb	r0, r0
 8005668:	4770      	bx	lr
 800566a:	bf00      	nop

0800566c <I2C_TransmitPEC>:
 800566c:	8803      	ldrh	r3, [r0, #0]
 800566e:	b929      	cbnz	r1, 800567c <I2C_TransmitPEC+0x10>
 8005670:	f423 5180 	bic.w	r1, r3, #4096	; 0x1000
 8005674:	040b      	lsls	r3, r1, #16
 8005676:	0c1a      	lsrs	r2, r3, #16
 8005678:	8002      	strh	r2, [r0, #0]
 800567a:	4770      	bx	lr
 800567c:	b299      	uxth	r1, r3
 800567e:	f441 5380 	orr.w	r3, r1, #4096	; 0x1000
 8005682:	8003      	strh	r3, [r0, #0]
 8005684:	4770      	bx	lr
 8005686:	bf00      	nop

08005688 <I2C_PECPositionConfig>:
 8005688:	f5b1 6f00 	cmp.w	r1, #2048	; 0x800
 800568c:	8803      	ldrh	r3, [r0, #0]
 800568e:	d005      	beq.n	800569c <I2C_PECPositionConfig+0x14>
 8005690:	f423 6100 	bic.w	r1, r3, #2048	; 0x800
 8005694:	040b      	lsls	r3, r1, #16
 8005696:	0c1a      	lsrs	r2, r3, #16
 8005698:	8002      	strh	r2, [r0, #0]
 800569a:	4770      	bx	lr
 800569c:	b299      	uxth	r1, r3
 800569e:	f441 6300 	orr.w	r3, r1, #2048	; 0x800
 80056a2:	8003      	strh	r3, [r0, #0]
 80056a4:	4770      	bx	lr
 80056a6:	bf00      	nop

080056a8 <I2C_CalculatePEC>:
 80056a8:	8803      	ldrh	r3, [r0, #0]
 80056aa:	b929      	cbnz	r1, 80056b8 <I2C_CalculatePEC+0x10>
 80056ac:	f023 0120 	bic.w	r1, r3, #32
 80056b0:	040b      	lsls	r3, r1, #16
 80056b2:	0c1a      	lsrs	r2, r3, #16
 80056b4:	8002      	strh	r2, [r0, #0]
 80056b6:	4770      	bx	lr
 80056b8:	b299      	uxth	r1, r3
 80056ba:	f041 0320 	orr.w	r3, r1, #32
 80056be:	8003      	strh	r3, [r0, #0]
 80056c0:	4770      	bx	lr
 80056c2:	bf00      	nop

080056c4 <I2C_GetPEC>:
 80056c4:	8b00      	ldrh	r0, [r0, #24]
 80056c6:	f3c0 2007 	ubfx	r0, r0, #8, #8
 80056ca:	4770      	bx	lr

080056cc <I2C_DMACmd>:
 80056cc:	8883      	ldrh	r3, [r0, #4]
 80056ce:	b929      	cbnz	r1, 80056dc <I2C_DMACmd+0x10>
 80056d0:	f423 6100 	bic.w	r1, r3, #2048	; 0x800
 80056d4:	040b      	lsls	r3, r1, #16
 80056d6:	0c1a      	lsrs	r2, r3, #16
 80056d8:	8082      	strh	r2, [r0, #4]
 80056da:	4770      	bx	lr
 80056dc:	b299      	uxth	r1, r3
 80056de:	f441 6300 	orr.w	r3, r1, #2048	; 0x800
 80056e2:	8083      	strh	r3, [r0, #4]
 80056e4:	4770      	bx	lr
 80056e6:	bf00      	nop

080056e8 <I2C_DMALastTransferCmd>:
 80056e8:	8883      	ldrh	r3, [r0, #4]
 80056ea:	b929      	cbnz	r1, 80056f8 <I2C_DMALastTransferCmd+0x10>
 80056ec:	f423 5180 	bic.w	r1, r3, #4096	; 0x1000
 80056f0:	040b      	lsls	r3, r1, #16
 80056f2:	0c1a      	lsrs	r2, r3, #16
 80056f4:	8082      	strh	r2, [r0, #4]
 80056f6:	4770      	bx	lr
 80056f8:	b299      	uxth	r1, r3
 80056fa:	f441 5380 	orr.w	r3, r1, #4096	; 0x1000
 80056fe:	8083      	strh	r3, [r0, #4]
 8005700:	4770      	bx	lr
 8005702:	bf00      	nop

08005704 <I2C_ReadRegister>:
 8005704:	b082      	sub	sp, #8
 8005706:	2300      	movs	r3, #0
 8005708:	9301      	str	r3, [sp, #4]
 800570a:	9001      	str	r0, [sp, #4]
 800570c:	9a01      	ldr	r2, [sp, #4]
 800570e:	1889      	adds	r1, r1, r2
 8005710:	9101      	str	r1, [sp, #4]
 8005712:	9b01      	ldr	r3, [sp, #4]
 8005714:	8818      	ldrh	r0, [r3, #0]
 8005716:	b280      	uxth	r0, r0
 8005718:	b002      	add	sp, #8
 800571a:	4770      	bx	lr

0800571c <I2C_ITConfig>:
 800571c:	8883      	ldrh	r3, [r0, #4]
 800571e:	b29b      	uxth	r3, r3
 8005720:	b91a      	cbnz	r2, 800572a <I2C_ITConfig+0xe>
 8005722:	ea23 0201 	bic.w	r2, r3, r1
 8005726:	8082      	strh	r2, [r0, #4]
 8005728:	4770      	bx	lr
 800572a:	4319      	orrs	r1, r3
 800572c:	8081      	strh	r1, [r0, #4]
 800572e:	4770      	bx	lr

08005730 <I2C_CheckEvent>:
 8005730:	f8b0 c014 	ldrh.w	ip, [r0, #20]
 8005734:	8b03      	ldrh	r3, [r0, #24]
 8005736:	fa1f f28c 	uxth.w	r2, ip
 800573a:	ea42 4003 	orr.w	r0, r2, r3, lsl #16
 800573e:	ea00 0c01 	and.w	ip, r0, r1
 8005742:	f02c 427f 	bic.w	r2, ip, #4278190080	; 0xff000000
 8005746:	1a8b      	subs	r3, r1, r2
 8005748:	4258      	negs	r0, r3
 800574a:	eb40 0003 	adc.w	r0, r0, r3
 800574e:	4770      	bx	lr

08005750 <I2C_GetLastEvent>:
 8005750:	8a82      	ldrh	r2, [r0, #20]
 8005752:	8b03      	ldrh	r3, [r0, #24]
 8005754:	b291      	uxth	r1, r2
 8005756:	ea41 4003 	orr.w	r0, r1, r3, lsl #16
 800575a:	f020 407f 	bic.w	r0, r0, #4278190080	; 0xff000000
 800575e:	4770      	bx	lr

08005760 <I2C_GetFlagStatus>:
 8005760:	b082      	sub	sp, #8
 8005762:	2300      	movs	r3, #0
 8005764:	0f0a      	lsrs	r2, r1, #28
 8005766:	9300      	str	r3, [sp, #0]
 8005768:	9301      	str	r3, [sp, #4]
 800576a:	9001      	str	r0, [sp, #4]
 800576c:	9200      	str	r2, [sp, #0]
 800576e:	9b00      	ldr	r3, [sp, #0]
 8005770:	f021 417f 	bic.w	r1, r1, #4278190080	; 0xff000000
 8005774:	b153      	cbz	r3, 800578c <I2C_GetFlagStatus+0x2c>
 8005776:	9801      	ldr	r0, [sp, #4]
 8005778:	3014      	adds	r0, #20
 800577a:	9001      	str	r0, [sp, #4]
 800577c:	9801      	ldr	r0, [sp, #4]
 800577e:	6803      	ldr	r3, [r0, #0]
 8005780:	4219      	tst	r1, r3
 8005782:	bf0c      	ite	eq
 8005784:	2000      	moveq	r0, #0
 8005786:	2001      	movne	r0, #1
 8005788:	b002      	add	sp, #8
 800578a:	4770      	bx	lr
 800578c:	9a01      	ldr	r2, [sp, #4]
 800578e:	3218      	adds	r2, #24
 8005790:	0c09      	lsrs	r1, r1, #16
 8005792:	9201      	str	r2, [sp, #4]
 8005794:	e7f2      	b.n	800577c <I2C_GetFlagStatus+0x1c>
 8005796:	bf00      	nop

08005798 <I2C_ClearFlag>:
 8005798:	43c9      	mvns	r1, r1
 800579a:	8281      	strh	r1, [r0, #20]
 800579c:	4770      	bx	lr
 800579e:	bf00      	nop

080057a0 <I2C_GetITStatus>:
 80057a0:	8883      	ldrh	r3, [r0, #4]
 80057a2:	8a82      	ldrh	r2, [r0, #20]
 80057a4:	b290      	uxth	r0, r2
 80057a6:	4008      	ands	r0, r1
 80057a8:	b29b      	uxth	r3, r3
 80057aa:	d006      	beq.n	80057ba <I2C_GetITStatus+0x1a>
 80057ac:	f001 61e0 	and.w	r1, r1, #117440512	; 0x7000000
 80057b0:	ea13 4111 	ands.w	r1, r3, r1, lsr #16
 80057b4:	bf0c      	ite	eq
 80057b6:	2000      	moveq	r0, #0
 80057b8:	2001      	movne	r0, #1
 80057ba:	4770      	bx	lr

080057bc <I2C_ClearITPendingBit>:
 80057bc:	43c9      	mvns	r1, r1
 80057be:	8281      	strh	r1, [r0, #20]
 80057c0:	4770      	bx	lr
 80057c2:	bf00      	nop

080057c4 <FLASH_SetLatency>:
 80057c4:	f44f 5370 	mov.w	r3, #15360	; 0x3c00
 80057c8:	f2c4 0302 	movt	r3, #16386	; 0x4002
 80057cc:	7018      	strb	r0, [r3, #0]
 80057ce:	4770      	bx	lr

080057d0 <FLASH_PrefetchBufferCmd>:
 80057d0:	f44f 5370 	mov.w	r3, #15360	; 0x3c00
 80057d4:	f2c4 0302 	movt	r3, #16386	; 0x4002
 80057d8:	681a      	ldr	r2, [r3, #0]
 80057da:	b918      	cbnz	r0, 80057e4 <FLASH_PrefetchBufferCmd+0x14>
 80057dc:	f422 7080 	bic.w	r0, r2, #256	; 0x100
 80057e0:	6018      	str	r0, [r3, #0]
 80057e2:	4770      	bx	lr
 80057e4:	f442 7280 	orr.w	r2, r2, #256	; 0x100
 80057e8:	601a      	str	r2, [r3, #0]
 80057ea:	4770      	bx	lr

080057ec <FLASH_InstructionCacheCmd>:
 80057ec:	f44f 5370 	mov.w	r3, #15360	; 0x3c00
 80057f0:	f2c4 0302 	movt	r3, #16386	; 0x4002
 80057f4:	681a      	ldr	r2, [r3, #0]
 80057f6:	b918      	cbnz	r0, 8005800 <FLASH_InstructionCacheCmd+0x14>
 80057f8:	f422 7000 	bic.w	r0, r2, #512	; 0x200
 80057fc:	6018      	str	r0, [r3, #0]
 80057fe:	4770      	bx	lr
 8005800:	f442 7200 	orr.w	r2, r2, #512	; 0x200
 8005804:	601a      	str	r2, [r3, #0]
 8005806:	4770      	bx	lr

08005808 <FLASH_DataCacheCmd>:
 8005808:	f44f 5370 	mov.w	r3, #15360	; 0x3c00
 800580c:	f2c4 0302 	movt	r3, #16386	; 0x4002
 8005810:	681a      	ldr	r2, [r3, #0]
 8005812:	b918      	cbnz	r0, 800581c <FLASH_DataCacheCmd+0x14>
 8005814:	f422 6080 	bic.w	r0, r2, #1024	; 0x400
 8005818:	6018      	str	r0, [r3, #0]
 800581a:	4770      	bx	lr
 800581c:	f442 6280 	orr.w	r2, r2, #1024	; 0x400
 8005820:	601a      	str	r2, [r3, #0]
 8005822:	4770      	bx	lr

08005824 <FLASH_InstructionCacheReset>:
 8005824:	f44f 5370 	mov.w	r3, #15360	; 0x3c00
 8005828:	f2c4 0302 	movt	r3, #16386	; 0x4002
 800582c:	6818      	ldr	r0, [r3, #0]
 800582e:	f440 6200 	orr.w	r2, r0, #2048	; 0x800
 8005832:	601a      	str	r2, [r3, #0]
 8005834:	4770      	bx	lr
 8005836:	bf00      	nop

08005838 <FLASH_DataCacheReset>:
 8005838:	f44f 5370 	mov.w	r3, #15360	; 0x3c00
 800583c:	f2c4 0302 	movt	r3, #16386	; 0x4002
 8005840:	6818      	ldr	r0, [r3, #0]
 8005842:	f440 5280 	orr.w	r2, r0, #4096	; 0x1000
 8005846:	601a      	str	r2, [r3, #0]
 8005848:	4770      	bx	lr
 800584a:	bf00      	nop

0800584c <FLASH_Unlock>:
 800584c:	f44f 5370 	mov.w	r3, #15360	; 0x3c00
 8005850:	f2c4 0302 	movt	r3, #16386	; 0x4002
 8005854:	691a      	ldr	r2, [r3, #16]
 8005856:	2a00      	cmp	r2, #0
 8005858:	da09      	bge.n	800586e <FLASH_Unlock+0x22>
 800585a:	f240 1123 	movw	r1, #291	; 0x123
 800585e:	f648 10ab 	movw	r0, #35243	; 0x89ab
 8005862:	f2c4 5167 	movt	r1, #17767	; 0x4567
 8005866:	f6cc 50ef 	movt	r0, #52719	; 0xcdef
 800586a:	6059      	str	r1, [r3, #4]
 800586c:	6058      	str	r0, [r3, #4]
 800586e:	4770      	bx	lr

08005870 <FLASH_Lock>:
 8005870:	f44f 5370 	mov.w	r3, #15360	; 0x3c00
 8005874:	f2c4 0302 	movt	r3, #16386	; 0x4002
 8005878:	6918      	ldr	r0, [r3, #16]
 800587a:	f040 4200 	orr.w	r2, r0, #2147483648	; 0x80000000
 800587e:	611a      	str	r2, [r3, #16]
 8005880:	4770      	bx	lr
 8005882:	bf00      	nop

08005884 <FLASH_OB_Unlock>:
 8005884:	f44f 5370 	mov.w	r3, #15360	; 0x3c00
 8005888:	f2c4 0302 	movt	r3, #16386	; 0x4002
 800588c:	695a      	ldr	r2, [r3, #20]
 800588e:	07d2      	lsls	r2, r2, #31
 8005890:	d509      	bpl.n	80058a6 <FLASH_OB_Unlock+0x22>
 8005892:	f642 213b 	movw	r1, #10811	; 0x2a3b
 8005896:	f646 607f 	movw	r0, #28287	; 0x6e7f
 800589a:	f6c0 0119 	movt	r1, #2073	; 0x819
 800589e:	f6c4 405d 	movt	r0, #19549	; 0x4c5d
 80058a2:	6099      	str	r1, [r3, #8]
 80058a4:	6098      	str	r0, [r3, #8]
 80058a6:	4770      	bx	lr

080058a8 <FLASH_OB_Lock>:
 80058a8:	f44f 5370 	mov.w	r3, #15360	; 0x3c00
 80058ac:	f2c4 0302 	movt	r3, #16386	; 0x4002
 80058b0:	6958      	ldr	r0, [r3, #20]
 80058b2:	f040 0201 	orr.w	r2, r0, #1
 80058b6:	615a      	str	r2, [r3, #20]
 80058b8:	4770      	bx	lr
 80058ba:	bf00      	nop

080058bc <FLASH_OB_BORConfig>:
 80058bc:	f643 4314 	movw	r3, #15380	; 0x3c14
 80058c0:	f2c4 0302 	movt	r3, #16386	; 0x4002
 80058c4:	781a      	ldrb	r2, [r3, #0]
 80058c6:	f002 0cf3 	and.w	ip, r2, #243	; 0xf3
 80058ca:	f883 c000 	strb.w	ip, [r3]
 80058ce:	7819      	ldrb	r1, [r3, #0]
 80058d0:	ea40 0201 	orr.w	r2, r0, r1
 80058d4:	701a      	strb	r2, [r3, #0]
 80058d6:	4770      	bx	lr

080058d8 <FLASH_OB_GetUser>:
 80058d8:	f44f 5370 	mov.w	r3, #15360	; 0x3c00
 80058dc:	f2c4 0302 	movt	r3, #16386	; 0x4002
 80058e0:	6958      	ldr	r0, [r3, #20]
 80058e2:	f3c0 1047 	ubfx	r0, r0, #5, #8
 80058e6:	4770      	bx	lr

080058e8 <FLASH_OB_GetWRP>:
 80058e8:	f643 4316 	movw	r3, #15382	; 0x3c16
 80058ec:	f2c4 0302 	movt	r3, #16386	; 0x4002
 80058f0:	8818      	ldrh	r0, [r3, #0]
 80058f2:	b280      	uxth	r0, r0
 80058f4:	4770      	bx	lr
 80058f6:	bf00      	nop

080058f8 <FLASH_OB_GetRDP>:
 80058f8:	f643 4315 	movw	r3, #15381	; 0x3c15
 80058fc:	f2c4 0302 	movt	r3, #16386	; 0x4002
 8005900:	7818      	ldrb	r0, [r3, #0]
 8005902:	38aa      	subs	r0, #170	; 0xaa
 8005904:	bf18      	it	ne
 8005906:	2001      	movne	r0, #1
 8005908:	4770      	bx	lr
 800590a:	bf00      	nop

0800590c <FLASH_OB_GetBOR>:
 800590c:	f643 4314 	movw	r3, #15380	; 0x3c14
 8005910:	f2c4 0302 	movt	r3, #16386	; 0x4002
 8005914:	7818      	ldrb	r0, [r3, #0]
 8005916:	f000 000c 	and.w	r0, r0, #12
 800591a:	4770      	bx	lr

0800591c <FLASH_ITConfig>:
 800591c:	f44f 5370 	mov.w	r3, #15360	; 0x3c00
 8005920:	f2c4 0302 	movt	r3, #16386	; 0x4002
 8005924:	691a      	ldr	r2, [r3, #16]
 8005926:	b919      	cbnz	r1, 8005930 <FLASH_ITConfig+0x14>
 8005928:	ea22 0100 	bic.w	r1, r2, r0
 800592c:	6119      	str	r1, [r3, #16]
 800592e:	4770      	bx	lr
 8005930:	4310      	orrs	r0, r2
 8005932:	6118      	str	r0, [r3, #16]
 8005934:	4770      	bx	lr
 8005936:	bf00      	nop

08005938 <FLASH_GetFlagStatus>:
 8005938:	f44f 5170 	mov.w	r1, #15360	; 0x3c00
 800593c:	f2c4 0102 	movt	r1, #16386	; 0x4002
 8005940:	68cb      	ldr	r3, [r1, #12]
 8005942:	4218      	tst	r0, r3
 8005944:	bf0c      	ite	eq
 8005946:	2000      	moveq	r0, #0
 8005948:	2001      	movne	r0, #1
 800594a:	4770      	bx	lr

0800594c <FLASH_ClearFlag>:
 800594c:	f44f 5370 	mov.w	r3, #15360	; 0x3c00
 8005950:	f2c4 0302 	movt	r3, #16386	; 0x4002
 8005954:	60d8      	str	r0, [r3, #12]
 8005956:	4770      	bx	lr

08005958 <FLASH_GetStatus>:
 8005958:	f44f 5370 	mov.w	r3, #15360	; 0x3c00
 800595c:	f2c4 0302 	movt	r3, #16386	; 0x4002
 8005960:	68da      	ldr	r2, [r3, #12]
 8005962:	03d0      	lsls	r0, r2, #15
 8005964:	d40a      	bmi.n	800597c <FLASH_GetStatus+0x24>
 8005966:	68d8      	ldr	r0, [r3, #12]
 8005968:	06c1      	lsls	r1, r0, #27
 800596a:	d501      	bpl.n	8005970 <FLASH_GetStatus+0x18>
 800596c:	2005      	movs	r0, #5
 800596e:	4770      	bx	lr
 8005970:	68d9      	ldr	r1, [r3, #12]
 8005972:	f011 0fef 	tst.w	r1, #239	; 0xef
 8005976:	d003      	beq.n	8005980 <FLASH_GetStatus+0x28>
 8005978:	2006      	movs	r0, #6
 800597a:	4770      	bx	lr
 800597c:	2001      	movs	r0, #1
 800597e:	4770      	bx	lr
 8005980:	68db      	ldr	r3, [r3, #12]
 8005982:	f013 0f02 	tst.w	r3, #2
 8005986:	bf0c      	ite	eq
 8005988:	2008      	moveq	r0, #8
 800598a:	2007      	movne	r0, #7
 800598c:	4770      	bx	lr
 800598e:	bf00      	nop

08005990 <FLASH_WaitForLastOperation>:
 8005990:	b500      	push	{lr}
 8005992:	b083      	sub	sp, #12
 8005994:	2308      	movs	r3, #8
 8005996:	f88d 3007 	strb.w	r3, [sp, #7]
 800599a:	f7ff ffdd 	bl	8005958 <FLASH_GetStatus>
 800599e:	f88d 0007 	strb.w	r0, [sp, #7]
 80059a2:	f89d 0007 	ldrb.w	r0, [sp, #7]
 80059a6:	2801      	cmp	r0, #1
 80059a8:	d0f7      	beq.n	800599a <FLASH_WaitForLastOperation+0xa>
 80059aa:	f89d 0007 	ldrb.w	r0, [sp, #7]
 80059ae:	b003      	add	sp, #12
 80059b0:	bd00      	pop	{pc}
 80059b2:	bf00      	nop

080059b4 <FLASH_OB_Launch>:
 80059b4:	f643 4314 	movw	r3, #15380	; 0x3c14
 80059b8:	f2c4 0302 	movt	r3, #16386	; 0x4002
 80059bc:	7818      	ldrb	r0, [r3, #0]
 80059be:	f040 0202 	orr.w	r2, r0, #2
 80059c2:	701a      	strb	r2, [r3, #0]
 80059c4:	f7ff bfe4 	b.w	8005990 <FLASH_WaitForLastOperation>

080059c8 <FLASH_OB_UserConfig>:
 80059c8:	b570      	push	{r4, r5, r6, lr}
 80059ca:	4604      	mov	r4, r0
 80059cc:	460d      	mov	r5, r1
 80059ce:	4616      	mov	r6, r2
 80059d0:	f7ff ffde 	bl	8005990 <FLASH_WaitForLastOperation>
 80059d4:	2808      	cmp	r0, #8
 80059d6:	d10a      	bne.n	80059ee <FLASH_OB_UserConfig+0x26>
 80059d8:	f643 4314 	movw	r3, #15380	; 0x3c14
 80059dc:	f2c4 0302 	movt	r3, #16386	; 0x4002
 80059e0:	7818      	ldrb	r0, [r3, #0]
 80059e2:	f000 020f 	and.w	r2, r0, #15
 80059e6:	4314      	orrs	r4, r2
 80059e8:	4325      	orrs	r5, r4
 80059ea:	432e      	orrs	r6, r5
 80059ec:	701e      	strb	r6, [r3, #0]
 80059ee:	bd70      	pop	{r4, r5, r6, pc}

080059f0 <FLASH_OB_RDPConfig>:
 80059f0:	b510      	push	{r4, lr}
 80059f2:	4604      	mov	r4, r0
 80059f4:	f7ff ffcc 	bl	8005990 <FLASH_WaitForLastOperation>
 80059f8:	2808      	cmp	r0, #8
 80059fa:	bf02      	ittt	eq
 80059fc:	f643 4315 	movweq	r3, #15381	; 0x3c15
 8005a00:	f2c4 0302 	movteq	r3, #16386	; 0x4002
 8005a04:	701c      	strbeq	r4, [r3, #0]
 8005a06:	bd10      	pop	{r4, pc}

08005a08 <FLASH_OB_WRPConfig>:
 8005a08:	b538      	push	{r3, r4, r5, lr}
 8005a0a:	4604      	mov	r4, r0
 8005a0c:	460d      	mov	r5, r1
 8005a0e:	f7ff ffbf 	bl	8005990 <FLASH_WaitForLastOperation>
 8005a12:	2808      	cmp	r0, #8
 8005a14:	d000      	beq.n	8005a18 <FLASH_OB_WRPConfig+0x10>
 8005a16:	bd38      	pop	{r3, r4, r5, pc}
 8005a18:	f643 4316 	movw	r3, #15382	; 0x3c16
 8005a1c:	f2c4 0302 	movt	r3, #16386	; 0x4002
 8005a20:	881a      	ldrh	r2, [r3, #0]
 8005a22:	b915      	cbnz	r5, 8005a2a <FLASH_OB_WRPConfig+0x22>
 8005a24:	4314      	orrs	r4, r2
 8005a26:	801c      	strh	r4, [r3, #0]
 8005a28:	bd38      	pop	{r3, r4, r5, pc}
 8005a2a:	b292      	uxth	r2, r2
 8005a2c:	ea22 0404 	bic.w	r4, r2, r4
 8005a30:	801c      	strh	r4, [r3, #0]
 8005a32:	bd38      	pop	{r3, r4, r5, pc}

08005a34 <FLASH_ProgramByte>:
 8005a34:	b570      	push	{r4, r5, r6, lr}
 8005a36:	4604      	mov	r4, r0
 8005a38:	460e      	mov	r6, r1
 8005a3a:	f7ff ffa9 	bl	8005990 <FLASH_WaitForLastOperation>
 8005a3e:	2808      	cmp	r0, #8
 8005a40:	d000      	beq.n	8005a44 <FLASH_ProgramByte+0x10>
 8005a42:	bd70      	pop	{r4, r5, r6, pc}
 8005a44:	f44f 5570 	mov.w	r5, #15360	; 0x3c00
 8005a48:	f2c4 0502 	movt	r5, #16386	; 0x4002
 8005a4c:	6928      	ldr	r0, [r5, #16]
 8005a4e:	f420 7140 	bic.w	r1, r0, #768	; 0x300
 8005a52:	6129      	str	r1, [r5, #16]
 8005a54:	692b      	ldr	r3, [r5, #16]
 8005a56:	612b      	str	r3, [r5, #16]
 8005a58:	692a      	ldr	r2, [r5, #16]
 8005a5a:	f042 0001 	orr.w	r0, r2, #1
 8005a5e:	6128      	str	r0, [r5, #16]
 8005a60:	7026      	strb	r6, [r4, #0]
 8005a62:	f7ff ff95 	bl	8005990 <FLASH_WaitForLastOperation>
 8005a66:	6929      	ldr	r1, [r5, #16]
 8005a68:	f021 0301 	bic.w	r3, r1, #1
 8005a6c:	612b      	str	r3, [r5, #16]
 8005a6e:	bd70      	pop	{r4, r5, r6, pc}

08005a70 <FLASH_ProgramHalfWord>:
 8005a70:	b570      	push	{r4, r5, r6, lr}
 8005a72:	4604      	mov	r4, r0
 8005a74:	460e      	mov	r6, r1
 8005a76:	f7ff ff8b 	bl	8005990 <FLASH_WaitForLastOperation>
 8005a7a:	2808      	cmp	r0, #8
 8005a7c:	d000      	beq.n	8005a80 <FLASH_ProgramHalfWord+0x10>
 8005a7e:	bd70      	pop	{r4, r5, r6, pc}
 8005a80:	f44f 5570 	mov.w	r5, #15360	; 0x3c00
 8005a84:	f2c4 0502 	movt	r5, #16386	; 0x4002
 8005a88:	692a      	ldr	r2, [r5, #16]
 8005a8a:	f422 7040 	bic.w	r0, r2, #768	; 0x300
 8005a8e:	6128      	str	r0, [r5, #16]
 8005a90:	6929      	ldr	r1, [r5, #16]
 8005a92:	f441 7380 	orr.w	r3, r1, #256	; 0x100
 8005a96:	612b      	str	r3, [r5, #16]
 8005a98:	692a      	ldr	r2, [r5, #16]
 8005a9a:	f042 0001 	orr.w	r0, r2, #1
 8005a9e:	6128      	str	r0, [r5, #16]
 8005aa0:	8026      	strh	r6, [r4, #0]
 8005aa2:	f7ff ff75 	bl	8005990 <FLASH_WaitForLastOperation>
 8005aa6:	6929      	ldr	r1, [r5, #16]
 8005aa8:	f021 0301 	bic.w	r3, r1, #1
 8005aac:	612b      	str	r3, [r5, #16]
 8005aae:	bd70      	pop	{r4, r5, r6, pc}

08005ab0 <FLASH_ProgramWord>:
 8005ab0:	b570      	push	{r4, r5, r6, lr}
 8005ab2:	4604      	mov	r4, r0
 8005ab4:	460e      	mov	r6, r1
 8005ab6:	f7ff ff6b 	bl	8005990 <FLASH_WaitForLastOperation>
 8005aba:	2808      	cmp	r0, #8
 8005abc:	d000      	beq.n	8005ac0 <FLASH_ProgramWord+0x10>
 8005abe:	bd70      	pop	{r4, r5, r6, pc}
 8005ac0:	f44f 5570 	mov.w	r5, #15360	; 0x3c00
 8005ac4:	f2c4 0502 	movt	r5, #16386	; 0x4002
 8005ac8:	692a      	ldr	r2, [r5, #16]
 8005aca:	f422 7040 	bic.w	r0, r2, #768	; 0x300
 8005ace:	6128      	str	r0, [r5, #16]
 8005ad0:	6929      	ldr	r1, [r5, #16]
 8005ad2:	f441 7300 	orr.w	r3, r1, #512	; 0x200
 8005ad6:	612b      	str	r3, [r5, #16]
 8005ad8:	692a      	ldr	r2, [r5, #16]
 8005ada:	f042 0001 	orr.w	r0, r2, #1
 8005ade:	6128      	str	r0, [r5, #16]
 8005ae0:	6026      	str	r6, [r4, #0]
 8005ae2:	f7ff ff55 	bl	8005990 <FLASH_WaitForLastOperation>
 8005ae6:	6929      	ldr	r1, [r5, #16]
 8005ae8:	f021 0301 	bic.w	r3, r1, #1
 8005aec:	612b      	str	r3, [r5, #16]
 8005aee:	bd70      	pop	{r4, r5, r6, pc}

08005af0 <FLASH_ProgramDoubleWord>:
 8005af0:	b5f8      	push	{r3, r4, r5, r6, r7, lr}
 8005af2:	4606      	mov	r6, r0
 8005af4:	4614      	mov	r4, r2
 8005af6:	461d      	mov	r5, r3
 8005af8:	f7ff ff4a 	bl	8005990 <FLASH_WaitForLastOperation>
 8005afc:	2808      	cmp	r0, #8
 8005afe:	d000      	beq.n	8005b02 <FLASH_ProgramDoubleWord+0x12>
 8005b00:	bdf8      	pop	{r3, r4, r5, r6, r7, pc}
 8005b02:	f44f 5770 	mov.w	r7, #15360	; 0x3c00
 8005b06:	f2c4 0702 	movt	r7, #16386	; 0x4002
 8005b0a:	693a      	ldr	r2, [r7, #16]
 8005b0c:	f422 7040 	bic.w	r0, r2, #768	; 0x300
 8005b10:	6138      	str	r0, [r7, #16]
 8005b12:	6939      	ldr	r1, [r7, #16]
 8005b14:	f441 7340 	orr.w	r3, r1, #768	; 0x300
 8005b18:	613b      	str	r3, [r7, #16]
 8005b1a:	693a      	ldr	r2, [r7, #16]
 8005b1c:	f042 0001 	orr.w	r0, r2, #1
 8005b20:	6138      	str	r0, [r7, #16]
 8005b22:	e9c6 4500 	strd	r4, r5, [r6]
 8005b26:	f7ff ff33 	bl	8005990 <FLASH_WaitForLastOperation>
 8005b2a:	6939      	ldr	r1, [r7, #16]
 8005b2c:	f021 0301 	bic.w	r3, r1, #1
 8005b30:	613b      	str	r3, [r7, #16]
 8005b32:	bdf8      	pop	{r3, r4, r5, r6, r7, pc}

08005b34 <FLASH_EraseAllSectors>:
 8005b34:	b538      	push	{r3, r4, r5, lr}
 8005b36:	4604      	mov	r4, r0
 8005b38:	f7ff ff2a 	bl	8005990 <FLASH_WaitForLastOperation>
 8005b3c:	b154      	cbz	r4, 8005b54 <FLASH_EraseAllSectors+0x20>
 8005b3e:	2c01      	cmp	r4, #1
 8005b40:	bf08      	it	eq
 8005b42:	f44f 7480 	moveq.w	r4, #256	; 0x100
 8005b46:	d005      	beq.n	8005b54 <FLASH_EraseAllSectors+0x20>
 8005b48:	2c02      	cmp	r4, #2
 8005b4a:	bf14      	ite	ne
 8005b4c:	f44f 7440 	movne.w	r4, #768	; 0x300
 8005b50:	f44f 7400 	moveq.w	r4, #512	; 0x200
 8005b54:	2808      	cmp	r0, #8
 8005b56:	d000      	beq.n	8005b5a <FLASH_EraseAllSectors+0x26>
 8005b58:	bd38      	pop	{r3, r4, r5, pc}
 8005b5a:	f44f 5570 	mov.w	r5, #15360	; 0x3c00
 8005b5e:	f2c4 0502 	movt	r5, #16386	; 0x4002
 8005b62:	692b      	ldr	r3, [r5, #16]
 8005b64:	f423 7240 	bic.w	r2, r3, #768	; 0x300
 8005b68:	612a      	str	r2, [r5, #16]
 8005b6a:	6928      	ldr	r0, [r5, #16]
 8005b6c:	4304      	orrs	r4, r0
 8005b6e:	612c      	str	r4, [r5, #16]
 8005b70:	6929      	ldr	r1, [r5, #16]
 8005b72:	f041 0304 	orr.w	r3, r1, #4
 8005b76:	612b      	str	r3, [r5, #16]
 8005b78:	692a      	ldr	r2, [r5, #16]
 8005b7a:	f442 3080 	orr.w	r0, r2, #65536	; 0x10000
 8005b7e:	6128      	str	r0, [r5, #16]
 8005b80:	f7ff ff06 	bl	8005990 <FLASH_WaitForLastOperation>
 8005b84:	6929      	ldr	r1, [r5, #16]
 8005b86:	f021 0304 	bic.w	r3, r1, #4
 8005b8a:	612b      	str	r3, [r5, #16]
 8005b8c:	bd38      	pop	{r3, r4, r5, pc}
 8005b8e:	bf00      	nop

08005b90 <FLASH_EraseSector>:
 8005b90:	b570      	push	{r4, r5, r6, lr}
 8005b92:	4605      	mov	r5, r0
 8005b94:	460e      	mov	r6, r1
 8005b96:	b149      	cbz	r1, 8005bac <FLASH_EraseSector+0x1c>
 8005b98:	2902      	cmp	r1, #2
 8005b9a:	bf14      	ite	ne
 8005b9c:	f44f 7640 	movne.w	r6, #768	; 0x300
 8005ba0:	f44f 7600 	moveq.w	r6, #512	; 0x200
 8005ba4:	2901      	cmp	r1, #1
 8005ba6:	bf08      	it	eq
 8005ba8:	f44f 7680 	moveq.w	r6, #256	; 0x100
 8005bac:	f7ff fef0 	bl	8005990 <FLASH_WaitForLastOperation>
 8005bb0:	2808      	cmp	r0, #8
 8005bb2:	d000      	beq.n	8005bb6 <FLASH_EraseSector+0x26>
 8005bb4:	bd70      	pop	{r4, r5, r6, pc}
 8005bb6:	f44f 5470 	mov.w	r4, #15360	; 0x3c00
 8005bba:	f2c4 0402 	movt	r4, #16386	; 0x4002
 8005bbe:	6920      	ldr	r0, [r4, #16]
 8005bc0:	f420 7340 	bic.w	r3, r0, #768	; 0x300
 8005bc4:	6123      	str	r3, [r4, #16]
 8005bc6:	6922      	ldr	r2, [r4, #16]
 8005bc8:	4316      	orrs	r6, r2
 8005bca:	6126      	str	r6, [r4, #16]
 8005bcc:	6921      	ldr	r1, [r4, #16]
 8005bce:	f021 00f8 	bic.w	r0, r1, #248	; 0xf8
 8005bd2:	6120      	str	r0, [r4, #16]
 8005bd4:	6923      	ldr	r3, [r4, #16]
 8005bd6:	f043 0202 	orr.w	r2, r3, #2
 8005bda:	4315      	orrs	r5, r2
 8005bdc:	6125      	str	r5, [r4, #16]
 8005bde:	6921      	ldr	r1, [r4, #16]
 8005be0:	f441 3080 	orr.w	r0, r1, #65536	; 0x10000
 8005be4:	6120      	str	r0, [r4, #16]
 8005be6:	f7ff fed3 	bl	8005990 <FLASH_WaitForLastOperation>
 8005bea:	6923      	ldr	r3, [r4, #16]
 8005bec:	f023 0202 	bic.w	r2, r3, #2
 8005bf0:	6122      	str	r2, [r4, #16]
 8005bf2:	6921      	ldr	r1, [r4, #16]
 8005bf4:	f021 03f8 	bic.w	r3, r1, #248	; 0xf8
 8005bf8:	6123      	str	r3, [r4, #16]
 8005bfa:	bd70      	pop	{r4, r5, r6, pc}

08005bfc <NVIC_PriorityGroupConfig>:
 8005bfc:	f44f 436d 	mov.w	r3, #60672	; 0xed00
 8005c00:	f040 61be 	orr.w	r1, r0, #99614720	; 0x5f00000
 8005c04:	f2ce 0300 	movt	r3, #57344	; 0xe000
 8005c08:	f441 2020 	orr.w	r0, r1, #655360	; 0xa0000
 8005c0c:	60d8      	str	r0, [r3, #12]
 8005c0e:	4770      	bx	lr

08005c10 <NVIC_Init>:
 8005c10:	78c3      	ldrb	r3, [r0, #3]
 8005c12:	b430      	push	{r4, r5}
 8005c14:	b97b      	cbnz	r3, 8005c36 <NVIC_Init+0x26>
 8005c16:	7800      	ldrb	r0, [r0, #0]
 8005c18:	f44f 4c61 	mov.w	ip, #57600	; 0xe100
 8005c1c:	0941      	lsrs	r1, r0, #5
 8005c1e:	f000 021f 	and.w	r2, r0, #31
 8005c22:	f2ce 0c00 	movt	ip, #57344	; 0xe000
 8005c26:	3120      	adds	r1, #32
 8005c28:	2301      	movs	r3, #1
 8005c2a:	fa03 f002 	lsl.w	r0, r3, r2
 8005c2e:	f84c 0021 	str.w	r0, [ip, r1, lsl #2]
 8005c32:	bc30      	pop	{r4, r5}
 8005c34:	4770      	bx	lr
 8005c36:	f44f 456d 	mov.w	r5, #60672	; 0xed00
 8005c3a:	f2ce 0500 	movt	r5, #57344	; 0xe000
 8005c3e:	7842      	ldrb	r2, [r0, #1]
 8005c40:	68ec      	ldr	r4, [r5, #12]
 8005c42:	7885      	ldrb	r5, [r0, #2]
 8005c44:	7801      	ldrb	r1, [r0, #0]
 8005c46:	43e3      	mvns	r3, r4
 8005c48:	f3c3 2302 	ubfx	r3, r3, #8, #3
 8005c4c:	f1c3 0404 	rsb	r4, r3, #4
 8005c50:	fa5f fc84 	uxtb.w	ip, r4
 8005c54:	fa02 f40c 	lsl.w	r4, r2, ip
 8005c58:	220f      	movs	r2, #15
 8005c5a:	fa42 fc03 	asr.w	ip, r2, r3
 8005c5e:	ea0c 0205 	and.w	r2, ip, r5
 8005c62:	f44f 4c61 	mov.w	ip, #57600	; 0xe100
 8005c66:	f2ce 0c00 	movt	ip, #57344	; 0xe000
 8005c6a:	b2e4      	uxtb	r4, r4
 8005c6c:	4461      	add	r1, ip
 8005c6e:	ea42 0304 	orr.w	r3, r2, r4
 8005c72:	011a      	lsls	r2, r3, #4
 8005c74:	f881 2300 	strb.w	r2, [r1, #768]	; 0x300
 8005c78:	7802      	ldrb	r2, [r0, #0]
 8005c7a:	f44f 4c61 	mov.w	ip, #57600	; 0xe100
 8005c7e:	0951      	lsrs	r1, r2, #5
 8005c80:	f2ce 0c00 	movt	ip, #57344	; 0xe000
 8005c84:	f002 031f 	and.w	r3, r2, #31
 8005c88:	2001      	movs	r0, #1
 8005c8a:	fa00 f203 	lsl.w	r2, r0, r3
 8005c8e:	f84c 2021 	str.w	r2, [ip, r1, lsl #2]
 8005c92:	e7ce      	b.n	8005c32 <NVIC_Init+0x22>

08005c94 <NVIC_SetVectorTable>:
 8005c94:	f021 4c60 	bic.w	ip, r1, #3758096384	; 0xe0000000
 8005c98:	f44f 436d 	mov.w	r3, #60672	; 0xed00
 8005c9c:	f02c 027f 	bic.w	r2, ip, #127	; 0x7f
 8005ca0:	f2ce 0300 	movt	r3, #57344	; 0xe000
 8005ca4:	ea42 0100 	orr.w	r1, r2, r0
 8005ca8:	6099      	str	r1, [r3, #8]
 8005caa:	4770      	bx	lr

08005cac <NVIC_SystemLPConfig>:
 8005cac:	f44f 436d 	mov.w	r3, #60672	; 0xed00
 8005cb0:	f2ce 0300 	movt	r3, #57344	; 0xe000
 8005cb4:	691a      	ldr	r2, [r3, #16]
 8005cb6:	b919      	cbnz	r1, 8005cc0 <NVIC_SystemLPConfig+0x14>
 8005cb8:	ea22 0100 	bic.w	r1, r2, r0
 8005cbc:	6119      	str	r1, [r3, #16]
 8005cbe:	4770      	bx	lr
 8005cc0:	4310      	orrs	r0, r2
 8005cc2:	6118      	str	r0, [r3, #16]
 8005cc4:	4770      	bx	lr
 8005cc6:	bf00      	nop

08005cc8 <SysTick_CLKSourceConfig>:
 8005cc8:	f24e 0310 	movw	r3, #57360	; 0xe010
 8005ccc:	f2ce 0300 	movt	r3, #57344	; 0xe000
 8005cd0:	2804      	cmp	r0, #4
 8005cd2:	681a      	ldr	r2, [r3, #0]
 8005cd4:	bf0c      	ite	eq
 8005cd6:	f042 0204 	orreq.w	r2, r2, #4
 8005cda:	f022 0204 	bicne.w	r2, r2, #4
 8005cde:	601a      	str	r2, [r3, #0]
 8005ce0:	4770      	bx	lr
 8005ce2:	bf00      	nop

08005ce4 <USBD_cdc_GetCfgDesc>:
 8005ce4:	2343      	movs	r3, #67	; 0x43
 8005ce6:	f240 00b0 	movw	r0, #176	; 0xb0
 8005cea:	800b      	strh	r3, [r1, #0]
 8005cec:	f2c2 0000 	movt	r0, #8192	; 0x2000
 8005cf0:	4770      	bx	lr
 8005cf2:	bf00      	nop

08005cf4 <usbd_cdc_SOF>:
 8005cf4:	b538      	push	{r3, r4, r5, lr}
 8005cf6:	f240 2470 	movw	r4, #624	; 0x270
 8005cfa:	f2c2 0400 	movt	r4, #8192	; 0x2000
 8005cfe:	6823      	ldr	r3, [r4, #0]
 8005d00:	1c5a      	adds	r2, r3, #1
 8005d02:	2b05      	cmp	r3, #5
 8005d04:	6022      	str	r2, [r4, #0]
 8005d06:	d001      	beq.n	8005d0c <usbd_cdc_SOF+0x18>
 8005d08:	2000      	movs	r0, #0
 8005d0a:	bd38      	pop	{r3, r4, r5, pc}
 8005d0c:	7921      	ldrb	r1, [r4, #4]
 8005d0e:	2300      	movs	r3, #0
 8005d10:	2901      	cmp	r1, #1
 8005d12:	6023      	str	r3, [r4, #0]
 8005d14:	d0f8      	beq.n	8005d08 <usbd_cdc_SOF+0x14>
 8005d16:	68a5      	ldr	r5, [r4, #8]
 8005d18:	68e2      	ldr	r2, [r4, #12]
 8005d1a:	f5b5 6f80 	cmp.w	r5, #1024	; 0x400
 8005d1e:	bf04      	itt	eq
 8005d20:	461d      	moveq	r5, r3
 8005d22:	60a3      	streq	r3, [r4, #8]
 8005d24:	f240 2370 	movw	r3, #624	; 0x270
 8005d28:	42aa      	cmp	r2, r5
 8005d2a:	f2c2 0300 	movt	r3, #8192	; 0x2000
 8005d2e:	d024      	beq.n	8005d7a <usbd_cdc_SOF+0x86>
 8005d30:	bf34      	ite	cc
 8005d32:	f5c5 6280 	rsbcc	r2, r5, #1024	; 0x400
 8005d36:	ebc5 0202 	rsbcs	r2, r5, r2
 8005d3a:	611a      	str	r2, [r3, #16]
 8005d3c:	f8d0 35ec 	ldr.w	r3, [r0, #1516]	; 0x5ec
 8005d40:	f8b3 3039 	ldrh.w	r3, [r3, #57]	; 0x39
 8005d44:	4293      	cmp	r3, r2
 8005d46:	d211      	bcs.n	8005d6c <usbd_cdc_SOF+0x78>
 8005d48:	18e9      	adds	r1, r5, r3
 8005d4a:	1ad2      	subs	r2, r2, r3
 8005d4c:	b2ad      	uxth	r5, r5
 8005d4e:	60a1      	str	r1, [r4, #8]
 8005d50:	6122      	str	r2, [r4, #16]
 8005d52:	f640 1c7c 	movw	ip, #2428	; 0x97c
 8005d56:	f2c2 0c00 	movt	ip, #8192	; 0x2000
 8005d5a:	eb0c 0205 	add.w	r2, ip, r5
 8005d5e:	2181      	movs	r1, #129	; 0x81
 8005d60:	2501      	movs	r5, #1
 8005d62:	7125      	strb	r5, [r4, #4]
 8005d64:	f001 fc22 	bl	80075ac <DCD_EP_Tx>
 8005d68:	2000      	movs	r0, #0
 8005d6a:	bd38      	pop	{r3, r4, r5, pc}
 8005d6c:	1951      	adds	r1, r2, r5
 8005d6e:	2300      	movs	r3, #0
 8005d70:	6123      	str	r3, [r4, #16]
 8005d72:	b2ad      	uxth	r5, r5
 8005d74:	60a1      	str	r1, [r4, #8]
 8005d76:	b293      	uxth	r3, r2
 8005d78:	e7eb      	b.n	8005d52 <usbd_cdc_SOF+0x5e>
 8005d7a:	2000      	movs	r0, #0
 8005d7c:	7118      	strb	r0, [r3, #4]
 8005d7e:	e7c3      	b.n	8005d08 <usbd_cdc_SOF+0x14>

08005d80 <usbd_cdc_DataOut>:
 8005d80:	b538      	push	{r3, r4, r5, lr}
 8005d82:	f240 0c28 	movw	ip, #40	; 0x28
 8005d86:	eb01 0481 	add.w	r4, r1, r1, lsl #2
 8005d8a:	f2c2 0c00 	movt	ip, #8192	; 0x2000
 8005d8e:	eb00 01c4 	add.w	r1, r0, r4, lsl #3
 8005d92:	f640 1434 	movw	r4, #2356	; 0x934
 8005d96:	4605      	mov	r5, r0
 8005d98:	f2c2 0400 	movt	r4, #8192	; 0x2000
 8005d9c:	f8dc 2010 	ldr.w	r2, [ip, #16]
 8005da0:	f8b1 1388 	ldrh.w	r1, [r1, #904]	; 0x388
 8005da4:	4620      	mov	r0, r4
 8005da6:	4790      	blx	r2
 8005da8:	f8d5 35ec 	ldr.w	r3, [r5, #1516]	; 0x5ec
 8005dac:	4628      	mov	r0, r5
 8005dae:	2101      	movs	r1, #1
 8005db0:	4622      	mov	r2, r4
 8005db2:	f8b3 3040 	ldrh.w	r3, [r3, #64]	; 0x40
 8005db6:	f001 fbdb 	bl	8007570 <DCD_EP_PrepareRx>
 8005dba:	2000      	movs	r0, #0
 8005dbc:	bd38      	pop	{r3, r4, r5, pc}
 8005dbe:	bf00      	nop

08005dc0 <usbd_cdc_Setup>:
 8005dc0:	b570      	push	{r4, r5, r6, lr}
 8005dc2:	780b      	ldrb	r3, [r1, #0]
 8005dc4:	f013 0560 	ands.w	r5, r3, #96	; 0x60
 8005dc8:	460c      	mov	r4, r1
 8005dca:	4606      	mov	r6, r0
 8005dcc:	d108      	bne.n	8005de0 <usbd_cdc_Setup+0x20>
 8005dce:	784b      	ldrb	r3, [r1, #1]
 8005dd0:	2b0a      	cmp	r3, #10
 8005dd2:	d025      	beq.n	8005e20 <usbd_cdc_Setup+0x60>
 8005dd4:	2b0b      	cmp	r3, #11
 8005dd6:	d03f      	beq.n	8005e58 <usbd_cdc_Setup+0x98>
 8005dd8:	2b06      	cmp	r3, #6
 8005dda:	d046      	beq.n	8005e6a <usbd_cdc_Setup+0xaa>
 8005ddc:	4628      	mov	r0, r5
 8005dde:	bd70      	pop	{r4, r5, r6, pc}
 8005de0:	2d20      	cmp	r5, #32
 8005de2:	d003      	beq.n	8005dec <usbd_cdc_Setup+0x2c>
 8005de4:	f000 faa6 	bl	8006334 <USBD_CtlError>
 8005de8:	2002      	movs	r0, #2
 8005dea:	bd70      	pop	{r4, r5, r6, pc}
 8005dec:	88cd      	ldrh	r5, [r1, #6]
 8005dee:	2d00      	cmp	r5, #0
 8005df0:	d049      	beq.n	8005e86 <usbd_cdc_Setup+0xc6>
 8005df2:	061b      	lsls	r3, r3, #24
 8005df4:	d41a      	bmi.n	8005e2c <usbd_cdc_Setup+0x6c>
 8005df6:	f240 06b0 	movw	r6, #176	; 0xb0
 8005dfa:	784c      	ldrb	r4, [r1, #1]
 8005dfc:	f240 2c70 	movw	ip, #624	; 0x270
 8005e00:	f2c2 0600 	movt	r6, #8192	; 0x2000
 8005e04:	f2c2 0c00 	movt	ip, #8192	; 0x2000
 8005e08:	f640 1174 	movw	r1, #2420	; 0x974
 8005e0c:	f2c2 0100 	movt	r1, #8192	; 0x2000
 8005e10:	462a      	mov	r2, r5
 8005e12:	6474      	str	r4, [r6, #68]	; 0x44
 8005e14:	f8cc 5014 	str.w	r5, [ip, #20]
 8005e18:	f000 fa24 	bl	8006264 <USBD_CtlPrepareRx>
 8005e1c:	2000      	movs	r0, #0
 8005e1e:	bd70      	pop	{r4, r5, r6, pc}
 8005e20:	4920      	ldr	r1, [pc, #128]	; (8005ea4 <usbd_cdc_Setup+0xe4>)
 8005e22:	2201      	movs	r2, #1
 8005e24:	f000 fa04 	bl	8006230 <USBD_CtlSendData>
 8005e28:	4628      	mov	r0, r5
 8005e2a:	bd70      	pop	{r4, r5, r6, pc}
 8005e2c:	f240 0028 	movw	r0, #40	; 0x28
 8005e30:	f2c2 0000 	movt	r0, #8192	; 0x2000
 8005e34:	f640 1174 	movw	r1, #2420	; 0x974
 8005e38:	6883      	ldr	r3, [r0, #8]
 8005e3a:	7860      	ldrb	r0, [r4, #1]
 8005e3c:	f2c2 0100 	movt	r1, #8192	; 0x2000
 8005e40:	462a      	mov	r2, r5
 8005e42:	4798      	blx	r3
 8005e44:	f640 1174 	movw	r1, #2420	; 0x974
 8005e48:	4630      	mov	r0, r6
 8005e4a:	f2c2 0100 	movt	r1, #8192	; 0x2000
 8005e4e:	88e2      	ldrh	r2, [r4, #6]
 8005e50:	f000 f9ee 	bl	8006230 <USBD_CtlSendData>
 8005e54:	2000      	movs	r0, #0
 8005e56:	bd70      	pop	{r4, r5, r6, pc}
 8005e58:	788b      	ldrb	r3, [r1, #2]
 8005e5a:	b9fb      	cbnz	r3, 8005e9c <usbd_cdc_Setup+0xdc>
 8005e5c:	f240 2170 	movw	r1, #624	; 0x270
 8005e60:	f2c2 0100 	movt	r1, #8192	; 0x2000
 8005e64:	4618      	mov	r0, r3
 8005e66:	618b      	str	r3, [r1, #24]
 8005e68:	bd70      	pop	{r4, r5, r6, pc}
 8005e6a:	884b      	ldrh	r3, [r1, #2]
 8005e6c:	0a18      	lsrs	r0, r3, #8
 8005e6e:	2821      	cmp	r0, #33	; 0x21
 8005e70:	d103      	bne.n	8005e7a <usbd_cdc_Setup+0xba>
 8005e72:	88ca      	ldrh	r2, [r1, #6]
 8005e74:	2a3a      	cmp	r2, #58	; 0x3a
 8005e76:	bf28      	it	cs
 8005e78:	223a      	movcs	r2, #58	; 0x3a
 8005e7a:	4630      	mov	r0, r6
 8005e7c:	490a      	ldr	r1, [pc, #40]	; (8005ea8 <usbd_cdc_Setup+0xe8>)
 8005e7e:	f000 f9d7 	bl	8006230 <USBD_CtlSendData>
 8005e82:	2000      	movs	r0, #0
 8005e84:	bd70      	pop	{r4, r5, r6, pc}
 8005e86:	f240 0228 	movw	r2, #40	; 0x28
 8005e8a:	f2c2 0200 	movt	r2, #8192	; 0x2000
 8005e8e:	7848      	ldrb	r0, [r1, #1]
 8005e90:	6893      	ldr	r3, [r2, #8]
 8005e92:	4629      	mov	r1, r5
 8005e94:	462a      	mov	r2, r5
 8005e96:	4798      	blx	r3
 8005e98:	4628      	mov	r0, r5
 8005e9a:	bd70      	pop	{r4, r5, r6, pc}
 8005e9c:	f000 fa4a 	bl	8006334 <USBD_CtlError>
 8005ea0:	4628      	mov	r0, r5
 8005ea2:	bd70      	pop	{r4, r5, r6, pc}
 8005ea4:	20000288 	andcs	r0, r0, r8, lsl #5
 8005ea8:	200000c2 	andcs	r0, r0, r2, asr #1

08005eac <usbd_cdc_DeInit>:
 8005eac:	b510      	push	{r4, lr}
 8005eae:	2181      	movs	r1, #129	; 0x81
 8005eb0:	4604      	mov	r4, r0
 8005eb2:	f001 fb47 	bl	8007544 <DCD_EP_Close>
 8005eb6:	2101      	movs	r1, #1
 8005eb8:	4620      	mov	r0, r4
 8005eba:	f001 fb43 	bl	8007544 <DCD_EP_Close>
 8005ebe:	2182      	movs	r1, #130	; 0x82
 8005ec0:	4620      	mov	r0, r4
 8005ec2:	f001 fb3f 	bl	8007544 <DCD_EP_Close>
 8005ec6:	f240 0028 	movw	r0, #40	; 0x28
 8005eca:	f2c2 0000 	movt	r0, #8192	; 0x2000
 8005ece:	6843      	ldr	r3, [r0, #4]
 8005ed0:	4798      	blx	r3
 8005ed2:	2000      	movs	r0, #0
 8005ed4:	bd10      	pop	{r4, pc}
 8005ed6:	bf00      	nop

08005ed8 <usbd_cdc_Init>:
 8005ed8:	f8d0 25ec 	ldr.w	r2, [r0, #1516]	; 0x5ec
 8005edc:	b538      	push	{r3, r4, r5, lr}
 8005ede:	4604      	mov	r4, r0
 8005ee0:	2181      	movs	r1, #129	; 0x81
 8005ee2:	2302      	movs	r3, #2
 8005ee4:	f8b2 2039 	ldrh.w	r2, [r2, #57]	; 0x39
 8005ee8:	f001 fb0c 	bl	8007504 <DCD_EP_Open>
 8005eec:	f8d4 55ec 	ldr.w	r5, [r4, #1516]	; 0x5ec
 8005ef0:	2101      	movs	r1, #1
 8005ef2:	f8b5 2040 	ldrh.w	r2, [r5, #64]	; 0x40
 8005ef6:	2302      	movs	r3, #2
 8005ef8:	4620      	mov	r0, r4
 8005efa:	f001 fb03 	bl	8007504 <DCD_EP_Open>
 8005efe:	2303      	movs	r3, #3
 8005f00:	2182      	movs	r1, #130	; 0x82
 8005f02:	2208      	movs	r2, #8
 8005f04:	4620      	mov	r0, r4
 8005f06:	f001 fafd 	bl	8007504 <DCD_EP_Open>
 8005f0a:	f240 0c3c 	movw	ip, #60	; 0x3c
 8005f0e:	f240 0228 	movw	r2, #40	; 0x28
 8005f12:	f2c2 0c00 	movt	ip, #8192	; 0x2000
 8005f16:	f2c2 0200 	movt	r2, #8192	; 0x2000
 8005f1a:	2102      	movs	r1, #2
 8005f1c:	2500      	movs	r5, #0
 8005f1e:	f88c 1004 	strb.w	r1, [ip, #4]
 8005f22:	f88c 5005 	strb.w	r5, [ip, #5]
 8005f26:	6810      	ldr	r0, [r2, #0]
 8005f28:	4780      	blx	r0
 8005f2a:	f8d4 35ec 	ldr.w	r3, [r4, #1516]	; 0x5ec
 8005f2e:	f640 1234 	movw	r2, #2356	; 0x934
 8005f32:	4620      	mov	r0, r4
 8005f34:	2101      	movs	r1, #1
 8005f36:	f2c2 0200 	movt	r2, #8192	; 0x2000
 8005f3a:	f8b3 3040 	ldrh.w	r3, [r3, #64]	; 0x40
 8005f3e:	f001 fb17 	bl	8007570 <DCD_EP_PrepareRx>
 8005f42:	4628      	mov	r0, r5
 8005f44:	bd38      	pop	{r3, r4, r5, pc}
 8005f46:	bf00      	nop

08005f48 <usbd_cdc_EP0_RxReady>:
 8005f48:	b510      	push	{r4, lr}
 8005f4a:	f240 04b0 	movw	r4, #176	; 0xb0
 8005f4e:	f2c2 0400 	movt	r4, #8192	; 0x2000
 8005f52:	6c60      	ldr	r0, [r4, #68]	; 0x44
 8005f54:	28ff      	cmp	r0, #255	; 0xff
 8005f56:	d011      	beq.n	8005f7c <usbd_cdc_EP0_RxReady+0x34>
 8005f58:	f240 0c28 	movw	ip, #40	; 0x28
 8005f5c:	f240 2270 	movw	r2, #624	; 0x270
 8005f60:	f2c2 0c00 	movt	ip, #8192	; 0x2000
 8005f64:	f2c2 0200 	movt	r2, #8192	; 0x2000
 8005f68:	f640 1174 	movw	r1, #2420	; 0x974
 8005f6c:	f8dc 3008 	ldr.w	r3, [ip, #8]
 8005f70:	6952      	ldr	r2, [r2, #20]
 8005f72:	f2c2 0100 	movt	r1, #8192	; 0x2000
 8005f76:	4798      	blx	r3
 8005f78:	23ff      	movs	r3, #255	; 0xff
 8005f7a:	6463      	str	r3, [r4, #68]	; 0x44
 8005f7c:	2000      	movs	r0, #0
 8005f7e:	bd10      	pop	{r4, pc}

08005f80 <usbd_cdc_DataIn>:
 8005f80:	b538      	push	{r3, r4, r5, lr}
 8005f82:	f240 2170 	movw	r1, #624	; 0x270
 8005f86:	f2c2 0100 	movt	r1, #8192	; 0x2000
 8005f8a:	790b      	ldrb	r3, [r1, #4]
 8005f8c:	2b01      	cmp	r3, #1
 8005f8e:	d001      	beq.n	8005f94 <usbd_cdc_DataIn+0x14>
 8005f90:	2000      	movs	r0, #0
 8005f92:	bd38      	pop	{r3, r4, r5, pc}
 8005f94:	690a      	ldr	r2, [r1, #16]
 8005f96:	b1ea      	cbz	r2, 8005fd4 <usbd_cdc_DataIn+0x54>
 8005f98:	f8d0 45ec 	ldr.w	r4, [r0, #1516]	; 0x5ec
 8005f9c:	f8b4 3039 	ldrh.w	r3, [r4, #57]	; 0x39
 8005fa0:	688c      	ldr	r4, [r1, #8]
 8005fa2:	429a      	cmp	r2, r3
 8005fa4:	d810      	bhi.n	8005fc8 <usbd_cdc_DataIn+0x48>
 8005fa6:	18a3      	adds	r3, r4, r2
 8005fa8:	608b      	str	r3, [r1, #8]
 8005faa:	2300      	movs	r3, #0
 8005fac:	610b      	str	r3, [r1, #16]
 8005fae:	b2a4      	uxth	r4, r4
 8005fb0:	b293      	uxth	r3, r2
 8005fb2:	f640 1c7c 	movw	ip, #2428	; 0x97c
 8005fb6:	f2c2 0c00 	movt	ip, #8192	; 0x2000
 8005fba:	2181      	movs	r1, #129	; 0x81
 8005fbc:	eb0c 0204 	add.w	r2, ip, r4
 8005fc0:	f001 faf4 	bl	80075ac <DCD_EP_Tx>
 8005fc4:	2000      	movs	r0, #0
 8005fc6:	bd38      	pop	{r3, r4, r5, pc}
 8005fc8:	191d      	adds	r5, r3, r4
 8005fca:	1ad2      	subs	r2, r2, r3
 8005fcc:	b2a4      	uxth	r4, r4
 8005fce:	608d      	str	r5, [r1, #8]
 8005fd0:	610a      	str	r2, [r1, #16]
 8005fd2:	e7ee      	b.n	8005fb2 <usbd_cdc_DataIn+0x32>
 8005fd4:	710a      	strb	r2, [r1, #4]
 8005fd6:	2000      	movs	r0, #0
 8005fd8:	bd38      	pop	{r3, r4, r5, pc}
 8005fda:	bf00      	nop

08005fdc <USBD_Resume>:
 8005fdc:	f8d0 15e4 	ldr.w	r1, [r0, #1508]	; 0x5e4
 8005fe0:	b510      	push	{r4, lr}
 8005fe2:	4604      	mov	r4, r0
 8005fe4:	6908      	ldr	r0, [r1, #16]
 8005fe6:	4780      	blx	r0
 8005fe8:	2303      	movs	r3, #3
 8005fea:	f884 3112 	strb.w	r3, [r4, #274]	; 0x112
 8005fee:	2000      	movs	r0, #0
 8005ff0:	bd10      	pop	{r4, pc}
 8005ff2:	bf00      	nop

08005ff4 <USBD_Suspend>:
 8005ff4:	f8d0 15e4 	ldr.w	r1, [r0, #1508]	; 0x5e4
 8005ff8:	2204      	movs	r2, #4
 8005ffa:	b508      	push	{r3, lr}
 8005ffc:	f880 2112 	strb.w	r2, [r0, #274]	; 0x112
 8006000:	68cb      	ldr	r3, [r1, #12]
 8006002:	4798      	blx	r3
 8006004:	2000      	movs	r0, #0
 8006006:	bd08      	pop	{r3, pc}

08006008 <USBD_SOF>:
 8006008:	b508      	push	{r3, lr}
 800600a:	f8d0 35e0 	ldr.w	r3, [r0, #1504]	; 0x5e0
 800600e:	69db      	ldr	r3, [r3, #28]
 8006010:	b103      	cbz	r3, 8006014 <USBD_SOF+0xc>
 8006012:	4798      	blx	r3
 8006014:	2000      	movs	r0, #0
 8006016:	bd08      	pop	{r3, pc}

08006018 <USBD_IsoINIncomplete>:
 8006018:	f8d0 15e0 	ldr.w	r1, [r0, #1504]	; 0x5e0
 800601c:	b508      	push	{r3, lr}
 800601e:	6a0b      	ldr	r3, [r1, #32]
 8006020:	4798      	blx	r3
 8006022:	2000      	movs	r0, #0
 8006024:	bd08      	pop	{r3, pc}
 8006026:	bf00      	nop

08006028 <USBD_IsoOUTIncomplete>:
 8006028:	f8d0 15e0 	ldr.w	r1, [r0, #1504]	; 0x5e0
 800602c:	b508      	push	{r3, lr}
 800602e:	6a4b      	ldr	r3, [r1, #36]	; 0x24
 8006030:	4798      	blx	r3
 8006032:	2000      	movs	r0, #0
 8006034:	bd08      	pop	{r3, pc}
 8006036:	bf00      	nop

08006038 <USBD_Reset>:
 8006038:	2100      	movs	r1, #0
 800603a:	b510      	push	{r4, lr}
 800603c:	460b      	mov	r3, r1
 800603e:	4604      	mov	r4, r0
 8006040:	2208      	movs	r2, #8
 8006042:	f001 fa5f 	bl	8007504 <DCD_EP_Open>
 8006046:	2180      	movs	r1, #128	; 0x80
 8006048:	2208      	movs	r2, #8
 800604a:	2300      	movs	r3, #0
 800604c:	4620      	mov	r0, r4
 800604e:	f001 fa59 	bl	8007504 <DCD_EP_Open>
 8006052:	f8d4 15e4 	ldr.w	r1, [r4, #1508]	; 0x5e4
 8006056:	78a0      	ldrb	r0, [r4, #2]
 8006058:	2201      	movs	r2, #1
 800605a:	f884 2112 	strb.w	r2, [r4, #274]	; 0x112
 800605e:	684b      	ldr	r3, [r1, #4]
 8006060:	4798      	blx	r3
 8006062:	2000      	movs	r0, #0
 8006064:	bd10      	pop	{r4, pc}
 8006066:	bf00      	nop

08006068 <USBD_SetupStage>:
 8006068:	b510      	push	{r4, lr}
 800606a:	b082      	sub	sp, #8
 800606c:	4669      	mov	r1, sp
 800606e:	4604      	mov	r4, r0
 8006070:	f000 f93a 	bl	80062e8 <USBD_ParseSetupRequest>
 8006074:	f89d 1000 	ldrb.w	r1, [sp]
 8006078:	f001 031f 	and.w	r3, r1, #31
 800607c:	2b01      	cmp	r3, #1
 800607e:	4620      	mov	r0, r4
 8006080:	d011      	beq.n	80060a6 <USBD_SetupStage+0x3e>
 8006082:	2b02      	cmp	r3, #2
 8006084:	d00b      	beq.n	800609e <USBD_SetupStage+0x36>
 8006086:	b133      	cbz	r3, 8006096 <USBD_SetupStage+0x2e>
 8006088:	f001 0180 	and.w	r1, r1, #128	; 0x80
 800608c:	f001 faaa 	bl	80075e4 <DCD_EP_Stall>
 8006090:	2000      	movs	r0, #0
 8006092:	b002      	add	sp, #8
 8006094:	bd10      	pop	{r4, pc}
 8006096:	4669      	mov	r1, sp
 8006098:	f000 fa08 	bl	80064ac <USBD_StdDevReq>
 800609c:	e7f8      	b.n	8006090 <USBD_SetupStage+0x28>
 800609e:	4669      	mov	r1, sp
 80060a0:	f000 f95c 	bl	800635c <USBD_StdEPReq>
 80060a4:	e7f4      	b.n	8006090 <USBD_SetupStage+0x28>
 80060a6:	4669      	mov	r1, sp
 80060a8:	f000 f9e6 	bl	8006478 <USBD_StdItfReq>
 80060ac:	e7f0      	b.n	8006090 <USBD_SetupStage+0x28>
 80060ae:	bf00      	nop

080060b0 <USBD_DataInStage>:
 80060b0:	b538      	push	{r3, r4, r5, lr}
 80060b2:	4604      	mov	r4, r0
 80060b4:	b929      	cbnz	r1, 80060c2 <USBD_DataInStage+0x12>
 80060b6:	f890 3111 	ldrb.w	r3, [r0, #273]	; 0x111
 80060ba:	2b02      	cmp	r3, #2
 80060bc:	d00d      	beq.n	80060da <USBD_DataInStage+0x2a>
 80060be:	2000      	movs	r0, #0
 80060c0:	bd38      	pop	{r3, r4, r5, pc}
 80060c2:	f8d0 25e0 	ldr.w	r2, [r0, #1504]	; 0x5e0
 80060c6:	6953      	ldr	r3, [r2, #20]
 80060c8:	2b00      	cmp	r3, #0
 80060ca:	d0f8      	beq.n	80060be <USBD_DataInStage+0xe>
 80060cc:	f890 c112 	ldrb.w	ip, [r0, #274]	; 0x112
 80060d0:	f1bc 0f03 	cmp.w	ip, #3
 80060d4:	d1f3      	bne.n	80060be <USBD_DataInStage+0xe>
 80060d6:	4798      	blx	r3
 80060d8:	e7f1      	b.n	80060be <USBD_DataInStage+0xe>
 80060da:	f8d0 2134 	ldr.w	r2, [r0, #308]	; 0x134
 80060de:	f8d0 3120 	ldr.w	r3, [r0, #288]	; 0x120
 80060e2:	429a      	cmp	r2, r3
 80060e4:	d910      	bls.n	8006108 <USBD_DataInStage+0x58>
 80060e6:	78c1      	ldrb	r1, [r0, #3]
 80060e8:	2901      	cmp	r1, #1
 80060ea:	f8d0 1124 	ldr.w	r1, [r0, #292]	; 0x124
 80060ee:	ebc3 0202 	rsb	r2, r3, r2
 80060f2:	bf08      	it	eq
 80060f4:	18c9      	addeq	r1, r1, r3
 80060f6:	f8c0 2134 	str.w	r2, [r0, #308]	; 0x134
 80060fa:	bf08      	it	eq
 80060fc:	f8c0 1124 	streq.w	r1, [r0, #292]	; 0x124
 8006100:	b292      	uxth	r2, r2
 8006102:	f000 f8a5 	bl	8006250 <USBD_CtlContinueSendData>
 8006106:	e7da      	b.n	80060be <USBD_DataInStage+0xe>
 8006108:	f8d0 2138 	ldr.w	r2, [r0, #312]	; 0x138
 800610c:	fbb2 f5f3 	udiv	r5, r2, r3
 8006110:	fb03 2515 	mls	r5, r3, r5, r2
 8006114:	b95d      	cbnz	r5, 800612e <USBD_DataInStage+0x7e>
 8006116:	4293      	cmp	r3, r2
 8006118:	d809      	bhi.n	800612e <USBD_DataInStage+0x7e>
 800611a:	f8d0 313c 	ldr.w	r3, [r0, #316]	; 0x13c
 800611e:	429a      	cmp	r2, r3
 8006120:	d205      	bcs.n	800612e <USBD_DataInStage+0x7e>
 8006122:	462a      	mov	r2, r5
 8006124:	f000 f894 	bl	8006250 <USBD_CtlContinueSendData>
 8006128:	f8c4 513c 	str.w	r5, [r4, #316]	; 0x13c
 800612c:	e7c7      	b.n	80060be <USBD_DataInStage+0xe>
 800612e:	f8d4 05e0 	ldr.w	r0, [r4, #1504]	; 0x5e0
 8006132:	68c3      	ldr	r3, [r0, #12]
 8006134:	b123      	cbz	r3, 8006140 <USBD_DataInStage+0x90>
 8006136:	f894 c112 	ldrb.w	ip, [r4, #274]	; 0x112
 800613a:	f1bc 0f03 	cmp.w	ip, #3
 800613e:	d003      	beq.n	8006148 <USBD_DataInStage+0x98>
 8006140:	4620      	mov	r0, r4
 8006142:	f000 f8b9 	bl	80062b8 <USBD_CtlReceiveStatus>
 8006146:	e7ba      	b.n	80060be <USBD_DataInStage+0xe>
 8006148:	4620      	mov	r0, r4
 800614a:	4798      	blx	r3
 800614c:	e7f8      	b.n	8006140 <USBD_DataInStage+0x90>
 800614e:	bf00      	nop

08006150 <USBD_DataOutStage>:
 8006150:	b510      	push	{r4, lr}
 8006152:	4604      	mov	r4, r0
 8006154:	b929      	cbnz	r1, 8006162 <USBD_DataOutStage+0x12>
 8006156:	f890 3111 	ldrb.w	r3, [r0, #273]	; 0x111
 800615a:	2b03      	cmp	r3, #3
 800615c:	d00d      	beq.n	800617a <USBD_DataOutStage+0x2a>
 800615e:	2000      	movs	r0, #0
 8006160:	bd10      	pop	{r4, pc}
 8006162:	f8d0 25e0 	ldr.w	r2, [r0, #1504]	; 0x5e0
 8006166:	6993      	ldr	r3, [r2, #24]
 8006168:	2b00      	cmp	r3, #0
 800616a:	d0f8      	beq.n	800615e <USBD_DataOutStage+0xe>
 800616c:	f890 c112 	ldrb.w	ip, [r0, #274]	; 0x112
 8006170:	f1bc 0f03 	cmp.w	ip, #3
 8006174:	d1f3      	bne.n	800615e <USBD_DataOutStage+0xe>
 8006176:	4798      	blx	r3
 8006178:	e7f1      	b.n	800615e <USBD_DataOutStage+0xe>
 800617a:	f8d0 238c 	ldr.w	r2, [r0, #908]	; 0x38c
 800617e:	f8d0 3378 	ldr.w	r3, [r0, #888]	; 0x378
 8006182:	429a      	cmp	r2, r3
 8006184:	d912      	bls.n	80061ac <USBD_DataOutStage+0x5c>
 8006186:	78c1      	ldrb	r1, [r0, #3]
 8006188:	2901      	cmp	r1, #1
 800618a:	f8d0 137c 	ldr.w	r1, [r0, #892]	; 0x37c
 800618e:	ebc3 0202 	rsb	r2, r3, r2
 8006192:	bf04      	itt	eq
 8006194:	18c9      	addeq	r1, r1, r3
 8006196:	f8c0 137c 	streq.w	r1, [r0, #892]	; 0x37c
 800619a:	f8c0 238c 	str.w	r2, [r0, #908]	; 0x38c
 800619e:	429a      	cmp	r2, r3
 80061a0:	bf28      	it	cs
 80061a2:	461a      	movcs	r2, r3
 80061a4:	b292      	uxth	r2, r2
 80061a6:	f000 f86d 	bl	8006284 <USBD_CtlContinueRx>
 80061aa:	e7d8      	b.n	800615e <USBD_DataOutStage+0xe>
 80061ac:	f8d0 35e0 	ldr.w	r3, [r0, #1504]	; 0x5e0
 80061b0:	691b      	ldr	r3, [r3, #16]
 80061b2:	b123      	cbz	r3, 80061be <USBD_DataOutStage+0x6e>
 80061b4:	f890 c112 	ldrb.w	ip, [r0, #274]	; 0x112
 80061b8:	f1bc 0f03 	cmp.w	ip, #3
 80061bc:	d003      	beq.n	80061c6 <USBD_DataOutStage+0x76>
 80061be:	4620      	mov	r0, r4
 80061c0:	f000 f86a 	bl	8006298 <USBD_CtlSendStatus>
 80061c4:	e7cb      	b.n	800615e <USBD_DataOutStage+0xe>
 80061c6:	4798      	blx	r3
 80061c8:	e7f9      	b.n	80061be <USBD_DataOutStage+0x6e>
 80061ca:	bf00      	nop

080061cc <USBD_Init>:
 80061cc:	e92d 41f0 	stmdb	sp!, {r4, r5, r6, r7, r8, lr}
 80061d0:	9d06      	ldr	r5, [sp, #24]
 80061d2:	4604      	mov	r4, r0
 80061d4:	4616      	mov	r6, r2
 80061d6:	461f      	mov	r7, r3
 80061d8:	4688      	mov	r8, r1
 80061da:	f7fc f963 	bl	80024a4 <USB_OTG_BSP_Init>
 80061de:	4620      	mov	r0, r4
 80061e0:	4641      	mov	r1, r8
 80061e2:	f8c4 75e0 	str.w	r7, [r4, #1504]	; 0x5e0
 80061e6:	f8c4 55e4 	str.w	r5, [r4, #1508]	; 0x5e4
 80061ea:	f8c4 65e8 	str.w	r6, [r4, #1512]	; 0x5e8
 80061ee:	f001 f933 	bl	8007458 <DCD_Init>
 80061f2:	f8d4 05e4 	ldr.w	r0, [r4, #1508]	; 0x5e4
 80061f6:	6803      	ldr	r3, [r0, #0]
 80061f8:	4798      	blx	r3
 80061fa:	4620      	mov	r0, r4
 80061fc:	e8bd 41f0 	ldmia.w	sp!, {r4, r5, r6, r7, r8, lr}
 8006200:	f7fc b9a2 	b.w	8002548 <USB_OTG_BSP_EnableInterrupt>

08006204 <USBD_DeInit>:
 8006204:	2000      	movs	r0, #0
 8006206:	4770      	bx	lr

08006208 <USBD_SetCfg>:
 8006208:	f8d0 35e0 	ldr.w	r3, [r0, #1504]	; 0x5e0
 800620c:	b510      	push	{r4, lr}
 800620e:	4604      	mov	r4, r0
 8006210:	681a      	ldr	r2, [r3, #0]
 8006212:	4790      	blx	r2
 8006214:	f8d4 05e4 	ldr.w	r0, [r4, #1508]	; 0x5e4
 8006218:	6883      	ldr	r3, [r0, #8]
 800621a:	4798      	blx	r3
 800621c:	2000      	movs	r0, #0
 800621e:	bd10      	pop	{r4, pc}

08006220 <USBD_ClrCfg>:
 8006220:	f8d0 25e0 	ldr.w	r2, [r0, #1504]	; 0x5e0
 8006224:	b508      	push	{r3, lr}
 8006226:	6853      	ldr	r3, [r2, #4]
 8006228:	4798      	blx	r3
 800622a:	2000      	movs	r0, #0
 800622c:	bd08      	pop	{r3, pc}
 800622e:	bf00      	nop

08006230 <USBD_CtlSendData>:
 8006230:	4613      	mov	r3, r2
 8006232:	460a      	mov	r2, r1
 8006234:	2102      	movs	r1, #2
 8006236:	b510      	push	{r4, lr}
 8006238:	f8c0 3138 	str.w	r3, [r0, #312]	; 0x138
 800623c:	f8c0 3134 	str.w	r3, [r0, #308]	; 0x134
 8006240:	f880 1111 	strb.w	r1, [r0, #273]	; 0x111
 8006244:	2100      	movs	r1, #0
 8006246:	f001 f9b1 	bl	80075ac <DCD_EP_Tx>
 800624a:	2000      	movs	r0, #0
 800624c:	bd10      	pop	{r4, pc}
 800624e:	bf00      	nop

08006250 <USBD_CtlContinueSendData>:
 8006250:	b510      	push	{r4, lr}
 8006252:	460c      	mov	r4, r1
 8006254:	4613      	mov	r3, r2
 8006256:	2100      	movs	r1, #0
 8006258:	4622      	mov	r2, r4
 800625a:	f001 f9a7 	bl	80075ac <DCD_EP_Tx>
 800625e:	2000      	movs	r0, #0
 8006260:	bd10      	pop	{r4, pc}
 8006262:	bf00      	nop

08006264 <USBD_CtlPrepareRx>:
 8006264:	4613      	mov	r3, r2
 8006266:	460a      	mov	r2, r1
 8006268:	2103      	movs	r1, #3
 800626a:	b510      	push	{r4, lr}
 800626c:	f8c0 3390 	str.w	r3, [r0, #912]	; 0x390
 8006270:	f8c0 338c 	str.w	r3, [r0, #908]	; 0x38c
 8006274:	f880 1111 	strb.w	r1, [r0, #273]	; 0x111
 8006278:	2100      	movs	r1, #0
 800627a:	f001 f979 	bl	8007570 <DCD_EP_PrepareRx>
 800627e:	2000      	movs	r0, #0
 8006280:	bd10      	pop	{r4, pc}
 8006282:	bf00      	nop

08006284 <USBD_CtlContinueRx>:
 8006284:	b510      	push	{r4, lr}
 8006286:	460c      	mov	r4, r1
 8006288:	4613      	mov	r3, r2
 800628a:	2100      	movs	r1, #0
 800628c:	4622      	mov	r2, r4
 800628e:	f001 f96f 	bl	8007570 <DCD_EP_PrepareRx>
 8006292:	2000      	movs	r0, #0
 8006294:	bd10      	pop	{r4, pc}
 8006296:	bf00      	nop

08006298 <USBD_CtlSendStatus>:
 8006298:	b538      	push	{r3, r4, r5, lr}
 800629a:	2100      	movs	r1, #0
 800629c:	2504      	movs	r5, #4
 800629e:	4604      	mov	r4, r0
 80062a0:	460a      	mov	r2, r1
 80062a2:	460b      	mov	r3, r1
 80062a4:	f880 5111 	strb.w	r5, [r0, #273]	; 0x111
 80062a8:	f001 f980 	bl	80075ac <DCD_EP_Tx>
 80062ac:	4620      	mov	r0, r4
 80062ae:	f000 ffef 	bl	8007290 <USB_OTG_EP0_OutStart>
 80062b2:	2000      	movs	r0, #0
 80062b4:	bd38      	pop	{r3, r4, r5, pc}
 80062b6:	bf00      	nop

080062b8 <USBD_CtlReceiveStatus>:
 80062b8:	b538      	push	{r3, r4, r5, lr}
 80062ba:	2100      	movs	r1, #0
 80062bc:	2505      	movs	r5, #5
 80062be:	4604      	mov	r4, r0
 80062c0:	460a      	mov	r2, r1
 80062c2:	460b      	mov	r3, r1
 80062c4:	f880 5111 	strb.w	r5, [r0, #273]	; 0x111
 80062c8:	f001 f952 	bl	8007570 <DCD_EP_PrepareRx>
 80062cc:	4620      	mov	r0, r4
 80062ce:	f000 ffdf 	bl	8007290 <USB_OTG_EP0_OutStart>
 80062d2:	2000      	movs	r0, #0
 80062d4:	bd38      	pop	{r3, r4, r5, pc}
 80062d6:	bf00      	nop

080062d8 <USBD_GetRxCount>:
 80062d8:	eb01 0281 	add.w	r2, r1, r1, lsl #2
 80062dc:	eb00 01c2 	add.w	r1, r0, r2, lsl #3
 80062e0:	f8b1 0388 	ldrh.w	r0, [r1, #904]	; 0x388
 80062e4:	4770      	bx	lr
 80062e6:	bf00      	nop

080062e8 <USBD_ParseSetupRequest>:
 80062e8:	f890 25c8 	ldrb.w	r2, [r0, #1480]	; 0x5c8
 80062ec:	700a      	strb	r2, [r1, #0]
 80062ee:	f890 35c9 	ldrb.w	r3, [r0, #1481]	; 0x5c9
 80062f2:	704b      	strb	r3, [r1, #1]
 80062f4:	f890 25cb 	ldrb.w	r2, [r0, #1483]	; 0x5cb
 80062f8:	f890 c5ca 	ldrb.w	ip, [r0, #1482]	; 0x5ca
 80062fc:	0213      	lsls	r3, r2, #8
 80062fe:	4463      	add	r3, ip
 8006300:	804b      	strh	r3, [r1, #2]
 8006302:	f890 25cd 	ldrb.w	r2, [r0, #1485]	; 0x5cd
 8006306:	f890 c5cc 	ldrb.w	ip, [r0, #1484]	; 0x5cc
 800630a:	0213      	lsls	r3, r2, #8
 800630c:	eb03 020c 	add.w	r2, r3, ip
 8006310:	808a      	strh	r2, [r1, #4]
 8006312:	f890 35cf 	ldrb.w	r3, [r0, #1487]	; 0x5cf
 8006316:	f890 25ce 	ldrb.w	r2, [r0, #1486]	; 0x5ce
 800631a:	021b      	lsls	r3, r3, #8
 800631c:	eb03 0c02 	add.w	ip, r3, r2
 8006320:	fa1f f28c 	uxth.w	r2, ip
 8006324:	2301      	movs	r3, #1
 8006326:	80ca      	strh	r2, [r1, #6]
 8006328:	f8c0 213c 	str.w	r2, [r0, #316]	; 0x13c
 800632c:	f880 3111 	strb.w	r3, [r0, #273]	; 0x111
 8006330:	4770      	bx	lr
 8006332:	bf00      	nop

08006334 <USBD_CtlError>:
 8006334:	b510      	push	{r4, lr}
 8006336:	f991 3000 	ldrsb.w	r3, [r1]
 800633a:	2b00      	cmp	r3, #0
 800633c:	4604      	mov	r4, r0
 800633e:	db09      	blt.n	8006354 <USBD_CtlError+0x20>
 8006340:	88c9      	ldrh	r1, [r1, #6]
 8006342:	b139      	cbz	r1, 8006354 <USBD_CtlError+0x20>
 8006344:	2100      	movs	r1, #0
 8006346:	f001 f94d 	bl	80075e4 <DCD_EP_Stall>
 800634a:	4620      	mov	r0, r4
 800634c:	e8bd 4010 	ldmia.w	sp!, {r4, lr}
 8006350:	f000 bf9e 	b.w	8007290 <USB_OTG_EP0_OutStart>
 8006354:	2180      	movs	r1, #128	; 0x80
 8006356:	f001 f945 	bl	80075e4 <DCD_EP_Stall>
 800635a:	e7f6      	b.n	800634a <USBD_CtlError+0x16>

0800635c <USBD_StdEPReq>:
 800635c:	b538      	push	{r3, r4, r5, lr}
 800635e:	784b      	ldrb	r3, [r1, #1]
 8006360:	790a      	ldrb	r2, [r1, #4]
 8006362:	2b01      	cmp	r3, #1
 8006364:	460c      	mov	r4, r1
 8006366:	4605      	mov	r5, r0
 8006368:	d00e      	beq.n	8006388 <USBD_StdEPReq+0x2c>
 800636a:	d303      	bcc.n	8006374 <USBD_StdEPReq+0x18>
 800636c:	2b03      	cmp	r3, #3
 800636e:	d01d      	beq.n	80063ac <USBD_StdEPReq+0x50>
 8006370:	2000      	movs	r0, #0
 8006372:	bd38      	pop	{r3, r4, r5, pc}
 8006374:	f890 3112 	ldrb.w	r3, [r0, #274]	; 0x112
 8006378:	2b02      	cmp	r3, #2
 800637a:	d009      	beq.n	8006390 <USBD_StdEPReq+0x34>
 800637c:	2b03      	cmp	r3, #3
 800637e:	d043      	beq.n	8006408 <USBD_StdEPReq+0xac>
 8006380:	f7ff ffd8 	bl	8006334 <USBD_CtlError>
 8006384:	2000      	movs	r0, #0
 8006386:	bd38      	pop	{r3, r4, r5, pc}
 8006388:	f890 3112 	ldrb.w	r3, [r0, #274]	; 0x112
 800638c:	2b02      	cmp	r3, #2
 800638e:	d129      	bne.n	80063e4 <USBD_StdEPReq+0x88>
 8006390:	1c13      	adds	r3, r2, #0
 8006392:	bf18      	it	ne
 8006394:	2301      	movne	r3, #1
 8006396:	2a80      	cmp	r2, #128	; 0x80
 8006398:	bf0c      	ite	eq
 800639a:	2300      	moveq	r3, #0
 800639c:	f003 0301 	andne.w	r3, r3, #1
 80063a0:	2b00      	cmp	r3, #0
 80063a2:	d0e5      	beq.n	8006370 <USBD_StdEPReq+0x14>
 80063a4:	4611      	mov	r1, r2
 80063a6:	f001 f91d 	bl	80075e4 <DCD_EP_Stall>
 80063aa:	e7e1      	b.n	8006370 <USBD_StdEPReq+0x14>
 80063ac:	f890 3112 	ldrb.w	r3, [r0, #274]	; 0x112
 80063b0:	2b02      	cmp	r3, #2
 80063b2:	d0ed      	beq.n	8006390 <USBD_StdEPReq+0x34>
 80063b4:	2b03      	cmp	r3, #3
 80063b6:	d1e3      	bne.n	8006380 <USBD_StdEPReq+0x24>
 80063b8:	884b      	ldrh	r3, [r1, #2]
 80063ba:	b94b      	cbnz	r3, 80063d0 <USBD_StdEPReq+0x74>
 80063bc:	1c11      	adds	r1, r2, #0
 80063be:	bf18      	it	ne
 80063c0:	2101      	movne	r1, #1
 80063c2:	2a80      	cmp	r2, #128	; 0x80
 80063c4:	bf0c      	ite	eq
 80063c6:	2100      	moveq	r1, #0
 80063c8:	f001 0101 	andne.w	r1, r1, #1
 80063cc:	2900      	cmp	r1, #0
 80063ce:	d144      	bne.n	800645a <USBD_StdEPReq+0xfe>
 80063d0:	f8d5 35e0 	ldr.w	r3, [r5, #1504]	; 0x5e0
 80063d4:	4628      	mov	r0, r5
 80063d6:	689a      	ldr	r2, [r3, #8]
 80063d8:	4621      	mov	r1, r4
 80063da:	4790      	blx	r2
 80063dc:	4628      	mov	r0, r5
 80063de:	f7ff ff5b 	bl	8006298 <USBD_CtlSendStatus>
 80063e2:	e7c5      	b.n	8006370 <USBD_StdEPReq+0x14>
 80063e4:	2b03      	cmp	r3, #3
 80063e6:	d1cb      	bne.n	8006380 <USBD_StdEPReq+0x24>
 80063e8:	8849      	ldrh	r1, [r1, #2]
 80063ea:	2900      	cmp	r1, #0
 80063ec:	d1c0      	bne.n	8006370 <USBD_StdEPReq+0x14>
 80063ee:	1c13      	adds	r3, r2, #0
 80063f0:	bf18      	it	ne
 80063f2:	2301      	movne	r3, #1
 80063f4:	2a80      	cmp	r2, #128	; 0x80
 80063f6:	bf0c      	ite	eq
 80063f8:	2300      	moveq	r3, #0
 80063fa:	f003 0301 	andne.w	r3, r3, #1
 80063fe:	bb83      	cbnz	r3, 8006462 <USBD_StdEPReq+0x106>
 8006400:	4628      	mov	r0, r5
 8006402:	f7ff ff49 	bl	8006298 <USBD_CtlSendStatus>
 8006406:	e7b3      	b.n	8006370 <USBD_StdEPReq+0x14>
 8006408:	0613      	lsls	r3, r2, #24
 800640a:	d415      	bmi.n	8006438 <USBD_StdEPReq+0xdc>
 800640c:	eb02 0182 	add.w	r1, r2, r2, lsl #2
 8006410:	eb00 02c1 	add.w	r2, r0, r1, lsl #3
 8006414:	f892 3372 	ldrb.w	r3, [r2, #882]	; 0x372
 8006418:	b9c3      	cbnz	r3, 800644c <USBD_StdEPReq+0xf0>
 800641a:	f240 2c8c 	movw	ip, #652	; 0x28c
 800641e:	f2c2 0c00 	movt	ip, #8192	; 0x2000
 8006422:	f8cc 3000 	str.w	r3, [ip]
 8006426:	f240 218c 	movw	r1, #652	; 0x28c
 800642a:	4628      	mov	r0, r5
 800642c:	f2c2 0100 	movt	r1, #8192	; 0x2000
 8006430:	2202      	movs	r2, #2
 8006432:	f7ff fefd 	bl	8006230 <USBD_CtlSendData>
 8006436:	e79b      	b.n	8006370 <USBD_StdEPReq+0x14>
 8006438:	f002 0e7f 	and.w	lr, r2, #127	; 0x7f
 800643c:	eb0e 0c8e 	add.w	ip, lr, lr, lsl #2
 8006440:	eb00 00cc 	add.w	r0, r0, ip, lsl #3
 8006444:	f890 311a 	ldrb.w	r3, [r0, #282]	; 0x11a
 8006448:	2b00      	cmp	r3, #0
 800644a:	d0e6      	beq.n	800641a <USBD_StdEPReq+0xbe>
 800644c:	f240 238c 	movw	r3, #652	; 0x28c
 8006450:	f2c2 0300 	movt	r3, #8192	; 0x2000
 8006454:	2001      	movs	r0, #1
 8006456:	6018      	str	r0, [r3, #0]
 8006458:	e7e5      	b.n	8006426 <USBD_StdEPReq+0xca>
 800645a:	4611      	mov	r1, r2
 800645c:	f001 f8c2 	bl	80075e4 <DCD_EP_Stall>
 8006460:	e7b6      	b.n	80063d0 <USBD_StdEPReq+0x74>
 8006462:	4611      	mov	r1, r2
 8006464:	f001 f8de 	bl	8007624 <DCD_EP_ClrStall>
 8006468:	f8d5 15e0 	ldr.w	r1, [r5, #1504]	; 0x5e0
 800646c:	4628      	mov	r0, r5
 800646e:	688a      	ldr	r2, [r1, #8]
 8006470:	4621      	mov	r1, r4
 8006472:	4790      	blx	r2
 8006474:	e7c4      	b.n	8006400 <USBD_StdEPReq+0xa4>
 8006476:	bf00      	nop

08006478 <USBD_StdItfReq>:
 8006478:	b538      	push	{r3, r4, r5, lr}
 800647a:	f890 3112 	ldrb.w	r3, [r0, #274]	; 0x112
 800647e:	2b03      	cmp	r3, #3
 8006480:	4604      	mov	r4, r0
 8006482:	460d      	mov	r5, r1
 8006484:	d003      	beq.n	800648e <USBD_StdItfReq+0x16>
 8006486:	f7ff ff55 	bl	8006334 <USBD_CtlError>
 800648a:	2000      	movs	r0, #0
 800648c:	bd38      	pop	{r3, r4, r5, pc}
 800648e:	790a      	ldrb	r2, [r1, #4]
 8006490:	2a01      	cmp	r2, #1
 8006492:	d8f8      	bhi.n	8006486 <USBD_StdItfReq+0xe>
 8006494:	f8d0 25e0 	ldr.w	r2, [r0, #1504]	; 0x5e0
 8006498:	6893      	ldr	r3, [r2, #8]
 800649a:	4798      	blx	r3
 800649c:	88e8      	ldrh	r0, [r5, #6]
 800649e:	2800      	cmp	r0, #0
 80064a0:	d1f3      	bne.n	800648a <USBD_StdItfReq+0x12>
 80064a2:	4620      	mov	r0, r4
 80064a4:	f7ff fef8 	bl	8006298 <USBD_CtlSendStatus>
 80064a8:	e7ef      	b.n	800648a <USBD_StdItfReq+0x12>
 80064aa:	bf00      	nop

080064ac <USBD_StdDevReq>:
 80064ac:	b570      	push	{r4, r5, r6, lr}
 80064ae:	784b      	ldrb	r3, [r1, #1]
 80064b0:	b082      	sub	sp, #8
 80064b2:	460c      	mov	r4, r1
 80064b4:	4605      	mov	r5, r0
 80064b6:	2b09      	cmp	r3, #9
 80064b8:	d816      	bhi.n	80064e8 <USBD_StdDevReq+0x3c>
 80064ba:	e8df f003 	tbb	[pc, r3]
 80064be:	4615301b 			; <UNDEFINED> instruction: 0x4615301b
 80064c2:	15795d15 	ldrbne	r5, [r9, #-3349]!	; 0xfffff2eb
 80064c6:	78a1058f 	stmiavc	r1!, {r0, r1, r2, r3, r7, r8, sl}
 80064ca:	f240 268c 	movw	r6, #652	; 0x28c
 80064ce:	f2c2 0600 	movt	r6, #8192	; 0x2000
 80064d2:	2901      	cmp	r1, #1
 80064d4:	7131      	strb	r1, [r6, #4]
 80064d6:	d807      	bhi.n	80064e8 <USBD_StdDevReq+0x3c>
 80064d8:	f890 3112 	ldrb.w	r3, [r0, #274]	; 0x112
 80064dc:	2b02      	cmp	r3, #2
 80064de:	f000 8142 	beq.w	8006766 <USBD_StdDevReq+0x2ba>
 80064e2:	2b03      	cmp	r3, #3
 80064e4:	f000 80ca 	beq.w	800667c <USBD_StdDevReq+0x1d0>
 80064e8:	4621      	mov	r1, r4
 80064ea:	f7ff ff23 	bl	8006334 <USBD_CtlError>
 80064ee:	2000      	movs	r0, #0
 80064f0:	b002      	add	sp, #8
 80064f2:	bd70      	pop	{r4, r5, r6, pc}
 80064f4:	f890 2112 	ldrb.w	r2, [r0, #274]	; 0x112
 80064f8:	1e91      	subs	r1, r2, #2
 80064fa:	2901      	cmp	r1, #1
 80064fc:	d8f4      	bhi.n	80064e8 <USBD_StdDevReq+0x3c>
 80064fe:	f8d0 2114 	ldr.w	r2, [r0, #276]	; 0x114
 8006502:	f240 218c 	movw	r1, #652	; 0x28c
 8006506:	f2c2 0100 	movt	r1, #8192	; 0x2000
 800650a:	2a00      	cmp	r2, #0
 800650c:	bf0c      	ite	eq
 800650e:	2301      	moveq	r3, #1
 8006510:	2303      	movne	r3, #3
 8006512:	f841 3f0c 	str.w	r3, [r1, #12]!
 8006516:	2201      	movs	r2, #1
 8006518:	f7ff fe8a 	bl	8006230 <USBD_CtlSendData>
 800651c:	e7e7      	b.n	80064ee <USBD_StdDevReq+0x42>
 800651e:	f890 2112 	ldrb.w	r2, [r0, #274]	; 0x112
 8006522:	1e91      	subs	r1, r2, #2
 8006524:	2901      	cmp	r1, #1
 8006526:	d8df      	bhi.n	80064e8 <USBD_StdDevReq+0x3c>
 8006528:	f8b4 c002 	ldrh.w	ip, [r4, #2]
 800652c:	f1bc 0f01 	cmp.w	ip, #1
 8006530:	d1dd      	bne.n	80064ee <USBD_StdDevReq+0x42>
 8006532:	f8d0 15e0 	ldr.w	r1, [r0, #1504]	; 0x5e0
 8006536:	2200      	movs	r2, #0
 8006538:	688b      	ldr	r3, [r1, #8]
 800653a:	f8c0 2114 	str.w	r2, [r0, #276]	; 0x114
 800653e:	4621      	mov	r1, r4
 8006540:	4798      	blx	r3
 8006542:	4628      	mov	r0, r5
 8006544:	f7ff fea8 	bl	8006298 <USBD_CtlSendStatus>
 8006548:	e7d1      	b.n	80064ee <USBD_StdDevReq+0x42>
 800654a:	8863      	ldrh	r3, [r4, #2]
 800654c:	2b01      	cmp	r3, #1
 800654e:	f000 80fb 	beq.w	8006748 <USBD_StdDevReq+0x29c>
 8006552:	2b02      	cmp	r3, #2
 8006554:	d1cb      	bne.n	80064ee <USBD_StdDevReq+0x42>
 8006556:	88a3      	ldrh	r3, [r4, #4]
 8006558:	f013 0fff 	tst.w	r3, #255	; 0xff
 800655c:	d1c7      	bne.n	80064ee <USBD_StdDevReq+0x42>
 800655e:	6901      	ldr	r1, [r0, #16]
 8006560:	0a1c      	lsrs	r4, r3, #8
 8006562:	684a      	ldr	r2, [r1, #4]
 8006564:	1e63      	subs	r3, r4, #1
 8006566:	4610      	mov	r0, r2
 8006568:	2b04      	cmp	r3, #4
 800656a:	f200 809e 	bhi.w	80066aa <USBD_StdDevReq+0x1fe>
 800656e:	e8df f003 	tbb	[pc, r3]
 8006572:	b0a6aba1 	adclt	sl, r6, r1, lsr #23
 8006576:	88a30098 	stmiahi	r3!, {r3, r4, r7}
 800657a:	2b00      	cmp	r3, #0
 800657c:	d13e      	bne.n	80065fc <USBD_StdDevReq+0x150>
 800657e:	88e2      	ldrh	r2, [r4, #6]
 8006580:	2a00      	cmp	r2, #0
 8006582:	d13b      	bne.n	80065fc <USBD_StdDevReq+0x150>
 8006584:	f890 1112 	ldrb.w	r1, [r0, #274]	; 0x112
 8006588:	8862      	ldrh	r2, [r4, #2]
 800658a:	2903      	cmp	r1, #3
 800658c:	d0ac      	beq.n	80064e8 <USBD_StdDevReq+0x3c>
 800658e:	f002 047f 	and.w	r4, r2, #127	; 0x7f
 8006592:	f880 4113 	strb.w	r4, [r0, #275]	; 0x113
 8006596:	4621      	mov	r1, r4
 8006598:	f001 f872 	bl	8007680 <DCD_EP_SetAddress>
 800659c:	4628      	mov	r0, r5
 800659e:	f7ff fe7b 	bl	8006298 <USBD_CtlSendStatus>
 80065a2:	2c00      	cmp	r4, #0
 80065a4:	f000 80ed 	beq.w	8006782 <USBD_StdDevReq+0x2d6>
 80065a8:	2002      	movs	r0, #2
 80065aa:	f885 0112 	strb.w	r0, [r5, #274]	; 0x112
 80065ae:	e79e      	b.n	80064ee <USBD_StdDevReq+0x42>
 80065b0:	8862      	ldrh	r2, [r4, #2]
 80065b2:	0a11      	lsrs	r1, r2, #8
 80065b4:	1e4b      	subs	r3, r1, #1
 80065b6:	2b06      	cmp	r3, #6
 80065b8:	d896      	bhi.n	80064e8 <USBD_StdDevReq+0x3c>
 80065ba:	a101      	add	r1, pc, #4	; (adr r1, 80065c0 <USBD_StdDevReq+0x114>)
 80065bc:	f851 f023 	ldr.w	pc, [r1, r3, lsl #2]
 80065c0:	0800665b 	stmdaeq	r0, {r0, r1, r3, r4, r6, r9, sl, sp, lr}
 80065c4:	0800661d 	stmdaeq	r0, {r0, r2, r3, r4, r9, sl, sp, lr}
 80065c8:	08006607 	stmdaeq	r0, {r0, r1, r2, r9, sl, sp, lr}
 80065cc:	080064e9 	stmdaeq	r0, {r0, r3, r5, r6, r7, sl, sp, lr}
 80065d0:	080064e9 	stmdaeq	r0, {r0, r3, r5, r6, r7, sl, sp, lr}
 80065d4:	080064e9 	stmdaeq	r0, {r0, r3, r5, r6, r7, sl, sp, lr}
 80065d8:	080064e9 	stmdaeq	r0, {r0, r3, r5, r6, r7, sl, sp, lr}
 80065dc:	88e2      	ldrh	r2, [r4, #6]
 80065de:	2a01      	cmp	r2, #1
 80065e0:	d182      	bne.n	80064e8 <USBD_StdDevReq+0x3c>
 80065e2:	f890 3112 	ldrb.w	r3, [r0, #274]	; 0x112
 80065e6:	2b02      	cmp	r3, #2
 80065e8:	f000 80b9 	beq.w	800675e <USBD_StdDevReq+0x2b2>
 80065ec:	2b03      	cmp	r3, #3
 80065ee:	f47f af7b 	bne.w	80064e8 <USBD_StdDevReq+0x3c>
 80065f2:	f500 7188 	add.w	r1, r0, #272	; 0x110
 80065f6:	f7ff fe1b 	bl	8006230 <USBD_CtlSendData>
 80065fa:	e778      	b.n	80064ee <USBD_StdDevReq+0x42>
 80065fc:	4628      	mov	r0, r5
 80065fe:	4621      	mov	r1, r4
 8006600:	f7ff fe98 	bl	8006334 <USBD_CtlError>
 8006604:	e773      	b.n	80064ee <USBD_StdDevReq+0x42>
 8006606:	fa5f fc82 	uxtb.w	ip, r2
 800660a:	f1bc 0f05 	cmp.w	ip, #5
 800660e:	f63f af6b 	bhi.w	80064e8 <USBD_StdDevReq+0x3c>
 8006612:	e8df f00c 	tbb	[pc, ip]
 8006616:	757e8790 	ldrbvc	r8, [lr, #-1936]!	; 0xfffff870
 800661a:	f8d0636c 			; <UNDEFINED> instruction: 0xf8d0636c
 800661e:	15e0      	asrs	r0, r4, #23
 8006620:	7880      	ldrb	r0, [r0, #2]
 8006622:	6a8b      	ldr	r3, [r1, #40]	; 0x28
 8006624:	f10d 0106 	add.w	r1, sp, #6
 8006628:	4798      	blx	r3
 800662a:	2202      	movs	r2, #2
 800662c:	7042      	strb	r2, [r0, #1]
 800662e:	4601      	mov	r1, r0
 8006630:	f8c5 05ec 	str.w	r0, [r5, #1516]	; 0x5ec
 8006634:	f8bd 3006 	ldrh.w	r3, [sp, #6]
 8006638:	2b00      	cmp	r3, #0
 800663a:	f43f af58 	beq.w	80064ee <USBD_StdDevReq+0x42>
 800663e:	88e2      	ldrh	r2, [r4, #6]
 8006640:	2a00      	cmp	r2, #0
 8006642:	f43f af54 	beq.w	80064ee <USBD_StdDevReq+0x42>
 8006646:	4293      	cmp	r3, r2
 8006648:	bf28      	it	cs
 800664a:	4613      	movcs	r3, r2
 800664c:	4628      	mov	r0, r5
 800664e:	461a      	mov	r2, r3
 8006650:	f8ad 3006 	strh.w	r3, [sp, #6]
 8006654:	f7ff fdec 	bl	8006230 <USBD_CtlSendData>
 8006658:	e749      	b.n	80064ee <USBD_StdDevReq+0x42>
 800665a:	f8d0 35e8 	ldr.w	r3, [r0, #1512]	; 0x5e8
 800665e:	7880      	ldrb	r0, [r0, #2]
 8006660:	681a      	ldr	r2, [r3, #0]
 8006662:	f10d 0106 	add.w	r1, sp, #6
 8006666:	4790      	blx	r2
 8006668:	88e2      	ldrh	r2, [r4, #6]
 800666a:	2a40      	cmp	r2, #64	; 0x40
 800666c:	4601      	mov	r1, r0
 800666e:	d003      	beq.n	8006678 <USBD_StdDevReq+0x1cc>
 8006670:	f895 0112 	ldrb.w	r0, [r5, #274]	; 0x112
 8006674:	2801      	cmp	r0, #1
 8006676:	d1dd      	bne.n	8006634 <USBD_StdDevReq+0x188>
 8006678:	2308      	movs	r3, #8
 800667a:	e7e1      	b.n	8006640 <USBD_StdDevReq+0x194>
 800667c:	2900      	cmp	r1, #0
 800667e:	f000 8084 	beq.w	800678a <USBD_StdDevReq+0x2de>
 8006682:	f890 1110 	ldrb.w	r1, [r0, #272]	; 0x110
 8006686:	2901      	cmp	r1, #1
 8006688:	d066      	beq.n	8006758 <USBD_StdDevReq+0x2ac>
 800668a:	f7ff fdc9 	bl	8006220 <USBD_ClrCfg>
 800668e:	7931      	ldrb	r1, [r6, #4]
 8006690:	4628      	mov	r0, r5
 8006692:	f885 1110 	strb.w	r1, [r5, #272]	; 0x110
 8006696:	f7ff fdb7 	bl	8006208 <USBD_SetCfg>
 800669a:	4628      	mov	r0, r5
 800669c:	f7ff fdfc 	bl	8006298 <USBD_CtlSendStatus>
 80066a0:	e725      	b.n	80064ee <USBD_StdDevReq+0x42>
 80066a2:	2305      	movs	r3, #5
 80066a4:	f363 1006 	bfi	r0, r3, #4, #3
 80066a8:	4602      	mov	r2, r0
 80066aa:	604a      	str	r2, [r1, #4]
 80066ac:	4628      	mov	r0, r5
 80066ae:	f7ff fdf3 	bl	8006298 <USBD_CtlSendStatus>
 80066b2:	e71c      	b.n	80064ee <USBD_StdDevReq+0x42>
 80066b4:	2201      	movs	r2, #1
 80066b6:	f362 1006 	bfi	r0, r2, #4, #3
 80066ba:	4602      	mov	r2, r0
 80066bc:	e7f5      	b.n	80066aa <USBD_StdDevReq+0x1fe>
 80066be:	2403      	movs	r4, #3
 80066c0:	f364 1006 	bfi	r0, r4, #4, #3
 80066c4:	4602      	mov	r2, r0
 80066c6:	e7f0      	b.n	80066aa <USBD_StdDevReq+0x1fe>
 80066c8:	2302      	movs	r3, #2
 80066ca:	f363 1006 	bfi	r0, r3, #4, #3
 80066ce:	4602      	mov	r2, r0
 80066d0:	e7eb      	b.n	80066aa <USBD_StdDevReq+0x1fe>
 80066d2:	2204      	movs	r2, #4
 80066d4:	f362 1006 	bfi	r0, r2, #4, #3
 80066d8:	4602      	mov	r2, r0
 80066da:	e7e6      	b.n	80066aa <USBD_StdDevReq+0x1fe>
 80066dc:	f8d0 15e8 	ldr.w	r1, [r0, #1512]	; 0x5e8
 80066e0:	7880      	ldrb	r0, [r0, #2]
 80066e2:	698a      	ldr	r2, [r1, #24]
 80066e4:	f10d 0106 	add.w	r1, sp, #6
 80066e8:	4790      	blx	r2
 80066ea:	4601      	mov	r1, r0
 80066ec:	e7a2      	b.n	8006634 <USBD_StdDevReq+0x188>
 80066ee:	f8d0 35e8 	ldr.w	r3, [r0, #1512]	; 0x5e8
 80066f2:	7880      	ldrb	r0, [r0, #2]
 80066f4:	695a      	ldr	r2, [r3, #20]
 80066f6:	f10d 0106 	add.w	r1, sp, #6
 80066fa:	4790      	blx	r2
 80066fc:	4601      	mov	r1, r0
 80066fe:	e799      	b.n	8006634 <USBD_StdDevReq+0x188>
 8006700:	f8d0 15e8 	ldr.w	r1, [r0, #1512]	; 0x5e8
 8006704:	7880      	ldrb	r0, [r0, #2]
 8006706:	690b      	ldr	r3, [r1, #16]
 8006708:	f10d 0106 	add.w	r1, sp, #6
 800670c:	4798      	blx	r3
 800670e:	4601      	mov	r1, r0
 8006710:	e790      	b.n	8006634 <USBD_StdDevReq+0x188>
 8006712:	f8d0 25e8 	ldr.w	r2, [r0, #1512]	; 0x5e8
 8006716:	7880      	ldrb	r0, [r0, #2]
 8006718:	68d3      	ldr	r3, [r2, #12]
 800671a:	f10d 0106 	add.w	r1, sp, #6
 800671e:	4798      	blx	r3
 8006720:	4601      	mov	r1, r0
 8006722:	e787      	b.n	8006634 <USBD_StdDevReq+0x188>
 8006724:	f8d0 15e8 	ldr.w	r1, [r0, #1512]	; 0x5e8
 8006728:	7880      	ldrb	r0, [r0, #2]
 800672a:	688a      	ldr	r2, [r1, #8]
 800672c:	f10d 0106 	add.w	r1, sp, #6
 8006730:	4790      	blx	r2
 8006732:	4601      	mov	r1, r0
 8006734:	e77e      	b.n	8006634 <USBD_StdDevReq+0x188>
 8006736:	f8d0 35e8 	ldr.w	r3, [r0, #1512]	; 0x5e8
 800673a:	7880      	ldrb	r0, [r0, #2]
 800673c:	685a      	ldr	r2, [r3, #4]
 800673e:	f10d 0106 	add.w	r1, sp, #6
 8006742:	4790      	blx	r2
 8006744:	4601      	mov	r1, r0
 8006746:	e775      	b.n	8006634 <USBD_StdDevReq+0x188>
 8006748:	f8d0 15e0 	ldr.w	r1, [r0, #1504]	; 0x5e0
 800674c:	f8c0 3114 	str.w	r3, [r0, #276]	; 0x114
 8006750:	688b      	ldr	r3, [r1, #8]
 8006752:	4621      	mov	r1, r4
 8006754:	4798      	blx	r3
 8006756:	4628      	mov	r0, r5
 8006758:	f7ff fd9e 	bl	8006298 <USBD_CtlSendStatus>
 800675c:	e6c7      	b.n	80064ee <USBD_StdDevReq+0x42>
 800675e:	4910      	ldr	r1, [pc, #64]	; (80067a0 <USBD_StdDevReq+0x2f4>)
 8006760:	f7ff fd66 	bl	8006230 <USBD_CtlSendData>
 8006764:	e6c3      	b.n	80064ee <USBD_StdDevReq+0x42>
 8006766:	2900      	cmp	r1, #0
 8006768:	d0f6      	beq.n	8006758 <USBD_StdDevReq+0x2ac>
 800676a:	2101      	movs	r1, #1
 800676c:	2203      	movs	r2, #3
 800676e:	f880 1110 	strb.w	r1, [r0, #272]	; 0x110
 8006772:	f880 2112 	strb.w	r2, [r0, #274]	; 0x112
 8006776:	f7ff fd47 	bl	8006208 <USBD_SetCfg>
 800677a:	4628      	mov	r0, r5
 800677c:	f7ff fd8c 	bl	8006298 <USBD_CtlSendStatus>
 8006780:	e6b5      	b.n	80064ee <USBD_StdDevReq+0x42>
 8006782:	2301      	movs	r3, #1
 8006784:	f885 3112 	strb.w	r3, [r5, #274]	; 0x112
 8006788:	e6b1      	b.n	80064ee <USBD_StdDevReq+0x42>
 800678a:	2302      	movs	r3, #2
 800678c:	f880 3112 	strb.w	r3, [r0, #274]	; 0x112
 8006790:	f880 1110 	strb.w	r1, [r0, #272]	; 0x110
 8006794:	f7ff fd44 	bl	8006220 <USBD_ClrCfg>
 8006798:	4628      	mov	r0, r5
 800679a:	f7ff fd7d 	bl	8006298 <USBD_CtlSendStatus>
 800679e:	e6a6      	b.n	80064ee <USBD_StdDevReq+0x42>
 80067a0:	20000294 	mulcs	r0, r4, r2

080067a4 <USBD_GetString>:
 80067a4:	b430      	push	{r4, r5}
 80067a6:	b1f8      	cbz	r0, 80067e8 <USBD_GetString+0x44>
 80067a8:	7803      	ldrb	r3, [r0, #0]
 80067aa:	2b00      	cmp	r3, #0
 80067ac:	d01e      	beq.n	80067ec <USBD_GetString+0x48>
 80067ae:	4604      	mov	r4, r0
 80067b0:	2300      	movs	r3, #0
 80067b2:	f814 5f01 	ldrb.w	r5, [r4, #1]!
 80067b6:	3301      	adds	r3, #1
 80067b8:	b2db      	uxtb	r3, r3
 80067ba:	2d00      	cmp	r5, #0
 80067bc:	d1f9      	bne.n	80067b2 <USBD_GetString+0xe>
 80067be:	005c      	lsls	r4, r3, #1
 80067c0:	1ca3      	adds	r3, r4, #2
 80067c2:	b2dc      	uxtb	r4, r3
 80067c4:	8013      	strh	r3, [r2, #0]
 80067c6:	2203      	movs	r2, #3
 80067c8:	700c      	strb	r4, [r1, #0]
 80067ca:	704a      	strb	r2, [r1, #1]
 80067cc:	7802      	ldrb	r2, [r0, #0]
 80067ce:	b15a      	cbz	r2, 80067e8 <USBD_GetString+0x44>
 80067d0:	2302      	movs	r3, #2
 80067d2:	2500      	movs	r5, #0
 80067d4:	1c5c      	adds	r4, r3, #1
 80067d6:	b2e4      	uxtb	r4, r4
 80067d8:	54ca      	strb	r2, [r1, r3]
 80067da:	550d      	strb	r5, [r1, r4]
 80067dc:	f810 2f01 	ldrb.w	r2, [r0, #1]!
 80067e0:	3302      	adds	r3, #2
 80067e2:	b2db      	uxtb	r3, r3
 80067e4:	2a00      	cmp	r2, #0
 80067e6:	d1f5      	bne.n	80067d4 <USBD_GetString+0x30>
 80067e8:	bc30      	pop	{r4, r5}
 80067ea:	4770      	bx	lr
 80067ec:	2402      	movs	r4, #2
 80067ee:	4623      	mov	r3, r4
 80067f0:	e7e8      	b.n	80067c4 <USBD_GetString+0x20>
 80067f2:	bf00      	nop

080067f4 <USB_OTG_CoreReset>:
 80067f4:	b530      	push	{r4, r5, lr}
 80067f6:	4605      	mov	r5, r0
 80067f8:	b083      	sub	sp, #12
 80067fa:	2300      	movs	r3, #0
 80067fc:	2003      	movs	r0, #3
 80067fe:	9301      	str	r3, [sp, #4]
 8006800:	f7fb feb6 	bl	8002570 <USB_OTG_BSP_uDelay>
 8006804:	68eb      	ldr	r3, [r5, #12]
 8006806:	691a      	ldr	r2, [r3, #16]
 8006808:	f44f 6454 	mov.w	r4, #3392	; 0xd40
 800680c:	9201      	str	r2, [sp, #4]
 800680e:	f2c0 0403 	movt	r4, #3
 8006812:	e011      	b.n	8006838 <USB_OTG_CoreReset+0x44>
 8006814:	2003      	movs	r0, #3
 8006816:	f7fb feab 	bl	8002570 <USB_OTG_BSP_uDelay>
 800681a:	68eb      	ldr	r3, [r5, #12]
 800681c:	6919      	ldr	r1, [r3, #16]
 800681e:	9101      	str	r1, [sp, #4]
 8006820:	9801      	ldr	r0, [sp, #4]
 8006822:	3c01      	subs	r4, #1
 8006824:	2800      	cmp	r0, #0
 8006826:	db0a      	blt.n	800683e <USB_OTG_CoreReset+0x4a>
 8006828:	2003      	movs	r0, #3
 800682a:	f7fb fea1 	bl	8002570 <USB_OTG_BSP_uDelay>
 800682e:	68eb      	ldr	r3, [r5, #12]
 8006830:	691a      	ldr	r2, [r3, #16]
 8006832:	3c01      	subs	r4, #1
 8006834:	9201      	str	r2, [sp, #4]
 8006836:	d01f      	beq.n	8006878 <USB_OTG_CoreReset+0x84>
 8006838:	9a01      	ldr	r2, [sp, #4]
 800683a:	2a00      	cmp	r2, #0
 800683c:	daea      	bge.n	8006814 <USB_OTG_CoreReset+0x20>
 800683e:	9801      	ldr	r0, [sp, #4]
 8006840:	f040 0201 	orr.w	r2, r0, #1
 8006844:	9201      	str	r2, [sp, #4]
 8006846:	9901      	ldr	r1, [sp, #4]
 8006848:	6119      	str	r1, [r3, #16]
 800684a:	6918      	ldr	r0, [r3, #16]
 800684c:	f44f 6254 	mov.w	r2, #3392	; 0xd40
 8006850:	9001      	str	r0, [sp, #4]
 8006852:	f2c0 0203 	movt	r2, #3
 8006856:	e009      	b.n	800686c <USB_OTG_CoreReset+0x78>
 8006858:	6918      	ldr	r0, [r3, #16]
 800685a:	9001      	str	r0, [sp, #4]
 800685c:	9901      	ldr	r1, [sp, #4]
 800685e:	3a01      	subs	r2, #1
 8006860:	07c8      	lsls	r0, r1, #31
 8006862:	d506      	bpl.n	8006872 <USB_OTG_CoreReset+0x7e>
 8006864:	6918      	ldr	r0, [r3, #16]
 8006866:	3a01      	subs	r2, #1
 8006868:	9001      	str	r0, [sp, #4]
 800686a:	d002      	beq.n	8006872 <USB_OTG_CoreReset+0x7e>
 800686c:	9901      	ldr	r1, [sp, #4]
 800686e:	07c9      	lsls	r1, r1, #31
 8006870:	d4f2      	bmi.n	8006858 <USB_OTG_CoreReset+0x64>
 8006872:	2003      	movs	r0, #3
 8006874:	f7fb fe7c 	bl	8002570 <USB_OTG_BSP_uDelay>
 8006878:	2000      	movs	r0, #0
 800687a:	b003      	add	sp, #12
 800687c:	bd30      	pop	{r4, r5, pc}
 800687e:	bf00      	nop

08006880 <USB_OTG_WritePacket>:
 8006880:	b410      	push	{r4}
 8006882:	78c4      	ldrb	r4, [r0, #3]
 8006884:	b9f4      	cbnz	r4, 80068c4 <USB_OTG_WritePacket+0x44>
 8006886:	eb00 0082 	add.w	r0, r0, r2, lsl #2
 800688a:	3303      	adds	r3, #3
 800688c:	109b      	asrs	r3, r3, #2
 800688e:	f8d0 00d0 	ldr.w	r0, [r0, #208]	; 0xd0
 8006892:	d017      	beq.n	80068c4 <USB_OTG_WritePacket+0x44>
 8006894:	680c      	ldr	r4, [r1, #0]
 8006896:	1e5a      	subs	r2, r3, #1
 8006898:	6004      	str	r4, [r0, #0]
 800689a:	f002 0401 	and.w	r4, r2, #1
 800689e:	2201      	movs	r2, #1
 80068a0:	4293      	cmp	r3, r2
 80068a2:	d00f      	beq.n	80068c4 <USB_OTG_WritePacket+0x44>
 80068a4:	b124      	cbz	r4, 80068b0 <USB_OTG_WritePacket+0x30>
 80068a6:	684c      	ldr	r4, [r1, #4]
 80068a8:	2202      	movs	r2, #2
 80068aa:	4293      	cmp	r3, r2
 80068ac:	6004      	str	r4, [r0, #0]
 80068ae:	d009      	beq.n	80068c4 <USB_OTG_WritePacket+0x44>
 80068b0:	f851 4022 	ldr.w	r4, [r1, r2, lsl #2]
 80068b4:	3201      	adds	r2, #1
 80068b6:	6004      	str	r4, [r0, #0]
 80068b8:	f851 4022 	ldr.w	r4, [r1, r2, lsl #2]
 80068bc:	3201      	adds	r2, #1
 80068be:	4293      	cmp	r3, r2
 80068c0:	6004      	str	r4, [r0, #0]
 80068c2:	d1f5      	bne.n	80068b0 <USB_OTG_WritePacket+0x30>
 80068c4:	2000      	movs	r0, #0
 80068c6:	bc10      	pop	{r4}
 80068c8:	4770      	bx	lr
 80068ca:	bf00      	nop

080068cc <USB_OTG_ReadPacket>:
 80068cc:	3203      	adds	r2, #3
 80068ce:	1092      	asrs	r2, r2, #2
 80068d0:	b430      	push	{r4, r5}
 80068d2:	f8d0 40d0 	ldr.w	r4, [r0, #208]	; 0xd0
 80068d6:	d019      	beq.n	800690c <USB_OTG_ReadPacket+0x40>
 80068d8:	6820      	ldr	r0, [r4, #0]
 80068da:	1e53      	subs	r3, r2, #1
 80068dc:	6008      	str	r0, [r1, #0]
 80068de:	f003 0001 	and.w	r0, r3, #1
 80068e2:	2301      	movs	r3, #1
 80068e4:	429a      	cmp	r2, r3
 80068e6:	d00f      	beq.n	8006908 <USB_OTG_ReadPacket+0x3c>
 80068e8:	b120      	cbz	r0, 80068f4 <USB_OTG_ReadPacket+0x28>
 80068ea:	6820      	ldr	r0, [r4, #0]
 80068ec:	2302      	movs	r3, #2
 80068ee:	429a      	cmp	r2, r3
 80068f0:	6048      	str	r0, [r1, #4]
 80068f2:	d009      	beq.n	8006908 <USB_OTG_ReadPacket+0x3c>
 80068f4:	6825      	ldr	r5, [r4, #0]
 80068f6:	f841 5023 	str.w	r5, [r1, r3, lsl #2]
 80068fa:	1c58      	adds	r0, r3, #1
 80068fc:	6825      	ldr	r5, [r4, #0]
 80068fe:	3302      	adds	r3, #2
 8006900:	429a      	cmp	r2, r3
 8006902:	f841 5020 	str.w	r5, [r1, r0, lsl #2]
 8006906:	d1f5      	bne.n	80068f4 <USB_OTG_ReadPacket+0x28>
 8006908:	eb01 0182 	add.w	r1, r1, r2, lsl #2
 800690c:	4608      	mov	r0, r1
 800690e:	bc30      	pop	{r4, r5}
 8006910:	4770      	bx	lr
 8006912:	bf00      	nop

08006914 <USB_OTG_SelectCore>:
 8006914:	e92d 0ff0 	stmdb	sp!, {r4, r5, r6, r7, r8, r9, sl, fp}
 8006918:	2201      	movs	r2, #1
 800691a:	2300      	movs	r3, #0
 800691c:	7082      	strb	r2, [r0, #2]
 800691e:	2240      	movs	r2, #64	; 0x40
 8006920:	2901      	cmp	r1, #1
 8006922:	b082      	sub	sp, #8
 8006924:	70c3      	strb	r3, [r0, #3]
 8006926:	8082      	strh	r2, [r0, #4]
 8006928:	f000 80b4 	beq.w	8006a94 <USB_OTG_SelectCore+0x180>
 800692c:	2900      	cmp	r1, #0
 800692e:	f000 808e 	beq.w	8006a4e <USB_OTG_SelectCore+0x13a>
 8006932:	7802      	ldrb	r2, [r0, #0]
 8006934:	7841      	ldrb	r1, [r0, #1]
 8006936:	9201      	str	r2, [sp, #4]
 8006938:	f44f 6200 	mov.w	r2, #2048	; 0x800
 800693c:	60c3      	str	r3, [r0, #12]
 800693e:	6102      	str	r2, [r0, #16]
 8006940:	f44f 6a60 	mov.w	sl, #3584	; 0xe00
 8006944:	f44f 6988 	mov.w	r9, #1088	; 0x440
 8006948:	f44f 6b80 	mov.w	fp, #1024	; 0x400
 800694c:	4688      	mov	r8, r1
 800694e:	b379      	cbz	r1, 80069b0 <USB_OTG_SelectCore+0x9c>
 8006950:	4698      	mov	r8, r3
 8006952:	4602      	mov	r2, r0
 8006954:	f508 6410 	add.w	r4, r8, #2304	; 0x900
 8006958:	ea4f 1c41 	mov.w	ip, r1, lsl #5
 800695c:	f842 4f18 	str.w	r4, [r2, #24]!
 8006960:	2420      	movs	r4, #32
 8006962:	f1ac 0320 	sub.w	r3, ip, #32
 8006966:	f508 6130 	add.w	r1, r8, #2816	; 0xb00
 800696a:	4564      	cmp	r4, ip
 800696c:	63d1      	str	r1, [r2, #60]	; 0x3c
 800696e:	f3c3 1140 	ubfx	r1, r3, #5, #1
 8006972:	f508 6312 	add.w	r3, r8, #2336	; 0x920
 8006976:	d01b      	beq.n	80069b0 <USB_OTG_SelectCore+0x9c>
 8006978:	b151      	cbz	r1, 8006990 <USB_OTG_SelectCore+0x7c>
 800697a:	4602      	mov	r2, r0
 800697c:	2440      	movs	r4, #64	; 0x40
 800697e:	f842 3f1c 	str.w	r3, [r2, #28]!
 8006982:	f508 6132 	add.w	r1, r8, #2848	; 0xb20
 8006986:	4564      	cmp	r4, ip
 8006988:	63d1      	str	r1, [r2, #60]	; 0x3c
 800698a:	f508 6314 	add.w	r3, r8, #2368	; 0x940
 800698e:	d00f      	beq.n	80069b0 <USB_OTG_SelectCore+0x9c>
 8006990:	1d11      	adds	r1, r2, #4
 8006992:	6053      	str	r3, [r2, #4]
 8006994:	3440      	adds	r4, #64	; 0x40
 8006996:	3208      	adds	r2, #8
 8006998:	f503 7700 	add.w	r7, r3, #512	; 0x200
 800699c:	f103 0520 	add.w	r5, r3, #32
 80069a0:	f503 7608 	add.w	r6, r3, #544	; 0x220
 80069a4:	3340      	adds	r3, #64	; 0x40
 80069a6:	4564      	cmp	r4, ip
 80069a8:	63cf      	str	r7, [r1, #60]	; 0x3c
 80069aa:	604d      	str	r5, [r1, #4]
 80069ac:	63d6      	str	r6, [r2, #60]	; 0x3c
 80069ae:	d1ef      	bne.n	8006990 <USB_OTG_SelectCore+0x7c>
 80069b0:	9a01      	ldr	r2, [sp, #4]
 80069b2:	f8c0 b014 	str.w	fp, [r0, #20]
 80069b6:	f8c0 90cc 	str.w	r9, [r0, #204]	; 0xcc
 80069ba:	2a00      	cmp	r2, #0
 80069bc:	d040      	beq.n	8006a40 <USB_OTG_SelectCore+0x12c>
 80069be:	0155      	lsls	r5, r2, #5
 80069c0:	f508 64a0 	add.w	r4, r8, #1280	; 0x500
 80069c4:	f1a5 0c20 	sub.w	ip, r5, #32
 80069c8:	4602      	mov	r2, r0
 80069ca:	192d      	adds	r5, r5, r4
 80069cc:	f508 63a4 	add.w	r3, r8, #1312	; 0x520
 80069d0:	42ab      	cmp	r3, r5
 80069d2:	f842 4f90 	str.w	r4, [r2, #144]!
 80069d6:	f3cc 1440 	ubfx	r4, ip, #5, #1
 80069da:	d00f      	beq.n	80069fc <USB_OTG_SelectCore+0xe8>
 80069dc:	b134      	cbz	r4, 80069ec <USB_OTG_SelectCore+0xd8>
 80069de:	4602      	mov	r2, r0
 80069e0:	f842 3f94 	str.w	r3, [r2, #148]!
 80069e4:	f508 63a8 	add.w	r3, r8, #1344	; 0x540
 80069e8:	42ab      	cmp	r3, r5
 80069ea:	d007      	beq.n	80069fc <USB_OTG_SelectCore+0xe8>
 80069ec:	f103 0120 	add.w	r1, r3, #32
 80069f0:	6053      	str	r3, [r2, #4]
 80069f2:	3340      	adds	r3, #64	; 0x40
 80069f4:	6091      	str	r1, [r2, #8]
 80069f6:	3208      	adds	r2, #8
 80069f8:	42ab      	cmp	r3, r5
 80069fa:	d1f7      	bne.n	80069ec <USB_OTG_SelectCore+0xd8>
 80069fc:	9a01      	ldr	r2, [sp, #4]
 80069fe:	f508 5480 	add.w	r4, r8, #4096	; 0x1000
 8006a02:	0313      	lsls	r3, r2, #12
 8006a04:	191d      	adds	r5, r3, r4
 8006a06:	f5a3 5c80 	sub.w	ip, r3, #4096	; 0x1000
 8006a0a:	4602      	mov	r2, r0
 8006a0c:	f508 5300 	add.w	r3, r8, #8192	; 0x2000
 8006a10:	42ab      	cmp	r3, r5
 8006a12:	f842 4fd0 	str.w	r4, [r2, #208]!
 8006a16:	f3cc 3400 	ubfx	r4, ip, #12, #1
 8006a1a:	d011      	beq.n	8006a40 <USB_OTG_SelectCore+0x12c>
 8006a1c:	b134      	cbz	r4, 8006a2c <USB_OTG_SelectCore+0x118>
 8006a1e:	4602      	mov	r2, r0
 8006a20:	f842 3fd4 	str.w	r3, [r2, #212]!
 8006a24:	f503 5380 	add.w	r3, r3, #4096	; 0x1000
 8006a28:	42ab      	cmp	r3, r5
 8006a2a:	d009      	beq.n	8006a40 <USB_OTG_SelectCore+0x12c>
 8006a2c:	1d11      	adds	r1, r2, #4
 8006a2e:	6053      	str	r3, [r2, #4]
 8006a30:	f503 5480 	add.w	r4, r3, #4096	; 0x1000
 8006a34:	f503 5300 	add.w	r3, r3, #8192	; 0x2000
 8006a38:	1d0a      	adds	r2, r1, #4
 8006a3a:	42ab      	cmp	r3, r5
 8006a3c:	604c      	str	r4, [r1, #4]
 8006a3e:	d1f5      	bne.n	8006a2c <USB_OTG_SelectCore+0x118>
 8006a40:	f8c0 a10c 	str.w	sl, [r0, #268]	; 0x10c
 8006a44:	2000      	movs	r0, #0
 8006a46:	b002      	add	sp, #8
 8006a48:	e8bd 0ff0 	ldmia.w	sp!, {r4, r5, r6, r7, r8, r9, sl, fp}
 8006a4c:	4770      	bx	lr
 8006a4e:	2300      	movs	r3, #0
 8006a50:	240c      	movs	r4, #12
 8006a52:	f04f 0c06 	mov.w	ip, #6
 8006a56:	f44f 6a60 	mov.w	sl, #3584	; 0xe00
 8006a5a:	f44f 6988 	mov.w	r9, #1088	; 0x440
 8006a5e:	f44f 6b80 	mov.w	fp, #1024	; 0x400
 8006a62:	f44f 6200 	mov.w	r2, #2048	; 0x800
 8006a66:	f2c4 0304 	movt	r3, #16388	; 0x4004
 8006a6a:	72c1      	strb	r1, [r0, #11]
 8006a6c:	f44f 61a0 	mov.w	r1, #1280	; 0x500
 8006a70:	80c1      	strh	r1, [r0, #6]
 8006a72:	7004      	strb	r4, [r0, #0]
 8006a74:	f880 c001 	strb.w	ip, [r0, #1]
 8006a78:	f2c4 0a04 	movt	sl, #16388	; 0x4004
 8006a7c:	9401      	str	r4, [sp, #4]
 8006a7e:	f2c4 0904 	movt	r9, #16388	; 0x4004
 8006a82:	f2c4 0b04 	movt	fp, #16388	; 0x4004
 8006a86:	4661      	mov	r1, ip
 8006a88:	f2c4 0204 	movt	r2, #16388	; 0x4004
 8006a8c:	4698      	mov	r8, r3
 8006a8e:	60c3      	str	r3, [r0, #12]
 8006a90:	6102      	str	r2, [r0, #16]
 8006a92:	e75e      	b.n	8006952 <USB_OTG_SelectCore+0x3e>
 8006a94:	2408      	movs	r4, #8
 8006a96:	f04f 0c04 	mov.w	ip, #4
 8006a9a:	f44f 78a0 	mov.w	r8, #320	; 0x140
 8006a9e:	f44f 6a60 	mov.w	sl, #3584	; 0xe00
 8006aa2:	f44f 6988 	mov.w	r9, #1088	; 0x440
 8006aa6:	f44f 6b80 	mov.w	fp, #1024	; 0x400
 8006aaa:	f44f 6200 	mov.w	r2, #2048	; 0x800
 8006aae:	f04f 43a0 	mov.w	r3, #1342177280	; 0x50000000
 8006ab2:	72c1      	strb	r1, [r0, #11]
 8006ab4:	2102      	movs	r1, #2
 8006ab6:	f8a0 8006 	strh.w	r8, [r0, #6]
 8006aba:	7201      	strb	r1, [r0, #8]
 8006abc:	7004      	strb	r4, [r0, #0]
 8006abe:	f880 c001 	strb.w	ip, [r0, #1]
 8006ac2:	f2c5 0a00 	movt	sl, #20480	; 0x5000
 8006ac6:	9401      	str	r4, [sp, #4]
 8006ac8:	f2c5 0900 	movt	r9, #20480	; 0x5000
 8006acc:	f2c5 0b00 	movt	fp, #20480	; 0x5000
 8006ad0:	4661      	mov	r1, ip
 8006ad2:	f2c5 0200 	movt	r2, #20480	; 0x5000
 8006ad6:	4698      	mov	r8, r3
 8006ad8:	e7d9      	b.n	8006a8e <USB_OTG_SelectCore+0x17a>
 8006ada:	bf00      	nop

08006adc <USB_OTG_CoreInit>:
 8006adc:	b538      	push	{r3, r4, r5, lr}
 8006ade:	7a03      	ldrb	r3, [r0, #8]
 8006ae0:	2500      	movs	r5, #0
 8006ae2:	2b01      	cmp	r3, #1
 8006ae4:	4604      	mov	r4, r0
 8006ae6:	d032      	beq.n	8006b4e <USB_OTG_CoreInit+0x72>
 8006ae8:	68c3      	ldr	r3, [r0, #12]
 8006aea:	68da      	ldr	r2, [r3, #12]
 8006aec:	f042 0140 	orr.w	r1, r2, #64	; 0x40
 8006af0:	60d9      	str	r1, [r3, #12]
 8006af2:	f7ff fe7f 	bl	80067f4 <USB_OTG_CoreReset>
 8006af6:	7a22      	ldrb	r2, [r4, #8]
 8006af8:	7a61      	ldrb	r1, [r4, #9]
 8006afa:	2a03      	cmp	r2, #3
 8006afc:	bf14      	ite	ne
 8006afe:	f44f 3280 	movne.w	r2, #65536	; 0x10000
 8006b02:	f44f 3240 	moveq.w	r2, #196608	; 0x30000
 8006b06:	f442 1330 	orr.w	r3, r2, #2883584	; 0x2c0000
 8006b0a:	b109      	cbz	r1, 8006b10 <USB_OTG_CoreInit+0x34>
 8006b0c:	f442 1370 	orr.w	r3, r2, #3932160	; 0x3c0000
 8006b10:	68e1      	ldr	r1, [r4, #12]
 8006b12:	2014      	movs	r0, #20
 8006b14:	638b      	str	r3, [r1, #56]	; 0x38
 8006b16:	f7fb fd47 	bl	80025a8 <USB_OTG_BSP_mDelay>
 8006b1a:	68e3      	ldr	r3, [r4, #12]
 8006b1c:	f894 c008 	ldrb.w	ip, [r4, #8]
 8006b20:	68d8      	ldr	r0, [r3, #12]
 8006b22:	f1bc 0f03 	cmp.w	ip, #3
 8006b26:	bf08      	it	eq
 8006b28:	f440 3080 	orreq.w	r0, r0, #65536	; 0x10000
 8006b2c:	60d8      	str	r0, [r3, #12]
 8006b2e:	7a22      	ldrb	r2, [r4, #8]
 8006b30:	2a03      	cmp	r2, #3
 8006b32:	d033      	beq.n	8006b9c <USB_OTG_CoreInit+0xc0>
 8006b34:	78e3      	ldrb	r3, [r4, #3]
 8006b36:	2b01      	cmp	r3, #1
 8006b38:	bf01      	itttt	eq
 8006b3a:	68e3      	ldreq	r3, [r4, #12]
 8006b3c:	689a      	ldreq	r2, [r3, #8]
 8006b3e:	f022 023e 	biceq.w	r2, r2, #62	; 0x3e
 8006b42:	f042 022a 	orreq.w	r2, r2, #42	; 0x2a
 8006b46:	bf08      	it	eq
 8006b48:	609a      	streq	r2, [r3, #8]
 8006b4a:	2000      	movs	r0, #0
 8006b4c:	bd38      	pop	{r3, r4, r5, pc}
 8006b4e:	68c2      	ldr	r2, [r0, #12]
 8006b50:	7a41      	ldrb	r1, [r0, #9]
 8006b52:	6b93      	ldr	r3, [r2, #56]	; 0x38
 8006b54:	f365 4310 	bfi	r3, r5, #16, #1
 8006b58:	b109      	cbz	r1, 8006b5e <USB_OTG_CoreInit+0x82>
 8006b5a:	f443 1380 	orr.w	r3, r3, #1048576	; 0x100000
 8006b5e:	6393      	str	r3, [r2, #56]	; 0x38
 8006b60:	68d3      	ldr	r3, [r2, #12]
 8006b62:	f423 0080 	bic.w	r0, r3, #4194304	; 0x400000
 8006b66:	f020 0150 	bic.w	r1, r0, #80	; 0x50
 8006b6a:	f041 0310 	orr.w	r3, r1, #16
 8006b6e:	f36f 03c3 	bfc	r3, #3, #1
 8006b72:	f36f 13c7 	bfc	r3, #7, #1
 8006b76:	f36f 4351 	bfc	r3, #17, #1
 8006b7a:	f36f 43d3 	bfc	r3, #19, #1
 8006b7e:	60d3      	str	r3, [r2, #12]
 8006b80:	4620      	mov	r0, r4
 8006b82:	f7ff fe37 	bl	80067f4 <USB_OTG_CoreReset>
 8006b86:	78e0      	ldrb	r0, [r4, #3]
 8006b88:	2801      	cmp	r0, #1
 8006b8a:	d1de      	bne.n	8006b4a <USB_OTG_CoreInit+0x6e>
 8006b8c:	2005      	movs	r0, #5
 8006b8e:	f360 0544 	bfi	r5, r0, #1, #4
 8006b92:	68e1      	ldr	r1, [r4, #12]
 8006b94:	f045 0520 	orr.w	r5, r5, #32
 8006b98:	608d      	str	r5, [r1, #8]
 8006b9a:	e7cb      	b.n	8006b34 <USB_OTG_CoreInit+0x58>
 8006b9c:	6b18      	ldr	r0, [r3, #48]	; 0x30
 8006b9e:	2101      	movs	r1, #1
 8006ba0:	f361 609b 	bfi	r0, r1, #26, #2
 8006ba4:	f36f 50d7 	bfc	r0, #23, #1
 8006ba8:	222d      	movs	r2, #45	; 0x2d
 8006baa:	f040 5580 	orr.w	r5, r0, #268435456	; 0x10000000
 8006bae:	f362 4516 	bfi	r5, r2, #16, #7
 8006bb2:	20c8      	movs	r0, #200	; 0xc8
 8006bb4:	631d      	str	r5, [r3, #48]	; 0x30
 8006bb6:	f7fb fcf7 	bl	80025a8 <USB_OTG_BSP_mDelay>
 8006bba:	68e3      	ldr	r3, [r4, #12]
 8006bbc:	f445 0500 	orr.w	r5, r5, #8388608	; 0x800000
 8006bc0:	631d      	str	r5, [r3, #48]	; 0x30
 8006bc2:	20c8      	movs	r0, #200	; 0xc8
 8006bc4:	f7fb fcf0 	bl	80025a8 <USB_OTG_BSP_mDelay>
 8006bc8:	e7b4      	b.n	8006b34 <USB_OTG_CoreInit+0x58>
 8006bca:	bf00      	nop

08006bcc <USB_OTG_EnableGlobalInt>:
 8006bcc:	68c3      	ldr	r3, [r0, #12]
 8006bce:	6898      	ldr	r0, [r3, #8]
 8006bd0:	f040 0201 	orr.w	r2, r0, #1
 8006bd4:	609a      	str	r2, [r3, #8]
 8006bd6:	2000      	movs	r0, #0
 8006bd8:	4770      	bx	lr
 8006bda:	bf00      	nop

08006bdc <USB_OTG_DisableGlobalInt>:
 8006bdc:	68c3      	ldr	r3, [r0, #12]
 8006bde:	6898      	ldr	r0, [r3, #8]
 8006be0:	f020 0201 	bic.w	r2, r0, #1
 8006be4:	609a      	str	r2, [r3, #8]
 8006be6:	2000      	movs	r0, #0
 8006be8:	4770      	bx	lr
 8006bea:	bf00      	nop

08006bec <USB_OTG_FlushTxFifo>:
 8006bec:	b500      	push	{lr}
 8006bee:	b083      	sub	sp, #12
 8006bf0:	2300      	movs	r3, #0
 8006bf2:	9301      	str	r3, [sp, #4]
 8006bf4:	9a01      	ldr	r2, [sp, #4]
 8006bf6:	f042 0320 	orr.w	r3, r2, #32
 8006bfa:	9301      	str	r3, [sp, #4]
 8006bfc:	9a01      	ldr	r2, [sp, #4]
 8006bfe:	f361 128a 	bfi	r2, r1, #6, #5
 8006c02:	9201      	str	r2, [sp, #4]
 8006c04:	9b01      	ldr	r3, [sp, #4]
 8006c06:	68c2      	ldr	r2, [r0, #12]
 8006c08:	6113      	str	r3, [r2, #16]
 8006c0a:	6911      	ldr	r1, [r2, #16]
 8006c0c:	f44f 6354 	mov.w	r3, #3392	; 0xd40
 8006c10:	9101      	str	r1, [sp, #4]
 8006c12:	f2c0 0303 	movt	r3, #3
 8006c16:	e009      	b.n	8006c2c <USB_OTG_FlushTxFifo+0x40>
 8006c18:	6911      	ldr	r1, [r2, #16]
 8006c1a:	9101      	str	r1, [sp, #4]
 8006c1c:	9801      	ldr	r0, [sp, #4]
 8006c1e:	3b01      	subs	r3, #1
 8006c20:	0680      	lsls	r0, r0, #26
 8006c22:	d506      	bpl.n	8006c32 <USB_OTG_FlushTxFifo+0x46>
 8006c24:	6911      	ldr	r1, [r2, #16]
 8006c26:	3b01      	subs	r3, #1
 8006c28:	9101      	str	r1, [sp, #4]
 8006c2a:	d002      	beq.n	8006c32 <USB_OTG_FlushTxFifo+0x46>
 8006c2c:	9801      	ldr	r0, [sp, #4]
 8006c2e:	0681      	lsls	r1, r0, #26
 8006c30:	d4f2      	bmi.n	8006c18 <USB_OTG_FlushTxFifo+0x2c>
 8006c32:	2003      	movs	r0, #3
 8006c34:	f7fb fc9c 	bl	8002570 <USB_OTG_BSP_uDelay>
 8006c38:	2000      	movs	r0, #0
 8006c3a:	b003      	add	sp, #12
 8006c3c:	bd00      	pop	{pc}
 8006c3e:	bf00      	nop

08006c40 <USB_OTG_FlushRxFifo>:
 8006c40:	b500      	push	{lr}
 8006c42:	b083      	sub	sp, #12
 8006c44:	2300      	movs	r3, #0
 8006c46:	9301      	str	r3, [sp, #4]
 8006c48:	9901      	ldr	r1, [sp, #4]
 8006c4a:	f041 0210 	orr.w	r2, r1, #16
 8006c4e:	9201      	str	r2, [sp, #4]
 8006c50:	9b01      	ldr	r3, [sp, #4]
 8006c52:	68c2      	ldr	r2, [r0, #12]
 8006c54:	6113      	str	r3, [r2, #16]
 8006c56:	6911      	ldr	r1, [r2, #16]
 8006c58:	f44f 6354 	mov.w	r3, #3392	; 0xd40
 8006c5c:	9101      	str	r1, [sp, #4]
 8006c5e:	f2c0 0303 	movt	r3, #3
 8006c62:	e009      	b.n	8006c78 <USB_OTG_FlushRxFifo+0x38>
 8006c64:	6911      	ldr	r1, [r2, #16]
 8006c66:	9101      	str	r1, [sp, #4]
 8006c68:	9801      	ldr	r0, [sp, #4]
 8006c6a:	3b01      	subs	r3, #1
 8006c6c:	06c0      	lsls	r0, r0, #27
 8006c6e:	d506      	bpl.n	8006c7e <USB_OTG_FlushRxFifo+0x3e>
 8006c70:	6911      	ldr	r1, [r2, #16]
 8006c72:	3b01      	subs	r3, #1
 8006c74:	9101      	str	r1, [sp, #4]
 8006c76:	d002      	beq.n	8006c7e <USB_OTG_FlushRxFifo+0x3e>
 8006c78:	9801      	ldr	r0, [sp, #4]
 8006c7a:	06c1      	lsls	r1, r0, #27
 8006c7c:	d4f2      	bmi.n	8006c64 <USB_OTG_FlushRxFifo+0x24>
 8006c7e:	2003      	movs	r0, #3
 8006c80:	f7fb fc76 	bl	8002570 <USB_OTG_BSP_uDelay>
 8006c84:	2000      	movs	r0, #0
 8006c86:	b003      	add	sp, #12
 8006c88:	bd00      	pop	{pc}
 8006c8a:	bf00      	nop

08006c8c <USB_OTG_SetCurrentMode>:
 8006c8c:	68c2      	ldr	r2, [r0, #12]
 8006c8e:	b508      	push	{r3, lr}
 8006c90:	68d3      	ldr	r3, [r2, #12]
 8006c92:	f36f 735d 	bfc	r3, #29, #1
 8006c96:	f36f 739e 	bfc	r3, #30, #1
 8006c9a:	2901      	cmp	r1, #1
 8006c9c:	bf08      	it	eq
 8006c9e:	f043 5300 	orreq.w	r3, r3, #536870912	; 0x20000000
 8006ca2:	d002      	beq.n	8006caa <USB_OTG_SetCurrentMode+0x1e>
 8006ca4:	b909      	cbnz	r1, 8006caa <USB_OTG_SetCurrentMode+0x1e>
 8006ca6:	f043 4380 	orr.w	r3, r3, #1073741824	; 0x40000000
 8006caa:	2032      	movs	r0, #50	; 0x32
 8006cac:	60d3      	str	r3, [r2, #12]
 8006cae:	f7fb fc7b 	bl	80025a8 <USB_OTG_BSP_mDelay>
 8006cb2:	2000      	movs	r0, #0
 8006cb4:	bd08      	pop	{r3, pc}
 8006cb6:	bf00      	nop

08006cb8 <USB_OTG_GetMode>:
 8006cb8:	68c3      	ldr	r3, [r0, #12]
 8006cba:	6958      	ldr	r0, [r3, #20]
 8006cbc:	f000 0001 	and.w	r0, r0, #1
 8006cc0:	4770      	bx	lr
 8006cc2:	bf00      	nop

08006cc4 <USB_OTG_IsDeviceMode>:
 8006cc4:	68c0      	ldr	r0, [r0, #12]
 8006cc6:	6943      	ldr	r3, [r0, #20]
 8006cc8:	f013 0f01 	tst.w	r3, #1
 8006ccc:	bf14      	ite	ne
 8006cce:	2000      	movne	r0, #0
 8006cd0:	2001      	moveq	r0, #1
 8006cd2:	4770      	bx	lr

08006cd4 <USB_OTG_IsHostMode>:
 8006cd4:	68c3      	ldr	r3, [r0, #12]
 8006cd6:	6958      	ldr	r0, [r3, #20]
 8006cd8:	f000 0001 	and.w	r0, r0, #1
 8006cdc:	4770      	bx	lr
 8006cde:	bf00      	nop

08006ce0 <USB_OTG_ReadCoreItr>:
 8006ce0:	68c3      	ldr	r3, [r0, #12]
 8006ce2:	695a      	ldr	r2, [r3, #20]
 8006ce4:	6998      	ldr	r0, [r3, #24]
 8006ce6:	4010      	ands	r0, r2
 8006ce8:	4770      	bx	lr
 8006cea:	bf00      	nop

08006cec <USB_OTG_ReadOtgItr>:
 8006cec:	68c3      	ldr	r3, [r0, #12]
 8006cee:	6858      	ldr	r0, [r3, #4]
 8006cf0:	4770      	bx	lr
 8006cf2:	bf00      	nop

08006cf4 <USB_OTG_InitDevSpeed>:
 8006cf4:	6903      	ldr	r3, [r0, #16]
 8006cf6:	681a      	ldr	r2, [r3, #0]
 8006cf8:	f361 0201 	bfi	r2, r1, #0, #2
 8006cfc:	601a      	str	r2, [r3, #0]
 8006cfe:	4770      	bx	lr

08006d00 <USB_OTG_EnableDevInt>:
 8006d00:	b410      	push	{r4}
 8006d02:	68c3      	ldr	r3, [r0, #12]
 8006d04:	f44f 6400 	mov.w	r4, #2048	; 0x800
 8006d08:	2200      	movs	r2, #0
 8006d0a:	f04f 31ff 	mov.w	r1, #4294967295
 8006d0e:	f2c8 0400 	movt	r4, #32768	; 0x8000
 8006d12:	619a      	str	r2, [r3, #24]
 8006d14:	6159      	str	r1, [r3, #20]
 8006d16:	6059      	str	r1, [r3, #4]
 8006d18:	6159      	str	r1, [r3, #20]
 8006d1a:	619c      	str	r4, [r3, #24]
 8006d1c:	f890 c003 	ldrb.w	ip, [r0, #3]
 8006d20:	6998      	ldr	r0, [r3, #24]
 8006d22:	4594      	cmp	ip, r2
 8006d24:	bf14      	ite	ne
 8006d26:	4611      	movne	r1, r2
 8006d28:	2110      	moveq	r1, #16
 8006d2a:	f441 2c87 	orr.w	ip, r1, #276480	; 0x43800
 8006d2e:	f04c 1108 	orr.w	r1, ip, #524296	; 0x80008
 8006d32:	f441 1c40 	orr.w	ip, r1, #3145728	; 0x300000
 8006d36:	ea20 000c 	bic.w	r0, r0, ip
 8006d3a:	ea40 010c 	orr.w	r1, r0, ip
 8006d3e:	6199      	str	r1, [r3, #24]
 8006d40:	4610      	mov	r0, r2
 8006d42:	bc10      	pop	{r4}
 8006d44:	4770      	bx	lr
 8006d46:	bf00      	nop

08006d48 <USB_OTG_CoreInitDev>:
 8006d48:	b5f8      	push	{r3, r4, r5, r6, r7, lr}
 8006d4a:	f8d0 510c 	ldr.w	r5, [r0, #268]	; 0x10c
 8006d4e:	6902      	ldr	r2, [r0, #16]
 8006d50:	2100      	movs	r1, #0
 8006d52:	6029      	str	r1, [r5, #0]
 8006d54:	4604      	mov	r4, r0
 8006d56:	6810      	ldr	r0, [r2, #0]
 8006d58:	f361 20cc 	bfi	r0, r1, #11, #2
 8006d5c:	6010      	str	r0, [r2, #0]
 8006d5e:	460b      	mov	r3, r1
 8006d60:	7ae1      	ldrb	r1, [r4, #11]
 8006d62:	2901      	cmp	r1, #1
 8006d64:	d057      	beq.n	8006e16 <USB_OTG_CoreInitDev+0xce>
 8006d66:	2110      	movs	r1, #16
 8006d68:	4620      	mov	r0, r4
 8006d6a:	f7ff ff3f 	bl	8006bec <USB_OTG_FlushTxFifo>
 8006d6e:	4620      	mov	r0, r4
 8006d70:	f7ff ff66 	bl	8006c40 <USB_OTG_FlushRxFifo>
 8006d74:	6925      	ldr	r5, [r4, #16]
 8006d76:	2200      	movs	r2, #0
 8006d78:	f04f 30ff 	mov.w	r0, #4294967295
 8006d7c:	612a      	str	r2, [r5, #16]
 8006d7e:	616a      	str	r2, [r5, #20]
 8006d80:	61a8      	str	r0, [r5, #24]
 8006d82:	61ea      	str	r2, [r5, #28]
 8006d84:	7863      	ldrb	r3, [r4, #1]
 8006d86:	2b00      	cmp	r3, #0
 8006d88:	d031      	beq.n	8006dee <USB_OTG_CoreInitDev+0xa6>
 8006d8a:	f104 0014 	add.w	r0, r4, #20
 8006d8e:	4617      	mov	r7, r2
 8006d90:	26ff      	movs	r6, #255	; 0xff
 8006d92:	f850 3f04 	ldr.w	r3, [r0, #4]!
 8006d96:	6819      	ldr	r1, [r3, #0]
 8006d98:	f3c1 6e07 	ubfx	lr, r1, #24, #8
 8006d9c:	f00e 0c80 	and.w	ip, lr, #128	; 0x80
 8006da0:	fa5f f18c 	uxtb.w	r1, ip
 8006da4:	2900      	cmp	r1, #0
 8006da6:	bf18      	it	ne
 8006da8:	f04f 4190 	movne.w	r1, #1207959552	; 0x48000000
 8006dac:	6019      	str	r1, [r3, #0]
 8006dae:	611f      	str	r7, [r3, #16]
 8006db0:	609e      	str	r6, [r3, #8]
 8006db2:	7863      	ldrb	r3, [r4, #1]
 8006db4:	3201      	adds	r2, #1
 8006db6:	4293      	cmp	r3, r2
 8006db8:	d8eb      	bhi.n	8006d92 <USB_OTG_CoreInitDev+0x4a>
 8006dba:	b1c3      	cbz	r3, 8006dee <USB_OTG_CoreInitDev+0xa6>
 8006dbc:	2200      	movs	r2, #0
 8006dbe:	f104 0050 	add.w	r0, r4, #80	; 0x50
 8006dc2:	4617      	mov	r7, r2
 8006dc4:	26ff      	movs	r6, #255	; 0xff
 8006dc6:	f850 3f04 	ldr.w	r3, [r0, #4]!
 8006dca:	6819      	ldr	r1, [r3, #0]
 8006dcc:	f3c1 6e07 	ubfx	lr, r1, #24, #8
 8006dd0:	f00e 0c80 	and.w	ip, lr, #128	; 0x80
 8006dd4:	fa5f f18c 	uxtb.w	r1, ip
 8006dd8:	2900      	cmp	r1, #0
 8006dda:	bf18      	it	ne
 8006ddc:	f04f 4190 	movne.w	r1, #1207959552	; 0x48000000
 8006de0:	6019      	str	r1, [r3, #0]
 8006de2:	611f      	str	r7, [r3, #16]
 8006de4:	609e      	str	r6, [r3, #8]
 8006de6:	7863      	ldrb	r3, [r4, #1]
 8006de8:	3201      	adds	r2, #1
 8006dea:	4293      	cmp	r3, r2
 8006dec:	d8eb      	bhi.n	8006dc6 <USB_OTG_CoreInitDev+0x7e>
 8006dee:	692b      	ldr	r3, [r5, #16]
 8006df0:	f443 7080 	orr.w	r0, r3, #256	; 0x100
 8006df4:	6128      	str	r0, [r5, #16]
 8006df6:	78e2      	ldrb	r2, [r4, #3]
 8006df8:	2a01      	cmp	r2, #1
 8006dfa:	d107      	bne.n	8006e0c <USB_OTG_CoreInitDev+0xc4>
 8006dfc:	f240 1103 	movw	r1, #259	; 0x103
 8006e00:	f2c0 0101 	movt	r1, #1
 8006e04:	2240      	movs	r2, #64	; 0x40
 8006e06:	f362 4159 	bfi	r1, r2, #17, #9
 8006e0a:	6329      	str	r1, [r5, #48]	; 0x30
 8006e0c:	4620      	mov	r0, r4
 8006e0e:	f7ff ff77 	bl	8006d00 <USB_OTG_EnableDevInt>
 8006e12:	2000      	movs	r0, #0
 8006e14:	bdf8      	pop	{r3, r4, r5, r6, r7, pc}
 8006e16:	6816      	ldr	r6, [r2, #0]
 8006e18:	68e0      	ldr	r0, [r4, #12]
 8006e1a:	27a0      	movs	r7, #160	; 0xa0
 8006e1c:	2580      	movs	r5, #128	; 0x80
 8006e1e:	f44f 1100 	mov.w	r1, #2097152	; 0x200000
 8006e22:	f367 030f 	bfi	r3, r7, #0, #16
 8006e26:	f046 0603 	orr.w	r6, r6, #3
 8006e2a:	6016      	str	r6, [r2, #0]
 8006e2c:	f365 431f 	bfi	r3, r5, #16, #16
 8006e30:	6245      	str	r5, [r0, #36]	; 0x24
 8006e32:	f365 010f 	bfi	r1, r5, #0, #16
 8006e36:	f44f 7590 	mov.w	r5, #288	; 0x120
 8006e3a:	6281      	str	r1, [r0, #40]	; 0x28
 8006e3c:	f8c0 3104 	str.w	r3, [r0, #260]	; 0x104
 8006e40:	f365 030f 	bfi	r3, r5, #0, #16
 8006e44:	f2c0 0320 	movt	r3, #32
 8006e48:	f44f 72a0 	mov.w	r2, #320	; 0x140
 8006e4c:	f8c0 3108 	str.w	r3, [r0, #264]	; 0x108
 8006e50:	f362 030f 	bfi	r3, r2, #0, #16
 8006e54:	f36f 431f 	bfc	r3, #16, #16
 8006e58:	f8c0 310c 	str.w	r3, [r0, #268]	; 0x10c
 8006e5c:	e783      	b.n	8006d66 <USB_OTG_CoreInitDev+0x1e>
 8006e5e:	bf00      	nop

08006e60 <USB_OTG_GetDeviceSpeed>:
 8006e60:	6901      	ldr	r1, [r0, #16]
 8006e62:	688b      	ldr	r3, [r1, #8]
 8006e64:	f3c3 0141 	ubfx	r1, r3, #1, #2
 8006e68:	1e4b      	subs	r3, r1, #1
 8006e6a:	2b02      	cmp	r3, #2
 8006e6c:	bf9d      	ittte	ls
 8006e6e:	f248 2298 	movwls	r2, #33432	; 0x8298
 8006e72:	f6c0 0200 	movtls	r2, #2048	; 0x800
 8006e76:	5cd0      	ldrbls	r0, [r2, r3]
 8006e78:	2003      	movhi	r0, #3
 8006e7a:	4770      	bx	lr

08006e7c <USB_OTG_EP0Activate>:
 8006e7c:	6903      	ldr	r3, [r0, #16]
 8006e7e:	6982      	ldr	r2, [r0, #24]
 8006e80:	6898      	ldr	r0, [r3, #8]
 8006e82:	6811      	ldr	r1, [r2, #0]
 8006e84:	f3c0 0041 	ubfx	r0, r0, #1, #2
 8006e88:	2802      	cmp	r0, #2
 8006e8a:	bf18      	it	ne
 8006e8c:	f36f 010a 	bfcne	r1, #0, #11
 8006e90:	d102      	bne.n	8006e98 <USB_OTG_EP0Activate+0x1c>
 8006e92:	2003      	movs	r0, #3
 8006e94:	f360 010a 	bfi	r1, r0, #0, #11
 8006e98:	6011      	str	r1, [r2, #0]
 8006e9a:	6859      	ldr	r1, [r3, #4]
 8006e9c:	f441 7280 	orr.w	r2, r1, #256	; 0x100
 8006ea0:	605a      	str	r2, [r3, #4]
 8006ea2:	2000      	movs	r0, #0
 8006ea4:	4770      	bx	lr
 8006ea6:	bf00      	nop

08006ea8 <USB_OTG_EPActivate>:
 8006ea8:	b470      	push	{r4, r5, r6}
 8006eaa:	784b      	ldrb	r3, [r1, #1]
 8006eac:	2200      	movs	r2, #0
 8006eae:	2b01      	cmp	r3, #1
 8006eb0:	d026      	beq.n	8006f00 <USB_OTG_EPActivate+0x58>
 8006eb2:	780b      	ldrb	r3, [r1, #0]
 8006eb4:	eb00 0483 	add.w	r4, r0, r3, lsl #2
 8006eb8:	2501      	movs	r5, #1
 8006eba:	fa05 fc03 	lsl.w	ip, r5, r3
 8006ebe:	6d64      	ldr	r4, [r4, #84]	; 0x54
 8006ec0:	f36c 421f 	bfi	r2, ip, #16, #16
 8006ec4:	6823      	ldr	r3, [r4, #0]
 8006ec6:	f3c3 2507 	ubfx	r5, r3, #8, #8
 8006eca:	f005 0c80 	and.w	ip, r5, #128	; 0x80
 8006ece:	fa5f f58c 	uxtb.w	r5, ip
 8006ed2:	b975      	cbnz	r5, 8006ef2 <USB_OTG_EPActivate+0x4a>
 8006ed4:	688e      	ldr	r6, [r1, #8]
 8006ed6:	78cd      	ldrb	r5, [r1, #3]
 8006ed8:	f8b1 c006 	ldrh.w	ip, [r1, #6]
 8006edc:	f366 030a 	bfi	r3, r6, #0, #11
 8006ee0:	f365 4393 	bfi	r3, r5, #18, #2
 8006ee4:	f36c 5399 	bfi	r3, ip, #22, #4
 8006ee8:	f043 5380 	orr.w	r3, r3, #268435456	; 0x10000000
 8006eec:	f443 4100 	orr.w	r1, r3, #32768	; 0x8000
 8006ef0:	6021      	str	r1, [r4, #0]
 8006ef2:	6900      	ldr	r0, [r0, #16]
 8006ef4:	69c1      	ldr	r1, [r0, #28]
 8006ef6:	430a      	orrs	r2, r1
 8006ef8:	61c2      	str	r2, [r0, #28]
 8006efa:	2000      	movs	r0, #0
 8006efc:	bc70      	pop	{r4, r5, r6}
 8006efe:	4770      	bx	lr
 8006f00:	780c      	ldrb	r4, [r1, #0]
 8006f02:	eb00 0584 	add.w	r5, r0, r4, lsl #2
 8006f06:	fa03 f304 	lsl.w	r3, r3, r4
 8006f0a:	f363 020f 	bfi	r2, r3, #0, #16
 8006f0e:	69ac      	ldr	r4, [r5, #24]
 8006f10:	e7d8      	b.n	8006ec4 <USB_OTG_EPActivate+0x1c>
 8006f12:	bf00      	nop

08006f14 <USB_OTG_EPDeactivate>:
 8006f14:	b430      	push	{r4, r5}
 8006f16:	784a      	ldrb	r2, [r1, #1]
 8006f18:	2300      	movs	r3, #0
 8006f1a:	2a01      	cmp	r2, #1
 8006f1c:	461c      	mov	r4, r3
 8006f1e:	d013      	beq.n	8006f48 <USB_OTG_EPDeactivate+0x34>
 8006f20:	780a      	ldrb	r2, [r1, #0]
 8006f22:	eb00 0182 	add.w	r1, r0, r2, lsl #2
 8006f26:	2501      	movs	r5, #1
 8006f28:	fa05 fc02 	lsl.w	ip, r5, r2
 8006f2c:	6d49      	ldr	r1, [r1, #84]	; 0x54
 8006f2e:	f36c 441f 	bfi	r4, ip, #16, #16
 8006f32:	6900      	ldr	r0, [r0, #16]
 8006f34:	f36f 33cf 	bfc	r3, #15, #1
 8006f38:	600b      	str	r3, [r1, #0]
 8006f3a:	69c3      	ldr	r3, [r0, #28]
 8006f3c:	ea23 0404 	bic.w	r4, r3, r4
 8006f40:	61c4      	str	r4, [r0, #28]
 8006f42:	2000      	movs	r0, #0
 8006f44:	bc30      	pop	{r4, r5}
 8006f46:	4770      	bx	lr
 8006f48:	7809      	ldrb	r1, [r1, #0]
 8006f4a:	eb00 0581 	add.w	r5, r0, r1, lsl #2
 8006f4e:	fa02 f201 	lsl.w	r2, r2, r1
 8006f52:	f362 040f 	bfi	r4, r2, #0, #16
 8006f56:	69a9      	ldr	r1, [r5, #24]
 8006f58:	e7eb      	b.n	8006f32 <USB_OTG_EPDeactivate+0x1e>
 8006f5a:	bf00      	nop

08006f5c <USB_OTG_EPStartXfer>:
 8006f5c:	b4f0      	push	{r4, r5, r6, r7}
 8006f5e:	784b      	ldrb	r3, [r1, #1]
 8006f60:	2b01      	cmp	r3, #1
 8006f62:	d035      	beq.n	8006fd0 <USB_OTG_EPStartXfer+0x74>
 8006f64:	780c      	ldrb	r4, [r1, #0]
 8006f66:	694e      	ldr	r6, [r1, #20]
 8006f68:	eb00 0584 	add.w	r5, r0, r4, lsl #2
 8006f6c:	6d6b      	ldr	r3, [r5, #84]	; 0x54
 8006f6e:	681c      	ldr	r4, [r3, #0]
 8006f70:	691a      	ldr	r2, [r3, #16]
 8006f72:	2e00      	cmp	r6, #0
 8006f74:	d025      	beq.n	8006fc2 <USB_OTG_EPStartXfer+0x66>
 8006f76:	688f      	ldr	r7, [r1, #8]
 8006f78:	19f5      	adds	r5, r6, r7
 8006f7a:	3d01      	subs	r5, #1
 8006f7c:	fbb5 f5f7 	udiv	r5, r5, r7
 8006f80:	05ad      	lsls	r5, r5, #22
 8006f82:	0dad      	lsrs	r5, r5, #22
 8006f84:	f365 42dc 	bfi	r2, r5, #19, #10
 8006f88:	fb07 f505 	mul.w	r5, r7, r5
 8006f8c:	f365 0212 	bfi	r2, r5, #0, #19
 8006f90:	611a      	str	r2, [r3, #16]
 8006f92:	78c3      	ldrb	r3, [r0, #3]
 8006f94:	2b01      	cmp	r3, #1
 8006f96:	bf01      	itttt	eq
 8006f98:	780b      	ldrbeq	r3, [r1, #0]
 8006f9a:	690a      	ldreq	r2, [r1, #16]
 8006f9c:	eb00 0383 	addeq.w	r3, r0, r3, lsl #2
 8006fa0:	6d5b      	ldreq	r3, [r3, #84]	; 0x54
 8006fa2:	bf08      	it	eq
 8006fa4:	615a      	streq	r2, [r3, #20]
 8006fa6:	78ca      	ldrb	r2, [r1, #3]
 8006fa8:	2a01      	cmp	r2, #1
 8006faa:	d07a      	beq.n	80070a2 <USB_OTG_EPStartXfer+0x146>
 8006fac:	780b      	ldrb	r3, [r1, #0]
 8006fae:	eb00 0c83 	add.w	ip, r0, r3, lsl #2
 8006fb2:	f044 4404 	orr.w	r4, r4, #2214592512	; 0x84000000
 8006fb6:	f8dc 1054 	ldr.w	r1, [ip, #84]	; 0x54
 8006fba:	600c      	str	r4, [r1, #0]
 8006fbc:	2000      	movs	r0, #0
 8006fbe:	bcf0      	pop	{r4, r5, r6, r7}
 8006fc0:	4770      	bx	lr
 8006fc2:	688d      	ldr	r5, [r1, #8]
 8006fc4:	f365 0212 	bfi	r2, r5, #0, #19
 8006fc8:	2501      	movs	r5, #1
 8006fca:	f365 42dc 	bfi	r2, r5, #19, #10
 8006fce:	e7df      	b.n	8006f90 <USB_OTG_EPStartXfer+0x34>
 8006fd0:	780d      	ldrb	r5, [r1, #0]
 8006fd2:	694a      	ldr	r2, [r1, #20]
 8006fd4:	eb00 0485 	add.w	r4, r0, r5, lsl #2
 8006fd8:	69a5      	ldr	r5, [r4, #24]
 8006fda:	682e      	ldr	r6, [r5, #0]
 8006fdc:	692c      	ldr	r4, [r5, #16]
 8006fde:	2a00      	cmp	r2, #0
 8006fe0:	d064      	beq.n	80070ac <USB_OTG_EPStartXfer+0x150>
 8006fe2:	688b      	ldr	r3, [r1, #8]
 8006fe4:	78cf      	ldrb	r7, [r1, #3]
 8006fe6:	eb02 0c03 	add.w	ip, r2, r3
 8006fea:	f10c 3cff 	add.w	ip, ip, #4294967295
 8006fee:	f362 0412 	bfi	r4, r2, #0, #19
 8006ff2:	fbbc f3f3 	udiv	r3, ip, r3
 8006ff6:	f363 44dc 	bfi	r4, r3, #19, #10
 8006ffa:	2f01      	cmp	r7, #1
 8006ffc:	bf08      	it	eq
 8006ffe:	f367 745e 	bfieq	r4, r7, #29, #2
 8007002:	612c      	str	r4, [r5, #16]
 8007004:	78c3      	ldrb	r3, [r0, #3]
 8007006:	2b01      	cmp	r3, #1
 8007008:	d061      	beq.n	80070ce <USB_OTG_EPStartXfer+0x172>
 800700a:	f891 c003 	ldrb.w	ip, [r1, #3]
 800700e:	f1bc 0f01 	cmp.w	ip, #1
 8007012:	d053      	beq.n	80070bc <USB_OTG_EPStartXfer+0x160>
 8007014:	b15a      	cbz	r2, 800702e <USB_OTG_EPStartXfer+0xd2>
 8007016:	6903      	ldr	r3, [r0, #16]
 8007018:	f891 c000 	ldrb.w	ip, [r1]
 800701c:	6b5d      	ldr	r5, [r3, #52]	; 0x34
 800701e:	2701      	movs	r7, #1
 8007020:	fa07 f40c 	lsl.w	r4, r7, ip
 8007024:	432c      	orrs	r4, r5
 8007026:	635c      	str	r4, [r3, #52]	; 0x34
 8007028:	78cb      	ldrb	r3, [r1, #3]
 800702a:	2b01      	cmp	r3, #1
 800702c:	d046      	beq.n	80070bc <USB_OTG_EPStartXfer+0x160>
 800702e:	780b      	ldrb	r3, [r1, #0]
 8007030:	eb00 0c83 	add.w	ip, r0, r3, lsl #2
 8007034:	f046 4604 	orr.w	r6, r6, #2214592512	; 0x84000000
 8007038:	f8dc 3018 	ldr.w	r3, [ip, #24]
 800703c:	601e      	str	r6, [r3, #0]
 800703e:	78cb      	ldrb	r3, [r1, #3]
 8007040:	2b01      	cmp	r3, #1
 8007042:	d1bb      	bne.n	8006fbc <USB_OTG_EPStartXfer+0x60>
 8007044:	78c5      	ldrb	r5, [r0, #3]
 8007046:	68cc      	ldr	r4, [r1, #12]
 8007048:	7809      	ldrb	r1, [r1, #0]
 800704a:	2d00      	cmp	r5, #0
 800704c:	d1b6      	bne.n	8006fbc <USB_OTG_EPStartXfer+0x60>
 800704e:	b292      	uxth	r2, r2
 8007050:	eb00 0081 	add.w	r0, r0, r1, lsl #2
 8007054:	3203      	adds	r2, #3
 8007056:	1092      	asrs	r2, r2, #2
 8007058:	f8d0 10d0 	ldr.w	r1, [r0, #208]	; 0xd0
 800705c:	d0ae      	beq.n	8006fbc <USB_OTG_EPStartXfer+0x60>
 800705e:	6825      	ldr	r5, [r4, #0]
 8007060:	1e50      	subs	r0, r2, #1
 8007062:	2a01      	cmp	r2, #1
 8007064:	600d      	str	r5, [r1, #0]
 8007066:	f000 0001 	and.w	r0, r0, #1
 800706a:	d0a7      	beq.n	8006fbc <USB_OTG_EPStartXfer+0x60>
 800706c:	b120      	cbz	r0, 8007078 <USB_OTG_EPStartXfer+0x11c>
 800706e:	6860      	ldr	r0, [r4, #4]
 8007070:	2302      	movs	r3, #2
 8007072:	429a      	cmp	r2, r3
 8007074:	6008      	str	r0, [r1, #0]
 8007076:	d0a1      	beq.n	8006fbc <USB_OTG_EPStartXfer+0x60>
 8007078:	f854 0023 	ldr.w	r0, [r4, r3, lsl #2]
 800707c:	3301      	adds	r3, #1
 800707e:	6008      	str	r0, [r1, #0]
 8007080:	f854 0023 	ldr.w	r0, [r4, r3, lsl #2]
 8007084:	3301      	adds	r3, #1
 8007086:	429a      	cmp	r2, r3
 8007088:	6008      	str	r0, [r1, #0]
 800708a:	d097      	beq.n	8006fbc <USB_OTG_EPStartXfer+0x60>
 800708c:	f854 0023 	ldr.w	r0, [r4, r3, lsl #2]
 8007090:	3301      	adds	r3, #1
 8007092:	6008      	str	r0, [r1, #0]
 8007094:	f854 0023 	ldr.w	r0, [r4, r3, lsl #2]
 8007098:	3301      	adds	r3, #1
 800709a:	429a      	cmp	r2, r3
 800709c:	6008      	str	r0, [r1, #0]
 800709e:	d1eb      	bne.n	8007078 <USB_OTG_EPStartXfer+0x11c>
 80070a0:	e78c      	b.n	8006fbc <USB_OTG_EPStartXfer+0x60>
 80070a2:	794a      	ldrb	r2, [r1, #5]
 80070a4:	b13a      	cbz	r2, 80070b6 <USB_OTG_EPStartXfer+0x15a>
 80070a6:	f044 5400 	orr.w	r4, r4, #536870912	; 0x20000000
 80070aa:	e77f      	b.n	8006fac <USB_OTG_EPStartXfer+0x50>
 80070ac:	f362 0412 	bfi	r4, r2, #0, #19
 80070b0:	f363 44dc 	bfi	r4, r3, #19, #10
 80070b4:	e7a5      	b.n	8007002 <USB_OTG_EPStartXfer+0xa6>
 80070b6:	f044 5480 	orr.w	r4, r4, #268435456	; 0x10000000
 80070ba:	e777      	b.n	8006fac <USB_OTG_EPStartXfer+0x50>
 80070bc:	6903      	ldr	r3, [r0, #16]
 80070be:	689b      	ldr	r3, [r3, #8]
 80070c0:	05db      	lsls	r3, r3, #23
 80070c2:	bf54      	ite	pl
 80070c4:	f046 5600 	orrpl.w	r6, r6, #536870912	; 0x20000000
 80070c8:	f046 5680 	orrmi.w	r6, r6, #268435456	; 0x10000000
 80070cc:	e7af      	b.n	800702e <USB_OTG_EPStartXfer+0xd2>
 80070ce:	780b      	ldrb	r3, [r1, #0]
 80070d0:	690c      	ldr	r4, [r1, #16]
 80070d2:	eb00 0c83 	add.w	ip, r0, r3, lsl #2
 80070d6:	f8dc 3018 	ldr.w	r3, [ip, #24]
 80070da:	615c      	str	r4, [r3, #20]
 80070dc:	e7a4      	b.n	8007028 <USB_OTG_EPStartXfer+0xcc>
 80070de:	bf00      	nop

080070e0 <USB_OTG_EP0StartXfer>:
 80070e0:	b4f0      	push	{r4, r5, r6, r7}
 80070e2:	784b      	ldrb	r3, [r1, #1]
 80070e4:	2b01      	cmp	r3, #1
 80070e6:	b082      	sub	sp, #8
 80070e8:	d036      	beq.n	8007158 <USB_OTG_EP0StartXfer+0x78>
 80070ea:	780b      	ldrb	r3, [r1, #0]
 80070ec:	694c      	ldr	r4, [r1, #20]
 80070ee:	eb00 0683 	add.w	r6, r0, r3, lsl #2
 80070f2:	6d73      	ldr	r3, [r6, #84]	; 0x54
 80070f4:	681a      	ldr	r2, [r3, #0]
 80070f6:	691d      	ldr	r5, [r3, #16]
 80070f8:	9500      	str	r5, [sp, #0]
 80070fa:	2c00      	cmp	r4, #0
 80070fc:	d026      	beq.n	800714c <USB_OTG_EP0StartXfer+0x6c>
 80070fe:	688e      	ldr	r6, [r1, #8]
 8007100:	f89d 5000 	ldrb.w	r5, [sp]
 8007104:	f89d 4002 	ldrb.w	r4, [sp, #2]
 8007108:	614e      	str	r6, [r1, #20]
 800710a:	f366 0506 	bfi	r5, r6, #0, #7
 800710e:	2601      	movs	r6, #1
 8007110:	f366 04c4 	bfi	r4, r6, #3, #2
 8007114:	f88d 5000 	strb.w	r5, [sp]
 8007118:	f88d 4002 	strb.w	r4, [sp, #2]
 800711c:	9c00      	ldr	r4, [sp, #0]
 800711e:	611c      	str	r4, [r3, #16]
 8007120:	78c3      	ldrb	r3, [r0, #3]
 8007122:	2b01      	cmp	r3, #1
 8007124:	bf01      	itttt	eq
 8007126:	780b      	ldrbeq	r3, [r1, #0]
 8007128:	690c      	ldreq	r4, [r1, #16]
 800712a:	eb00 0383 	addeq.w	r3, r0, r3, lsl #2
 800712e:	6d5b      	ldreq	r3, [r3, #84]	; 0x54
 8007130:	bf08      	it	eq
 8007132:	615c      	streq	r4, [r3, #20]
 8007134:	780b      	ldrb	r3, [r1, #0]
 8007136:	eb00 0c83 	add.w	ip, r0, r3, lsl #2
 800713a:	f042 4104 	orr.w	r1, r2, #2214592512	; 0x84000000
 800713e:	f8dc 2054 	ldr.w	r2, [ip, #84]	; 0x54
 8007142:	6011      	str	r1, [r2, #0]
 8007144:	2000      	movs	r0, #0
 8007146:	b002      	add	sp, #8
 8007148:	bcf0      	pop	{r4, r5, r6, r7}
 800714a:	4770      	bx	lr
 800714c:	f89d 5000 	ldrb.w	r5, [sp]
 8007150:	f89d 4002 	ldrb.w	r4, [sp, #2]
 8007154:	688e      	ldr	r6, [r1, #8]
 8007156:	e7d8      	b.n	800710a <USB_OTG_EP0StartXfer+0x2a>
 8007158:	6982      	ldr	r2, [r0, #24]
 800715a:	694c      	ldr	r4, [r1, #20]
 800715c:	6815      	ldr	r5, [r2, #0]
 800715e:	6916      	ldr	r6, [r2, #16]
 8007160:	9600      	str	r6, [sp, #0]
 8007162:	2c00      	cmp	r4, #0
 8007164:	d037      	beq.n	80071d6 <USB_OTG_EP0StartXfer+0xf6>
 8007166:	688b      	ldr	r3, [r1, #8]
 8007168:	429c      	cmp	r4, r3
 800716a:	bf93      	iteet	ls
 800716c:	f89d 3000 	ldrbls.w	r3, [sp]
 8007170:	f89d 4000 	ldrbhi.w	r4, [sp]
 8007174:	614b      	strhi	r3, [r1, #20]
 8007176:	f364 0306 	bfils	r3, r4, #0, #7
 800717a:	bf8c      	ite	hi
 800717c:	f363 0406 	bfihi	r4, r3, #0, #7
 8007180:	f88d 3000 	strbls.w	r3, [sp]
 8007184:	f89d 3002 	ldrb.w	r3, [sp, #2]
 8007188:	bf88      	it	hi
 800718a:	f88d 4000 	strbhi.w	r4, [sp]
 800718e:	2401      	movs	r4, #1
 8007190:	f364 03c4 	bfi	r3, r4, #3, #2
 8007194:	f88d 3002 	strb.w	r3, [sp, #2]
 8007198:	9b00      	ldr	r3, [sp, #0]
 800719a:	6113      	str	r3, [r2, #16]
 800719c:	78c3      	ldrb	r3, [r0, #3]
 800719e:	2b01      	cmp	r3, #1
 80071a0:	bf01      	itttt	eq
 80071a2:	780b      	ldrbeq	r3, [r1, #0]
 80071a4:	690c      	ldreq	r4, [r1, #16]
 80071a6:	eb00 0383 	addeq.w	r3, r0, r3, lsl #2
 80071aa:	699b      	ldreq	r3, [r3, #24]
 80071ac:	bf08      	it	eq
 80071ae:	615c      	streq	r4, [r3, #20]
 80071b0:	f045 4304 	orr.w	r3, r5, #2214592512	; 0x84000000
 80071b4:	6013      	str	r3, [r2, #0]
 80071b6:	78c2      	ldrb	r2, [r0, #3]
 80071b8:	2a00      	cmp	r2, #0
 80071ba:	d1c3      	bne.n	8007144 <USB_OTG_EP0StartXfer+0x64>
 80071bc:	694a      	ldr	r2, [r1, #20]
 80071be:	2a00      	cmp	r2, #0
 80071c0:	d0c0      	beq.n	8007144 <USB_OTG_EP0StartXfer+0x64>
 80071c2:	6903      	ldr	r3, [r0, #16]
 80071c4:	780a      	ldrb	r2, [r1, #0]
 80071c6:	6b59      	ldr	r1, [r3, #52]	; 0x34
 80071c8:	2001      	movs	r0, #1
 80071ca:	fa00 fc02 	lsl.w	ip, r0, r2
 80071ce:	ea4c 0001 	orr.w	r0, ip, r1
 80071d2:	6358      	str	r0, [r3, #52]	; 0x34
 80071d4:	e7b6      	b.n	8007144 <USB_OTG_EP0StartXfer+0x64>
 80071d6:	f89d 7000 	ldrb.w	r7, [sp]
 80071da:	f89d 6002 	ldrb.w	r6, [sp, #2]
 80071de:	f364 0706 	bfi	r7, r4, #0, #7
 80071e2:	f363 06c4 	bfi	r6, r3, #3, #2
 80071e6:	f88d 7000 	strb.w	r7, [sp]
 80071ea:	f88d 6002 	strb.w	r6, [sp, #2]
 80071ee:	e7d3      	b.n	8007198 <USB_OTG_EP0StartXfer+0xb8>

080071f0 <USB_OTG_EPSetStall>:
 80071f0:	784a      	ldrb	r2, [r1, #1]
 80071f2:	780b      	ldrb	r3, [r1, #0]
 80071f4:	2a01      	cmp	r2, #1
 80071f6:	eb00 0083 	add.w	r0, r0, r3, lsl #2
 80071fa:	d006      	beq.n	800720a <USB_OTG_EPSetStall+0x1a>
 80071fc:	6d41      	ldr	r1, [r0, #84]	; 0x54
 80071fe:	6808      	ldr	r0, [r1, #0]
 8007200:	f440 1200 	orr.w	r2, r0, #2097152	; 0x200000
 8007204:	600a      	str	r2, [r1, #0]
 8007206:	2000      	movs	r0, #0
 8007208:	4770      	bx	lr
 800720a:	6982      	ldr	r2, [r0, #24]
 800720c:	6813      	ldr	r3, [r2, #0]
 800720e:	f3c3 6c07 	ubfx	ip, r3, #24, #8
 8007212:	f00c 0080 	and.w	r0, ip, #128	; 0x80
 8007216:	b2c1      	uxtb	r1, r0
 8007218:	b109      	cbz	r1, 800721e <USB_OTG_EPSetStall+0x2e>
 800721a:	f043 4380 	orr.w	r3, r3, #1073741824	; 0x40000000
 800721e:	f443 1300 	orr.w	r3, r3, #2097152	; 0x200000
 8007222:	6013      	str	r3, [r2, #0]
 8007224:	2000      	movs	r0, #0
 8007226:	4770      	bx	lr

08007228 <USB_OTG_EPClearStall>:
 8007228:	f891 c001 	ldrb.w	ip, [r1, #1]
 800722c:	780b      	ldrb	r3, [r1, #0]
 800722e:	78c9      	ldrb	r1, [r1, #3]
 8007230:	f1bc 0f01 	cmp.w	ip, #1
 8007234:	eb00 0c83 	add.w	ip, r0, r3, lsl #2
 8007238:	bf0c      	ite	eq
 800723a:	f8dc 2018 	ldreq.w	r2, [ip, #24]
 800723e:	f8dc 2054 	ldrne.w	r2, [ip, #84]	; 0x54
 8007242:	1e88      	subs	r0, r1, #2
 8007244:	6813      	ldr	r3, [r2, #0]
 8007246:	b2c1      	uxtb	r1, r0
 8007248:	f36f 5355 	bfc	r3, #21, #1
 800724c:	2901      	cmp	r1, #1
 800724e:	bf98      	it	ls
 8007250:	f043 5380 	orrls.w	r3, r3, #268435456	; 0x10000000
 8007254:	6013      	str	r3, [r2, #0]
 8007256:	2000      	movs	r0, #0
 8007258:	4770      	bx	lr
 800725a:	bf00      	nop

0800725c <USB_OTG_ReadDevAllOutEp_itr>:
 800725c:	6903      	ldr	r3, [r0, #16]
 800725e:	699a      	ldr	r2, [r3, #24]
 8007260:	69d9      	ldr	r1, [r3, #28]
 8007262:	ea01 0002 	and.w	r0, r1, r2
 8007266:	0c00      	lsrs	r0, r0, #16
 8007268:	4770      	bx	lr
 800726a:	bf00      	nop

0800726c <USB_OTG_ReadDevOutEP_itr>:
 800726c:	eb00 0c81 	add.w	ip, r0, r1, lsl #2
 8007270:	6902      	ldr	r2, [r0, #16]
 8007272:	f8dc 1054 	ldr.w	r1, [ip, #84]	; 0x54
 8007276:	688b      	ldr	r3, [r1, #8]
 8007278:	6950      	ldr	r0, [r2, #20]
 800727a:	4018      	ands	r0, r3
 800727c:	4770      	bx	lr
 800727e:	bf00      	nop

08007280 <USB_OTG_ReadDevAllInEPItr>:
 8007280:	6902      	ldr	r2, [r0, #16]
 8007282:	6991      	ldr	r1, [r2, #24]
 8007284:	69d3      	ldr	r3, [r2, #28]
 8007286:	ea01 0003 	and.w	r0, r1, r3
 800728a:	b280      	uxth	r0, r0
 800728c:	4770      	bx	lr
 800728e:	bf00      	nop

08007290 <USB_OTG_EP0_OutStart>:
 8007290:	b082      	sub	sp, #8
 8007292:	2101      	movs	r1, #1
 8007294:	2200      	movs	r2, #0
 8007296:	2300      	movs	r3, #0
 8007298:	9200      	str	r2, [sp, #0]
 800729a:	f361 03c4 	bfi	r3, r1, #3, #2
 800729e:	2218      	movs	r2, #24
 80072a0:	21c0      	movs	r1, #192	; 0xc0
 80072a2:	f88d 1003 	strb.w	r1, [sp, #3]
 80072a6:	f88d 3002 	strb.w	r3, [sp, #2]
 80072aa:	f88d 2000 	strb.w	r2, [sp]
 80072ae:	6d43      	ldr	r3, [r0, #84]	; 0x54
 80072b0:	9900      	ldr	r1, [sp, #0]
 80072b2:	6119      	str	r1, [r3, #16]
 80072b4:	78c2      	ldrb	r2, [r0, #3]
 80072b6:	2a01      	cmp	r2, #1
 80072b8:	bf01      	itttt	eq
 80072ba:	f500 60b9 	addeq.w	r0, r0, #1480	; 0x5c8
 80072be:	6158      	streq	r0, [r3, #20]
 80072c0:	681a      	ldreq	r2, [r3, #0]
 80072c2:	f04f 2280 	moveq.w	r2, #2147516416	; 0x80008000
 80072c6:	bf08      	it	eq
 80072c8:	601a      	streq	r2, [r3, #0]
 80072ca:	b002      	add	sp, #8
 80072cc:	4770      	bx	lr
 80072ce:	bf00      	nop

080072d0 <USB_OTG_ActiveRemoteWakeup>:
 80072d0:	f8d0 3114 	ldr.w	r3, [r0, #276]	; 0x114
 80072d4:	b510      	push	{r4, lr}
 80072d6:	4604      	mov	r4, r0
 80072d8:	b1d3      	cbz	r3, 8007310 <USB_OTG_ActiveRemoteWakeup+0x40>
 80072da:	6903      	ldr	r3, [r0, #16]
 80072dc:	689a      	ldr	r2, [r3, #8]
 80072de:	07d2      	lsls	r2, r2, #31
 80072e0:	d516      	bpl.n	8007310 <USB_OTG_ActiveRemoteWakeup+0x40>
 80072e2:	7a81      	ldrb	r1, [r0, #10]
 80072e4:	b141      	cbz	r1, 80072f8 <USB_OTG_ActiveRemoteWakeup+0x28>
 80072e6:	f8d0 210c 	ldr.w	r2, [r0, #268]	; 0x10c
 80072ea:	f8d0 010c 	ldr.w	r0, [r0, #268]	; 0x10c
 80072ee:	f36f 0241 	bfc	r2, #1, #1
 80072f2:	f36f 0200 	bfc	r2, #0, #1
 80072f6:	6002      	str	r2, [r0, #0]
 80072f8:	6859      	ldr	r1, [r3, #4]
 80072fa:	f041 0201 	orr.w	r2, r1, #1
 80072fe:	605a      	str	r2, [r3, #4]
 8007300:	2005      	movs	r0, #5
 8007302:	f7fb f951 	bl	80025a8 <USB_OTG_BSP_mDelay>
 8007306:	6923      	ldr	r3, [r4, #16]
 8007308:	6858      	ldr	r0, [r3, #4]
 800730a:	f020 0101 	bic.w	r1, r0, #1
 800730e:	6059      	str	r1, [r3, #4]
 8007310:	bd10      	pop	{r4, pc}
 8007312:	bf00      	nop

08007314 <USB_OTG_UngateClock>:
 8007314:	7a83      	ldrb	r3, [r0, #10]
 8007316:	b16b      	cbz	r3, 8007334 <USB_OTG_UngateClock+0x20>
 8007318:	6901      	ldr	r1, [r0, #16]
 800731a:	688b      	ldr	r3, [r1, #8]
 800731c:	07d9      	lsls	r1, r3, #31
 800731e:	bf41      	itttt	mi
 8007320:	f8d0 310c 	ldrmi.w	r3, [r0, #268]	; 0x10c
 8007324:	f8d0 210c 	ldrmi.w	r2, [r0, #268]	; 0x10c
 8007328:	f36f 0341 	bfcmi	r3, #1, #1
 800732c:	f36f 0300 	bfcmi	r3, #0, #1
 8007330:	bf48      	it	mi
 8007332:	6013      	strmi	r3, [r2, #0]
 8007334:	4770      	bx	lr
 8007336:	bf00      	nop

08007338 <USB_OTG_StopDevice>:
 8007338:	b510      	push	{r4, lr}
 800733a:	7843      	ldrb	r3, [r0, #1]
 800733c:	2201      	movs	r2, #1
 800733e:	4604      	mov	r4, r0
 8007340:	f880 2112 	strb.w	r2, [r0, #274]	; 0x112
 8007344:	b163      	cbz	r3, 8007360 <USB_OTG_StopDevice+0x28>
 8007346:	f100 0214 	add.w	r2, r0, #20
 800734a:	2300      	movs	r3, #0
 800734c:	21ff      	movs	r1, #255	; 0xff
 800734e:	f852 0f04 	ldr.w	r0, [r2, #4]!
 8007352:	6081      	str	r1, [r0, #8]
 8007354:	6bd0      	ldr	r0, [r2, #60]	; 0x3c
 8007356:	6081      	str	r1, [r0, #8]
 8007358:	7860      	ldrb	r0, [r4, #1]
 800735a:	3301      	adds	r3, #1
 800735c:	4298      	cmp	r0, r3
 800735e:	d8f6      	bhi.n	800734e <USB_OTG_StopDevice+0x16>
 8007360:	6923      	ldr	r3, [r4, #16]
 8007362:	2200      	movs	r2, #0
 8007364:	f04f 31ff 	mov.w	r1, #4294967295
 8007368:	611a      	str	r2, [r3, #16]
 800736a:	4620      	mov	r0, r4
 800736c:	615a      	str	r2, [r3, #20]
 800736e:	61da      	str	r2, [r3, #28]
 8007370:	6199      	str	r1, [r3, #24]
 8007372:	f7ff fc65 	bl	8006c40 <USB_OTG_FlushRxFifo>
 8007376:	4620      	mov	r0, r4
 8007378:	2110      	movs	r1, #16
 800737a:	e8bd 4010 	ldmia.w	sp!, {r4, lr}
 800737e:	f7ff bc35 	b.w	8006bec <USB_OTG_FlushTxFifo>
 8007382:	bf00      	nop

08007384 <USB_OTG_GetEPStatus>:
 8007384:	784a      	ldrb	r2, [r1, #1]
 8007386:	780b      	ldrb	r3, [r1, #0]
 8007388:	2a01      	cmp	r2, #1
 800738a:	eb00 0083 	add.w	r0, r0, r3, lsl #2
 800738e:	d014      	beq.n	80073ba <USB_OTG_GetEPStatus+0x36>
 8007390:	6d41      	ldr	r1, [r0, #84]	; 0x54
 8007392:	6808      	ldr	r0, [r1, #0]
 8007394:	f3c0 4007 	ubfx	r0, r0, #16, #8
 8007398:	f000 0220 	and.w	r2, r0, #32
 800739c:	b2d3      	uxtb	r3, r2
 800739e:	b94b      	cbnz	r3, 80073b4 <USB_OTG_GetEPStatus+0x30>
 80073a0:	f000 0202 	and.w	r2, r0, #2
 80073a4:	b2d3      	uxtb	r3, r2
 80073a6:	2b00      	cmp	r3, #0
 80073a8:	bf0c      	ite	eq
 80073aa:	f44f 5040 	moveq.w	r0, #12288	; 0x3000
 80073ae:	f44f 5000 	movne.w	r0, #8192	; 0x2000
 80073b2:	4770      	bx	lr
 80073b4:	f44f 5080 	mov.w	r0, #4096	; 0x1000
 80073b8:	4770      	bx	lr
 80073ba:	6983      	ldr	r3, [r0, #24]
 80073bc:	6818      	ldr	r0, [r3, #0]
 80073be:	f3c0 4007 	ubfx	r0, r0, #16, #8
 80073c2:	f000 0c20 	and.w	ip, r0, #32
 80073c6:	fa5f f18c 	uxtb.w	r1, ip
 80073ca:	b939      	cbnz	r1, 80073dc <USB_OTG_GetEPStatus+0x58>
 80073cc:	f000 0102 	and.w	r1, r0, #2
 80073d0:	b2ca      	uxtb	r2, r1
 80073d2:	2a00      	cmp	r2, #0
 80073d4:	bf0c      	ite	eq
 80073d6:	2030      	moveq	r0, #48	; 0x30
 80073d8:	2020      	movne	r0, #32
 80073da:	4770      	bx	lr
 80073dc:	2010      	movs	r0, #16
 80073de:	4770      	bx	lr

080073e0 <USB_OTG_SetEPStatus>:
 80073e0:	784b      	ldrb	r3, [r1, #1]
 80073e2:	b470      	push	{r4, r5, r6}
 80073e4:	780d      	ldrb	r5, [r1, #0]
 80073e6:	2b01      	cmp	r3, #1
 80073e8:	eb00 0485 	add.w	r4, r0, r5, lsl #2
 80073ec:	d015      	beq.n	800741a <USB_OTG_SetEPStatus+0x3a>
 80073ee:	6d65      	ldr	r5, [r4, #84]	; 0x54
 80073f0:	682c      	ldr	r4, [r5, #0]
 80073f2:	f5b2 5f80 	cmp.w	r2, #4096	; 0x1000
 80073f6:	4626      	mov	r6, r4
 80073f8:	bf08      	it	eq
 80073fa:	f444 1400 	orreq.w	r4, r4, #2097152	; 0x200000
 80073fe:	d009      	beq.n	8007414 <USB_OTG_SetEPStatus+0x34>
 8007400:	f5b2 5f00 	cmp.w	r2, #8192	; 0x2000
 8007404:	d010      	beq.n	8007428 <USB_OTG_SetEPStatus+0x48>
 8007406:	f5b2 5f40 	cmp.w	r2, #12288	; 0x3000
 800740a:	d012      	beq.n	8007432 <USB_OTG_SetEPStatus+0x52>
 800740c:	b912      	cbnz	r2, 8007414 <USB_OTG_SetEPStatus+0x34>
 800740e:	f362 36cf 	bfi	r6, r2, #15, #1
 8007412:	4634      	mov	r4, r6
 8007414:	602c      	str	r4, [r5, #0]
 8007416:	bc70      	pop	{r4, r5, r6}
 8007418:	4770      	bx	lr
 800741a:	69a5      	ldr	r5, [r4, #24]
 800741c:	682c      	ldr	r4, [r5, #0]
 800741e:	2a10      	cmp	r2, #16
 8007420:	4626      	mov	r6, r4
 8007422:	d016      	beq.n	8007452 <USB_OTG_SetEPStatus+0x72>
 8007424:	2a20      	cmp	r2, #32
 8007426:	d102      	bne.n	800742e <USB_OTG_SetEPStatus+0x4e>
 8007428:	f044 6400 	orr.w	r4, r4, #134217728	; 0x8000000
 800742c:	e7f2      	b.n	8007414 <USB_OTG_SetEPStatus+0x34>
 800742e:	2a30      	cmp	r2, #48	; 0x30
 8007430:	d1ec      	bne.n	800740c <USB_OTG_SetEPStatus+0x2c>
 8007432:	f3c4 4c07 	ubfx	ip, r4, #16, #8
 8007436:	f00c 0320 	and.w	r3, ip, #32
 800743a:	b2da      	uxtb	r2, r3
 800743c:	b922      	cbnz	r2, 8007448 <USB_OTG_SetEPStatus+0x68>
 800743e:	f044 6480 	orr.w	r4, r4, #67108864	; 0x4000000
 8007442:	f044 2480 	orr.w	r4, r4, #2147516416	; 0x80008000
 8007446:	e7e5      	b.n	8007414 <USB_OTG_SetEPStatus+0x34>
 8007448:	2200      	movs	r2, #0
 800744a:	714a      	strb	r2, [r1, #5]
 800744c:	bc70      	pop	{r4, r5, r6}
 800744e:	f7ff beeb 	b.w	8007228 <USB_OTG_EPClearStall>
 8007452:	bc70      	pop	{r4, r5, r6}
 8007454:	f7ff becc 	b.w	80071f0 <USB_OTG_EPSetStall>

08007458 <DCD_Init>:
 8007458:	b570      	push	{r4, r5, r6, lr}
 800745a:	4604      	mov	r4, r0
 800745c:	f7ff fa5a 	bl	8006914 <USB_OTG_SelectCore>
 8007460:	7862      	ldrb	r2, [r4, #1]
 8007462:	2601      	movs	r6, #1
 8007464:	2300      	movs	r3, #0
 8007466:	f884 6112 	strb.w	r6, [r4, #274]	; 0x112
 800746a:	f884 3113 	strb.w	r3, [r4, #275]	; 0x113
 800746e:	b3b2      	cbz	r2, 80074de <DCD_Init+0x86>
 8007470:	4619      	mov	r1, r3
 8007472:	2508      	movs	r5, #8
 8007474:	eb03 0083 	add.w	r0, r3, r3, lsl #2
 8007478:	00c2      	lsls	r2, r0, #3
 800747a:	f502 708c 	add.w	r0, r2, #280	; 0x118
 800747e:	eb04 0c00 	add.w	ip, r4, r0
 8007482:	5423      	strb	r3, [r4, r0]
 8007484:	f8ac 3006 	strh.w	r3, [ip, #6]
 8007488:	f88c 6001 	strb.w	r6, [ip, #1]
 800748c:	f88c 1003 	strb.w	r1, [ip, #3]
 8007490:	f8cc 5008 	str.w	r5, [ip, #8]
 8007494:	f8cc 100c 	str.w	r1, [ip, #12]
 8007498:	f8cc 1014 	str.w	r1, [ip, #20]
 800749c:	7862      	ldrb	r2, [r4, #1]
 800749e:	3301      	adds	r3, #1
 80074a0:	429a      	cmp	r2, r3
 80074a2:	d8e7      	bhi.n	8007474 <DCD_Init+0x1c>
 80074a4:	b1da      	cbz	r2, 80074de <DCD_Init+0x86>
 80074a6:	2300      	movs	r3, #0
 80074a8:	4619      	mov	r1, r3
 80074aa:	2508      	movs	r5, #8
 80074ac:	eb03 0283 	add.w	r2, r3, r3, lsl #2
 80074b0:	00d0      	lsls	r0, r2, #3
 80074b2:	f500 725c 	add.w	r2, r0, #880	; 0x370
 80074b6:	eb04 0c02 	add.w	ip, r4, r2
 80074ba:	54a3      	strb	r3, [r4, r2]
 80074bc:	f8ac 3006 	strh.w	r3, [ip, #6]
 80074c0:	f88c 1001 	strb.w	r1, [ip, #1]
 80074c4:	f88c 1003 	strb.w	r1, [ip, #3]
 80074c8:	f8cc 5008 	str.w	r5, [ip, #8]
 80074cc:	f8cc 100c 	str.w	r1, [ip, #12]
 80074d0:	f8cc 1014 	str.w	r1, [ip, #20]
 80074d4:	f894 e001 	ldrb.w	lr, [r4, #1]
 80074d8:	3301      	adds	r3, #1
 80074da:	459e      	cmp	lr, r3
 80074dc:	d8e6      	bhi.n	80074ac <DCD_Init+0x54>
 80074de:	4620      	mov	r0, r4
 80074e0:	f7ff fb7c 	bl	8006bdc <USB_OTG_DisableGlobalInt>
 80074e4:	4620      	mov	r0, r4
 80074e6:	f7ff faf9 	bl	8006adc <USB_OTG_CoreInit>
 80074ea:	2100      	movs	r1, #0
 80074ec:	4620      	mov	r0, r4
 80074ee:	f7ff fbcd 	bl	8006c8c <USB_OTG_SetCurrentMode>
 80074f2:	4620      	mov	r0, r4
 80074f4:	f7ff fc28 	bl	8006d48 <USB_OTG_CoreInitDev>
 80074f8:	4620      	mov	r0, r4
 80074fa:	e8bd 4070 	ldmia.w	sp!, {r4, r5, r6, lr}
 80074fe:	f7ff bb65 	b.w	8006bcc <USB_OTG_EnableGlobalInt>
 8007502:	bf00      	nop

08007504 <DCD_EP_Open>:
 8007504:	b538      	push	{r3, r4, r5, lr}
 8007506:	f001 057f 	and.w	r5, r1, #127	; 0x7f
 800750a:	b2cc      	uxtb	r4, r1
 800750c:	eb05 0185 	add.w	r1, r5, r5, lsl #2
 8007510:	eb00 01c1 	add.w	r1, r0, r1, lsl #3
 8007514:	f014 0f80 	tst.w	r4, #128	; 0x80
 8007518:	bf14      	ite	ne
 800751a:	f501 718c 	addne.w	r1, r1, #280	; 0x118
 800751e:	f501 715c 	addeq.w	r1, r1, #880	; 0x370
 8007522:	b2ed      	uxtb	r5, r5
 8007524:	09e4      	lsrs	r4, r4, #7
 8007526:	700d      	strb	r5, [r1, #0]
 8007528:	704c      	strb	r4, [r1, #1]
 800752a:	608a      	str	r2, [r1, #8]
 800752c:	70cb      	strb	r3, [r1, #3]
 800752e:	b104      	cbz	r4, 8007532 <DCD_EP_Open+0x2e>
 8007530:	80cd      	strh	r5, [r1, #6]
 8007532:	2b02      	cmp	r3, #2
 8007534:	d101      	bne.n	800753a <DCD_EP_Open+0x36>
 8007536:	2300      	movs	r3, #0
 8007538:	710b      	strb	r3, [r1, #4]
 800753a:	f7ff fcb5 	bl	8006ea8 <USB_OTG_EPActivate>
 800753e:	2000      	movs	r0, #0
 8007540:	bd38      	pop	{r3, r4, r5, pc}
 8007542:	bf00      	nop

08007544 <DCD_EP_Close>:
 8007544:	f001 027f 	and.w	r2, r1, #127	; 0x7f
 8007548:	b508      	push	{r3, lr}
 800754a:	b2cb      	uxtb	r3, r1
 800754c:	eb02 0182 	add.w	r1, r2, r2, lsl #2
 8007550:	eb00 01c1 	add.w	r1, r0, r1, lsl #3
 8007554:	f013 0f80 	tst.w	r3, #128	; 0x80
 8007558:	bf14      	ite	ne
 800755a:	f501 718c 	addne.w	r1, r1, #280	; 0x118
 800755e:	f501 715c 	addeq.w	r1, r1, #880	; 0x370
 8007562:	09db      	lsrs	r3, r3, #7
 8007564:	700a      	strb	r2, [r1, #0]
 8007566:	704b      	strb	r3, [r1, #1]
 8007568:	f7ff fcd4 	bl	8006f14 <USB_OTG_EPDeactivate>
 800756c:	2000      	movs	r0, #0
 800756e:	bd08      	pop	{r3, pc}

08007570 <DCD_EP_PrepareRx>:
 8007570:	b570      	push	{r4, r5, r6, lr}
 8007572:	f001 047f 	and.w	r4, r1, #127	; 0x7f
 8007576:	eb04 0584 	add.w	r5, r4, r4, lsl #2
 800757a:	00e9      	lsls	r1, r5, #3
 800757c:	f501 765c 	add.w	r6, r1, #880	; 0x370
 8007580:	1981      	adds	r1, r0, r6
 8007582:	b2e4      	uxtb	r4, r4
 8007584:	2500      	movs	r5, #0
 8007586:	5584      	strb	r4, [r0, r6]
 8007588:	60ca      	str	r2, [r1, #12]
 800758a:	614b      	str	r3, [r1, #20]
 800758c:	618d      	str	r5, [r1, #24]
 800758e:	704d      	strb	r5, [r1, #1]
 8007590:	78c3      	ldrb	r3, [r0, #3]
 8007592:	2b01      	cmp	r3, #1
 8007594:	bf08      	it	eq
 8007596:	610a      	streq	r2, [r1, #16]
 8007598:	b11c      	cbz	r4, 80075a2 <DCD_EP_PrepareRx+0x32>
 800759a:	f7ff fcdf 	bl	8006f5c <USB_OTG_EPStartXfer>
 800759e:	2000      	movs	r0, #0
 80075a0:	bd70      	pop	{r4, r5, r6, pc}
 80075a2:	f7ff fd9d 	bl	80070e0 <USB_OTG_EP0StartXfer>
 80075a6:	2000      	movs	r0, #0
 80075a8:	bd70      	pop	{r4, r5, r6, pc}
 80075aa:	bf00      	nop

080075ac <DCD_EP_Tx>:
 80075ac:	b5f8      	push	{r3, r4, r5, r6, r7, lr}
 80075ae:	f001 047f 	and.w	r4, r1, #127	; 0x7f
 80075b2:	eb04 0184 	add.w	r1, r4, r4, lsl #2
 80075b6:	00cd      	lsls	r5, r1, #3
 80075b8:	f505 758c 	add.w	r5, r5, #280	; 0x118
 80075bc:	1941      	adds	r1, r0, r5
 80075be:	b2e4      	uxtb	r4, r4
 80075c0:	2701      	movs	r7, #1
 80075c2:	60ca      	str	r2, [r1, #12]
 80075c4:	610a      	str	r2, [r1, #16]
 80075c6:	2200      	movs	r2, #0
 80075c8:	704f      	strb	r7, [r1, #1]
 80075ca:	5544      	strb	r4, [r0, r5]
 80075cc:	618a      	str	r2, [r1, #24]
 80075ce:	614b      	str	r3, [r1, #20]
 80075d0:	b11c      	cbz	r4, 80075da <DCD_EP_Tx+0x2e>
 80075d2:	f7ff fcc3 	bl	8006f5c <USB_OTG_EPStartXfer>
 80075d6:	2000      	movs	r0, #0
 80075d8:	bdf8      	pop	{r3, r4, r5, r6, r7, pc}
 80075da:	f7ff fd81 	bl	80070e0 <USB_OTG_EP0StartXfer>
 80075de:	2000      	movs	r0, #0
 80075e0:	bdf8      	pop	{r3, r4, r5, r6, r7, pc}
 80075e2:	bf00      	nop

080075e4 <DCD_EP_Stall>:
 80075e4:	b510      	push	{r4, lr}
 80075e6:	b2cc      	uxtb	r4, r1
 80075e8:	0623      	lsls	r3, r4, #24
 80075ea:	bf49      	itett	mi
 80075ec:	f001 017f 	andmi.w	r1, r1, #127	; 0x7f
 80075f0:	eb01 0381 	addpl.w	r3, r1, r1, lsl #2
 80075f4:	eb01 0381 	addmi.w	r3, r1, r1, lsl #2
 80075f8:	eb00 03c3 	addmi.w	r3, r0, r3, lsl #3
 80075fc:	bf57      	itett	pl
 80075fe:	eb00 03c3 	addpl.w	r3, r0, r3, lsl #3
 8007602:	f503 738c 	addmi.w	r3, r3, #280	; 0x118
 8007606:	f503 735c 	addpl.w	r3, r3, #880	; 0x370
 800760a:	f001 017f 	andpl.w	r1, r1, #127	; 0x7f
 800760e:	09e2      	lsrs	r2, r4, #7
 8007610:	2401      	movs	r4, #1
 8007612:	7019      	strb	r1, [r3, #0]
 8007614:	709c      	strb	r4, [r3, #2]
 8007616:	705a      	strb	r2, [r3, #1]
 8007618:	4619      	mov	r1, r3
 800761a:	f7ff fde9 	bl	80071f0 <USB_OTG_EPSetStall>
 800761e:	2000      	movs	r0, #0
 8007620:	bd10      	pop	{r4, pc}
 8007622:	bf00      	nop

08007624 <DCD_EP_ClrStall>:
 8007624:	b2ca      	uxtb	r2, r1
 8007626:	b510      	push	{r4, lr}
 8007628:	0614      	lsls	r4, r2, #24
 800762a:	bf49      	itett	mi
 800762c:	f001 017f 	andmi.w	r1, r1, #127	; 0x7f
 8007630:	eb01 0381 	addpl.w	r3, r1, r1, lsl #2
 8007634:	eb01 0381 	addmi.w	r3, r1, r1, lsl #2
 8007638:	eb00 03c3 	addmi.w	r3, r0, r3, lsl #3
 800763c:	bf57      	itett	pl
 800763e:	eb00 03c3 	addpl.w	r3, r0, r3, lsl #3
 8007642:	f503 738c 	addmi.w	r3, r3, #280	; 0x118
 8007646:	f503 735c 	addpl.w	r3, r3, #880	; 0x370
 800764a:	f001 017f 	andpl.w	r1, r1, #127	; 0x7f
 800764e:	2400      	movs	r4, #0
 8007650:	09d2      	lsrs	r2, r2, #7
 8007652:	7019      	strb	r1, [r3, #0]
 8007654:	709c      	strb	r4, [r3, #2]
 8007656:	705a      	strb	r2, [r3, #1]
 8007658:	4619      	mov	r1, r3
 800765a:	f7ff fde5 	bl	8007228 <USB_OTG_EPClearStall>
 800765e:	4620      	mov	r0, r4
 8007660:	bd10      	pop	{r4, pc}
 8007662:	bf00      	nop

08007664 <DCD_EP_Flush>:
 8007664:	b508      	push	{r3, lr}
 8007666:	060b      	lsls	r3, r1, #24
 8007668:	d403      	bmi.n	8007672 <DCD_EP_Flush+0xe>
 800766a:	f7ff fae9 	bl	8006c40 <USB_OTG_FlushRxFifo>
 800766e:	2000      	movs	r0, #0
 8007670:	bd08      	pop	{r3, pc}
 8007672:	f001 017f 	and.w	r1, r1, #127	; 0x7f
 8007676:	f7ff fab9 	bl	8006bec <USB_OTG_FlushTxFifo>
 800767a:	2000      	movs	r0, #0
 800767c:	bd08      	pop	{r3, pc}
 800767e:	bf00      	nop

08007680 <DCD_EP_SetAddress>:
 8007680:	6903      	ldr	r3, [r0, #16]
 8007682:	2200      	movs	r2, #0
 8007684:	6818      	ldr	r0, [r3, #0]
 8007686:	f361 120a 	bfi	r2, r1, #4, #7
 800768a:	4302      	orrs	r2, r0
 800768c:	601a      	str	r2, [r3, #0]
 800768e:	4770      	bx	lr

08007690 <DCD_DevConnect>:
 8007690:	6903      	ldr	r3, [r0, #16]
 8007692:	685a      	ldr	r2, [r3, #4]
 8007694:	2003      	movs	r0, #3
 8007696:	f36f 0241 	bfc	r2, #1, #1
 800769a:	605a      	str	r2, [r3, #4]
 800769c:	f7fa bf84 	b.w	80025a8 <USB_OTG_BSP_mDelay>

080076a0 <DCD_DevDisconnect>:
 80076a0:	6903      	ldr	r3, [r0, #16]
 80076a2:	6858      	ldr	r0, [r3, #4]
 80076a4:	f040 0202 	orr.w	r2, r0, #2
 80076a8:	2003      	movs	r0, #3
 80076aa:	605a      	str	r2, [r3, #4]
 80076ac:	f7fa bf7c 	b.w	80025a8 <USB_OTG_BSP_mDelay>

080076b0 <DCD_GetEPStatus>:
 80076b0:	060a      	lsls	r2, r1, #24
 80076b2:	bf45      	ittet	mi
 80076b4:	f001 017f 	andmi.w	r1, r1, #127	; 0x7f
 80076b8:	eb01 0181 	addmi.w	r1, r1, r1, lsl #2
 80076bc:	eb01 0181 	addpl.w	r1, r1, r1, lsl #2
 80076c0:	eb00 01c1 	addmi.w	r1, r0, r1, lsl #3
 80076c4:	bf56      	itet	pl
 80076c6:	eb00 01c1 	addpl.w	r1, r0, r1, lsl #3
 80076ca:	f501 718c 	addmi.w	r1, r1, #280	; 0x118
 80076ce:	f501 715c 	addpl.w	r1, r1, #880	; 0x370
 80076d2:	f7ff be57 	b.w	8007384 <USB_OTG_GetEPStatus>
 80076d6:	bf00      	nop

080076d8 <DCD_SetEPStatus>:
 80076d8:	060b      	lsls	r3, r1, #24
 80076da:	bf45      	ittet	mi
 80076dc:	f001 017f 	andmi.w	r1, r1, #127	; 0x7f
 80076e0:	eb01 0181 	addmi.w	r1, r1, r1, lsl #2
 80076e4:	eb01 0181 	addpl.w	r1, r1, r1, lsl #2
 80076e8:	eb00 01c1 	addmi.w	r1, r0, r1, lsl #3
 80076ec:	bf56      	itet	pl
 80076ee:	eb00 01c1 	addpl.w	r1, r0, r1, lsl #3
 80076f2:	f501 718c 	addmi.w	r1, r1, #280	; 0x118
 80076f6:	f501 715c 	addpl.w	r1, r1, #880	; 0x370
 80076fa:	f7ff be71 	b.w	80073e0 <USB_OTG_SetEPStatus>
 80076fe:	bf00      	nop

08007700 <USBD_OTG_ISR_Handler>:
 8007700:	e92d 4ff0 	stmdb	sp!, {r4, r5, r6, r7, r8, r9, sl, fp, lr}
 8007704:	b083      	sub	sp, #12
 8007706:	4605      	mov	r5, r0
 8007708:	f7ff fadc 	bl	8006cc4 <USB_OTG_IsDeviceMode>
 800770c:	b910      	cbnz	r0, 8007714 <USBD_OTG_ISR_Handler+0x14>
 800770e:	b003      	add	sp, #12
 8007710:	e8bd 8ff0 	ldmia.w	sp!, {r4, r5, r6, r7, r8, r9, sl, fp, pc}
 8007714:	4628      	mov	r0, r5
 8007716:	f7ff fae3 	bl	8006ce0 <USB_OTG_ReadCoreItr>
 800771a:	4680      	mov	r8, r0
 800771c:	2800      	cmp	r0, #0
 800771e:	d0f6      	beq.n	800770e <USBD_OTG_ISR_Handler+0xe>
 8007720:	f3c0 4107 	ubfx	r1, r0, #16, #8
 8007724:	f001 0008 	and.w	r0, r1, #8
 8007728:	b2c0      	uxtb	r0, r0
 800772a:	2800      	cmp	r0, #0
 800772c:	f040 80ee 	bne.w	800790c <USBD_OTG_ISR_Handler+0x20c>
 8007730:	f3c8 4107 	ubfx	r1, r8, #16, #8
 8007734:	f001 0204 	and.w	r2, r1, #4
 8007738:	b2d3      	uxtb	r3, r2
 800773a:	2b00      	cmp	r3, #0
 800773c:	d166      	bne.n	800780c <USBD_OTG_ISR_Handler+0x10c>
 800773e:	f008 0102 	and.w	r1, r8, #2
 8007742:	b2ca      	uxtb	r2, r1
 8007744:	b112      	cbz	r2, 800774c <USBD_OTG_ISR_Handler+0x4c>
 8007746:	68eb      	ldr	r3, [r5, #12]
 8007748:	2202      	movs	r2, #2
 800774a:	615a      	str	r2, [r3, #20]
 800774c:	f3c8 6e07 	ubfx	lr, r8, #24, #8
 8007750:	f00e 0280 	and.w	r2, lr, #128	; 0x80
 8007754:	b2d1      	uxtb	r1, r2
 8007756:	b1b1      	cbz	r1, 8007786 <USBD_OTG_ISR_Handler+0x86>
 8007758:	7aa8      	ldrb	r0, [r5, #10]
 800775a:	2800      	cmp	r0, #0
 800775c:	f040 81f7 	bne.w	8007b4e <USBD_OTG_ISR_Handler+0x44e>
 8007760:	692a      	ldr	r2, [r5, #16]
 8007762:	f240 1c24 	movw	ip, #292	; 0x124
 8007766:	f2c2 0c00 	movt	ip, #8192	; 0x2000
 800776a:	6851      	ldr	r1, [r2, #4]
 800776c:	f8dc 3000 	ldr.w	r3, [ip]
 8007770:	f021 0001 	bic.w	r0, r1, #1
 8007774:	6050      	str	r0, [r2, #4]
 8007776:	6999      	ldr	r1, [r3, #24]
 8007778:	4628      	mov	r0, r5
 800777a:	4788      	blx	r1
 800777c:	68e8      	ldr	r0, [r5, #12]
 800777e:	f04f 4200 	mov.w	r2, #2147483648	; 0x80000000
 8007782:	6142      	str	r2, [r0, #20]
 8007784:	2001      	movs	r0, #1
 8007786:	f3c8 2107 	ubfx	r1, r8, #8, #8
 800778a:	f001 0208 	and.w	r2, r1, #8
 800778e:	b2d3      	uxtb	r3, r2
 8007790:	2b00      	cmp	r3, #0
 8007792:	f040 814c 	bne.w	8007a2e <USBD_OTG_ISR_Handler+0x32e>
 8007796:	f008 0108 	and.w	r1, r8, #8
 800779a:	b2cb      	uxtb	r3, r1
 800779c:	2b00      	cmp	r3, #0
 800779e:	f040 8138 	bne.w	8007a12 <USBD_OTG_ISR_Handler+0x312>
 80077a2:	f008 0c10 	and.w	ip, r8, #16
 80077a6:	fa5f f28c 	uxtb.w	r2, ip
 80077aa:	2a00      	cmp	r2, #0
 80077ac:	f040 810a 	bne.w	80079c4 <USBD_OTG_ISR_Handler+0x2c4>
 80077b0:	f3c8 2207 	ubfx	r2, r8, #8, #8
 80077b4:	f002 0110 	and.w	r1, r2, #16
 80077b8:	b2cb      	uxtb	r3, r1
 80077ba:	2b00      	cmp	r3, #0
 80077bc:	f040 8163 	bne.w	8007a86 <USBD_OTG_ISR_Handler+0x386>
 80077c0:	f3c8 2207 	ubfx	r2, r8, #8, #8
 80077c4:	f002 0120 	and.w	r1, r2, #32
 80077c8:	b2cb      	uxtb	r3, r1
 80077ca:	2b00      	cmp	r3, #0
 80077cc:	f040 81a7 	bne.w	8007b1e <USBD_OTG_ISR_Handler+0x41e>
 80077d0:	f3c8 4207 	ubfx	r2, r8, #16, #8
 80077d4:	f002 0110 	and.w	r1, r2, #16
 80077d8:	b2cb      	uxtb	r3, r1
 80077da:	2b00      	cmp	r3, #0
 80077dc:	f040 8190 	bne.w	8007b00 <USBD_OTG_ISR_Handler+0x400>
 80077e0:	f3c8 4207 	ubfx	r2, r8, #16, #8
 80077e4:	f002 0120 	and.w	r1, r2, #32
 80077e8:	b2cb      	uxtb	r3, r1
 80077ea:	2b00      	cmp	r3, #0
 80077ec:	d08f      	beq.n	800770e <USBD_OTG_ISR_Handler+0xe>
 80077ee:	f240 1c24 	movw	ip, #292	; 0x124
 80077f2:	f2c2 0c00 	movt	ip, #8192	; 0x2000
 80077f6:	4628      	mov	r0, r5
 80077f8:	f8dc 2000 	ldr.w	r2, [ip]
 80077fc:	6a11      	ldr	r1, [r2, #32]
 80077fe:	4788      	blx	r1
 8007800:	68eb      	ldr	r3, [r5, #12]
 8007802:	f44f 1000 	mov.w	r0, #2097152	; 0x200000
 8007806:	6158      	str	r0, [r3, #20]
 8007808:	2001      	movs	r0, #1
 800780a:	e780      	b.n	800770e <USBD_OTG_ISR_Handler+0xe>
 800780c:	4628      	mov	r0, r5
 800780e:	f7ff fd37 	bl	8007280 <USB_OTG_ReadDevAllInEPItr>
 8007812:	4682      	mov	sl, r0
 8007814:	2800      	cmp	r0, #0
 8007816:	f000 81c7 	beq.w	8007ba8 <USBD_OTG_ISR_Handler+0x4a8>
 800781a:	f240 1024 	movw	r0, #292	; 0x124
 800781e:	f2c2 0000 	movt	r0, #8192	; 0x2000
 8007822:	462f      	mov	r7, r5
 8007824:	f04f 0b00 	mov.w	fp, #0
 8007828:	e88d 0101 	stmia.w	sp, {r0, r8}
 800782c:	e038      	b.n	80078a0 <USBD_OTG_ISR_Handler+0x1a0>
 800782e:	f004 0104 	and.w	r1, r4, #4
 8007832:	b2cb      	uxtb	r3, r1
 8007834:	b113      	cbz	r3, 800783c <USBD_OTG_ISR_Handler+0x13c>
 8007836:	69b8      	ldr	r0, [r7, #24]
 8007838:	2404      	movs	r4, #4
 800783a:	6084      	str	r4, [r0, #8]
 800783c:	f004 0e08 	and.w	lr, r4, #8
 8007840:	fa5f f28e 	uxtb.w	r2, lr
 8007844:	b112      	cbz	r2, 800784c <USBD_OTG_ISR_Handler+0x14c>
 8007846:	69bb      	ldr	r3, [r7, #24]
 8007848:	2408      	movs	r4, #8
 800784a:	609c      	str	r4, [r3, #8]
 800784c:	f004 0010 	and.w	r0, r4, #16
 8007850:	b2c1      	uxtb	r1, r0
 8007852:	b111      	cbz	r1, 800785a <USBD_OTG_ISR_Handler+0x15a>
 8007854:	69ba      	ldr	r2, [r7, #24]
 8007856:	2410      	movs	r4, #16
 8007858:	6094      	str	r4, [r2, #8]
 800785a:	f004 0120 	and.w	r1, r4, #32
 800785e:	b2cb      	uxtb	r3, r1
 8007860:	b113      	cbz	r3, 8007868 <USBD_OTG_ISR_Handler+0x168>
 8007862:	69b8      	ldr	r0, [r7, #24]
 8007864:	2420      	movs	r4, #32
 8007866:	6084      	str	r4, [r0, #8]
 8007868:	f004 0c40 	and.w	ip, r4, #64	; 0x40
 800786c:	fa5f f28c 	uxtb.w	r2, ip
 8007870:	b112      	cbz	r2, 8007878 <USBD_OTG_ISR_Handler+0x178>
 8007872:	69bb      	ldr	r3, [r7, #24]
 8007874:	2440      	movs	r4, #64	; 0x40
 8007876:	609c      	str	r4, [r3, #8]
 8007878:	f004 0002 	and.w	r0, r4, #2
 800787c:	b2c1      	uxtb	r1, r0
 800787e:	b111      	cbz	r1, 8007886 <USBD_OTG_ISR_Handler+0x186>
 8007880:	69ba      	ldr	r2, [r7, #24]
 8007882:	2402      	movs	r4, #2
 8007884:	6094      	str	r4, [r2, #8]
 8007886:	f004 0480 	and.w	r4, r4, #128	; 0x80
 800788a:	b2e4      	uxtb	r4, r4
 800788c:	2c00      	cmp	r4, #0
 800788e:	f040 8192 	bne.w	8007bb6 <USBD_OTG_ISR_Handler+0x4b6>
 8007892:	3704      	adds	r7, #4
 8007894:	ea5f 0a5a 	movs.w	sl, sl, lsr #1
 8007898:	f10b 0b01 	add.w	fp, fp, #1
 800789c:	f000 81c6 	beq.w	8007c2c <USBD_OTG_ISR_Handler+0x52c>
 80078a0:	f01a 0f01 	tst.w	sl, #1
 80078a4:	d0f5      	beq.n	8007892 <USBD_OTG_ISR_Handler+0x192>
 80078a6:	692b      	ldr	r3, [r5, #16]
 80078a8:	fa5f f88b 	uxtb.w	r8, fp
 80078ac:	6919      	ldr	r1, [r3, #16]
 80078ae:	6b5a      	ldr	r2, [r3, #52]	; 0x34
 80078b0:	eb05 0e88 	add.w	lr, r5, r8, lsl #2
 80078b4:	fa22 f408 	lsr.w	r4, r2, r8
 80078b8:	f8de 0018 	ldr.w	r0, [lr, #24]
 80078bc:	01e4      	lsls	r4, r4, #7
 80078be:	6882      	ldr	r2, [r0, #8]
 80078c0:	fa5f fc84 	uxtb.w	ip, r4
 80078c4:	ea4c 0001 	orr.w	r0, ip, r1
 80078c8:	ea00 0402 	and.w	r4, r0, r2
 80078cc:	b2e4      	uxtb	r4, r4
 80078ce:	07e2      	lsls	r2, r4, #31
 80078d0:	d5ad      	bpl.n	800782e <USBD_OTG_ISR_Handler+0x12e>
 80078d2:	9c00      	ldr	r4, [sp, #0]
 80078d4:	6b5a      	ldr	r2, [r3, #52]	; 0x34
 80078d6:	6821      	ldr	r1, [r4, #0]
 80078d8:	2401      	movs	r4, #1
 80078da:	fa04 f60b 	lsl.w	r6, r4, fp
 80078de:	ea22 0006 	bic.w	r0, r2, r6
 80078e2:	6358      	str	r0, [r3, #52]	; 0x34
 80078e4:	69bb      	ldr	r3, [r7, #24]
 80078e6:	684e      	ldr	r6, [r1, #4]
 80078e8:	609c      	str	r4, [r3, #8]
 80078ea:	4628      	mov	r0, r5
 80078ec:	4641      	mov	r1, r8
 80078ee:	47b0      	blx	r6
 80078f0:	78ee      	ldrb	r6, [r5, #3]
 80078f2:	42a6      	cmp	r6, r4
 80078f4:	d19b      	bne.n	800782e <USBD_OTG_ISR_Handler+0x12e>
 80078f6:	f1bb 0f00 	cmp.w	fp, #0
 80078fa:	d105      	bne.n	8007908 <USBD_OTG_ISR_Handler+0x208>
 80078fc:	f895 c111 	ldrb.w	ip, [r5, #273]	; 0x111
 8007900:	f1bc 0f04 	cmp.w	ip, #4
 8007904:	f000 8152 	beq.w	8007bac <USBD_OTG_ISR_Handler+0x4ac>
 8007908:	4634      	mov	r4, r6
 800790a:	e790      	b.n	800782e <USBD_OTG_ISR_Handler+0x12e>
 800790c:	4628      	mov	r0, r5
 800790e:	f7ff fca5 	bl	800725c <USB_OTG_ReadDevAllOutEp_itr>
 8007912:	4604      	mov	r4, r0
 8007914:	2800      	cmp	r0, #0
 8007916:	f000 8145 	beq.w	8007ba4 <USBD_OTG_ISR_Handler+0x4a4>
 800791a:	f240 1b24 	movw	fp, #292	; 0x124
 800791e:	462e      	mov	r6, r5
 8007920:	46a9      	mov	r9, r5
 8007922:	2700      	movs	r7, #0
 8007924:	f2c2 0b00 	movt	fp, #8192	; 0x2000
 8007928:	46c2      	mov	sl, r8
 800792a:	e006      	b.n	800793a <USBD_OTG_ISR_Handler+0x23a>
 800792c:	3701      	adds	r7, #1
 800792e:	3604      	adds	r6, #4
 8007930:	0864      	lsrs	r4, r4, #1
 8007932:	f109 0928 	add.w	r9, r9, #40	; 0x28
 8007936:	f000 817d 	beq.w	8007c34 <USBD_OTG_ISR_Handler+0x534>
 800793a:	07e0      	lsls	r0, r4, #31
 800793c:	d5f6      	bpl.n	800792c <USBD_OTG_ISR_Handler+0x22c>
 800793e:	fa5f f887 	uxtb.w	r8, r7
 8007942:	4641      	mov	r1, r8
 8007944:	4628      	mov	r0, r5
 8007946:	f7ff fc91 	bl	800726c <USB_OTG_ReadDevOutEP_itr>
 800794a:	b2c0      	uxtb	r0, r0
 800794c:	07c1      	lsls	r1, r0, #31
 800794e:	d51c      	bpl.n	800798a <USBD_OTG_ISR_Handler+0x28a>
 8007950:	6d70      	ldr	r0, [r6, #84]	; 0x54
 8007952:	f8db 2000 	ldr.w	r2, [fp]
 8007956:	2301      	movs	r3, #1
 8007958:	6083      	str	r3, [r0, #8]
 800795a:	78e9      	ldrb	r1, [r5, #3]
 800795c:	2901      	cmp	r1, #1
 800795e:	bf01      	itttt	eq
 8007960:	6900      	ldreq	r0, [r0, #16]
 8007962:	f8d9 1378 	ldreq.w	r1, [r9, #888]	; 0x378
 8007966:	f3c0 0012 	ubfxeq	r0, r0, #0, #19
 800796a:	ebc0 0001 	rsbeq	r0, r0, r1
 800796e:	bf08      	it	eq
 8007970:	f8c9 0388 	streq.w	r0, [r9, #904]	; 0x388
 8007974:	4641      	mov	r1, r8
 8007976:	4628      	mov	r0, r5
 8007978:	6813      	ldr	r3, [r2, #0]
 800797a:	4798      	blx	r3
 800797c:	f895 8003 	ldrb.w	r8, [r5, #3]
 8007980:	2001      	movs	r0, #1
 8007982:	f1b8 0f01 	cmp.w	r8, #1
 8007986:	f000 8158 	beq.w	8007c3a <USBD_OTG_ISR_Handler+0x53a>
 800798a:	f000 0802 	and.w	r8, r0, #2
 800798e:	fa5f f188 	uxtb.w	r1, r8
 8007992:	b111      	cbz	r1, 800799a <USBD_OTG_ISR_Handler+0x29a>
 8007994:	6d73      	ldr	r3, [r6, #84]	; 0x54
 8007996:	2002      	movs	r0, #2
 8007998:	6098      	str	r0, [r3, #8]
 800799a:	f000 0104 	and.w	r1, r0, #4
 800799e:	b2ca      	uxtb	r2, r1
 80079a0:	b112      	cbz	r2, 80079a8 <USBD_OTG_ISR_Handler+0x2a8>
 80079a2:	6d73      	ldr	r3, [r6, #84]	; 0x54
 80079a4:	2004      	movs	r0, #4
 80079a6:	6098      	str	r0, [r3, #8]
 80079a8:	f000 0208 	and.w	r2, r0, #8
 80079ac:	b2d0      	uxtb	r0, r2
 80079ae:	2800      	cmp	r0, #0
 80079b0:	d0bc      	beq.n	800792c <USBD_OTG_ISR_Handler+0x22c>
 80079b2:	f8db 1000 	ldr.w	r1, [fp]
 80079b6:	4628      	mov	r0, r5
 80079b8:	688a      	ldr	r2, [r1, #8]
 80079ba:	4790      	blx	r2
 80079bc:	6d73      	ldr	r3, [r6, #84]	; 0x54
 80079be:	2108      	movs	r1, #8
 80079c0:	6099      	str	r1, [r3, #8]
 80079c2:	e7b3      	b.n	800792c <USBD_OTG_ISR_Handler+0x22c>
 80079c4:	68eb      	ldr	r3, [r5, #12]
 80079c6:	699a      	ldr	r2, [r3, #24]
 80079c8:	f022 0410 	bic.w	r4, r2, #16
 80079cc:	619c      	str	r4, [r3, #24]
 80079ce:	6a1c      	ldr	r4, [r3, #32]
 80079d0:	f004 010f 	and.w	r1, r4, #15
 80079d4:	eb01 0081 	add.w	r0, r1, r1, lsl #2
 80079d8:	f3c4 4243 	ubfx	r2, r4, #17, #4
 80079dc:	eb05 06c0 	add.w	r6, r5, r0, lsl #3
 80079e0:	2a02      	cmp	r2, #2
 80079e2:	f506 765c 	add.w	r6, r6, #880	; 0x370
 80079e6:	f000 80be 	beq.w	8007b66 <USBD_OTG_ISR_Handler+0x466>
 80079ea:	2a06      	cmp	r2, #6
 80079ec:	d10b      	bne.n	8007a06 <USBD_OTG_ISR_Handler+0x306>
 80079ee:	2208      	movs	r2, #8
 80079f0:	4628      	mov	r0, r5
 80079f2:	f505 61b9 	add.w	r1, r5, #1480	; 0x5c8
 80079f6:	f7fe ff69 	bl	80068cc <USB_OTG_ReadPacket>
 80079fa:	69b0      	ldr	r0, [r6, #24]
 80079fc:	68eb      	ldr	r3, [r5, #12]
 80079fe:	f3c4 140a 	ubfx	r4, r4, #4, #11
 8007a02:	1902      	adds	r2, r0, r4
 8007a04:	61b2      	str	r2, [r6, #24]
 8007a06:	699a      	ldr	r2, [r3, #24]
 8007a08:	f042 0110 	orr.w	r1, r2, #16
 8007a0c:	6199      	str	r1, [r3, #24]
 8007a0e:	2001      	movs	r0, #1
 8007a10:	e6ce      	b.n	80077b0 <USBD_OTG_ISR_Handler+0xb0>
 8007a12:	f240 1e24 	movw	lr, #292	; 0x124
 8007a16:	f2c2 0e00 	movt	lr, #8192	; 0x2000
 8007a1a:	4628      	mov	r0, r5
 8007a1c:	f8de 1000 	ldr.w	r1, [lr]
 8007a20:	68cb      	ldr	r3, [r1, #12]
 8007a22:	4798      	blx	r3
 8007a24:	68ea      	ldr	r2, [r5, #12]
 8007a26:	2008      	movs	r0, #8
 8007a28:	6150      	str	r0, [r2, #20]
 8007a2a:	2001      	movs	r0, #1
 8007a2c:	e6b9      	b.n	80077a2 <USBD_OTG_ISR_Handler+0xa2>
 8007a2e:	f240 1e24 	movw	lr, #292	; 0x124
 8007a32:	f2c2 0e00 	movt	lr, #8192	; 0x2000
 8007a36:	4628      	mov	r0, r5
 8007a38:	f8de 3000 	ldr.w	r3, [lr]
 8007a3c:	695a      	ldr	r2, [r3, #20]
 8007a3e:	4790      	blx	r2
 8007a40:	6929      	ldr	r1, [r5, #16]
 8007a42:	68eb      	ldr	r3, [r5, #12]
 8007a44:	6889      	ldr	r1, [r1, #8]
 8007a46:	f44f 6200 	mov.w	r2, #2048	; 0x800
 8007a4a:	615a      	str	r2, [r3, #20]
 8007a4c:	7aa8      	ldrb	r0, [r5, #10]
 8007a4e:	2800      	cmp	r0, #0
 8007a50:	f000 8087 	beq.w	8007b62 <USBD_OTG_ISR_Handler+0x462>
 8007a54:	07cb      	lsls	r3, r1, #31
 8007a56:	f140 8084 	bpl.w	8007b62 <USBD_OTG_ISR_Handler+0x462>
 8007a5a:	f8d5 310c 	ldr.w	r3, [r5, #268]	; 0x10c
 8007a5e:	681a      	ldr	r2, [r3, #0]
 8007a60:	f042 0101 	orr.w	r1, r2, #1
 8007a64:	6019      	str	r1, [r3, #0]
 8007a66:	6818      	ldr	r0, [r3, #0]
 8007a68:	f44f 4c6d 	mov.w	ip, #60672	; 0xed00
 8007a6c:	f2ce 0c00 	movt	ip, #57344	; 0xe000
 8007a70:	f040 0203 	orr.w	r2, r0, #3
 8007a74:	601a      	str	r2, [r3, #0]
 8007a76:	f8dc 1010 	ldr.w	r1, [ip, #16]
 8007a7a:	f041 0006 	orr.w	r0, r1, #6
 8007a7e:	f8cc 0010 	str.w	r0, [ip, #16]
 8007a82:	2001      	movs	r0, #1
 8007a84:	e687      	b.n	8007796 <USBD_OTG_ISR_Handler+0x96>
 8007a86:	692b      	ldr	r3, [r5, #16]
 8007a88:	6859      	ldr	r1, [r3, #4]
 8007a8a:	2400      	movs	r4, #0
 8007a8c:	f021 0001 	bic.w	r0, r1, #1
 8007a90:	6058      	str	r0, [r3, #4]
 8007a92:	4621      	mov	r1, r4
 8007a94:	4628      	mov	r0, r5
 8007a96:	f7ff f8a9 	bl	8006bec <USB_OTG_FlushTxFifo>
 8007a9a:	786e      	ldrb	r6, [r5, #1]
 8007a9c:	b166      	cbz	r6, 8007ab8 <USBD_OTG_ISR_Handler+0x3b8>
 8007a9e:	f105 0214 	add.w	r2, r5, #20
 8007aa2:	4623      	mov	r3, r4
 8007aa4:	21ff      	movs	r1, #255	; 0xff
 8007aa6:	f852 6f04 	ldr.w	r6, [r2, #4]!
 8007aaa:	60b1      	str	r1, [r6, #8]
 8007aac:	6bd0      	ldr	r0, [r2, #60]	; 0x3c
 8007aae:	6081      	str	r1, [r0, #8]
 8007ab0:	786e      	ldrb	r6, [r5, #1]
 8007ab2:	3301      	adds	r3, #1
 8007ab4:	42b3      	cmp	r3, r6
 8007ab6:	d3f6      	bcc.n	8007aa6 <USBD_OTG_ISR_Handler+0x3a6>
 8007ab8:	2601      	movs	r6, #1
 8007aba:	692b      	ldr	r3, [r5, #16]
 8007abc:	f366 040f 	bfi	r4, r6, #0, #16
 8007ac0:	212f      	movs	r1, #47	; 0x2f
 8007ac2:	f04f 32ff 	mov.w	r2, #4294967295
 8007ac6:	200f      	movs	r0, #15
 8007ac8:	f366 441f 	bfi	r4, r6, #16, #16
 8007acc:	619a      	str	r2, [r3, #24]
 8007ace:	61dc      	str	r4, [r3, #28]
 8007ad0:	6158      	str	r0, [r3, #20]
 8007ad2:	6119      	str	r1, [r3, #16]
 8007ad4:	681a      	ldr	r2, [r3, #0]
 8007ad6:	f36f 120a 	bfc	r2, #4, #7
 8007ada:	601a      	str	r2, [r3, #0]
 8007adc:	4628      	mov	r0, r5
 8007ade:	f7ff fbd7 	bl	8007290 <USB_OTG_EP0_OutStart>
 8007ae2:	f240 1c24 	movw	ip, #292	; 0x124
 8007ae6:	f2c2 0c00 	movt	ip, #8192	; 0x2000
 8007aea:	68e8      	ldr	r0, [r5, #12]
 8007aec:	f8dc 3000 	ldr.w	r3, [ip]
 8007af0:	f44f 5180 	mov.w	r1, #4096	; 0x1000
 8007af4:	6141      	str	r1, [r0, #20]
 8007af6:	691a      	ldr	r2, [r3, #16]
 8007af8:	4628      	mov	r0, r5
 8007afa:	4790      	blx	r2
 8007afc:	4630      	mov	r0, r6
 8007afe:	e65f      	b.n	80077c0 <USBD_OTG_ISR_Handler+0xc0>
 8007b00:	f240 1e24 	movw	lr, #292	; 0x124
 8007b04:	f2c2 0e00 	movt	lr, #8192	; 0x2000
 8007b08:	4628      	mov	r0, r5
 8007b0a:	f8de 2000 	ldr.w	r2, [lr]
 8007b0e:	69d1      	ldr	r1, [r2, #28]
 8007b10:	4788      	blx	r1
 8007b12:	68eb      	ldr	r3, [r5, #12]
 8007b14:	f44f 1080 	mov.w	r0, #1048576	; 0x100000
 8007b18:	6158      	str	r0, [r3, #20]
 8007b1a:	2001      	movs	r0, #1
 8007b1c:	e660      	b.n	80077e0 <USBD_OTG_ISR_Handler+0xe0>
 8007b1e:	4628      	mov	r0, r5
 8007b20:	f7ff f9ac 	bl	8006e7c <USB_OTG_EP0Activate>
 8007b24:	68ec      	ldr	r4, [r5, #12]
 8007b26:	4628      	mov	r0, r5
 8007b28:	68e4      	ldr	r4, [r4, #12]
 8007b2a:	f7ff f999 	bl	8006e60 <USB_OTG_GetDeviceSpeed>
 8007b2e:	2803      	cmp	r0, #3
 8007b30:	d02f      	beq.n	8007b92 <USBD_OTG_ISR_Handler+0x492>
 8007b32:	2301      	movs	r3, #1
 8007b34:	2040      	movs	r0, #64	; 0x40
 8007b36:	2205      	movs	r2, #5
 8007b38:	70ab      	strb	r3, [r5, #2]
 8007b3a:	80a8      	strh	r0, [r5, #4]
 8007b3c:	f362 248d 	bfi	r4, r2, #10, #4
 8007b40:	68ea      	ldr	r2, [r5, #12]
 8007b42:	f44f 5100 	mov.w	r1, #8192	; 0x2000
 8007b46:	60d4      	str	r4, [r2, #12]
 8007b48:	2001      	movs	r0, #1
 8007b4a:	6151      	str	r1, [r2, #20]
 8007b4c:	e640      	b.n	80077d0 <USBD_OTG_ISR_Handler+0xd0>
 8007b4e:	f8d5 310c 	ldr.w	r3, [r5, #268]	; 0x10c
 8007b52:	f8d5 110c 	ldr.w	r1, [r5, #268]	; 0x10c
 8007b56:	f36f 0341 	bfc	r3, #1, #1
 8007b5a:	f36f 0300 	bfc	r3, #0, #1
 8007b5e:	600b      	str	r3, [r1, #0]
 8007b60:	e5fe      	b.n	8007760 <USBD_OTG_ISR_Handler+0x60>
 8007b62:	2001      	movs	r0, #1
 8007b64:	e617      	b.n	8007796 <USBD_OTG_ISR_Handler+0x96>
 8007b66:	f647 71f0 	movw	r1, #32752	; 0x7ff0
 8007b6a:	ea04 0001 	and.w	r0, r4, r1
 8007b6e:	2800      	cmp	r0, #0
 8007b70:	f43f af49 	beq.w	8007a06 <USBD_OTG_ISR_Handler+0x306>
 8007b74:	f3c4 140a 	ubfx	r4, r4, #4, #11
 8007b78:	4622      	mov	r2, r4
 8007b7a:	68f1      	ldr	r1, [r6, #12]
 8007b7c:	4628      	mov	r0, r5
 8007b7e:	f7fe fea5 	bl	80068cc <USB_OTG_ReadPacket>
 8007b82:	68f1      	ldr	r1, [r6, #12]
 8007b84:	69b0      	ldr	r0, [r6, #24]
 8007b86:	68eb      	ldr	r3, [r5, #12]
 8007b88:	190a      	adds	r2, r1, r4
 8007b8a:	1904      	adds	r4, r0, r4
 8007b8c:	60f2      	str	r2, [r6, #12]
 8007b8e:	61b4      	str	r4, [r6, #24]
 8007b90:	e739      	b.n	8007a06 <USBD_OTG_ISR_Handler+0x306>
 8007b92:	2100      	movs	r1, #0
 8007b94:	f44f 7300 	mov.w	r3, #512	; 0x200
 8007b98:	2009      	movs	r0, #9
 8007b9a:	70a9      	strb	r1, [r5, #2]
 8007b9c:	80ab      	strh	r3, [r5, #4]
 8007b9e:	f360 248d 	bfi	r4, r0, #10, #4
 8007ba2:	e7cd      	b.n	8007b40 <USBD_OTG_ISR_Handler+0x440>
 8007ba4:	2001      	movs	r0, #1
 8007ba6:	e5c3      	b.n	8007730 <USBD_OTG_ISR_Handler+0x30>
 8007ba8:	2001      	movs	r0, #1
 8007baa:	e5c8      	b.n	800773e <USBD_OTG_ISR_Handler+0x3e>
 8007bac:	4628      	mov	r0, r5
 8007bae:	f7ff fb6f 	bl	8007290 <USB_OTG_EP0_OutStart>
 8007bb2:	4634      	mov	r4, r6
 8007bb4:	e63b      	b.n	800782e <USBD_OTG_ISR_Handler+0x12e>
 8007bb6:	eb0b 038b 	add.w	r3, fp, fp, lsl #2
 8007bba:	eb05 06c3 	add.w	r6, r5, r3, lsl #3
 8007bbe:	f506 748c 	add.w	r4, r6, #280	; 0x118
 8007bc2:	69b9      	ldr	r1, [r7, #24]
 8007bc4:	6962      	ldr	r2, [r4, #20]
 8007bc6:	69a0      	ldr	r0, [r4, #24]
 8007bc8:	68a3      	ldr	r3, [r4, #8]
 8007bca:	f8d1 9018 	ldr.w	r9, [r1, #24]
 8007bce:	1a16      	subs	r6, r2, r0
 8007bd0:	429e      	cmp	r6, r3
 8007bd2:	bf34      	ite	cc
 8007bd4:	46b4      	movcc	ip, r6
 8007bd6:	469c      	movcs	ip, r3
 8007bd8:	f10c 0e03 	add.w	lr, ip, #3
 8007bdc:	fa1f f989 	uxth.w	r9, r9
 8007be0:	ebb9 0f9e 	cmp.w	r9, lr, lsr #2
 8007be4:	d91f      	bls.n	8007c26 <USBD_OTG_ISR_Handler+0x526>
 8007be6:	4282      	cmp	r2, r0
 8007be8:	d91d      	bls.n	8007c26 <USBD_OTG_ISR_Handler+0x526>
 8007bea:	b1e2      	cbz	r2, 8007c26 <USBD_OTG_ISR_Handler+0x526>
 8007bec:	68e1      	ldr	r1, [r4, #12]
 8007bee:	e004      	b.n	8007bfa <USBD_OTG_ISR_Handler+0x4fa>
 8007bf0:	6966      	ldr	r6, [r4, #20]
 8007bf2:	42b3      	cmp	r3, r6
 8007bf4:	d216      	bcs.n	8007c24 <USBD_OTG_ISR_Handler+0x524>
 8007bf6:	1af6      	subs	r6, r6, r3
 8007bf8:	68a3      	ldr	r3, [r4, #8]
 8007bfa:	429e      	cmp	r6, r3
 8007bfc:	bf28      	it	cs
 8007bfe:	461e      	movcs	r6, r3
 8007c00:	b2b3      	uxth	r3, r6
 8007c02:	4642      	mov	r2, r8
 8007c04:	4628      	mov	r0, r5
 8007c06:	f7fe fe3b 	bl	8006880 <USB_OTG_WritePacket>
 8007c0a:	69a2      	ldr	r2, [r4, #24]
 8007c0c:	68e1      	ldr	r1, [r4, #12]
 8007c0e:	18b3      	adds	r3, r6, r2
 8007c10:	1989      	adds	r1, r1, r6
 8007c12:	60e1      	str	r1, [r4, #12]
 8007c14:	61a3      	str	r3, [r4, #24]
 8007c16:	69ba      	ldr	r2, [r7, #24]
 8007c18:	6990      	ldr	r0, [r2, #24]
 8007c1a:	3603      	adds	r6, #3
 8007c1c:	b280      	uxth	r0, r0
 8007c1e:	ebb0 0f96 	cmp.w	r0, r6, lsr #2
 8007c22:	d8e5      	bhi.n	8007bf0 <USBD_OTG_ISR_Handler+0x4f0>
 8007c24:	4611      	mov	r1, r2
 8007c26:	2380      	movs	r3, #128	; 0x80
 8007c28:	608b      	str	r3, [r1, #8]
 8007c2a:	e632      	b.n	8007892 <USBD_OTG_ISR_Handler+0x192>
 8007c2c:	f8dd 8004 	ldr.w	r8, [sp, #4]
 8007c30:	2001      	movs	r0, #1
 8007c32:	e584      	b.n	800773e <USBD_OTG_ISR_Handler+0x3e>
 8007c34:	46d0      	mov	r8, sl
 8007c36:	2001      	movs	r0, #1
 8007c38:	e57a      	b.n	8007730 <USBD_OTG_ISR_Handler+0x30>
 8007c3a:	b91f      	cbnz	r7, 8007c44 <USBD_OTG_ISR_Handler+0x544>
 8007c3c:	f895 2111 	ldrb.w	r2, [r5, #273]	; 0x111
 8007c40:	2a05      	cmp	r2, #5
 8007c42:	d001      	beq.n	8007c48 <USBD_OTG_ISR_Handler+0x548>
 8007c44:	4640      	mov	r0, r8
 8007c46:	e6a0      	b.n	800798a <USBD_OTG_ISR_Handler+0x28a>
 8007c48:	4628      	mov	r0, r5
 8007c4a:	f7ff fb21 	bl	8007290 <USB_OTG_EP0_OutStart>
 8007c4e:	4640      	mov	r0, r8
 8007c50:	e69b      	b.n	800798a <USBD_OTG_ISR_Handler+0x28a>
 8007c52:	bf00      	nop

08007c54 <memcpy>:
 8007c54:	2a03      	cmp	r2, #3
 8007c56:	e92d 01f0 	stmdb	sp!, {r4, r5, r6, r7, r8}
 8007c5a:	d809      	bhi.n	8007c70 <memcpy+0x1c>
 8007c5c:	b12a      	cbz	r2, 8007c6a <memcpy+0x16>
 8007c5e:	2300      	movs	r3, #0
 8007c60:	5ccc      	ldrb	r4, [r1, r3]
 8007c62:	54c4      	strb	r4, [r0, r3]
 8007c64:	3301      	adds	r3, #1
 8007c66:	4293      	cmp	r3, r2
 8007c68:	d1fa      	bne.n	8007c60 <memcpy+0xc>
 8007c6a:	e8bd 01f0 	ldmia.w	sp!, {r4, r5, r6, r7, r8}
 8007c6e:	4770      	bx	lr
 8007c70:	0785      	lsls	r5, r0, #30
 8007c72:	4402      	add	r2, r0
 8007c74:	4603      	mov	r3, r0
 8007c76:	d005      	beq.n	8007c84 <memcpy+0x30>
 8007c78:	f811 4b01 	ldrb.w	r4, [r1], #1
 8007c7c:	f803 4b01 	strb.w	r4, [r3], #1
 8007c80:	079c      	lsls	r4, r3, #30
 8007c82:	d1f9      	bne.n	8007c78 <memcpy+0x24>
 8007c84:	f011 0503 	ands.w	r5, r1, #3
 8007c88:	d042      	beq.n	8007d10 <memcpy+0xbc>
 8007c8a:	1ad4      	subs	r4, r2, r3
 8007c8c:	426e      	negs	r6, r5
 8007c8e:	2c03      	cmp	r4, #3
 8007c90:	598f      	ldr	r7, [r1, r6]
 8007c92:	dd12      	ble.n	8007cba <memcpy+0x66>
 8007c94:	f1c5 0c04 	rsb	ip, r5, #4
 8007c98:	00ed      	lsls	r5, r5, #3
 8007c9a:	ea4f 0ccc 	mov.w	ip, ip, lsl #3
 8007c9e:	3104      	adds	r1, #4
 8007ca0:	fa27 f805 	lsr.w	r8, r7, r5
 8007ca4:	598c      	ldr	r4, [r1, r6]
 8007ca6:	4627      	mov	r7, r4
 8007ca8:	fa04 f40c 	lsl.w	r4, r4, ip
 8007cac:	ea44 0408 	orr.w	r4, r4, r8
 8007cb0:	f843 4b04 	str.w	r4, [r3], #4
 8007cb4:	1ad4      	subs	r4, r2, r3
 8007cb6:	2c03      	cmp	r4, #3
 8007cb8:	dcf1      	bgt.n	8007c9e <memcpy+0x4a>
 8007cba:	429a      	cmp	r2, r3
 8007cbc:	d9d5      	bls.n	8007c6a <memcpy+0x16>
 8007cbe:	2200      	movs	r2, #0
 8007cc0:	5c8d      	ldrb	r5, [r1, r2]
 8007cc2:	549d      	strb	r5, [r3, r2]
 8007cc4:	3201      	adds	r2, #1
 8007cc6:	42a2      	cmp	r2, r4
 8007cc8:	d1fa      	bne.n	8007cc0 <memcpy+0x6c>
 8007cca:	e7ce      	b.n	8007c6a <memcpy+0x16>
 8007ccc:	680c      	ldr	r4, [r1, #0]
 8007cce:	601c      	str	r4, [r3, #0]
 8007cd0:	684c      	ldr	r4, [r1, #4]
 8007cd2:	605c      	str	r4, [r3, #4]
 8007cd4:	688c      	ldr	r4, [r1, #8]
 8007cd6:	609c      	str	r4, [r3, #8]
 8007cd8:	68cc      	ldr	r4, [r1, #12]
 8007cda:	60dc      	str	r4, [r3, #12]
 8007cdc:	690c      	ldr	r4, [r1, #16]
 8007cde:	611c      	str	r4, [r3, #16]
 8007ce0:	694c      	ldr	r4, [r1, #20]
 8007ce2:	615c      	str	r4, [r3, #20]
 8007ce4:	698c      	ldr	r4, [r1, #24]
 8007ce6:	619c      	str	r4, [r3, #24]
 8007ce8:	69cc      	ldr	r4, [r1, #28]
 8007cea:	61dc      	str	r4, [r3, #28]
 8007cec:	6a0c      	ldr	r4, [r1, #32]
 8007cee:	621c      	str	r4, [r3, #32]
 8007cf0:	6a4c      	ldr	r4, [r1, #36]	; 0x24
 8007cf2:	625c      	str	r4, [r3, #36]	; 0x24
 8007cf4:	6a8c      	ldr	r4, [r1, #40]	; 0x28
 8007cf6:	629c      	str	r4, [r3, #40]	; 0x28
 8007cf8:	6acc      	ldr	r4, [r1, #44]	; 0x2c
 8007cfa:	62dc      	str	r4, [r3, #44]	; 0x2c
 8007cfc:	6b0c      	ldr	r4, [r1, #48]	; 0x30
 8007cfe:	631c      	str	r4, [r3, #48]	; 0x30
 8007d00:	6b4c      	ldr	r4, [r1, #52]	; 0x34
 8007d02:	635c      	str	r4, [r3, #52]	; 0x34
 8007d04:	6b8c      	ldr	r4, [r1, #56]	; 0x38
 8007d06:	639c      	str	r4, [r3, #56]	; 0x38
 8007d08:	6bcc      	ldr	r4, [r1, #60]	; 0x3c
 8007d0a:	3140      	adds	r1, #64	; 0x40
 8007d0c:	63dc      	str	r4, [r3, #60]	; 0x3c
 8007d0e:	3340      	adds	r3, #64	; 0x40
 8007d10:	1ad4      	subs	r4, r2, r3
 8007d12:	2c3f      	cmp	r4, #63	; 0x3f
 8007d14:	dcda      	bgt.n	8007ccc <memcpy+0x78>
 8007d16:	e00a      	b.n	8007d2e <memcpy+0xda>
 8007d18:	680c      	ldr	r4, [r1, #0]
 8007d1a:	601c      	str	r4, [r3, #0]
 8007d1c:	684c      	ldr	r4, [r1, #4]
 8007d1e:	605c      	str	r4, [r3, #4]
 8007d20:	688c      	ldr	r4, [r1, #8]
 8007d22:	609c      	str	r4, [r3, #8]
 8007d24:	68cc      	ldr	r4, [r1, #12]
 8007d26:	3110      	adds	r1, #16
 8007d28:	60dc      	str	r4, [r3, #12]
 8007d2a:	3310      	adds	r3, #16
 8007d2c:	1ad4      	subs	r4, r2, r3
 8007d2e:	2c0f      	cmp	r4, #15
 8007d30:	dcf2      	bgt.n	8007d18 <memcpy+0xc4>
 8007d32:	e004      	b.n	8007d3e <memcpy+0xea>
 8007d34:	f851 4b04 	ldr.w	r4, [r1], #4
 8007d38:	f843 4b04 	str.w	r4, [r3], #4
 8007d3c:	1ad4      	subs	r4, r2, r3
 8007d3e:	2c03      	cmp	r4, #3
 8007d40:	dcf8      	bgt.n	8007d34 <memcpy+0xe0>
 8007d42:	e7ba      	b.n	8007cba <memcpy+0x66>

08007d44 <memset>:
 8007d44:	2a03      	cmp	r2, #3
 8007d46:	b2c9      	uxtb	r1, r1
 8007d48:	b470      	push	{r4, r5, r6}
 8007d4a:	d807      	bhi.n	8007d5c <memset+0x18>
 8007d4c:	b122      	cbz	r2, 8007d58 <memset+0x14>
 8007d4e:	2300      	movs	r3, #0
 8007d50:	54c1      	strb	r1, [r0, r3]
 8007d52:	3301      	adds	r3, #1
 8007d54:	4293      	cmp	r3, r2
 8007d56:	d1fb      	bne.n	8007d50 <memset+0xc>
 8007d58:	bc70      	pop	{r4, r5, r6}
 8007d5a:	4770      	bx	lr
 8007d5c:	0785      	lsls	r5, r0, #30
 8007d5e:	4402      	add	r2, r0
 8007d60:	4603      	mov	r3, r0
 8007d62:	d003      	beq.n	8007d6c <memset+0x28>
 8007d64:	f803 1b01 	strb.w	r1, [r3], #1
 8007d68:	079c      	lsls	r4, r3, #30
 8007d6a:	d1fb      	bne.n	8007d64 <memset+0x20>
 8007d6c:	020c      	lsls	r4, r1, #8
 8007d6e:	1ad5      	subs	r5, r2, r3
 8007d70:	1864      	adds	r4, r4, r1
 8007d72:	0426      	lsls	r6, r4, #16
 8007d74:	2d3f      	cmp	r5, #63	; 0x3f
 8007d76:	4434      	add	r4, r6
 8007d78:	dd1a      	ble.n	8007db0 <memset+0x6c>
 8007d7a:	601c      	str	r4, [r3, #0]
 8007d7c:	605c      	str	r4, [r3, #4]
 8007d7e:	609c      	str	r4, [r3, #8]
 8007d80:	60dc      	str	r4, [r3, #12]
 8007d82:	611c      	str	r4, [r3, #16]
 8007d84:	615c      	str	r4, [r3, #20]
 8007d86:	619c      	str	r4, [r3, #24]
 8007d88:	61dc      	str	r4, [r3, #28]
 8007d8a:	621c      	str	r4, [r3, #32]
 8007d8c:	625c      	str	r4, [r3, #36]	; 0x24
 8007d8e:	629c      	str	r4, [r3, #40]	; 0x28
 8007d90:	62dc      	str	r4, [r3, #44]	; 0x2c
 8007d92:	631c      	str	r4, [r3, #48]	; 0x30
 8007d94:	635c      	str	r4, [r3, #52]	; 0x34
 8007d96:	639c      	str	r4, [r3, #56]	; 0x38
 8007d98:	63dc      	str	r4, [r3, #60]	; 0x3c
 8007d9a:	3340      	adds	r3, #64	; 0x40
 8007d9c:	1ad5      	subs	r5, r2, r3
 8007d9e:	2d3f      	cmp	r5, #63	; 0x3f
 8007da0:	dceb      	bgt.n	8007d7a <memset+0x36>
 8007da2:	e005      	b.n	8007db0 <memset+0x6c>
 8007da4:	601c      	str	r4, [r3, #0]
 8007da6:	605c      	str	r4, [r3, #4]
 8007da8:	609c      	str	r4, [r3, #8]
 8007daa:	60dc      	str	r4, [r3, #12]
 8007dac:	3310      	adds	r3, #16
 8007dae:	1ad5      	subs	r5, r2, r3
 8007db0:	2d0f      	cmp	r5, #15
 8007db2:	dcf7      	bgt.n	8007da4 <memset+0x60>
 8007db4:	e002      	b.n	8007dbc <memset+0x78>
 8007db6:	f843 4b04 	str.w	r4, [r3], #4
 8007dba:	1ad5      	subs	r5, r2, r3
 8007dbc:	2d03      	cmp	r5, #3
 8007dbe:	dcfa      	bgt.n	8007db6 <memset+0x72>
 8007dc0:	4293      	cmp	r3, r2
 8007dc2:	d2c9      	bcs.n	8007d58 <memset+0x14>
 8007dc4:	f803 1b01 	strb.w	r1, [r3], #1
 8007dc8:	4293      	cmp	r3, r2
 8007dca:	d1fb      	bne.n	8007dc4 <memset+0x80>
 8007dcc:	e7c4      	b.n	8007d58 <memset+0x14>
 8007dce:	bf00      	nop

08007dd0 <strncpy>:
 8007dd0:	ea41 0300 	orr.w	r3, r1, r0
 8007dd4:	f013 0f03 	tst.w	r3, #3
 8007dd8:	4603      	mov	r3, r0
 8007dda:	b470      	push	{r4, r5, r6}
 8007ddc:	bf14      	ite	ne
 8007dde:	2400      	movne	r4, #0
 8007de0:	2401      	moveq	r4, #1
 8007de2:	2a03      	cmp	r2, #3
 8007de4:	bf94      	ite	ls
 8007de6:	2400      	movls	r4, #0
 8007de8:	f004 0401 	andhi.w	r4, r4, #1
 8007dec:	460d      	mov	r5, r1
 8007dee:	b9c4      	cbnz	r4, 8007e22 <strncpy+0x52>
 8007df0:	b1aa      	cbz	r2, 8007e1e <strncpy+0x4e>
 8007df2:	780c      	ldrb	r4, [r1, #0]
 8007df4:	3a01      	subs	r2, #1
 8007df6:	f803 4b01 	strb.w	r4, [r3], #1
 8007dfa:	b14c      	cbz	r4, 8007e10 <strncpy+0x40>
 8007dfc:	461c      	mov	r4, r3
 8007dfe:	b172      	cbz	r2, 8007e1e <strncpy+0x4e>
 8007e00:	f811 6f01 	ldrb.w	r6, [r1, #1]!
 8007e04:	3a01      	subs	r2, #1
 8007e06:	f804 6b01 	strb.w	r6, [r4], #1
 8007e0a:	4623      	mov	r3, r4
 8007e0c:	2e00      	cmp	r6, #0
 8007e0e:	d1f6      	bne.n	8007dfe <strncpy+0x2e>
 8007e10:	b12a      	cbz	r2, 8007e1e <strncpy+0x4e>
 8007e12:	189a      	adds	r2, r3, r2
 8007e14:	2100      	movs	r1, #0
 8007e16:	f803 1b01 	strb.w	r1, [r3], #1
 8007e1a:	4293      	cmp	r3, r2
 8007e1c:	d1fb      	bne.n	8007e16 <strncpy+0x46>
 8007e1e:	bc70      	pop	{r4, r5, r6}
 8007e20:	4770      	bx	lr
 8007e22:	4629      	mov	r1, r5
 8007e24:	f855 4b04 	ldr.w	r4, [r5], #4
 8007e28:	f1a4 3601 	sub.w	r6, r4, #16843009	; 0x1010101
 8007e2c:	ea26 0604 	bic.w	r6, r6, r4
 8007e30:	f016 3f80 	tst.w	r6, #2155905152	; 0x80808080
 8007e34:	d1dc      	bne.n	8007df0 <strncpy+0x20>
 8007e36:	3a04      	subs	r2, #4
 8007e38:	f843 4b04 	str.w	r4, [r3], #4
 8007e3c:	2a03      	cmp	r2, #3
 8007e3e:	d8f0      	bhi.n	8007e22 <strncpy+0x52>
 8007e40:	4629      	mov	r1, r5
 8007e42:	e7d5      	b.n	8007df0 <strncpy+0x20>

08007e44 <Reset_Handler>:
 8007e44:	2100      	movs	r1, #0
 8007e46:	f000 b804 	b.w	8007e52 <LoopCopyDataInit>

08007e4a <CopyDataInit>:
 8007e4a:	4b0f      	ldr	r3, [pc, #60]	; (8007e88 <LoopFillZerobss+0x1e>)
 8007e4c:	585b      	ldr	r3, [r3, r1]
 8007e4e:	5043      	str	r3, [r0, r1]
 8007e50:	3104      	adds	r1, #4

08007e52 <LoopCopyDataInit>:
 8007e52:	480e      	ldr	r0, [pc, #56]	; (8007e8c <LoopFillZerobss+0x22>)
 8007e54:	4b0e      	ldr	r3, [pc, #56]	; (8007e90 <LoopFillZerobss+0x26>)
 8007e56:	1842      	adds	r2, r0, r1
 8007e58:	429a      	cmp	r2, r3
 8007e5a:	f4ff aff6 	bcc.w	8007e4a <CopyDataInit>
 8007e5e:	4a0d      	ldr	r2, [pc, #52]	; (8007e94 <LoopFillZerobss+0x2a>)
 8007e60:	f000 b803 	b.w	8007e6a <LoopFillZerobss>

08007e64 <FillZerobss>:
 8007e64:	2300      	movs	r3, #0
 8007e66:	f842 3b04 	str.w	r3, [r2], #4

08007e6a <LoopFillZerobss>:
 8007e6a:	4b0b      	ldr	r3, [pc, #44]	; (8007e98 <LoopFillZerobss+0x2e>)
 8007e6c:	429a      	cmp	r2, r3
 8007e6e:	f4ff aff9 	bcc.w	8007e64 <FillZerobss>
 8007e72:	480a      	ldr	r0, [pc, #40]	; (8007e9c <LoopFillZerobss+0x32>)
 8007e74:	6801      	ldr	r1, [r0, #0]
 8007e76:	f441 0170 	orr.w	r1, r1, #15728640	; 0xf00000
 8007e7a:	6001      	str	r1, [r0, #0]
 8007e7c:	f7f8 fa48 	bl	8000310 <SystemInit>
 8007e80:	f000 f810 	bl	8007ea4 <main>
 8007e84:	4770      	bx	lr
 8007e86:	83a80000 			; <UNDEFINED> instruction: 0x83a80000
 8007e8a:	00000800 	andeq	r0, r0, r0, lsl #16
 8007e8e:	01542000 	cmpeq	r4, r0
 8007e92:	01582000 	cmpeq	r8, r0
 8007e96:	0db02000 	ldceq	0, cr2, [r0]
 8007e9a:	ed882000 	stc	0, cr2, [r8]
 8007e9e:	f7ffe000 			; <UNDEFINED> instruction: 0xf7ffe000

08007ea0 <ADC_IRQHandler>:
 8007ea0:	f7ff bffe 	b.w	8007ea0 <ADC_IRQHandler>

08007ea4 <main>:
 8007ea4:	b530      	push	{r4, r5, lr}
 8007ea6:	b085      	sub	sp, #20
 8007ea8:	f7f9 fe9c 	bl	8001be4 <LEDInit>
 8007eac:	f240 047c 	movw	r4, #124	; 0x7c
 8007eb0:	f7f8 fd84 	bl	80009bc <vUSBQueueInit>
 8007eb4:	f7fa fac8 	bl	8002448 <InitFastCounter>
 8007eb8:	f7f8 ff84 	bl	8000dc4 <InitSensorBus>
 8007ebc:	f7f9 fee2 	bl	8001c84 <InitMPU6050>
 8007ec0:	f240 209c 	movw	r0, #668	; 0x29c
 8007ec4:	f240 0260 	movw	r2, #96	; 0x60
 8007ec8:	f240 03f8 	movw	r3, #248	; 0xf8
 8007ecc:	f2c2 0000 	movt	r0, #8192	; 0x2000
 8007ed0:	2101      	movs	r1, #1
 8007ed2:	f2c2 0200 	movt	r2, #8192	; 0x2000
 8007ed6:	f2c2 0300 	movt	r3, #8192	; 0x2000
 8007eda:	f2c2 0400 	movt	r4, #8192	; 0x2000
 8007ede:	9400      	str	r4, [sp, #0]
 8007ee0:	f7fe f974 	bl	80061cc <USBD_Init>
 8007ee4:	2400      	movs	r4, #0
 8007ee6:	f7fa f941 	bl	800216c <vInitSerialManager>
 8007eea:	f640 100d 	movw	r0, #2317	; 0x90d
 8007eee:	f248 219c 	movw	r1, #33436	; 0x829c
 8007ef2:	f6c0 0100 	movt	r1, #2048	; 0x800
 8007ef6:	f44f 7280 	mov.w	r2, #256	; 0x100
 8007efa:	4623      	mov	r3, r4
 8007efc:	2501      	movs	r5, #1
 8007efe:	f6c0 0000 	movt	r0, #2048	; 0x800
 8007f02:	9500      	str	r5, [sp, #0]
 8007f04:	9401      	str	r4, [sp, #4]
 8007f06:	9402      	str	r4, [sp, #8]
 8007f08:	9403      	str	r4, [sp, #12]
 8007f0a:	f7fa fd17 	bl	800293c <xTaskGenericCreate>
 8007f0e:	f7fa fe9d 	bl	8002c4c <vTaskStartScheduler>
 8007f12:	e7fe      	b.n	8007f12 <main+0x6e>

08007f14 <prvCopyDataFromQueue>:
 8007f14:	b430      	push	{r4, r5}
 8007f16:	6805      	ldr	r5, [r0, #0]
 8007f18:	4603      	mov	r3, r0
 8007f1a:	b165      	cbz	r5, 8007f36 <prvCopyDataFromQueue+0x22>
 8007f1c:	68c4      	ldr	r4, [r0, #12]
 8007f1e:	6c02      	ldr	r2, [r0, #64]	; 0x40
 8007f20:	6840      	ldr	r0, [r0, #4]
 8007f22:	18a4      	adds	r4, r4, r2
 8007f24:	4284      	cmp	r4, r0
 8007f26:	60dc      	str	r4, [r3, #12]
 8007f28:	bf28      	it	cs
 8007f2a:	60dd      	strcs	r5, [r3, #12]
 8007f2c:	4608      	mov	r0, r1
 8007f2e:	68d9      	ldr	r1, [r3, #12]
 8007f30:	bc30      	pop	{r4, r5}
 8007f32:	f7ff be8f 	b.w	8007c54 <memcpy>
 8007f36:	bc30      	pop	{r4, r5}
 8007f38:	4770      	bx	lr
 8007f3a:	bf00      	nop

08007f3c <prvCopyDataToQueue>:
 8007f3c:	6c03      	ldr	r3, [r0, #64]	; 0x40
 8007f3e:	b510      	push	{r4, lr}
 8007f40:	4604      	mov	r4, r0
 8007f42:	b1eb      	cbz	r3, 8007f80 <prvCopyDataToQueue+0x44>
 8007f44:	b96a      	cbnz	r2, 8007f62 <prvCopyDataToQueue+0x26>
 8007f46:	461a      	mov	r2, r3
 8007f48:	6880      	ldr	r0, [r0, #8]
 8007f4a:	f7ff fe83 	bl	8007c54 <memcpy>
 8007f4e:	68a1      	ldr	r1, [r4, #8]
 8007f50:	6c20      	ldr	r0, [r4, #64]	; 0x40
 8007f52:	6862      	ldr	r2, [r4, #4]
 8007f54:	180b      	adds	r3, r1, r0
 8007f56:	4293      	cmp	r3, r2
 8007f58:	60a3      	str	r3, [r4, #8]
 8007f5a:	d311      	bcc.n	8007f80 <prvCopyDataToQueue+0x44>
 8007f5c:	6822      	ldr	r2, [r4, #0]
 8007f5e:	60a2      	str	r2, [r4, #8]
 8007f60:	e00e      	b.n	8007f80 <prvCopyDataToQueue+0x44>
 8007f62:	461a      	mov	r2, r3
 8007f64:	68c0      	ldr	r0, [r0, #12]
 8007f66:	f7ff fe75 	bl	8007c54 <memcpy>
 8007f6a:	6c22      	ldr	r2, [r4, #64]	; 0x40
 8007f6c:	68e1      	ldr	r1, [r4, #12]
 8007f6e:	6820      	ldr	r0, [r4, #0]
 8007f70:	4252      	negs	r2, r2
 8007f72:	188b      	adds	r3, r1, r2
 8007f74:	4283      	cmp	r3, r0
 8007f76:	60e3      	str	r3, [r4, #12]
 8007f78:	d202      	bcs.n	8007f80 <prvCopyDataToQueue+0x44>
 8007f7a:	6863      	ldr	r3, [r4, #4]
 8007f7c:	1898      	adds	r0, r3, r2
 8007f7e:	60e0      	str	r0, [r4, #12]
 8007f80:	6ba2      	ldr	r2, [r4, #56]	; 0x38
 8007f82:	1c51      	adds	r1, r2, #1
 8007f84:	63a1      	str	r1, [r4, #56]	; 0x38
 8007f86:	bd10      	pop	{r4, pc}

08007f88 <crc8_table>:
 8007f88:	090e0700 	stmdbeq	lr, {r8, r9, sl}
 8007f8c:	15121b1c 	ldrne	r1, [r2, #-2844]	; 0xfffff4e4
 8007f90:	31363f38 	teqcc	r6, r8, lsr pc
 8007f94:	2d2a2324 	stccs	3, cr2, [sl, #-144]!	; 0xffffff70
 8007f98:	797e7770 	ldmdbvc	lr!, {r4, r5, r6, r8, r9, sl, ip, sp, lr}^
 8007f9c:	65626b6c 	strbvs	r6, [r2, #-2924]!	; 0xfffff494
 8007fa0:	41464f48 	cmpmi	r6, r8, asr #30
 8007fa4:	5d5a5354 	ldclpl	3, cr5, [sl, #-336]	; 0xfffffeb0
 8007fa8:	e9eee7e0 	stmib	lr!, {r5, r6, r7, r8, r9, sl, sp, lr, pc}^
 8007fac:	f5f2fbfc 			; <UNDEFINED> instruction: 0xf5f2fbfc
 8007fb0:	d1d6dfd8 	ldrsble	sp, [r6, #248]	; 0xf8
 8007fb4:	cdcac3c4 	stclgt	3, cr12, [sl, #784]	; 0x310
 8007fb8:	999e9790 	ldmibls	lr, {r4, r7, r8, r9, sl, ip, pc}
 8007fbc:	85828b8c 	strhi	r8, [r2, #2956]	; 0xb8c
 8007fc0:	a1a6afa8 			; <UNDEFINED> instruction: 0xa1a6afa8
 8007fc4:	bdbab3b4 	ldclt	3, cr11, [sl, #720]!	; 0x2d0
 8007fc8:	cec9c0c7 	cdpgt	0, 12, cr12, cr9, cr7, {6}
 8007fcc:	d2d5dcdb 	sbcsle	sp, r5, #56064	; 0xdb00
 8007fd0:	f6f1f8ff 			; <UNDEFINED> instruction: 0xf6f1f8ff
 8007fd4:	eaede4e3 	b	7b81368 <_Min_Stack_Size+0x7b80f68>
 8007fd8:	beb9b0b7 	mrclt	0, 5, fp, cr9, cr7, {5}
 8007fdc:	a2a5acab 	adcge	sl, r5, #43776	; 0xab00
 8007fe0:	8681888f 	strhi	r8, [r1], pc, lsl #17
 8007fe4:	9a9d9493 	bls	676d238 <_Min_Stack_Size+0x676ce38>
 8007fe8:	2e292027 	cdpcs	0, 2, cr2, cr9, cr7, {1}
 8007fec:	32353c3b 	eorscc	r3, r5, #15104	; 0x3b00
 8007ff0:	1611181f 			; <UNDEFINED> instruction: 0x1611181f
 8007ff4:	0a0d0403 	beq	8349008 <_sidata+0x340c60>
 8007ff8:	5e595057 	mrcpl	0, 2, r5, cr9, cr7, {2}
 8007ffc:	42454c4b 	submi	r4, r5, #19200	; 0x4b00
 8008000:	6661686f 	strbtvs	r6, [r1], -pc, ror #16
 8008004:	7a7d7473 	bvc	9f651d8 <_sidata+0x1f5ce30>
 8008008:	80878e89 	addhi	r8, r7, r9, lsl #29
 800800c:	9c9b9295 	lfmls	f1, 1, [fp], {149}	; 0x95
 8008010:	b8bfb6b1 	ldmlt	pc!, {r0, r4, r5, r7, r9, sl, ip, sp, pc}	; <UNPREDICTABLE>
 8008014:	a4a3aaad 	strtge	sl, [r3], #2733	; 0xaad
 8008018:	f0f7fef9 			; <UNDEFINED> instruction: 0xf0f7fef9
 800801c:	ecebe2e5 	sfm	f6, 3, [fp], #916	; 0x394
 8008020:	c8cfc6c1 	stmiagt	pc, {r0, r6, r7, r9, sl, lr, pc}^	; <UNPREDICTABLE>
 8008024:	d4d3dadd 	ldrble	sp, [r3], #2781	; 0xadd
 8008028:	60676e69 	rsbvs	r6, r7, r9, ror #28
 800802c:	7c7b7275 	lfmvc	f7, 2, [fp], #-468	; 0xfffffe2c
 8008030:	585f5651 	ldmdapl	pc, {r0, r4, r6, r9, sl, ip, lr}^	; <UNPREDICTABLE>
 8008034:	44434a4d 	strbmi	r4, [r3], #-2637	; 0xfffff5b3
 8008038:	10171e19 	andsne	r1, r7, r9, lsl lr
 800803c:	0c0b0205 	sfmeq	f0, 4, [fp], {5}
 8008040:	282f2621 	stmdacs	pc!, {r0, r5, r9, sl, sp}	; <UNPREDICTABLE>
 8008044:	34333a3d 	ldrtcc	r3, [r3], #-2621	; 0xfffff5c3
 8008048:	4740494e 	strbmi	r4, [r0, -lr, asr #18]
 800804c:	5b5c5552 	blpl	971d59c <_sidata+0x17151f4>
 8008050:	7f787176 	svcvc	0x00787176
 8008054:	63646d6a 	cmnvs	r4, #6784	; 0x1a80
 8008058:	3730393e 			; <UNDEFINED> instruction: 0x3730393e
 800805c:	2b2c2522 	blcs	8b114ec <_sidata+0xb09144>
 8008060:	0f080106 	svceq	0x00080106
 8008064:	13141d1a 	tstne	r4, #1664	; 0x680
 8008068:	a7a0a9ae 	strge	sl, [r0, lr, lsr #19]!
 800806c:	bbbcb5b2 	bllt	6f3573c <_Min_Stack_Size+0x6f3533c>
 8008070:	9f989196 	svcls	0x00989196
 8008074:	83848d8a 	orrhi	r8, r4, #8832	; 0x2280
 8008078:	d7d0d9de 			; <UNDEFINED> instruction: 0xd7d0d9de
 800807c:	cbccc5c2 	blgt	733978c <_Min_Stack_Size+0x733938c>
 8008080:	efe8e1e6 	svc	0x00e8e1e6
 8008084:	f3f4fdfa 			; <UNDEFINED> instruction: 0xf3f4fdfa

08008088 <crc16_table>:
 8008088:	10210000 	eorne	r0, r1, r0
 800808c:	30632042 	rsbcc	r2, r3, r2, asr #32
 8008090:	50a54084 	adcpl	r4, r5, r4, lsl #1
 8008094:	70e760c6 	rscvc	r6, r7, r6, asr #1
 8008098:	91298108 	teqls	r9, r8, lsl #2
 800809c:	b16ba14a 	cmnlt	fp, sl, asr #2
 80080a0:	d1adc18c 			; <UNDEFINED> instruction: 0xd1adc18c
 80080a4:	f1efe1ce 			; <UNDEFINED> instruction: 0xf1efe1ce
 80080a8:	02101231 	andseq	r1, r0, #268435459	; 0x10000003
 80080ac:	22523273 	subscs	r3, r2, #805306375	; 0x30000007
 80080b0:	429452b5 	addsmi	r5, r4, #1342177291	; 0x5000000b
 80080b4:	62d672f7 	sbcsvs	r7, r6, #1879048207	; 0x7000000f
 80080b8:	83189339 	tsthi	r8, #-469762048	; 0xe4000000
 80080bc:	a35ab37b 	cmpge	sl, #-335544319	; 0xec000001
 80080c0:	c39cd3bd 	orrsgt	sp, ip, #-201326590	; 0xf4000002
 80080c4:	e3def3ff 	bics	pc, lr, #-67108861	; 0xfc000003
 80080c8:	34432462 	strbcc	r2, [r3], #-1122	; 0xfffffb9e
 80080cc:	14010420 	strne	r0, [r1], #-1056	; 0xfffffbe0
 80080d0:	74c764e6 	strbvc	r6, [r7], #1254	; 0x4e6
 80080d4:	548544a4 	strpl	r4, [r5], #1188	; 0x4a4
 80080d8:	b54ba56a 	strblt	sl, [fp, #-1386]	; 0xfffffa96
 80080dc:	95098528 	strls	r8, [r9, #-1320]	; 0xfffffad8
 80080e0:	f5cfe5ee 			; <UNDEFINED> instruction: 0xf5cfe5ee
 80080e4:	d58dc5ac 	strle	ip, [sp, #1452]	; 0x5ac
 80080e8:	26723653 			; <UNDEFINED> instruction: 0x26723653
 80080ec:	06301611 			; <UNDEFINED> instruction: 0x06301611
 80080f0:	66f676d7 	usatvs	r7, #22, r7, asr #13
 80080f4:	46b45695 	ssatmi	r5, #21, r5, lsl #13
 80080f8:	a77ab75b 			; <UNDEFINED> instruction: 0xa77ab75b
 80080fc:	87389719 			; <UNDEFINED> instruction: 0x87389719
 8008100:	e7fef7df 	ubfx	pc, pc, #15, #31
 8008104:	c7bcd79d 			; <UNDEFINED> instruction: 0xc7bcd79d
 8008108:	58e548c4 	stmiapl	r5!, {r2, r6, r7, fp, lr}^
 800810c:	78a76886 	stmiavc	r7!, {r1, r2, r7, fp, sp, lr}
 8008110:	18610840 	stmdane	r1!, {r6, fp}^
 8008114:	38232802 	stmdacc	r3!, {r1, fp, sp}
 8008118:	d9edc9cc 	stmible	sp!, {r2, r3, r6, r7, r8, fp, lr, pc}^
 800811c:	f9afe98e 			; <UNDEFINED> instruction: 0xf9afe98e
 8008120:	99698948 	stmdbls	r9!, {r3, r6, r8, fp, pc}^
 8008124:	b92ba90a 	stmdblt	fp!, {r1, r3, r8, fp, sp, pc}
 8008128:	4ad45af5 	bmi	751ed04 <_Min_Stack_Size+0x751e904>
 800812c:	6a967ab7 	bvs	65a6c10 <_Min_Stack_Size+0x65a6810>
 8008130:	0a501a71 	beq	940eafc <_sidata+0x1406754>
 8008134:	2a123a33 	bcs	8496a08 <_sidata+0x48e660>
 8008138:	cbdcdbfd 	blgt	773f134 <_Min_Stack_Size+0x773ed34>
 800813c:	eb9efbbf 	bl	67c7040 <_Min_Stack_Size+0x67c6c40>
 8008140:	8b589b79 	blhi	962ef2c <_sidata+0x1626b84>
 8008144:	ab1abb3b 	blge	86b6e38 <_sidata+0x6aea90>
 8008148:	7c876ca6 	stcvc	12, cr6, [r7], {166}	; 0xa6
 800814c:	5cc54ce4 	stclpl	12, cr4, [r5], {228}	; 0xe4
 8008150:	3c032c22 	stccc	12, cr2, [r3], {34}	; 0x22
 8008154:	1c410c60 	mcrrne	12, 6, r0, r1, cr0
 8008158:	fd8fedae 	stc2	13, cr14, [pc, #696]	; 8008418 <_sidata+0x70>
 800815c:	ddcdcdec 	stclle	13, cr12, [sp, #944]	; 0x3b0
 8008160:	bd0bad2a 	stclt	13, cr10, [fp, #-168]	; 0xffffff58
 8008164:	9d498d68 	stclls	13, cr8, [r9, #-416]	; 0xfffffe60
 8008168:	6eb67e97 	mrcvs	14, 5, r7, cr6, cr7, {4}
 800816c:	4ef45ed5 	mrcmi	14, 7, r5, cr4, cr5, {6}
 8008170:	2e323e13 	mrccs	14, 1, r3, cr2, cr3, {0}
 8008174:	0e701e51 	mrceq	14, 3, r1, cr0, cr1, {2}
 8008178:	efbeff9f 	svc	0x00beff9f
 800817c:	cffcdfdd 	svcgt	0x00fcdfdd
 8008180:	af3abf1b 	svcge	0x003abf1b
 8008184:	8f789f59 	svchi	0x00789f59
 8008188:	81a99188 			; <UNDEFINED> instruction: 0x81a99188
 800818c:	a1ebb1ca 	mvnge	fp, sl, asr #3
 8008190:	c12dd10c 	teqgt	sp, ip, lsl #2
 8008194:	e16ff14e 	msr	SPSR_fsxc, lr, asr #2
 8008198:	00a11080 	adceq	r1, r1, r0, lsl #1
 800819c:	20e330c2 	rsccs	r3, r3, r2, asr #1
 80081a0:	40255004 	eormi	r5, r5, r4
 80081a4:	60677046 	rsbvs	r7, r7, r6, asr #32
 80081a8:	939883b9 	orrsls	r8, r8, #-469762046	; 0xe4000002
 80081ac:	b3daa3fb 	bicslt	sl, sl, #-335544317	; 0xec000003
 80081b0:	d31cc33d 	tstle	ip, #-201326592	; 0xf4000000
 80081b4:	f35ee37f 	vcge.u16	q15, q7, <illegal reg q15.5>
 80081b8:	129002b1 	addsne	r0, r0, #268435467	; 0x1000000b
 80081bc:	32d222f3 	sbcscc	r2, r2, #805306383	; 0x3000000f
 80081c0:	52144235 	andspl	r4, r4, #1342177283	; 0x50000003
 80081c4:	72566277 	subsvc	r6, r6, #1879048199	; 0x70000007
 80081c8:	a5cbb5ea 	strbge	fp, [fp, #1514]	; 0x5ea
 80081cc:	858995a8 	strhi	r9, [r9, #1448]	; 0x5a8
 80081d0:	e54ff56e 	strb	pc, [pc, #-1390]	; 8007c6a <memcpy+0x16>	; <UNPREDICTABLE>
 80081d4:	c50dd52c 	strgt	sp, [sp, #-1324]	; 0xfffffad4
 80081d8:	24c334e2 	strbcs	r3, [r3], #1250	; 0x4e2
 80081dc:	048114a0 	streq	r1, [r1], #1184	; 0x4a0
 80081e0:	64477466 	strbvs	r7, [r7], #-1126	; 0xfffffb9a
 80081e4:	44055424 	strmi	r5, [r5], #-1060	; 0xfffffbdc
 80081e8:	b7faa7db 	ubfxlt	sl, fp, #15, #27
 80081ec:	97b88799 			; <UNDEFINED> instruction: 0x97b88799
 80081f0:	f77ee75f 			; <UNDEFINED> instruction: 0xf77ee75f
 80081f4:	d73cc71d 			; <UNDEFINED> instruction: 0xd73cc71d
 80081f8:	36f226d3 	usatcc	r2, #18, r3, asr #13
 80081fc:	16b00691 	ssatne	r0, #17, r1, lsl #13
 8008200:	76766657 			; <UNDEFINED> instruction: 0x76766657
 8008204:	56344615 			; <UNDEFINED> instruction: 0x56344615
 8008208:	c96dd94c 	stmdbgt	sp!, {r2, r3, r6, r8, fp, ip, lr, pc}^
 800820c:	e92ff90e 	stmdb	pc!, {r1, r2, r3, r8, fp, ip, sp, lr, pc}	; <UNPREDICTABLE>
 8008210:	89e999c8 	stmibhi	r9!, {r3, r6, r7, r8, fp, ip, pc}^
 8008214:	a9abb98a 	stmibge	fp!, {r1, r3, r7, r8, fp, ip, sp, pc}
 8008218:	48655844 	stmdami	r5!, {r2, r6, fp, ip, lr}^
 800821c:	68277806 	stmdavs	r7!, {r1, r2, fp, ip, sp, lr}
 8008220:	08e118c0 	stmiaeq	r1!, {r6, r7, fp, ip}^
 8008224:	28a33882 	stmiacs	r3!, {r1, r7, fp, ip, sp}
 8008228:	db5ccb7d 	blle	973b024 <_sidata+0x1732c7c>
 800822c:	fb1eeb3f 	blx	87c2f32 <_sidata+0x7bab8a>
 8008230:	9bd88bf9 	blls	762b21c <_Min_Stack_Size+0x762ae1c>
 8008234:	bb9aabbb 	bllt	66b3128 <_Min_Stack_Size+0x66b2d28>
 8008238:	5a544a75 	bpl	951ac14 <_sidata+0x151286c>
 800823c:	7a166a37 	bvc	85a2b20 <_sidata+0x59a778>
 8008240:	1ad00af1 	bne	740ae0c <_Min_Stack_Size+0x740aa0c>
 8008244:	3a922ab3 	bcc	6492d18 <_Min_Stack_Size+0x6492918>
 8008248:	ed0ffd2e 	stc	13, cr15, [pc, #-184]	; 8008198 <crc16_table+0x110>
 800824c:	cd4ddd6c 	stclgt	13, cr13, [sp, #-432]	; 0xfffffe50
 8008250:	ad8bbdaa 	stcge	13, cr11, [fp, #680]	; 0x2a8
 8008254:	8dc99de8 	stclhi	13, cr9, [r9, #928]	; 0x3a0
 8008258:	6c077c26 	stcvs	12, cr7, [r7], {38}	; 0x26
 800825c:	4c455c64 	mcrrmi	12, 6, r5, r5, cr4
 8008260:	2c833ca2 	stccs	12, cr3, [r3], {162}	; 0xa2
 8008264:	0cc11ce0 	stcleq	12, cr1, [r1], {224}	; 0xe0
 8008268:	ff3eef1f 			; <UNDEFINED> instruction: 0xff3eef1f
 800826c:	df7ccf5d 	svcle	0x007ccf5d
 8008270:	bfbaaf9b 	svclt	0x00baaf9b
 8008274:	9ff88fd9 	svcls	0x00f88fd9
 8008278:	7e366e17 	mrcvc	14, 1, r6, cr6, cr7, {0}
 800827c:	5e744e55 	mrcpl	14, 3, r4, cr4, cr5, {2}
 8008280:	3eb22e93 	mrccc	14, 5, r2, cr2, cr3, {4}
 8008284:	1ef00ed1 	mrcne	14, 7, r0, cr0, cr1, {6}

08008288 <GPIO_PIN>:
 8008288:	00020001 	andeq	r0, r2, r1

0800828c <GPIO_CLK>:
 800828c:	00000002 	andeq	r0, r0, r2
 8008290:	00000002 	andeq	r0, r0, r2

08008294 <ulKernelPriority>:
 8008294:	000000f0 	strdeq	r0, [r0], -r0	; <UNPREDICTABLE>

08008298 <CSWTCH.2>:
 8008298:	00020102 	andeq	r0, r2, r2, lsl #2
 800829c:	454d4954 	strbmi	r4, [sp, #-2388]	; 0xfffff6ac
 80082a0:	00000052 	andeq	r0, r0, r2, asr r0
 80082a4:	33323130 	teqcc	r2, #48, 2
 80082a8:	37363534 			; <UNDEFINED> instruction: 0x37363534
 80082ac:	00003938 	andeq	r3, r0, r8, lsr r9
 80082b0:	00000036 	andeq	r0, r0, r6, lsr r0
 80082b4:	00000033 	andeq	r0, r0, r3, lsr r0
 80082b8:	00000032 	andeq	r0, r0, r2, lsr r0
 80082bc:	00000034 	andeq	r0, r0, r4, lsr r0
 80082c0:	00000031 	andeq	r0, r0, r1, lsr r0
 80082c4:	69726553 	ldmdbvs	r2!, {r0, r1, r4, r6, r8, sl, sp, lr}^
 80082c8:	614d6c61 	cmpvs	sp, r1, ror #24
 80082cc:	6567616e 	strbvs	r6, [r7, #-366]!	; 0xfffffe92
 80082d0:	53552872 	cmppl	r5, #7471104	; 0x720000
 80082d4:	00002942 	andeq	r2, r0, r2, asr #18
 80082d8:	00000037 	andeq	r0, r0, r7, lsr r0
 80082dc:	00004b4f 	andeq	r4, r0, pc, asr #22
 80082e0:	00000035 	andeq	r0, r0, r5, lsr r0
 80082e4:	694d5453 	stmdbvs	sp, {r0, r1, r4, r6, sl, ip, lr}^
 80082e8:	656f7263 	strbvs	r7, [pc, #-611]!	; 800808d <crc16_table+0x5>
 80082ec:	7463656c 	strbtvc	r6, [r3], #-1388	; 0xfffffa94
 80082f0:	696e6f72 	stmdbvs	lr!, {r1, r4, r5, r6, r8, r9, sl, fp, sp, lr}^
 80082f4:	00007363 	andeq	r7, r0, r3, ror #6
 80082f8:	20504356 	subscs	r4, r0, r6, asr r3
 80082fc:	65746e49 	ldrbvs	r6, [r4, #-3657]!	; 0xfffff1b7
 8008300:	63616672 	cmnvs	r1, #119537664	; 0x7200000
 8008304:	00000065 	andeq	r0, r0, r5, rrx
 8008308:	20504356 	subscs	r4, r0, r6, asr r3
 800830c:	666e6f43 	strbtvs	r6, [lr], -r3, asr #30
 8008310:	00006769 	andeq	r6, r0, r9, ror #14
 8008314:	30303030 	eorscc	r3, r0, r0, lsr r0
 8008318:	30303030 	eorscc	r3, r0, r0, lsr r0
 800831c:	42303530 	eorsmi	r3, r0, #48, 10	; 0xc000000
 8008320:	00000000 	andeq	r0, r0, r0
 8008324:	30303030 	eorscc	r3, r0, r0, lsr r0
 8008328:	30303030 	eorscc	r3, r0, r0, lsr r0
 800832c:	43303530 	teqmi	r0, #48, 10	; 0xc000000
 8008330:	00000000 	andeq	r0, r0, r0
 8008334:	334d5453 	movtcc	r5, #54355	; 0xd453
 8008338:	69562032 	ldmdbvs	r6, {r1, r4, r5, sp}^
 800833c:	61757472 	cmnvs	r5, r2, ror r4
 8008340:	6f43206c 	svcvs	0x0043206c
 8008344:	726f506d 	rsbvc	r5, pc, #109	; 0x6d
 8008348:	6e692074 	mcrvs	0, 3, r2, cr9, cr4, {3}
 800834c:	20534820 	subscs	r4, r3, r0, lsr #16
 8008350:	65646f6d 	strbvs	r6, [r4, #-3949]!	; 0xfffff093
 8008354:	00000000 	andeq	r0, r0, r0
 8008358:	334d5453 	movtcc	r5, #54355	; 0xd453
 800835c:	69562032 	ldmdbvs	r6, {r1, r4, r5, sp}^
 8008360:	61757472 	cmnvs	r5, r2, ror r4
 8008364:	6f43206c 	svcvs	0x0043206c
 8008368:	726f506d 	rsbvc	r5, pc, #109	; 0x6d
 800836c:	6e692074 	mcrvs	0, 3, r2, cr9, cr4, {3}
 8008370:	20534620 	subscs	r4, r3, r0, lsr #12
 8008374:	65646f4d 	strbvs	r6, [r4, #-3917]!	; 0xfffff0b3
 8008378:	00000000 	andeq	r0, r0, r0
 800837c:	454c4449 	strbmi	r4, [ip, #-1097]	; 0xfffffbb7
 8008380:	00000000 	andeq	r0, r0, r0

08008384 <__EH_FRAME_BEGIN__>:
 8008384:	00000000 	andeq	r0, r0, r0

08008388 <_init>:
 8008388:	b5f8      	push	{r3, r4, r5, r6, r7, lr}
 800838a:	bf00      	nop
 800838c:	bcf8      	pop	{r3, r4, r5, r6, r7}
 800838e:	bc08      	pop	{r3}
 8008390:	469e      	mov	lr, r3
 8008392:	4770      	bx	lr

08008394 <_fini>:
 8008394:	b5f8      	push	{r3, r4, r5, r6, r7, lr}
 8008396:	bf00      	nop
 8008398:	bcf8      	pop	{r3, r4, r5, r6, r7}
 800839a:	bc08      	pop	{r3}
 800839c:	469e      	mov	lr, r3
 800839e:	4770      	bx	lr

Disassembly of section .init_array:

080083a0 <__exidx_end>:
 80083a0:	080001d1 	stmdaeq	r0, {r0, r4, r6, r7, r8}

Disassembly of section .fini_array:

080083a4 <__do_global_dtors_aux_fini_array_entry>:
 80083a4:	080001a5 	stmdaeq	r0, {r0, r2, r5, r7, r8}

Disassembly of section .data:

20000000 <__dso_handle>:
20000000:	00000000 	andeq	r0, r0, r0

20000004 <AHBPrescTable>:
	...
2000000c:	04030201 	streq	r0, [r3], #-513	; 0xfffffdff
20000010:	09080706 	stmdbeq	r8, {r1, r2, r8, r9, sl}

20000014 <SystemCoreClock>:
20000014:	0a037a00 	beq	200de81c <_estack+0xbe81c>

20000018 <send.8511>:
20000018:	0000000a 	andeq	r0, r0, sl

2000001c <GPIO_PORT>:
2000001c:	40020400 	andmi	r0, r2, r0, lsl #8
20000020:	40020400 	andmi	r0, r2, r0, lsl #8

20000024 <send.8513>:
20000024:	00003b75 	andeq	r3, r0, r5, ror fp

20000025 <send.8518>:
20000025:	e900003b 	stmdb	r0, {r0, r1, r3, r4, r5}

20000028 <cdc_fops>:
20000028:	080025e9 	stmdaeq	r0, {r0, r3, r5, r6, r7, r8, sl, sp}
2000002c:	080025ed 	stmdaeq	r0, {r0, r2, r3, r5, r6, r7, r8, sl, sp}
20000030:	080025f1 	stmdaeq	r0, {r0, r4, r5, r6, r7, r8, sl, sp}
20000034:	080025f5 	stmdaeq	r0, {r0, r2, r4, r5, r6, r7, r8, sl, sp}
20000038:	08002699 	stmdaeq	r0, {r0, r3, r4, r7, r9, sl, sp}

2000003c <USBD_DeviceDesc>:
2000003c:	02000112 	andeq	r0, r0, #-2147483644	; 0x80000004
20000040:	08000000 	stmdaeq	r0, {}	; <UNPREDICTABLE>
20000044:	57400483 	strbpl	r0, [r0, -r3, lsl #9]
20000048:	02010200 	andeq	r0, r1, #0, 4
2000004c:	00000103 	andeq	r0, r0, r3, lsl #2

20000050 <USBD_LangIDDesc>:
20000050:	04090304 	streq	r0, [r9], #-772	; 0xfffffcfc

20000054 <USBD_DeviceQualifierDesc>:
20000054:	0200060a 	andeq	r0, r0, #10485760	; 0xa00000
20000058:	40000000 	andmi	r0, r0, r0
2000005c:	00000001 	andeq	r0, r0, r1

20000060 <USR_desc>:
20000060:	08002711 	stmdaeq	r0, {r0, r4, r8, r9, sl, sp}
20000064:	08002721 	stmdaeq	r0, {r0, r5, r8, r9, sl, sp}
20000068:	0800272d 	stmdaeq	r0, {r0, r2, r3, r5, r8, r9, sl, sp}
2000006c:	080027d9 	stmdaeq	r0, {r0, r3, r4, r6, r7, r8, r9, sl, sp}
20000070:	08002795 	stmdaeq	r0, {r0, r2, r4, r7, r8, r9, sl, sp}
20000074:	08002771 	stmdaeq	r0, {r0, r4, r5, r6, r8, r9, sl, sp}
20000078:	0800274d 	stmdaeq	r0, {r0, r2, r3, r6, r8, r9, sl, sp}

2000007c <USR_cb>:
2000007c:	0800281d 	stmdaeq	r0, {r0, r2, r3, r4, fp, sp}
20000080:	08002821 	stmdaeq	r0, {r0, r5, fp, sp}
20000084:	08002839 	stmdaeq	r0, {r0, r3, r4, r5, fp, sp}
20000088:	0800284d 	stmdaeq	r0, {r0, r2, r3, r6, fp, sp}
2000008c:	08002825 	stmdaeq	r0, {r0, r2, r5, fp, sp}
	...

20000098 <xNextTaskUnblockTime>:
20000098:	ffffffff 			; <UNDEFINED> instruction: 0xffffffff

2000009c <uxCriticalNesting>:
2000009c:	aaaaaaaa 	bge	1eaaab4c <xHeap+0xeaaab4c>

200000a0 <APBAHBPrescTable>:
200000a0:	00000000 	andeq	r0, r0, r0
200000a4:	04030201 	streq	r0, [r3], #-513	; 0xfffffdff
200000a8:	04030201 	streq	r0, [r3], #-513	; 0xfffffdff
200000ac:	09080706 	stmdbeq	r8, {r1, r2, r8, r9, sl}

200000b0 <usbd_cdc_CfgDesc>:
200000b0:	00430209 	subeq	r0, r3, r9, lsl #4
200000b4:	c0000102 	andgt	r0, r0, r2, lsl #2
200000b8:	00040932 	andeq	r0, r4, r2, lsr r9
200000bc:	02020100 	andeq	r0, r2, #0, 2
200000c0:	24050001 	strcs	r0, [r5], #-1
200000c4:	05011000 	streq	r1, [r1, #-0]
200000c8:	01000124 	tsteq	r0, r4, lsr #2
200000cc:	02022404 	andeq	r2, r2, #4, 8	; 0x4000000
200000d0:	00062405 	andeq	r2, r6, r5, lsl #8
200000d4:	82050701 	andhi	r0, r5, #262144	; 0x40000
200000d8:	ff000803 			; <UNDEFINED> instruction: 0xff000803
200000dc:	00010409 	andeq	r0, r1, r9, lsl #8
200000e0:	00000a02 	andeq	r0, r0, r2, lsl #20
200000e4:	01050700 	tsteq	r5, r0, lsl #14
200000e8:	00004002 	andeq	r4, r0, r2
200000ec:	02810507 	addeq	r0, r1, #29360128	; 0x1c00000
200000f0:	00000040 	andeq	r0, r0, r0, asr #32

200000f4 <cdcCmd>:
200000f4:	000000ff 	strdeq	r0, [r0], -pc	; <UNPREDICTABLE>

200000f8 <USBD_CDC_cb>:
200000f8:	08005ed9 	stmdaeq	r0, {r0, r3, r4, r6, r7, r9, sl, fp, ip, lr}
200000fc:	08005ead 	stmdaeq	r0, {r0, r2, r3, r5, r7, r9, sl, fp, ip, lr}
20000100:	08005dc1 	stmdaeq	r0, {r0, r6, r7, r8, sl, fp, ip, lr}
20000104:	00000000 	andeq	r0, r0, r0
20000108:	08005f49 	stmdaeq	r0, {r0, r3, r6, r8, r9, sl, fp, ip, lr}
2000010c:	08005f81 	stmdaeq	r0, {r0, r7, r8, r9, sl, fp, ip, lr}
20000110:	08005d81 	stmdaeq	r0, {r0, r7, r8, sl, fp, ip, lr}
20000114:	08005cf5 	stmdaeq	r0, {r0, r2, r4, r5, r6, r7, sl, fp, ip, lr}
	...
20000120:	08005ce5 	stmdaeq	r0, {r0, r2, r5, r6, r7, sl, fp, ip, lr}

20000124 <USBD_DCD_INT_fops>:
20000124:	20000128 	andcs	r0, r0, r8, lsr #2

20000128 <USBD_DCD_INT_cb>:
20000128:	08006151 	stmdaeq	r0, {r0, r4, r6, r8, sp, lr}
2000012c:	080060b1 	stmdaeq	r0, {r0, r4, r5, r7, sp, lr}
20000130:	08006069 	stmdaeq	r0, {r0, r3, r5, r6, sp, lr}
20000134:	08006009 	stmdaeq	r0, {r0, r3, sp, lr}
20000138:	08006039 	stmdaeq	r0, {r0, r3, r4, r5, sp, lr}
2000013c:	08005ff5 	stmdaeq	r0, {r0, r2, r4, r5, r6, r7, r8, r9, sl, fp, ip, lr}
20000140:	08005fdd 	stmdaeq	r0, {r0, r2, r3, r4, r6, r7, r8, r9, sl, fp, ip, lr}
20000144:	08006019 	stmdaeq	r0, {r0, r3, r4, sp, lr}
20000148:	08006029 	stmdaeq	r0, {r0, r3, r5, sp, lr}
	...

Disassembly of section .jcr:

20000154 <__JCR_END__>:
20000154:	00000000 	andeq	r0, r0, r0

Disassembly of section .bss:

20000158 <__bss_start__>:
20000158:	00000000 	andeq	r0, r0, r0

2000015c <object.7427>:
	...

20000174 <xUSBQueue>:
	...

2000017c <status>:
	...

2000017e <whereami>:
	...

2000017f <dataholder>:
	...

20000180 <heap.4003>:
20000180:	00000000 	andeq	r0, r0, r0

20000184 <pxCurrentTCB>:
20000184:	00000000 	andeq	r0, r0, r0

20000188 <xTickCount>:
20000188:	00000000 	andeq	r0, r0, r0

2000018c <pxOverflowDelayedTaskList>:
2000018c:	00000000 	andeq	r0, r0, r0

20000190 <pxDelayedTaskList>:
20000190:	00000000 	andeq	r0, r0, r0

20000194 <uxCurrentNumberOfTasks>:
20000194:	00000000 	andeq	r0, r0, r0

20000198 <pxReadyTasksLists>:
	...

200001fc <xDelayedTaskList1>:
	...

20000210 <xDelayedTaskList2>:
	...

20000224 <xPendingReadyList>:
	...

20000238 <xSuspendedTaskList>:
	...

2000024c <xSchedulerRunning>:
2000024c:	00000000 	andeq	r0, r0, r0

20000250 <uxTopUsedPriority>:
20000250:	00000000 	andeq	r0, r0, r0

20000254 <uxTaskNumber>:
20000254:	00000000 	andeq	r0, r0, r0

20000258 <uxTopReadyPriority>:
20000258:	00000000 	andeq	r0, r0, r0

2000025c <uxSchedulerSuspended>:
2000025c:	00000000 	andeq	r0, r0, r0

20000260 <xNumOfOverflows>:
20000260:	00000000 	andeq	r0, r0, r0

20000264 <uxMissedTicks>:
20000264:	00000000 	andeq	r0, r0, r0

20000268 <xMissedYield>:
20000268:	00000000 	andeq	r0, r0, r0

2000026c <xNextFreeByte>:
2000026c:	00000000 	andeq	r0, r0, r0

20000270 <FrameCount.8325>:
20000270:	00000000 	andeq	r0, r0, r0

20000274 <USB_Tx_State>:
20000274:	00000000 	andeq	r0, r0, r0

20000278 <APP_Rx_ptr_out>:
20000278:	00000000 	andeq	r0, r0, r0

2000027c <APP_Rx_ptr_in>:
2000027c:	00000000 	andeq	r0, r0, r0

20000280 <APP_Rx_length>:
20000280:	00000000 	andeq	r0, r0, r0

20000284 <cdcLen>:
20000284:	00000000 	andeq	r0, r0, r0

20000288 <usbd_cdc_AltSet>:
20000288:	00000000 	andeq	r0, r0, r0

2000028c <USBD_ep_status>:
2000028c:	00000000 	andeq	r0, r0, r0

20000290 <cfgidx.8330>:
20000290:	00000000 	andeq	r0, r0, r0

20000294 <USBD_default_cfg>:
20000294:	00000000 	andeq	r0, r0, r0

20000298 <USBD_cfg_status>:
20000298:	00000000 	andeq	r0, r0, r0

2000029c <USB_OTG_dev>:
	...

2000088c <I2Ctmp>:
	...

200008a4 <I2CMutex>:
	...

200008b0 <xQueueRegistry>:
	...

200008f0 <usbd_cdc_OtherCfgDesc>:
	...

20000934 <USB_Rx_Buffer>:
	...

20000974 <CmdBuff>:
	...

2000097c <APP_Rx_Buffer>:
	...

20000d7c <USBD_StrDesc>:
	...

Disassembly of section ._user_heap_stack:

20000db0 <._user_heap_stack>:
	...

Disassembly of section .rtos_heap:

10000000 <xHeap>:
	...
