
main.elf:     file format elf32-littlearm


Disassembly of section .isr_vector:

08000000 <g_pfnVectors>:
 8000000:	20020000 	andcs	r0, r2, r0
 8000004:	0800364d 	stmdaeq	r0, {r0, r2, r3, r6, r9, sl, ip, sp}
 8000008:	08000189 	stmdaeq	r0, {r0, r3, r7, r8}
 800000c:	0800018d 	stmdaeq	r0, {r0, r2, r3, r7, r8}
 8000010:	08000191 	stmdaeq	r0, {r0, r4, r7, r8}
 8000014:	08000195 	stmdaeq	r0, {r0, r2, r4, r7, r8}
 8000018:	08000199 	stmdaeq	r0, {r0, r3, r4, r7, r8}
	...
 800002c:	0800019d 	stmdaeq	r0, {r0, r2, r3, r4, r7, r8}
 8000030:	080001a1 	stmdaeq	r0, {r0, r5, r7, r8}
 8000034:	00000000 	andeq	r0, r0, r0
 8000038:	080001a5 	stmdaeq	r0, {r0, r2, r5, r7, r8}
 800003c:	080001a9 	stmdaeq	r0, {r0, r3, r5, r7, r8}
 8000040:	080036a9 	stmdaeq	r0, {r0, r3, r5, r7, r9, sl, ip, sp}
 8000044:	080036a9 	stmdaeq	r0, {r0, r3, r5, r7, r9, sl, ip, sp}
 8000048:	080036a9 	stmdaeq	r0, {r0, r3, r5, r7, r9, sl, ip, sp}
 800004c:	080036a9 	stmdaeq	r0, {r0, r3, r5, r7, r9, sl, ip, sp}
 8000050:	080036a9 	stmdaeq	r0, {r0, r3, r5, r7, r9, sl, ip, sp}
 8000054:	080036a9 	stmdaeq	r0, {r0, r3, r5, r7, r9, sl, ip, sp}
 8000058:	080001ed 	stmdaeq	r0, {r0, r2, r3, r5, r6, r7, r8}
 800005c:	080036a9 	stmdaeq	r0, {r0, r3, r5, r7, r9, sl, ip, sp}
 8000060:	080036a9 	stmdaeq	r0, {r0, r3, r5, r7, r9, sl, ip, sp}
 8000064:	080036a9 	stmdaeq	r0, {r0, r3, r5, r7, r9, sl, ip, sp}
 8000068:	080036a9 	stmdaeq	r0, {r0, r3, r5, r7, r9, sl, ip, sp}
 800006c:	080036a9 	stmdaeq	r0, {r0, r3, r5, r7, r9, sl, ip, sp}
 8000070:	080036a9 	stmdaeq	r0, {r0, r3, r5, r7, r9, sl, ip, sp}
 8000074:	080036a9 	stmdaeq	r0, {r0, r3, r5, r7, r9, sl, ip, sp}
 8000078:	080036a9 	stmdaeq	r0, {r0, r3, r5, r7, r9, sl, ip, sp}
 800007c:	080036a9 	stmdaeq	r0, {r0, r3, r5, r7, r9, sl, ip, sp}
 8000080:	080036a9 	stmdaeq	r0, {r0, r3, r5, r7, r9, sl, ip, sp}
 8000084:	080036a9 	stmdaeq	r0, {r0, r3, r5, r7, r9, sl, ip, sp}
 8000088:	080036a9 	stmdaeq	r0, {r0, r3, r5, r7, r9, sl, ip, sp}
 800008c:	080036a9 	stmdaeq	r0, {r0, r3, r5, r7, r9, sl, ip, sp}
 8000090:	080036a9 	stmdaeq	r0, {r0, r3, r5, r7, r9, sl, ip, sp}
 8000094:	080036a9 	stmdaeq	r0, {r0, r3, r5, r7, r9, sl, ip, sp}
 8000098:	080036a9 	stmdaeq	r0, {r0, r3, r5, r7, r9, sl, ip, sp}
 800009c:	080036a9 	stmdaeq	r0, {r0, r3, r5, r7, r9, sl, ip, sp}
 80000a0:	080036a9 	stmdaeq	r0, {r0, r3, r5, r7, r9, sl, ip, sp}
 80000a4:	080036a9 	stmdaeq	r0, {r0, r3, r5, r7, r9, sl, ip, sp}
 80000a8:	080036a9 	stmdaeq	r0, {r0, r3, r5, r7, r9, sl, ip, sp}
 80000ac:	080036a9 	stmdaeq	r0, {r0, r3, r5, r7, r9, sl, ip, sp}
 80000b0:	080036a9 	stmdaeq	r0, {r0, r3, r5, r7, r9, sl, ip, sp}
 80000b4:	080036a9 	stmdaeq	r0, {r0, r3, r5, r7, r9, sl, ip, sp}
 80000b8:	080036a9 	stmdaeq	r0, {r0, r3, r5, r7, r9, sl, ip, sp}
 80000bc:	080036a9 	stmdaeq	r0, {r0, r3, r5, r7, r9, sl, ip, sp}
 80000c0:	080036a9 	stmdaeq	r0, {r0, r3, r5, r7, r9, sl, ip, sp}
 80000c4:	080036a9 	stmdaeq	r0, {r0, r3, r5, r7, r9, sl, ip, sp}
 80000c8:	080036a9 	stmdaeq	r0, {r0, r3, r5, r7, r9, sl, ip, sp}
 80000cc:	080036a9 	stmdaeq	r0, {r0, r3, r5, r7, r9, sl, ip, sp}
 80000d0:	080036a9 	stmdaeq	r0, {r0, r3, r5, r7, r9, sl, ip, sp}
 80000d4:	080036a9 	stmdaeq	r0, {r0, r3, r5, r7, r9, sl, ip, sp}
 80000d8:	080036a9 	stmdaeq	r0, {r0, r3, r5, r7, r9, sl, ip, sp}
 80000dc:	080036a9 	stmdaeq	r0, {r0, r3, r5, r7, r9, sl, ip, sp}
 80000e0:	080036a9 	stmdaeq	r0, {r0, r3, r5, r7, r9, sl, ip, sp}
 80000e4:	080036a9 	stmdaeq	r0, {r0, r3, r5, r7, r9, sl, ip, sp}
 80000e8:	080001ad 	stmdaeq	r0, {r0, r2, r3, r5, r7, r8}
 80000ec:	080036a9 	stmdaeq	r0, {r0, r3, r5, r7, r9, sl, ip, sp}
 80000f0:	080036a9 	stmdaeq	r0, {r0, r3, r5, r7, r9, sl, ip, sp}
 80000f4:	080036a9 	stmdaeq	r0, {r0, r3, r5, r7, r9, sl, ip, sp}
 80000f8:	080036a9 	stmdaeq	r0, {r0, r3, r5, r7, r9, sl, ip, sp}
 80000fc:	080036a9 	stmdaeq	r0, {r0, r3, r5, r7, r9, sl, ip, sp}
 8000100:	080036a9 	stmdaeq	r0, {r0, r3, r5, r7, r9, sl, ip, sp}
 8000104:	080036a9 	stmdaeq	r0, {r0, r3, r5, r7, r9, sl, ip, sp}
 8000108:	080036a9 	stmdaeq	r0, {r0, r3, r5, r7, r9, sl, ip, sp}
 800010c:	080036a9 	stmdaeq	r0, {r0, r3, r5, r7, r9, sl, ip, sp}
 8000110:	080036a9 	stmdaeq	r0, {r0, r3, r5, r7, r9, sl, ip, sp}
 8000114:	080036a9 	stmdaeq	r0, {r0, r3, r5, r7, r9, sl, ip, sp}
 8000118:	080036a9 	stmdaeq	r0, {r0, r3, r5, r7, r9, sl, ip, sp}
 800011c:	080036a9 	stmdaeq	r0, {r0, r3, r5, r7, r9, sl, ip, sp}
 8000120:	080036a9 	stmdaeq	r0, {r0, r3, r5, r7, r9, sl, ip, sp}
 8000124:	080036a9 	stmdaeq	r0, {r0, r3, r5, r7, r9, sl, ip, sp}
 8000128:	080036a9 	stmdaeq	r0, {r0, r3, r5, r7, r9, sl, ip, sp}
 800012c:	080036a9 	stmdaeq	r0, {r0, r3, r5, r7, r9, sl, ip, sp}
 8000130:	080036a9 	stmdaeq	r0, {r0, r3, r5, r7, r9, sl, ip, sp}
 8000134:	080036a9 	stmdaeq	r0, {r0, r3, r5, r7, r9, sl, ip, sp}
 8000138:	080036a9 	stmdaeq	r0, {r0, r3, r5, r7, r9, sl, ip, sp}
 800013c:	080036a9 	stmdaeq	r0, {r0, r3, r5, r7, r9, sl, ip, sp}
 8000140:	080036a9 	stmdaeq	r0, {r0, r3, r5, r7, r9, sl, ip, sp}
 8000144:	080036a9 	stmdaeq	r0, {r0, r3, r5, r7, r9, sl, ip, sp}
 8000148:	080036a9 	stmdaeq	r0, {r0, r3, r5, r7, r9, sl, ip, sp}
 800014c:	080001e1 	stmdaeq	r0, {r0, r5, r6, r7, r8}
 8000150:	080036a9 	stmdaeq	r0, {r0, r3, r5, r7, r9, sl, ip, sp}
 8000154:	080036a9 	stmdaeq	r0, {r0, r3, r5, r7, r9, sl, ip, sp}
 8000158:	080036a9 	stmdaeq	r0, {r0, r3, r5, r7, r9, sl, ip, sp}
 800015c:	080036a9 	stmdaeq	r0, {r0, r3, r5, r7, r9, sl, ip, sp}
 8000160:	080036a9 	stmdaeq	r0, {r0, r3, r5, r7, r9, sl, ip, sp}
 8000164:	080036a9 	stmdaeq	r0, {r0, r3, r5, r7, r9, sl, ip, sp}
 8000168:	080036a9 	stmdaeq	r0, {r0, r3, r5, r7, r9, sl, ip, sp}
 800016c:	080036a9 	stmdaeq	r0, {r0, r3, r5, r7, r9, sl, ip, sp}
 8000170:	080036a9 	stmdaeq	r0, {r0, r3, r5, r7, r9, sl, ip, sp}
 8000174:	080036a9 	stmdaeq	r0, {r0, r3, r5, r7, r9, sl, ip, sp}
 8000178:	080036a9 	stmdaeq	r0, {r0, r3, r5, r7, r9, sl, ip, sp}
 800017c:	080036a9 	stmdaeq	r0, {r0, r3, r5, r7, r9, sl, ip, sp}
 8000180:	080036a9 	stmdaeq	r0, {r0, r3, r5, r7, r9, sl, ip, sp}
 8000184:	080036a9 	stmdaeq	r0, {r0, r3, r5, r7, r9, sl, ip, sp}

Disassembly of section .text:

08000188 <NMI_Handler>:
 8000188:	4770      	bx	lr
 800018a:	bf00      	nop

0800018c <HardFault_Handler>:
 800018c:	e7fe      	b.n	800018c <HardFault_Handler>
 800018e:	bf00      	nop

08000190 <MemManage_Handler>:
 8000190:	e7fe      	b.n	8000190 <MemManage_Handler>
 8000192:	bf00      	nop

08000194 <BusFault_Handler>:
 8000194:	e7fe      	b.n	8000194 <BusFault_Handler>
 8000196:	bf00      	nop

08000198 <UsageFault_Handler>:
 8000198:	e7fe      	b.n	8000198 <UsageFault_Handler>
 800019a:	bf00      	nop

0800019c <SVC_Handler>:
 800019c:	4770      	bx	lr
 800019e:	bf00      	nop

080001a0 <DebugMon_Handler>:
 80001a0:	4770      	bx	lr
 80001a2:	bf00      	nop

080001a4 <PendSV_Handler>:
 80001a4:	4770      	bx	lr
 80001a6:	bf00      	nop

080001a8 <SysTick_Handler>:
 80001a8:	4770      	bx	lr
 80001aa:	bf00      	nop

080001ac <OTG_FS_WKUP_IRQHandler>:
 80001ac:	b510      	push	{r4, lr}
 80001ae:	f240 1484 	movw	r4, #388	; 0x184
 80001b2:	f2c2 0400 	movt	r4, #8192	; 0x2000
 80001b6:	7aa3      	ldrb	r3, [r4, #10]
 80001b8:	b163      	cbz	r3, 80001d4 <OTG_FS_WKUP_IRQHandler+0x28>
 80001ba:	f64e 5010 	movw	r0, #60688	; 0xed10
 80001be:	f2ce 0000 	movt	r0, #57344	; 0xe000
 80001c2:	6801      	ldr	r1, [r0, #0]
 80001c4:	f021 0206 	bic.w	r2, r1, #6
 80001c8:	6002      	str	r2, [r0, #0]
 80001ca:	f000 f817 	bl	80001fc <SystemInit>
 80001ce:	4620      	mov	r0, r4
 80001d0:	f002 fd22 	bl	8002c18 <USB_OTG_UngateClock>
 80001d4:	f44f 2080 	mov.w	r0, #262144	; 0x40000
 80001d8:	e8bd 4010 	ldmia.w	sp!, {r4, lr}
 80001dc:	f000 beb4 	b.w	8000f48 <EXTI_ClearITPendingBit>

080001e0 <OTG_FS_IRQHandler>:
 80001e0:	f240 1084 	movw	r0, #388	; 0x184
 80001e4:	f2c2 0000 	movt	r0, #8192	; 0x2000
 80001e8:	f002 bf0c 	b.w	8003004 <USBD_OTG_ISR_Handler>

080001ec <EXTI0_IRQHandler>:
 80001ec:	b508      	push	{r3, lr}
 80001ee:	f000 fb9f 	bl	8000930 <DISCOVERY_EXTI_IRQHandler>
 80001f2:	2001      	movs	r0, #1
 80001f4:	e8bd 4008 	ldmia.w	sp!, {r3, lr}
 80001f8:	f000 bea6 	b.w	8000f48 <EXTI_ClearITPendingBit>

080001fc <SystemInit>:
 80001fc:	f44f 426d 	mov.w	r2, #60672	; 0xed00
 8000200:	f2ce 0200 	movt	r2, #57344	; 0xe000
 8000204:	f44f 5360 	mov.w	r3, #14336	; 0x3800
 8000208:	f8d2 0088 	ldr.w	r0, [r2, #136]	; 0x88
 800020c:	f2c4 0302 	movt	r3, #16386	; 0x4002
 8000210:	f440 0170 	orr.w	r1, r0, #15728640	; 0xf00000
 8000214:	f8c2 1088 	str.w	r1, [r2, #136]	; 0x88
 8000218:	6818      	ldr	r0, [r3, #0]
 800021a:	2200      	movs	r2, #0
 800021c:	f040 0101 	orr.w	r1, r0, #1
 8000220:	6019      	str	r1, [r3, #0]
 8000222:	609a      	str	r2, [r3, #8]
 8000224:	6818      	ldr	r0, [r3, #0]
 8000226:	f243 0110 	movw	r1, #12304	; 0x3010
 800022a:	f020 7c84 	bic.w	ip, r0, #17301504	; 0x1080000
 800022e:	f42c 3080 	bic.w	r0, ip, #65536	; 0x10000
 8000232:	f2c2 4100 	movt	r1, #9216	; 0x2400
 8000236:	6018      	str	r0, [r3, #0]
 8000238:	6059      	str	r1, [r3, #4]
 800023a:	6818      	ldr	r0, [r3, #0]
 800023c:	b082      	sub	sp, #8
 800023e:	f420 2180 	bic.w	r1, r0, #262144	; 0x40000
 8000242:	6019      	str	r1, [r3, #0]
 8000244:	60da      	str	r2, [r3, #12]
 8000246:	9200      	str	r2, [sp, #0]
 8000248:	9201      	str	r2, [sp, #4]
 800024a:	6818      	ldr	r0, [r3, #0]
 800024c:	f440 3280 	orr.w	r2, r0, #65536	; 0x10000
 8000250:	601a      	str	r2, [r3, #0]
 8000252:	461a      	mov	r2, r3
 8000254:	e003      	b.n	800025e <SystemInit+0x62>
 8000256:	9800      	ldr	r0, [sp, #0]
 8000258:	f5b0 6fa0 	cmp.w	r0, #1280	; 0x500
 800025c:	d009      	beq.n	8000272 <SystemInit+0x76>
 800025e:	6811      	ldr	r1, [r2, #0]
 8000260:	f401 3300 	and.w	r3, r1, #131072	; 0x20000
 8000264:	9301      	str	r3, [sp, #4]
 8000266:	9800      	ldr	r0, [sp, #0]
 8000268:	1c41      	adds	r1, r0, #1
 800026a:	9100      	str	r1, [sp, #0]
 800026c:	9b01      	ldr	r3, [sp, #4]
 800026e:	2b00      	cmp	r3, #0
 8000270:	d0f1      	beq.n	8000256 <SystemInit+0x5a>
 8000272:	f44f 5c60 	mov.w	ip, #14336	; 0x3800
 8000276:	f2c4 0c02 	movt	ip, #16386	; 0x4002
 800027a:	f8dc 3000 	ldr.w	r3, [ip]
 800027e:	f413 3200 	ands.w	r2, r3, #131072	; 0x20000
 8000282:	bf08      	it	eq
 8000284:	9201      	streq	r2, [sp, #4]
 8000286:	d001      	beq.n	800028c <SystemInit+0x90>
 8000288:	2101      	movs	r1, #1
 800028a:	9101      	str	r1, [sp, #4]
 800028c:	9801      	ldr	r0, [sp, #4]
 800028e:	2801      	cmp	r0, #1
 8000290:	d008      	beq.n	80002a4 <SystemInit+0xa8>
 8000292:	f44f 436d 	mov.w	r3, #60672	; 0xed00
 8000296:	f2ce 0300 	movt	r3, #57344	; 0xe000
 800029a:	f04f 6000 	mov.w	r0, #134217728	; 0x8000000
 800029e:	6098      	str	r0, [r3, #8]
 80002a0:	b002      	add	sp, #8
 80002a2:	4770      	bx	lr
 80002a4:	f44f 5360 	mov.w	r3, #14336	; 0x3800
 80002a8:	f2c4 0302 	movt	r3, #16386	; 0x4002
 80002ac:	f44f 4ce0 	mov.w	ip, #28672	; 0x7000
 80002b0:	6c18      	ldr	r0, [r3, #64]	; 0x40
 80002b2:	f2c4 0c00 	movt	ip, #16384	; 0x4000
 80002b6:	f040 5180 	orr.w	r1, r0, #268435456	; 0x10000000
 80002ba:	6419      	str	r1, [r3, #64]	; 0x40
 80002bc:	f8dc 2000 	ldr.w	r2, [ip]
 80002c0:	f442 4080 	orr.w	r0, r2, #16384	; 0x4000
 80002c4:	f8cc 0000 	str.w	r0, [ip]
 80002c8:	6899      	ldr	r1, [r3, #8]
 80002ca:	6099      	str	r1, [r3, #8]
 80002cc:	689a      	ldr	r2, [r3, #8]
 80002ce:	f442 4000 	orr.w	r0, r2, #32768	; 0x8000
 80002d2:	6098      	str	r0, [r3, #8]
 80002d4:	6899      	ldr	r1, [r3, #8]
 80002d6:	f245 4008 	movw	r0, #21512	; 0x5408
 80002da:	f441 52a0 	orr.w	r2, r1, #5120	; 0x1400
 80002de:	f2c0 7040 	movt	r0, #1856	; 0x740
 80002e2:	609a      	str	r2, [r3, #8]
 80002e4:	6058      	str	r0, [r3, #4]
 80002e6:	6819      	ldr	r1, [r3, #0]
 80002e8:	f041 7280 	orr.w	r2, r1, #16777216	; 0x1000000
 80002ec:	601a      	str	r2, [r3, #0]
 80002ee:	4619      	mov	r1, r3
 80002f0:	680a      	ldr	r2, [r1, #0]
 80002f2:	f44f 5360 	mov.w	r3, #14336	; 0x3800
 80002f6:	0192      	lsls	r2, r2, #6
 80002f8:	f2c4 0302 	movt	r3, #16386	; 0x4002
 80002fc:	d5f8      	bpl.n	80002f0 <SystemInit+0xf4>
 80002fe:	f44f 5c70 	mov.w	ip, #15360	; 0x3c00
 8000302:	f2c4 0c02 	movt	ip, #16386	; 0x4002
 8000306:	f240 6005 	movw	r0, #1541	; 0x605
 800030a:	f8cc 0000 	str.w	r0, [ip]
 800030e:	6899      	ldr	r1, [r3, #8]
 8000310:	f021 0203 	bic.w	r2, r1, #3
 8000314:	609a      	str	r2, [r3, #8]
 8000316:	6898      	ldr	r0, [r3, #8]
 8000318:	f040 0102 	orr.w	r1, r0, #2
 800031c:	6099      	str	r1, [r3, #8]
 800031e:	6899      	ldr	r1, [r3, #8]
 8000320:	f001 020c 	and.w	r2, r1, #12
 8000324:	2a08      	cmp	r2, #8
 8000326:	d1fa      	bne.n	800031e <SystemInit+0x122>
 8000328:	e7b3      	b.n	8000292 <SystemInit+0x96>
 800032a:	bf00      	nop

0800032c <SystemCoreClockUpdate>:
 800032c:	f44f 5360 	mov.w	r3, #14336	; 0x3800
 8000330:	f2c4 0302 	movt	r3, #16386	; 0x4002
 8000334:	689a      	ldr	r2, [r3, #8]
 8000336:	f002 020c 	and.w	r2, r2, #12
 800033a:	2a04      	cmp	r2, #4
 800033c:	bf04      	itt	eq
 800033e:	f44f 5190 	moveq.w	r1, #4608	; 0x1200
 8000342:	f2c0 017a 	movteq	r1, #122	; 0x7a
 8000346:	d006      	beq.n	8000356 <SystemCoreClockUpdate+0x2a>
 8000348:	2a08      	cmp	r2, #8
 800034a:	bf1c      	itt	ne
 800034c:	f44f 5110 	movne.w	r1, #9216	; 0x2400
 8000350:	f2c0 01f4 	movtne	r1, #244	; 0xf4
 8000354:	d00f      	beq.n	8000376 <SystemCoreClockUpdate+0x4a>
 8000356:	f44f 5060 	mov.w	r0, #14336	; 0x3800
 800035a:	f2c4 0002 	movt	r0, #16386	; 0x4002
 800035e:	f240 0300 	movw	r3, #0
 8000362:	6882      	ldr	r2, [r0, #8]
 8000364:	f2c2 0300 	movt	r3, #8192	; 0x2000
 8000368:	f3c2 1c03 	ubfx	ip, r2, #4, #4
 800036c:	f813 000c 	ldrb.w	r0, [r3, ip]
 8000370:	40c1      	lsrs	r1, r0
 8000372:	6119      	str	r1, [r3, #16]
 8000374:	4770      	bx	lr
 8000376:	6858      	ldr	r0, [r3, #4]
 8000378:	685a      	ldr	r2, [r3, #4]
 800037a:	6859      	ldr	r1, [r3, #4]
 800037c:	f410 0f80 	tst.w	r0, #4194304	; 0x400000
 8000380:	f44f 5c60 	mov.w	ip, #14336	; 0x3800
 8000384:	bf14      	ite	ne
 8000386:	f44f 5390 	movne.w	r3, #4608	; 0x1200
 800038a:	f44f 5310 	moveq.w	r3, #9216	; 0x2400
 800038e:	f2c4 0c02 	movt	ip, #16386	; 0x4002
 8000392:	bf14      	ite	ne
 8000394:	f2c0 037a 	movtne	r3, #122	; 0x7a
 8000398:	f2c0 03f4 	movteq	r3, #244	; 0xf4
 800039c:	f002 023f 	and.w	r2, r2, #63	; 0x3f
 80003a0:	f3c1 1088 	ubfx	r0, r1, #6, #9
 80003a4:	fbb3 f1f2 	udiv	r1, r3, r2
 80003a8:	f8dc 3004 	ldr.w	r3, [ip, #4]
 80003ac:	f3c3 4201 	ubfx	r2, r3, #16, #2
 80003b0:	fb01 f100 	mul.w	r1, r1, r0
 80003b4:	1c50      	adds	r0, r2, #1
 80003b6:	0043      	lsls	r3, r0, #1
 80003b8:	fbb1 f1f3 	udiv	r1, r1, r3
 80003bc:	e7cb      	b.n	8000356 <SystemCoreClockUpdate+0x2a>
 80003be:	bf00      	nop

080003c0 <memset>:
 80003c0:	b410      	push	{r4}
 80003c2:	b1a2      	cbz	r2, 80003ee <memset+0x2e>
 80003c4:	3a01      	subs	r2, #1
 80003c6:	f002 0301 	and.w	r3, r2, #1
 80003ca:	f840 1b04 	str.w	r1, [r0], #4
 80003ce:	1e54      	subs	r4, r2, #1
 80003d0:	b16a      	cbz	r2, 80003ee <memset+0x2e>
 80003d2:	b123      	cbz	r3, 80003de <memset+0x1e>
 80003d4:	3c01      	subs	r4, #1
 80003d6:	1c63      	adds	r3, r4, #1
 80003d8:	f840 1b04 	str.w	r1, [r0], #4
 80003dc:	d007      	beq.n	80003ee <memset+0x2e>
 80003de:	4603      	mov	r3, r0
 80003e0:	3c02      	subs	r4, #2
 80003e2:	f843 1b04 	str.w	r1, [r3], #4
 80003e6:	6041      	str	r1, [r0, #4]
 80003e8:	1d18      	adds	r0, r3, #4
 80003ea:	1c62      	adds	r2, r4, #1
 80003ec:	d1f7      	bne.n	80003de <memset+0x1e>
 80003ee:	bc10      	pop	{r4}
 80003f0:	4770      	bx	lr
 80003f2:	bf00      	nop

080003f4 <memcpy>:
 80003f4:	b430      	push	{r4, r5}
 80003f6:	b1ea      	cbz	r2, 8000434 <memcpy+0x40>
 80003f8:	f851 3b04 	ldr.w	r3, [r1], #4
 80003fc:	3a01      	subs	r2, #1
 80003fe:	f002 0501 	and.w	r5, r2, #1
 8000402:	f840 3b04 	str.w	r3, [r0], #4
 8000406:	1e54      	subs	r4, r2, #1
 8000408:	b1a2      	cbz	r2, 8000434 <memcpy+0x40>
 800040a:	b135      	cbz	r5, 800041a <memcpy+0x26>
 800040c:	f851 3b04 	ldr.w	r3, [r1], #4
 8000410:	3c01      	subs	r4, #1
 8000412:	f840 3b04 	str.w	r3, [r0], #4
 8000416:	1c63      	adds	r3, r4, #1
 8000418:	d00c      	beq.n	8000434 <memcpy+0x40>
 800041a:	460a      	mov	r2, r1
 800041c:	4603      	mov	r3, r0
 800041e:	f852 5b04 	ldr.w	r5, [r2], #4
 8000422:	f843 5b04 	str.w	r5, [r3], #4
 8000426:	6849      	ldr	r1, [r1, #4]
 8000428:	3c02      	subs	r4, #2
 800042a:	6041      	str	r1, [r0, #4]
 800042c:	1d11      	adds	r1, r2, #4
 800042e:	1d18      	adds	r0, r3, #4
 8000430:	1c62      	adds	r2, r4, #1
 8000432:	d1f2      	bne.n	800041a <memcpy+0x26>
 8000434:	bc30      	pop	{r4, r5}
 8000436:	4770      	bx	lr

08000438 <STM32F4_Discovery_LEDInit>:
 8000438:	b530      	push	{r4, r5, lr}
 800043a:	f243 64ac 	movw	r4, #13996	; 0x36ac
 800043e:	f6c0 0400 	movt	r4, #2048	; 0x800
 8000442:	4605      	mov	r5, r0
 8000444:	b083      	sub	sp, #12
 8000446:	2101      	movs	r1, #1
 8000448:	f854 0020 	ldr.w	r0, [r4, r0, lsl #2]
 800044c:	eb04 0445 	add.w	r4, r4, r5, lsl #1
 8000450:	f000 fef8 	bl	8001244 <RCC_AHB1PeriphClockCmd>
 8000454:	f240 001c 	movw	r0, #28
 8000458:	8a21      	ldrh	r1, [r4, #16]
 800045a:	f2c2 0000 	movt	r0, #8192	; 0x2000
 800045e:	2301      	movs	r3, #1
 8000460:	9100      	str	r1, [sp, #0]
 8000462:	f88d 3004 	strb.w	r3, [sp, #4]
 8000466:	2200      	movs	r2, #0
 8000468:	f88d 3007 	strb.w	r3, [sp, #7]
 800046c:	f850 0025 	ldr.w	r0, [r0, r5, lsl #2]
 8000470:	f88d 2006 	strb.w	r2, [sp, #6]
 8000474:	2302      	movs	r3, #2
 8000476:	4669      	mov	r1, sp
 8000478:	f88d 3005 	strb.w	r3, [sp, #5]
 800047c:	f000 fbd0 	bl	8000c20 <GPIO_Init>
 8000480:	b003      	add	sp, #12
 8000482:	bd30      	pop	{r4, r5, pc}

08000484 <STM32F4_Discovery_LEDOn>:
 8000484:	f243 62ac 	movw	r2, #13996	; 0x36ac
 8000488:	f6c0 0200 	movt	r2, #2048	; 0x800
 800048c:	f240 0c1c 	movw	ip, #28
 8000490:	eb02 0140 	add.w	r1, r2, r0, lsl #1
 8000494:	f2c2 0c00 	movt	ip, #8192	; 0x2000
 8000498:	8a0b      	ldrh	r3, [r1, #16]
 800049a:	f85c 2020 	ldr.w	r2, [ip, r0, lsl #2]
 800049e:	8313      	strh	r3, [r2, #24]
 80004a0:	4770      	bx	lr
 80004a2:	bf00      	nop

080004a4 <STM32F4_Discovery_LEDOff>:
 80004a4:	f243 62ac 	movw	r2, #13996	; 0x36ac
 80004a8:	f6c0 0200 	movt	r2, #2048	; 0x800
 80004ac:	f240 0c1c 	movw	ip, #28
 80004b0:	eb02 0140 	add.w	r1, r2, r0, lsl #1
 80004b4:	f2c2 0c00 	movt	ip, #8192	; 0x2000
 80004b8:	8a0b      	ldrh	r3, [r1, #16]
 80004ba:	f85c 2020 	ldr.w	r2, [ip, r0, lsl #2]
 80004be:	8353      	strh	r3, [r2, #26]
 80004c0:	4770      	bx	lr
 80004c2:	bf00      	nop

080004c4 <STM32F4_Discovery_LEDToggle>:
 80004c4:	f240 031c 	movw	r3, #28
 80004c8:	f2c2 0300 	movt	r3, #8192	; 0x2000
 80004cc:	f243 62ac 	movw	r2, #13996	; 0x36ac
 80004d0:	f6c0 0200 	movt	r2, #2048	; 0x800
 80004d4:	f853 3020 	ldr.w	r3, [r3, r0, lsl #2]
 80004d8:	eb02 0c40 	add.w	ip, r2, r0, lsl #1
 80004dc:	6959      	ldr	r1, [r3, #20]
 80004de:	f8bc 0010 	ldrh.w	r0, [ip, #16]
 80004e2:	ea80 0201 	eor.w	r2, r0, r1
 80004e6:	615a      	str	r2, [r3, #20]
 80004e8:	4770      	bx	lr
 80004ea:	bf00      	nop

080004ec <STM32F4_Discovery_PBInit>:
 80004ec:	b530      	push	{r4, r5, lr}
 80004ee:	4604      	mov	r4, r0
 80004f0:	2001      	movs	r0, #1
 80004f2:	b087      	sub	sp, #28
 80004f4:	460d      	mov	r5, r1
 80004f6:	4601      	mov	r1, r0
 80004f8:	f000 fea4 	bl	8001244 <RCC_AHB1PeriphClockCmd>
 80004fc:	2101      	movs	r1, #1
 80004fe:	f44f 4080 	mov.w	r0, #16384	; 0x4000
 8000502:	f000 fed7 	bl	80012b4 <RCC_APB2PeriphClockCmd>
 8000506:	f240 001c 	movw	r0, #28
 800050a:	f2c2 0000 	movt	r0, #8192	; 0x2000
 800050e:	eb00 0384 	add.w	r3, r0, r4, lsl #2
 8000512:	a906      	add	r1, sp, #24
 8000514:	2201      	movs	r2, #1
 8000516:	2400      	movs	r4, #0
 8000518:	f841 2d14 	str.w	r2, [r1, #-20]!
 800051c:	6918      	ldr	r0, [r3, #16]
 800051e:	f88d 4008 	strb.w	r4, [sp, #8]
 8000522:	f88d 400b 	strb.w	r4, [sp, #11]
 8000526:	f000 fb7b 	bl	8000c20 <GPIO_Init>
 800052a:	2d01      	cmp	r5, #1
 800052c:	d001      	beq.n	8000532 <STM32F4_Discovery_PBInit+0x46>
 800052e:	b007      	add	sp, #28
 8000530:	bd30      	pop	{r4, r5, pc}
 8000532:	4621      	mov	r1, r4
 8000534:	4620      	mov	r0, r4
 8000536:	f000 ffb1 	bl	800149c <SYSCFG_EXTILineConfig>
 800053a:	a803      	add	r0, sp, #12
 800053c:	2208      	movs	r2, #8
 800053e:	9503      	str	r5, [sp, #12]
 8000540:	f88d 4010 	strb.w	r4, [sp, #16]
 8000544:	f88d 2011 	strb.w	r2, [sp, #17]
 8000548:	f88d 5012 	strb.w	r5, [sp, #18]
 800054c:	f000 fc86 	bl	8000e5c <EXTI_Init>
 8000550:	210f      	movs	r1, #15
 8000552:	2306      	movs	r3, #6
 8000554:	a805      	add	r0, sp, #20
 8000556:	f88d 3014 	strb.w	r3, [sp, #20]
 800055a:	f88d 1015 	strb.w	r1, [sp, #21]
 800055e:	f88d 1016 	strb.w	r1, [sp, #22]
 8000562:	f88d 5017 	strb.w	r5, [sp, #23]
 8000566:	f000 ffd3 	bl	8001510 <NVIC_Init>
 800056a:	e7e0      	b.n	800052e <STM32F4_Discovery_PBInit+0x42>

0800056c <STM32F4_Discovery_PBGetState>:
 800056c:	f240 011c 	movw	r1, #28
 8000570:	f2c2 0100 	movt	r1, #8192	; 0x2000
 8000574:	b508      	push	{r3, lr}
 8000576:	eb01 0380 	add.w	r3, r1, r0, lsl #2
 800057a:	2101      	movs	r1, #1
 800057c:	6918      	ldr	r0, [r3, #16]
 800057e:	f000 fc1f 	bl	8000dc0 <GPIO_ReadInputDataBit>
 8000582:	bd08      	pop	{r3, pc}

08000584 <USB_OTG_BSP_Init>:
 8000584:	b570      	push	{r4, r5, r6, lr}
 8000586:	2001      	movs	r0, #1
 8000588:	2400      	movs	r4, #0
 800058a:	b082      	sub	sp, #8
 800058c:	f2c4 0402 	movt	r4, #16386	; 0x4002
 8000590:	4601      	mov	r1, r0
 8000592:	f000 fe57 	bl	8001244 <RCC_AHB1PeriphClockCmd>
 8000596:	2500      	movs	r5, #0
 8000598:	f44f 53d8 	mov.w	r3, #6912	; 0x1b00
 800059c:	2202      	movs	r2, #2
 800059e:	2603      	movs	r6, #3
 80005a0:	4669      	mov	r1, sp
 80005a2:	4620      	mov	r0, r4
 80005a4:	9300      	str	r3, [sp, #0]
 80005a6:	f88d 2004 	strb.w	r2, [sp, #4]
 80005aa:	f88d 5006 	strb.w	r5, [sp, #6]
 80005ae:	f88d 5007 	strb.w	r5, [sp, #7]
 80005b2:	f88d 6005 	strb.w	r6, [sp, #5]
 80005b6:	f000 fb33 	bl	8000c20 <GPIO_Init>
 80005ba:	4620      	mov	r0, r4
 80005bc:	2108      	movs	r1, #8
 80005be:	220a      	movs	r2, #10
 80005c0:	f000 fc24 	bl	8000e0c <GPIO_PinAFConfig>
 80005c4:	4620      	mov	r0, r4
 80005c6:	2109      	movs	r1, #9
 80005c8:	220a      	movs	r2, #10
 80005ca:	f000 fc1f 	bl	8000e0c <GPIO_PinAFConfig>
 80005ce:	4620      	mov	r0, r4
 80005d0:	210b      	movs	r1, #11
 80005d2:	220a      	movs	r2, #10
 80005d4:	f000 fc1a 	bl	8000e0c <GPIO_PinAFConfig>
 80005d8:	220a      	movs	r2, #10
 80005da:	4620      	mov	r0, r4
 80005dc:	210c      	movs	r1, #12
 80005de:	f000 fc15 	bl	8000e0c <GPIO_PinAFConfig>
 80005e2:	2501      	movs	r5, #1
 80005e4:	f44f 6380 	mov.w	r3, #1024	; 0x400
 80005e8:	4669      	mov	r1, sp
 80005ea:	4620      	mov	r0, r4
 80005ec:	9300      	str	r3, [sp, #0]
 80005ee:	f88d 5006 	strb.w	r5, [sp, #6]
 80005f2:	f88d 5007 	strb.w	r5, [sp, #7]
 80005f6:	f88d 6005 	strb.w	r6, [sp, #5]
 80005fa:	f000 fb11 	bl	8000c20 <GPIO_Init>
 80005fe:	210a      	movs	r1, #10
 8000600:	460a      	mov	r2, r1
 8000602:	4620      	mov	r0, r4
 8000604:	f000 fc02 	bl	8000e0c <GPIO_PinAFConfig>
 8000608:	4629      	mov	r1, r5
 800060a:	f44f 4080 	mov.w	r0, #16384	; 0x4000
 800060e:	f000 fe51 	bl	80012b4 <RCC_APB2PeriphClockCmd>
 8000612:	2080      	movs	r0, #128	; 0x80
 8000614:	4629      	mov	r1, r5
 8000616:	f000 fe23 	bl	8001260 <RCC_AHB2PeriphClockCmd>
 800061a:	f04f 5080 	mov.w	r0, #268435456	; 0x10000000
 800061e:	4629      	mov	r1, r5
 8000620:	f000 fe80 	bl	8001324 <RCC_APB1PeriphResetCmd>
 8000624:	4628      	mov	r0, r5
 8000626:	f000 fc8f 	bl	8000f48 <EXTI_ClearITPendingBit>
 800062a:	b002      	add	sp, #8
 800062c:	bd70      	pop	{r4, r5, r6, pc}
 800062e:	bf00      	nop

08000630 <USB_OTG_BSP_EnableInterrupt>:
 8000630:	b500      	push	{lr}
 8000632:	f44f 60c0 	mov.w	r0, #1536	; 0x600
 8000636:	b083      	sub	sp, #12
 8000638:	f000 ff60 	bl	80014fc <NVIC_PriorityGroupConfig>
 800063c:	2301      	movs	r3, #1
 800063e:	2143      	movs	r1, #67	; 0x43
 8000640:	2203      	movs	r2, #3
 8000642:	a801      	add	r0, sp, #4
 8000644:	f88d 1004 	strb.w	r1, [sp, #4]
 8000648:	f88d 3005 	strb.w	r3, [sp, #5]
 800064c:	f88d 2006 	strb.w	r2, [sp, #6]
 8000650:	f88d 3007 	strb.w	r3, [sp, #7]
 8000654:	f000 ff5c 	bl	8001510 <NVIC_Init>
 8000658:	b003      	add	sp, #12
 800065a:	bd00      	pop	{pc}

0800065c <USB_OTG_BSP_uDelay>:
 800065c:	ebc0 1000 	rsb	r0, r0, r0, lsl #4
 8000660:	f644 1125 	movw	r1, #18725	; 0x4925
 8000664:	00c2      	lsls	r2, r0, #3
 8000666:	f2c2 4192 	movt	r1, #9362	; 0x2492
 800066a:	fba1 1302 	umull	r1, r3, r1, r2
 800066e:	1ad0      	subs	r0, r2, r3
 8000670:	eb03 0250 	add.w	r2, r3, r0, lsr #1
 8000674:	0892      	lsrs	r2, r2, #2
 8000676:	f002 0101 	and.w	r1, r2, #1
 800067a:	2301      	movs	r3, #1
 800067c:	b13a      	cbz	r2, 800068e <USB_OTG_BSP_uDelay+0x32>
 800067e:	b111      	cbz	r1, 8000686 <USB_OTG_BSP_uDelay+0x2a>
 8000680:	2302      	movs	r3, #2
 8000682:	429a      	cmp	r2, r3
 8000684:	d304      	bcc.n	8000690 <USB_OTG_BSP_uDelay+0x34>
 8000686:	3302      	adds	r3, #2
 8000688:	429a      	cmp	r2, r3
 800068a:	d2fc      	bcs.n	8000686 <USB_OTG_BSP_uDelay+0x2a>
 800068c:	4770      	bx	lr
 800068e:	4770      	bx	lr
 8000690:	4770      	bx	lr
 8000692:	bf00      	nop

08000694 <USB_OTG_BSP_mDelay>:
 8000694:	f24d 43c0 	movw	r3, #54464	; 0xd4c0
 8000698:	f2c0 0301 	movt	r3, #1
 800069c:	f644 1125 	movw	r1, #18725	; 0x4925
 80006a0:	fb03 fc00 	mul.w	ip, r3, r0
 80006a4:	f2c2 4192 	movt	r1, #9362	; 0x2492
 80006a8:	fba1 100c 	umull	r1, r0, r1, ip
 80006ac:	ebc0 020c 	rsb	r2, r0, ip
 80006b0:	eb00 0352 	add.w	r3, r0, r2, lsr #1
 80006b4:	089b      	lsrs	r3, r3, #2
 80006b6:	f003 0101 	and.w	r1, r3, #1
 80006ba:	2201      	movs	r2, #1
 80006bc:	b13b      	cbz	r3, 80006ce <USB_OTG_BSP_mDelay+0x3a>
 80006be:	b111      	cbz	r1, 80006c6 <USB_OTG_BSP_mDelay+0x32>
 80006c0:	2202      	movs	r2, #2
 80006c2:	4293      	cmp	r3, r2
 80006c4:	d304      	bcc.n	80006d0 <USB_OTG_BSP_mDelay+0x3c>
 80006c6:	3202      	adds	r2, #2
 80006c8:	4293      	cmp	r3, r2
 80006ca:	d2fc      	bcs.n	80006c6 <USB_OTG_BSP_mDelay+0x32>
 80006cc:	4770      	bx	lr
 80006ce:	4770      	bx	lr
 80006d0:	4770      	bx	lr
 80006d2:	bf00      	nop

080006d4 <cdc_Init>:
 80006d4:	2000      	movs	r0, #0
 80006d6:	4770      	bx	lr

080006d8 <cdc_DeInit>:
 80006d8:	2000      	movs	r0, #0
 80006da:	4770      	bx	lr

080006dc <cdc_Ctrl>:
 80006dc:	2000      	movs	r0, #0
 80006de:	4770      	bx	lr

080006e0 <cdc_DataTx>:
 80006e0:	e92d 03f0 	stmdb	sp!, {r4, r5, r6, r7, r8, r9}
 80006e4:	2900      	cmp	r1, #0
 80006e6:	d048      	beq.n	800077a <cdc_DataTx+0x9a>
 80006e8:	f240 1364 	movw	r3, #356	; 0x164
 80006ec:	f2c2 0300 	movt	r3, #8192	; 0x2000
 80006f0:	2700      	movs	r7, #0
 80006f2:	681e      	ldr	r6, [r3, #0]
 80006f4:	f890 9000 	ldrb.w	r9, [r0]
 80006f8:	1c75      	adds	r5, r6, #1
 80006fa:	f5b5 6f00 	cmp.w	r5, #2048	; 0x800
 80006fe:	f640 0404 	movw	r4, #2052	; 0x804
 8000702:	bf14      	ite	ne
 8000704:	46ac      	movne	ip, r5
 8000706:	46bc      	moveq	ip, r7
 8000708:	f2c2 0400 	movt	r4, #8192	; 0x2000
 800070c:	2201      	movs	r2, #1
 800070e:	f101 38ff 	add.w	r8, r1, #4294967295
 8000712:	428a      	cmp	r2, r1
 8000714:	f8c3 c000 	str.w	ip, [r3]
 8000718:	f804 9006 	strb.w	r9, [r4, r6]
 800071c:	469c      	mov	ip, r3
 800071e:	ea08 0502 	and.w	r5, r8, r2
 8000722:	d02a      	beq.n	800077a <cdc_DataTx+0x9a>
 8000724:	b16d      	cbz	r5, 8000742 <cdc_DataTx+0x62>
 8000726:	681e      	ldr	r6, [r3, #0]
 8000728:	f810 8002 	ldrb.w	r8, [r0, r2]
 800072c:	1c75      	adds	r5, r6, #1
 800072e:	f5b5 6f00 	cmp.w	r5, #2048	; 0x800
 8000732:	f804 8006 	strb.w	r8, [r4, r6]
 8000736:	601d      	str	r5, [r3, #0]
 8000738:	bf08      	it	eq
 800073a:	601f      	streq	r7, [r3, #0]
 800073c:	3201      	adds	r2, #1
 800073e:	428a      	cmp	r2, r1
 8000740:	d01b      	beq.n	800077a <cdc_DataTx+0x9a>
 8000742:	681e      	ldr	r6, [r3, #0]
 8000744:	f810 8002 	ldrb.w	r8, [r0, r2]
 8000748:	1c75      	adds	r5, r6, #1
 800074a:	f5b5 6f00 	cmp.w	r5, #2048	; 0x800
 800074e:	601d      	str	r5, [r3, #0]
 8000750:	bf08      	it	eq
 8000752:	f8cc 7000 	streq.w	r7, [ip]
 8000756:	f804 8006 	strb.w	r8, [r4, r6]
 800075a:	3201      	adds	r2, #1
 800075c:	681e      	ldr	r6, [r3, #0]
 800075e:	f810 8002 	ldrb.w	r8, [r0, r2]
 8000762:	1c75      	adds	r5, r6, #1
 8000764:	f5b5 6f00 	cmp.w	r5, #2048	; 0x800
 8000768:	f804 8006 	strb.w	r8, [r4, r6]
 800076c:	601d      	str	r5, [r3, #0]
 800076e:	d1e5      	bne.n	800073c <cdc_DataTx+0x5c>
 8000770:	3201      	adds	r2, #1
 8000772:	428a      	cmp	r2, r1
 8000774:	f8cc 7000 	str.w	r7, [ip]
 8000778:	d1e3      	bne.n	8000742 <cdc_DataTx+0x62>
 800077a:	2000      	movs	r0, #0
 800077c:	e8bd 03f0 	ldmia.w	sp!, {r4, r5, r6, r7, r8, r9}
 8000780:	4770      	bx	lr
 8000782:	bf00      	nop

08000784 <cdc_DataRx>:
 8000784:	e92d 43f8 	stmdb	sp!, {r3, r4, r5, r6, r7, r8, r9, lr}
 8000788:	460e      	mov	r6, r1
 800078a:	4605      	mov	r5, r0
 800078c:	2900      	cmp	r1, #0
 800078e:	f000 80b6 	beq.w	80008fe <cdc_DataRx+0x17a>
 8000792:	7803      	ldrb	r3, [r0, #0]
 8000794:	f1a3 0461 	sub.w	r4, r3, #97	; 0x61
 8000798:	4260      	negs	r0, r4
 800079a:	eb40 0204 	adc.w	r2, r0, r4
 800079e:	2b41      	cmp	r3, #65	; 0x41
 80007a0:	bf08      	it	eq
 80007a2:	f042 0201 	orreq.w	r2, r2, #1
 80007a6:	1e4f      	subs	r7, r1, #1
 80007a8:	f007 0701 	and.w	r7, r7, #1
 80007ac:	2a00      	cmp	r2, #0
 80007ae:	f040 80b7 	bne.w	8000920 <cdc_DataRx+0x19c>
 80007b2:	f1a3 0273 	sub.w	r2, r3, #115	; 0x73
 80007b6:	f1d2 0900 	rsbs	r9, r2, #0
 80007ba:	eb49 0102 	adc.w	r1, r9, r2
 80007be:	2b53      	cmp	r3, #83	; 0x53
 80007c0:	bf14      	ite	ne
 80007c2:	460b      	movne	r3, r1
 80007c4:	f041 0301 	orreq.w	r3, r1, #1
 80007c8:	2b00      	cmp	r3, #0
 80007ca:	f040 80ad 	bne.w	8000928 <cdc_DataRx+0x1a4>
 80007ce:	2401      	movs	r4, #1
 80007d0:	42b4      	cmp	r4, r6
 80007d2:	d04b      	beq.n	800086c <cdc_DataRx+0xe8>
 80007d4:	b1ef      	cbz	r7, 8000812 <cdc_DataRx+0x8e>
 80007d6:	5d2b      	ldrb	r3, [r5, r4]
 80007d8:	f1a3 0c61 	sub.w	ip, r3, #97	; 0x61
 80007dc:	f1dc 0100 	rsbs	r1, ip, #0
 80007e0:	eb41 070c 	adc.w	r7, r1, ip
 80007e4:	2b41      	cmp	r3, #65	; 0x41
 80007e6:	bf08      	it	eq
 80007e8:	f047 0701 	orreq.w	r7, r7, #1
 80007ec:	2f00      	cmp	r7, #0
 80007ee:	d137      	bne.n	8000860 <cdc_DataRx+0xdc>
 80007f0:	f1a3 0273 	sub.w	r2, r3, #115	; 0x73
 80007f4:	f1d2 0900 	rsbs	r9, r2, #0
 80007f8:	eb49 0802 	adc.w	r8, r9, r2
 80007fc:	2b53      	cmp	r3, #83	; 0x53
 80007fe:	bf14      	ite	ne
 8000800:	4640      	movne	r0, r8
 8000802:	f048 0001 	orreq.w	r0, r8, #1
 8000806:	2800      	cmp	r0, #0
 8000808:	f040 8086 	bne.w	8000918 <cdc_DataRx+0x194>
 800080c:	3401      	adds	r4, #1
 800080e:	42b4      	cmp	r4, r6
 8000810:	d02c      	beq.n	800086c <cdc_DataRx+0xe8>
 8000812:	5d2b      	ldrb	r3, [r5, r4]
 8000814:	f1a3 0261 	sub.w	r2, r3, #97	; 0x61
 8000818:	f1d2 0800 	rsbs	r8, r2, #0
 800081c:	eb48 0102 	adc.w	r1, r8, r2
 8000820:	2b41      	cmp	r3, #65	; 0x41
 8000822:	bf08      	it	eq
 8000824:	f041 0101 	orreq.w	r1, r1, #1
 8000828:	2900      	cmp	r1, #0
 800082a:	d170      	bne.n	800090e <cdc_DataRx+0x18a>
 800082c:	f1a3 0173 	sub.w	r1, r3, #115	; 0x73
 8000830:	4248      	negs	r0, r1
 8000832:	eb40 0701 	adc.w	r7, r0, r1
 8000836:	2b53      	cmp	r3, #83	; 0x53
 8000838:	bf14      	ite	ne
 800083a:	463b      	movne	r3, r7
 800083c:	f047 0301 	orreq.w	r3, r7, #1
 8000840:	2b00      	cmp	r3, #0
 8000842:	d15f      	bne.n	8000904 <cdc_DataRx+0x180>
 8000844:	3401      	adds	r4, #1
 8000846:	5d2b      	ldrb	r3, [r5, r4]
 8000848:	f1a3 0c61 	sub.w	ip, r3, #97	; 0x61
 800084c:	f1dc 0100 	rsbs	r1, ip, #0
 8000850:	eb41 070c 	adc.w	r7, r1, ip
 8000854:	2b41      	cmp	r3, #65	; 0x41
 8000856:	bf08      	it	eq
 8000858:	f047 0701 	orreq.w	r7, r7, #1
 800085c:	2f00      	cmp	r7, #0
 800085e:	d0c7      	beq.n	80007f0 <cdc_DataRx+0x6c>
 8000860:	2003      	movs	r0, #3
 8000862:	3401      	adds	r4, #1
 8000864:	f7ff fe0e 	bl	8000484 <STM32F4_Discovery_LEDOn>
 8000868:	42b4      	cmp	r4, r6
 800086a:	d1d2      	bne.n	8000812 <cdc_DataRx+0x8e>
 800086c:	f240 1364 	movw	r3, #356	; 0x164
 8000870:	f2c2 0300 	movt	r3, #8192	; 0x2000
 8000874:	2700      	movs	r7, #0
 8000876:	681c      	ldr	r4, [r3, #0]
 8000878:	f895 9000 	ldrb.w	r9, [r5]
 800087c:	1c62      	adds	r2, r4, #1
 800087e:	f5b2 6f00 	cmp.w	r2, #2048	; 0x800
 8000882:	f640 0104 	movw	r1, #2052	; 0x804
 8000886:	bf14      	ite	ne
 8000888:	4694      	movne	ip, r2
 800088a:	46bc      	moveq	ip, r7
 800088c:	f2c2 0100 	movt	r1, #8192	; 0x2000
 8000890:	2201      	movs	r2, #1
 8000892:	f106 38ff 	add.w	r8, r6, #4294967295
 8000896:	42b2      	cmp	r2, r6
 8000898:	f8c3 c000 	str.w	ip, [r3]
 800089c:	f801 9004 	strb.w	r9, [r1, r4]
 80008a0:	469c      	mov	ip, r3
 80008a2:	ea08 0002 	and.w	r0, r8, r2
 80008a6:	d02a      	beq.n	80008fe <cdc_DataRx+0x17a>
 80008a8:	b168      	cbz	r0, 80008c6 <cdc_DataRx+0x142>
 80008aa:	681c      	ldr	r4, [r3, #0]
 80008ac:	f815 8002 	ldrb.w	r8, [r5, r2]
 80008b0:	1c60      	adds	r0, r4, #1
 80008b2:	f5b0 6f00 	cmp.w	r0, #2048	; 0x800
 80008b6:	f801 8004 	strb.w	r8, [r1, r4]
 80008ba:	6018      	str	r0, [r3, #0]
 80008bc:	bf08      	it	eq
 80008be:	601f      	streq	r7, [r3, #0]
 80008c0:	3201      	adds	r2, #1
 80008c2:	42b2      	cmp	r2, r6
 80008c4:	d01b      	beq.n	80008fe <cdc_DataRx+0x17a>
 80008c6:	681c      	ldr	r4, [r3, #0]
 80008c8:	f815 8002 	ldrb.w	r8, [r5, r2]
 80008cc:	1c60      	adds	r0, r4, #1
 80008ce:	f5b0 6f00 	cmp.w	r0, #2048	; 0x800
 80008d2:	6018      	str	r0, [r3, #0]
 80008d4:	bf08      	it	eq
 80008d6:	f8cc 7000 	streq.w	r7, [ip]
 80008da:	f801 8004 	strb.w	r8, [r1, r4]
 80008de:	3201      	adds	r2, #1
 80008e0:	681c      	ldr	r4, [r3, #0]
 80008e2:	f815 8002 	ldrb.w	r8, [r5, r2]
 80008e6:	1c60      	adds	r0, r4, #1
 80008e8:	f5b0 6f00 	cmp.w	r0, #2048	; 0x800
 80008ec:	f801 8004 	strb.w	r8, [r1, r4]
 80008f0:	6018      	str	r0, [r3, #0]
 80008f2:	d1e5      	bne.n	80008c0 <cdc_DataRx+0x13c>
 80008f4:	3201      	adds	r2, #1
 80008f6:	42b2      	cmp	r2, r6
 80008f8:	f8cc 7000 	str.w	r7, [ip]
 80008fc:	d1e3      	bne.n	80008c6 <cdc_DataRx+0x142>
 80008fe:	2000      	movs	r0, #0
 8000900:	e8bd 83f8 	ldmia.w	sp!, {r3, r4, r5, r6, r7, r8, r9, pc}
 8000904:	2003      	movs	r0, #3
 8000906:	f7ff fdcd 	bl	80004a4 <STM32F4_Discovery_LEDOff>
 800090a:	3401      	adds	r4, #1
 800090c:	e79b      	b.n	8000846 <cdc_DataRx+0xc2>
 800090e:	2003      	movs	r0, #3
 8000910:	f7ff fdb8 	bl	8000484 <STM32F4_Discovery_LEDOn>
 8000914:	3401      	adds	r4, #1
 8000916:	e796      	b.n	8000846 <cdc_DataRx+0xc2>
 8000918:	2003      	movs	r0, #3
 800091a:	f7ff fdc3 	bl	80004a4 <STM32F4_Discovery_LEDOff>
 800091e:	e775      	b.n	800080c <cdc_DataRx+0x88>
 8000920:	2003      	movs	r0, #3
 8000922:	f7ff fdaf 	bl	8000484 <STM32F4_Discovery_LEDOn>
 8000926:	e752      	b.n	80007ce <cdc_DataRx+0x4a>
 8000928:	2003      	movs	r0, #3
 800092a:	f7ff fdbb 	bl	80004a4 <STM32F4_Discovery_LEDOff>
 800092e:	e74e      	b.n	80007ce <cdc_DataRx+0x4a>

08000930 <DISCOVERY_EXTI_IRQHandler>:
 8000930:	b470      	push	{r4, r5, r6}
 8000932:	f240 1264 	movw	r2, #356	; 0x164
 8000936:	f2c2 0200 	movt	r2, #8192	; 0x2000
 800093a:	f243 63e0 	movw	r3, #14048	; 0x36e0
 800093e:	f6c0 0300 	movt	r3, #2048	; 0x800
 8000942:	6814      	ldr	r4, [r2, #0]
 8000944:	e893 0003 	ldmia.w	r3, {r0, r1}
 8000948:	f640 0304 	movw	r3, #2052	; 0x804
 800094c:	b083      	sub	sp, #12
 800094e:	f2c2 0300 	movt	r3, #8192	; 0x2000
 8000952:	1c65      	adds	r5, r4, #1
 8000954:	f5b5 6f00 	cmp.w	r5, #2048	; 0x800
 8000958:	f8ad 1004 	strh.w	r1, [sp, #4]
 800095c:	9000      	str	r0, [sp, #0]
 800095e:	5518      	strb	r0, [r3, r4]
 8000960:	4669      	mov	r1, sp
 8000962:	d02a      	beq.n	80009ba <DISCOVERY_EXTI_IRQHandler+0x8a>
 8000964:	1ca0      	adds	r0, r4, #2
 8000966:	f89d 6001 	ldrb.w	r6, [sp, #1]
 800096a:	f5b0 6f00 	cmp.w	r0, #2048	; 0x800
 800096e:	555e      	strb	r6, [r3, r5]
 8000970:	d012      	beq.n	8000998 <DISCOVERY_EXTI_IRQHandler+0x68>
 8000972:	f89d 5002 	ldrb.w	r5, [sp, #2]
 8000976:	3403      	adds	r4, #3
 8000978:	f5b4 6f00 	cmp.w	r4, #2048	; 0x800
 800097c:	541d      	strb	r5, [r3, r0]
 800097e:	d123      	bne.n	80009c8 <DISCOVERY_EXTI_IRQHandler+0x98>
 8000980:	f89d 0003 	ldrb.w	r0, [sp, #3]
 8000984:	f89d c004 	ldrb.w	ip, [sp, #4]
 8000988:	7018      	strb	r0, [r3, #0]
 800098a:	f883 c001 	strb.w	ip, [r3, #1]
 800098e:	2302      	movs	r3, #2
 8000990:	6013      	str	r3, [r2, #0]
 8000992:	b003      	add	sp, #12
 8000994:	bc70      	pop	{r4, r5, r6}
 8000996:	4770      	bx	lr
 8000998:	f89d 1003 	ldrb.w	r1, [sp, #3]
 800099c:	f89d 4002 	ldrb.w	r4, [sp, #2]
 80009a0:	7059      	strb	r1, [r3, #1]
 80009a2:	701c      	strb	r4, [r3, #0]
 80009a4:	2102      	movs	r1, #2
 80009a6:	f89d 4004 	ldrb.w	r4, [sp, #4]
 80009aa:	1c48      	adds	r0, r1, #1
 80009ac:	545c      	strb	r4, [r3, r1]
 80009ae:	f5b0 6f00 	cmp.w	r0, #2048	; 0x800
 80009b2:	bf14      	ite	ne
 80009b4:	4603      	movne	r3, r0
 80009b6:	2300      	moveq	r3, #0
 80009b8:	e7ea      	b.n	8000990 <DISCOVERY_EXTI_IRQHandler+0x60>
 80009ba:	f89d 5001 	ldrb.w	r5, [sp, #1]
 80009be:	f89d 0002 	ldrb.w	r0, [sp, #2]
 80009c2:	701d      	strb	r5, [r3, #0]
 80009c4:	2402      	movs	r4, #2
 80009c6:	7058      	strb	r0, [r3, #1]
 80009c8:	78cd      	ldrb	r5, [r1, #3]
 80009ca:	1c61      	adds	r1, r4, #1
 80009cc:	f640 0004 	movw	r0, #2052	; 0x804
 80009d0:	f5b1 6f00 	cmp.w	r1, #2048	; 0x800
 80009d4:	551d      	strb	r5, [r3, r4]
 80009d6:	f2c2 0000 	movt	r0, #8192	; 0x2000
 80009da:	d1e4      	bne.n	80009a6 <DISCOVERY_EXTI_IRQHandler+0x76>
 80009dc:	f89d 1004 	ldrb.w	r1, [sp, #4]
 80009e0:	2301      	movs	r3, #1
 80009e2:	7001      	strb	r1, [r0, #0]
 80009e4:	e7d4      	b.n	8000990 <DISCOVERY_EXTI_IRQHandler+0x60>
 80009e6:	bf00      	nop

080009e8 <USBD_USR_DeviceDescriptor>:
 80009e8:	2312      	movs	r3, #18
 80009ea:	f240 0044 	movw	r0, #68	; 0x44
 80009ee:	800b      	strh	r3, [r1, #0]
 80009f0:	f2c2 0000 	movt	r0, #8192	; 0x2000
 80009f4:	4770      	bx	lr
 80009f6:	bf00      	nop

080009f8 <USBD_USR_LangIDStrDescriptor>:
 80009f8:	2304      	movs	r3, #4
 80009fa:	800b      	strh	r3, [r1, #0]
 80009fc:	4800      	ldr	r0, [pc, #0]	; (8000a00 <USBD_USR_LangIDStrDescriptor+0x8>)
 80009fe:	4770      	bx	lr
 8000a00:	20000058 	andcs	r0, r0, r8, asr r0

08000a04 <USBD_USR_ManufacturerStrDescriptor>:
 8000a04:	b510      	push	{r4, lr}
 8000a06:	f241 0404 	movw	r4, #4100	; 0x1004
 8000a0a:	f2c2 0400 	movt	r4, #8192	; 0x2000
 8000a0e:	f243 60e8 	movw	r0, #14056	; 0x36e8
 8000a12:	460a      	mov	r2, r1
 8000a14:	f6c0 0000 	movt	r0, #2048	; 0x800
 8000a18:	4621      	mov	r1, r4
 8000a1a:	f001 fb43 	bl	80020a4 <USBD_GetString>
 8000a1e:	4620      	mov	r0, r4
 8000a20:	bd10      	pop	{r4, pc}
 8000a22:	bf00      	nop

08000a24 <USBD_USR_InterfaceStrDescriptor>:
 8000a24:	460a      	mov	r2, r1
 8000a26:	f243 60fc 	movw	r0, #14076	; 0x36fc
 8000a2a:	f241 0104 	movw	r1, #4100	; 0x1004
 8000a2e:	b508      	push	{r3, lr}
 8000a30:	f6c0 0000 	movt	r0, #2048	; 0x800
 8000a34:	f2c2 0100 	movt	r1, #8192	; 0x2000
 8000a38:	f001 fb34 	bl	80020a4 <USBD_GetString>
 8000a3c:	f241 0004 	movw	r0, #4100	; 0x1004
 8000a40:	f2c2 0000 	movt	r0, #8192	; 0x2000
 8000a44:	bd08      	pop	{r3, pc}
 8000a46:	bf00      	nop

08000a48 <USBD_USR_ConfigStrDescriptor>:
 8000a48:	460a      	mov	r2, r1
 8000a4a:	f243 7018 	movw	r0, #14104	; 0x3718
 8000a4e:	f241 0104 	movw	r1, #4100	; 0x1004
 8000a52:	b508      	push	{r3, lr}
 8000a54:	f6c0 0000 	movt	r0, #2048	; 0x800
 8000a58:	f2c2 0100 	movt	r1, #8192	; 0x2000
 8000a5c:	f001 fb22 	bl	80020a4 <USBD_GetString>
 8000a60:	f241 0004 	movw	r0, #4100	; 0x1004
 8000a64:	f2c2 0000 	movt	r0, #8192	; 0x2000
 8000a68:	bd08      	pop	{r3, pc}
 8000a6a:	bf00      	nop

08000a6c <USBD_USR_SerialStrDescriptor>:
 8000a6c:	b508      	push	{r3, lr}
 8000a6e:	460a      	mov	r2, r1
 8000a70:	b170      	cbz	r0, 8000a90 <USBD_USR_SerialStrDescriptor+0x24>
 8000a72:	f243 7040 	movw	r0, #14144	; 0x3740
 8000a76:	f241 0104 	movw	r1, #4100	; 0x1004
 8000a7a:	f6c0 0000 	movt	r0, #2048	; 0x800
 8000a7e:	f2c2 0100 	movt	r1, #8192	; 0x2000
 8000a82:	f001 fb0f 	bl	80020a4 <USBD_GetString>
 8000a86:	f241 0004 	movw	r0, #4100	; 0x1004
 8000a8a:	f2c2 0000 	movt	r0, #8192	; 0x2000
 8000a8e:	bd08      	pop	{r3, pc}
 8000a90:	f243 7030 	movw	r0, #14128	; 0x3730
 8000a94:	f241 0104 	movw	r1, #4100	; 0x1004
 8000a98:	f6c0 0000 	movt	r0, #2048	; 0x800
 8000a9c:	f2c2 0100 	movt	r1, #8192	; 0x2000
 8000aa0:	f001 fb00 	bl	80020a4 <USBD_GetString>
 8000aa4:	f241 0004 	movw	r0, #4100	; 0x1004
 8000aa8:	f2c2 0000 	movt	r0, #8192	; 0x2000
 8000aac:	bd08      	pop	{r3, pc}
 8000aae:	bf00      	nop

08000ab0 <USBD_USR_ProductStrDescriptor>:
 8000ab0:	460a      	mov	r2, r1
 8000ab2:	f243 7050 	movw	r0, #14160	; 0x3750
 8000ab6:	f241 0104 	movw	r1, #4100	; 0x1004
 8000aba:	b508      	push	{r3, lr}
 8000abc:	f6c0 0000 	movt	r0, #2048	; 0x800
 8000ac0:	f2c2 0100 	movt	r1, #8192	; 0x2000
 8000ac4:	f001 faee 	bl	80020a4 <USBD_GetString>
 8000ac8:	f241 0004 	movw	r0, #4100	; 0x1004
 8000acc:	f2c2 0000 	movt	r0, #8192	; 0x2000
 8000ad0:	bd08      	pop	{r3, pc}
 8000ad2:	bf00      	nop

08000ad4 <USBD_USR_DeviceReset>:
 8000ad4:	4770      	bx	lr
 8000ad6:	bf00      	nop

08000ad8 <USBD_USR_DeviceResumed>:
 8000ad8:	2002      	movs	r0, #2
 8000ada:	f7ff bcd3 	b.w	8000484 <STM32F4_Discovery_LEDOn>
 8000ade:	bf00      	nop

08000ae0 <USBD_USR_DeviceConfigured>:
 8000ae0:	2002      	movs	r0, #2
 8000ae2:	f7ff bccf 	b.w	8000484 <STM32F4_Discovery_LEDOn>
 8000ae6:	bf00      	nop

08000ae8 <USBD_USR_DeviceSuspended>:
 8000ae8:	2002      	movs	r0, #2
 8000aea:	f7ff bcdb 	b.w	80004a4 <STM32F4_Discovery_LEDOff>
 8000aee:	bf00      	nop

08000af0 <USBD_USR_Init>:
 8000af0:	2002      	movs	r0, #2
 8000af2:	f7ff bca1 	b.w	8000438 <STM32F4_Discovery_LEDInit>
 8000af6:	bf00      	nop

08000af8 <GPIO_DeInit>:
 8000af8:	b508      	push	{r3, lr}
 8000afa:	2300      	movs	r3, #0
 8000afc:	f2c4 0302 	movt	r3, #16386	; 0x4002
 8000b00:	4298      	cmp	r0, r3
 8000b02:	d03c      	beq.n	8000b7e <GPIO_DeInit+0x86>
 8000b04:	f44f 6180 	mov.w	r1, #1024	; 0x400
 8000b08:	f2c4 0102 	movt	r1, #16386	; 0x4002
 8000b0c:	4288      	cmp	r0, r1
 8000b0e:	d040      	beq.n	8000b92 <GPIO_DeInit+0x9a>
 8000b10:	f44f 6200 	mov.w	r2, #2048	; 0x800
 8000b14:	f2c4 0202 	movt	r2, #16386	; 0x4002
 8000b18:	4290      	cmp	r0, r2
 8000b1a:	d044      	beq.n	8000ba6 <GPIO_DeInit+0xae>
 8000b1c:	f44f 6c40 	mov.w	ip, #3072	; 0xc00
 8000b20:	f2c4 0c02 	movt	ip, #16386	; 0x4002
 8000b24:	4560      	cmp	r0, ip
 8000b26:	d048      	beq.n	8000bba <GPIO_DeInit+0xc2>
 8000b28:	f44f 5380 	mov.w	r3, #4096	; 0x1000
 8000b2c:	f2c4 0302 	movt	r3, #16386	; 0x4002
 8000b30:	4298      	cmp	r0, r3
 8000b32:	d04c      	beq.n	8000bce <GPIO_DeInit+0xd6>
 8000b34:	f44f 51a0 	mov.w	r1, #5120	; 0x1400
 8000b38:	f2c4 0102 	movt	r1, #16386	; 0x4002
 8000b3c:	4288      	cmp	r0, r1
 8000b3e:	d050      	beq.n	8000be2 <GPIO_DeInit+0xea>
 8000b40:	f44f 52c0 	mov.w	r2, #6144	; 0x1800
 8000b44:	f2c4 0202 	movt	r2, #16386	; 0x4002
 8000b48:	4290      	cmp	r0, r2
 8000b4a:	d054      	beq.n	8000bf6 <GPIO_DeInit+0xfe>
 8000b4c:	f44f 5ce0 	mov.w	ip, #7168	; 0x1c00
 8000b50:	f2c4 0c02 	movt	ip, #16386	; 0x4002
 8000b54:	4560      	cmp	r0, ip
 8000b56:	d058      	beq.n	8000c0a <GPIO_DeInit+0x112>
 8000b58:	f44f 5300 	mov.w	r3, #8192	; 0x2000
 8000b5c:	f2c4 0302 	movt	r3, #16386	; 0x4002
 8000b60:	4298      	cmp	r0, r3
 8000b62:	d000      	beq.n	8000b66 <GPIO_DeInit+0x6e>
 8000b64:	bd08      	pop	{r3, pc}
 8000b66:	2101      	movs	r1, #1
 8000b68:	f44f 7080 	mov.w	r0, #256	; 0x100
 8000b6c:	f000 fbb0 	bl	80012d0 <RCC_AHB1PeriphResetCmd>
 8000b70:	f44f 7080 	mov.w	r0, #256	; 0x100
 8000b74:	2100      	movs	r1, #0
 8000b76:	e8bd 4008 	ldmia.w	sp!, {r3, lr}
 8000b7a:	f000 bba9 	b.w	80012d0 <RCC_AHB1PeriphResetCmd>
 8000b7e:	2001      	movs	r0, #1
 8000b80:	4601      	mov	r1, r0
 8000b82:	f000 fba5 	bl	80012d0 <RCC_AHB1PeriphResetCmd>
 8000b86:	2001      	movs	r0, #1
 8000b88:	2100      	movs	r1, #0
 8000b8a:	e8bd 4008 	ldmia.w	sp!, {r3, lr}
 8000b8e:	f000 bb9f 	b.w	80012d0 <RCC_AHB1PeriphResetCmd>
 8000b92:	2002      	movs	r0, #2
 8000b94:	2101      	movs	r1, #1
 8000b96:	f000 fb9b 	bl	80012d0 <RCC_AHB1PeriphResetCmd>
 8000b9a:	2002      	movs	r0, #2
 8000b9c:	2100      	movs	r1, #0
 8000b9e:	e8bd 4008 	ldmia.w	sp!, {r3, lr}
 8000ba2:	f000 bb95 	b.w	80012d0 <RCC_AHB1PeriphResetCmd>
 8000ba6:	2004      	movs	r0, #4
 8000ba8:	2101      	movs	r1, #1
 8000baa:	f000 fb91 	bl	80012d0 <RCC_AHB1PeriphResetCmd>
 8000bae:	2004      	movs	r0, #4
 8000bb0:	2100      	movs	r1, #0
 8000bb2:	e8bd 4008 	ldmia.w	sp!, {r3, lr}
 8000bb6:	f000 bb8b 	b.w	80012d0 <RCC_AHB1PeriphResetCmd>
 8000bba:	2008      	movs	r0, #8
 8000bbc:	2101      	movs	r1, #1
 8000bbe:	f000 fb87 	bl	80012d0 <RCC_AHB1PeriphResetCmd>
 8000bc2:	2008      	movs	r0, #8
 8000bc4:	2100      	movs	r1, #0
 8000bc6:	e8bd 4008 	ldmia.w	sp!, {r3, lr}
 8000bca:	f000 bb81 	b.w	80012d0 <RCC_AHB1PeriphResetCmd>
 8000bce:	2010      	movs	r0, #16
 8000bd0:	2101      	movs	r1, #1
 8000bd2:	f000 fb7d 	bl	80012d0 <RCC_AHB1PeriphResetCmd>
 8000bd6:	2010      	movs	r0, #16
 8000bd8:	2100      	movs	r1, #0
 8000bda:	e8bd 4008 	ldmia.w	sp!, {r3, lr}
 8000bde:	f000 bb77 	b.w	80012d0 <RCC_AHB1PeriphResetCmd>
 8000be2:	2020      	movs	r0, #32
 8000be4:	2101      	movs	r1, #1
 8000be6:	f000 fb73 	bl	80012d0 <RCC_AHB1PeriphResetCmd>
 8000bea:	2020      	movs	r0, #32
 8000bec:	2100      	movs	r1, #0
 8000bee:	e8bd 4008 	ldmia.w	sp!, {r3, lr}
 8000bf2:	f000 bb6d 	b.w	80012d0 <RCC_AHB1PeriphResetCmd>
 8000bf6:	2040      	movs	r0, #64	; 0x40
 8000bf8:	2101      	movs	r1, #1
 8000bfa:	f000 fb69 	bl	80012d0 <RCC_AHB1PeriphResetCmd>
 8000bfe:	2040      	movs	r0, #64	; 0x40
 8000c00:	2100      	movs	r1, #0
 8000c02:	e8bd 4008 	ldmia.w	sp!, {r3, lr}
 8000c06:	f000 bb63 	b.w	80012d0 <RCC_AHB1PeriphResetCmd>
 8000c0a:	2080      	movs	r0, #128	; 0x80
 8000c0c:	2101      	movs	r1, #1
 8000c0e:	f000 fb5f 	bl	80012d0 <RCC_AHB1PeriphResetCmd>
 8000c12:	2080      	movs	r0, #128	; 0x80
 8000c14:	2100      	movs	r1, #0
 8000c16:	e8bd 4008 	ldmia.w	sp!, {r3, lr}
 8000c1a:	f000 bb59 	b.w	80012d0 <RCC_AHB1PeriphResetCmd>
 8000c1e:	bf00      	nop

08000c20 <GPIO_Init>:
 8000c20:	2300      	movs	r3, #0
 8000c22:	e92d 07f0 	stmdb	sp!, {r4, r5, r6, r7, r8, r9, sl}
 8000c26:	680a      	ldr	r2, [r1, #0]
 8000c28:	461c      	mov	r4, r3
 8000c2a:	2601      	movs	r6, #1
 8000c2c:	f04f 0c03 	mov.w	ip, #3
 8000c30:	e00b      	b.n	8000c4a <GPIO_Init+0x2a>
 8000c32:	3401      	adds	r4, #1
 8000c34:	fa16 f504 	lsls.w	r5, r6, r4
 8000c38:	ea05 0702 	and.w	r7, r5, r2
 8000c3c:	3302      	adds	r3, #2
 8000c3e:	42af      	cmp	r7, r5
 8000c40:	d035      	beq.n	8000cae <GPIO_Init+0x8e>
 8000c42:	3401      	adds	r4, #1
 8000c44:	3302      	adds	r3, #2
 8000c46:	2c10      	cmp	r4, #16
 8000c48:	d059      	beq.n	8000cfe <GPIO_Init+0xde>
 8000c4a:	fa16 f504 	lsls.w	r5, r6, r4
 8000c4e:	ea05 0702 	and.w	r7, r5, r2
 8000c52:	42af      	cmp	r7, r5
 8000c54:	d1ed      	bne.n	8000c32 <GPIO_Init+0x12>
 8000c56:	f8d0 9000 	ldr.w	r9, [r0]
 8000c5a:	f891 8004 	ldrb.w	r8, [r1, #4]
 8000c5e:	fa0c f503 	lsl.w	r5, ip, r3
 8000c62:	43ed      	mvns	r5, r5
 8000c64:	ea05 0a09 	and.w	sl, r5, r9
 8000c68:	f8c0 a000 	str.w	sl, [r0]
 8000c6c:	f8d0 9000 	ldr.w	r9, [r0]
 8000c70:	fa08 fa03 	lsl.w	sl, r8, r3
 8000c74:	f108 38ff 	add.w	r8, r8, #4294967295
 8000c78:	fa5f f888 	uxtb.w	r8, r8
 8000c7c:	ea4a 0909 	orr.w	r9, sl, r9
 8000c80:	f1b8 0f01 	cmp.w	r8, #1
 8000c84:	f8c0 9000 	str.w	r9, [r0]
 8000c88:	d93c      	bls.n	8000d04 <GPIO_Init+0xe4>
 8000c8a:	68c7      	ldr	r7, [r0, #12]
 8000c8c:	f891 8007 	ldrb.w	r8, [r1, #7]
 8000c90:	403d      	ands	r5, r7
 8000c92:	60c5      	str	r5, [r0, #12]
 8000c94:	68c7      	ldr	r7, [r0, #12]
 8000c96:	fa08 f503 	lsl.w	r5, r8, r3
 8000c9a:	433d      	orrs	r5, r7
 8000c9c:	3401      	adds	r4, #1
 8000c9e:	60c5      	str	r5, [r0, #12]
 8000ca0:	fa16 f504 	lsls.w	r5, r6, r4
 8000ca4:	ea05 0702 	and.w	r7, r5, r2
 8000ca8:	3302      	adds	r3, #2
 8000caa:	42af      	cmp	r7, r5
 8000cac:	d1c9      	bne.n	8000c42 <GPIO_Init+0x22>
 8000cae:	f8d0 9000 	ldr.w	r9, [r0]
 8000cb2:	f891 8004 	ldrb.w	r8, [r1, #4]
 8000cb6:	fa0c f503 	lsl.w	r5, ip, r3
 8000cba:	43ed      	mvns	r5, r5
 8000cbc:	ea05 0a09 	and.w	sl, r5, r9
 8000cc0:	f8c0 a000 	str.w	sl, [r0]
 8000cc4:	f8d0 9000 	ldr.w	r9, [r0]
 8000cc8:	fa08 fa03 	lsl.w	sl, r8, r3
 8000ccc:	f108 38ff 	add.w	r8, r8, #4294967295
 8000cd0:	fa5f f888 	uxtb.w	r8, r8
 8000cd4:	ea4a 0909 	orr.w	r9, sl, r9
 8000cd8:	f1b8 0f01 	cmp.w	r8, #1
 8000cdc:	f8c0 9000 	str.w	r9, [r0]
 8000ce0:	d930      	bls.n	8000d44 <GPIO_Init+0x124>
 8000ce2:	68c7      	ldr	r7, [r0, #12]
 8000ce4:	f891 8007 	ldrb.w	r8, [r1, #7]
 8000ce8:	402f      	ands	r7, r5
 8000cea:	60c7      	str	r7, [r0, #12]
 8000cec:	68c7      	ldr	r7, [r0, #12]
 8000cee:	fa08 f503 	lsl.w	r5, r8, r3
 8000cf2:	3401      	adds	r4, #1
 8000cf4:	433d      	orrs	r5, r7
 8000cf6:	3302      	adds	r3, #2
 8000cf8:	2c10      	cmp	r4, #16
 8000cfa:	60c5      	str	r5, [r0, #12]
 8000cfc:	d1a5      	bne.n	8000c4a <GPIO_Init+0x2a>
 8000cfe:	e8bd 07f0 	ldmia.w	sp!, {r4, r5, r6, r7, r8, r9, sl}
 8000d02:	4770      	bx	lr
 8000d04:	f8d0 a008 	ldr.w	sl, [r0, #8]
 8000d08:	f891 9005 	ldrb.w	r9, [r1, #5]
 8000d0c:	f891 8006 	ldrb.w	r8, [r1, #6]
 8000d10:	ea05 0a0a 	and.w	sl, r5, sl
 8000d14:	f8c0 a008 	str.w	sl, [r0, #8]
 8000d18:	f8d0 a008 	ldr.w	sl, [r0, #8]
 8000d1c:	fa09 f903 	lsl.w	r9, r9, r3
 8000d20:	ea49 090a 	orr.w	r9, r9, sl
 8000d24:	f8c0 9008 	str.w	r9, [r0, #8]
 8000d28:	f8d0 9004 	ldr.w	r9, [r0, #4]
 8000d2c:	ea29 0707 	bic.w	r7, r9, r7
 8000d30:	6047      	str	r7, [r0, #4]
 8000d32:	6847      	ldr	r7, [r0, #4]
 8000d34:	fa08 f804 	lsl.w	r8, r8, r4
 8000d38:	fa1f f888 	uxth.w	r8, r8
 8000d3c:	ea48 0707 	orr.w	r7, r8, r7
 8000d40:	6047      	str	r7, [r0, #4]
 8000d42:	e7a2      	b.n	8000c8a <GPIO_Init+0x6a>
 8000d44:	f8d0 a008 	ldr.w	sl, [r0, #8]
 8000d48:	f891 9005 	ldrb.w	r9, [r1, #5]
 8000d4c:	f891 8006 	ldrb.w	r8, [r1, #6]
 8000d50:	ea05 0a0a 	and.w	sl, r5, sl
 8000d54:	f8c0 a008 	str.w	sl, [r0, #8]
 8000d58:	f8d0 a008 	ldr.w	sl, [r0, #8]
 8000d5c:	fa09 f903 	lsl.w	r9, r9, r3
 8000d60:	ea49 090a 	orr.w	r9, r9, sl
 8000d64:	f8c0 9008 	str.w	r9, [r0, #8]
 8000d68:	f8d0 9004 	ldr.w	r9, [r0, #4]
 8000d6c:	ea29 0707 	bic.w	r7, r9, r7
 8000d70:	6047      	str	r7, [r0, #4]
 8000d72:	6847      	ldr	r7, [r0, #4]
 8000d74:	fa08 f804 	lsl.w	r8, r8, r4
 8000d78:	fa1f f888 	uxth.w	r8, r8
 8000d7c:	ea48 0707 	orr.w	r7, r8, r7
 8000d80:	6047      	str	r7, [r0, #4]
 8000d82:	e7ae      	b.n	8000ce2 <GPIO_Init+0xc2>

08000d84 <GPIO_StructInit>:
 8000d84:	2300      	movs	r3, #0
 8000d86:	f64f 72ff 	movw	r2, #65535	; 0xffff
 8000d8a:	6002      	str	r2, [r0, #0]
 8000d8c:	7103      	strb	r3, [r0, #4]
 8000d8e:	7143      	strb	r3, [r0, #5]
 8000d90:	7183      	strb	r3, [r0, #6]
 8000d92:	71c3      	strb	r3, [r0, #7]
 8000d94:	4770      	bx	lr
 8000d96:	bf00      	nop

08000d98 <GPIO_PinLockConfig>:
 8000d98:	b082      	sub	sp, #8
 8000d9a:	f44f 3280 	mov.w	r2, #65536	; 0x10000
 8000d9e:	9201      	str	r2, [sp, #4]
 8000da0:	9b01      	ldr	r3, [sp, #4]
 8000da2:	ea41 0203 	orr.w	r2, r1, r3
 8000da6:	9201      	str	r2, [sp, #4]
 8000da8:	9b01      	ldr	r3, [sp, #4]
 8000daa:	61c3      	str	r3, [r0, #28]
 8000dac:	61c1      	str	r1, [r0, #28]
 8000dae:	9a01      	ldr	r2, [sp, #4]
 8000db0:	61c2      	str	r2, [r0, #28]
 8000db2:	69c1      	ldr	r1, [r0, #28]
 8000db4:	9101      	str	r1, [sp, #4]
 8000db6:	69c3      	ldr	r3, [r0, #28]
 8000db8:	9301      	str	r3, [sp, #4]
 8000dba:	b002      	add	sp, #8
 8000dbc:	4770      	bx	lr
 8000dbe:	bf00      	nop

08000dc0 <GPIO_ReadInputDataBit>:
 8000dc0:	6903      	ldr	r3, [r0, #16]
 8000dc2:	4219      	tst	r1, r3
 8000dc4:	bf0c      	ite	eq
 8000dc6:	2000      	moveq	r0, #0
 8000dc8:	2001      	movne	r0, #1
 8000dca:	4770      	bx	lr

08000dcc <GPIO_ReadInputData>:
 8000dcc:	6900      	ldr	r0, [r0, #16]
 8000dce:	b280      	uxth	r0, r0
 8000dd0:	4770      	bx	lr
 8000dd2:	bf00      	nop

08000dd4 <GPIO_ReadOutputDataBit>:
 8000dd4:	6943      	ldr	r3, [r0, #20]
 8000dd6:	4219      	tst	r1, r3
 8000dd8:	bf0c      	ite	eq
 8000dda:	2000      	moveq	r0, #0
 8000ddc:	2001      	movne	r0, #1
 8000dde:	4770      	bx	lr

08000de0 <GPIO_ReadOutputData>:
 8000de0:	6940      	ldr	r0, [r0, #20]
 8000de2:	b280      	uxth	r0, r0
 8000de4:	4770      	bx	lr
 8000de6:	bf00      	nop

08000de8 <GPIO_SetBits>:
 8000de8:	8301      	strh	r1, [r0, #24]
 8000dea:	4770      	bx	lr

08000dec <GPIO_ResetBits>:
 8000dec:	8341      	strh	r1, [r0, #26]
 8000dee:	4770      	bx	lr

08000df0 <GPIO_WriteBit>:
 8000df0:	b90a      	cbnz	r2, 8000df6 <GPIO_WriteBit+0x6>
 8000df2:	8341      	strh	r1, [r0, #26]
 8000df4:	4770      	bx	lr
 8000df6:	8301      	strh	r1, [r0, #24]
 8000df8:	4770      	bx	lr
 8000dfa:	bf00      	nop

08000dfc <GPIO_Write>:
 8000dfc:	6141      	str	r1, [r0, #20]
 8000dfe:	4770      	bx	lr

08000e00 <GPIO_ToggleBits>:
 8000e00:	6942      	ldr	r2, [r0, #20]
 8000e02:	ea81 0302 	eor.w	r3, r1, r2
 8000e06:	6143      	str	r3, [r0, #20]
 8000e08:	4770      	bx	lr
 8000e0a:	bf00      	nop

08000e0c <GPIO_PinAFConfig>:
 8000e0c:	08cb      	lsrs	r3, r1, #3
 8000e0e:	3308      	adds	r3, #8
 8000e10:	f001 0107 	and.w	r1, r1, #7
 8000e14:	b430      	push	{r4, r5}
 8000e16:	0089      	lsls	r1, r1, #2
 8000e18:	f850 5023 	ldr.w	r5, [r0, r3, lsl #2]
 8000e1c:	240f      	movs	r4, #15
 8000e1e:	408c      	lsls	r4, r1
 8000e20:	ea25 0404 	bic.w	r4, r5, r4
 8000e24:	f840 4023 	str.w	r4, [r0, r3, lsl #2]
 8000e28:	f850 4023 	ldr.w	r4, [r0, r3, lsl #2]
 8000e2c:	fa12 f101 	lsls.w	r1, r2, r1
 8000e30:	430c      	orrs	r4, r1
 8000e32:	f840 4023 	str.w	r4, [r0, r3, lsl #2]
 8000e36:	bc30      	pop	{r4, r5}
 8000e38:	4770      	bx	lr
 8000e3a:	bf00      	nop

08000e3c <EXTI_DeInit>:
 8000e3c:	f44f 5370 	mov.w	r3, #15360	; 0x3c00
 8000e40:	f2c4 0301 	movt	r3, #16385	; 0x4001
 8000e44:	f64f 71ff 	movw	r1, #65535	; 0xffff
 8000e48:	2200      	movs	r2, #0
 8000e4a:	f2c0 017f 	movt	r1, #127	; 0x7f
 8000e4e:	601a      	str	r2, [r3, #0]
 8000e50:	605a      	str	r2, [r3, #4]
 8000e52:	609a      	str	r2, [r3, #8]
 8000e54:	60da      	str	r2, [r3, #12]
 8000e56:	6159      	str	r1, [r3, #20]
 8000e58:	4770      	bx	lr
 8000e5a:	bf00      	nop

08000e5c <EXTI_Init>:
 8000e5c:	7983      	ldrb	r3, [r0, #6]
 8000e5e:	b470      	push	{r4, r5, r6}
 8000e60:	b343      	cbz	r3, 8000eb4 <EXTI_Init+0x58>
 8000e62:	f44f 5370 	mov.w	r3, #15360	; 0x3c00
 8000e66:	f2c4 0301 	movt	r3, #16385	; 0x4001
 8000e6a:	6801      	ldr	r1, [r0, #0]
 8000e6c:	681e      	ldr	r6, [r3, #0]
 8000e6e:	7902      	ldrb	r2, [r0, #4]
 8000e70:	7945      	ldrb	r5, [r0, #5]
 8000e72:	43cc      	mvns	r4, r1
 8000e74:	4026      	ands	r6, r4
 8000e76:	601e      	str	r6, [r3, #0]
 8000e78:	685e      	ldr	r6, [r3, #4]
 8000e7a:	f102 4c80 	add.w	ip, r2, #1073741824	; 0x40000000
 8000e7e:	f50c 329e 	add.w	r2, ip, #80896	; 0x13c00
 8000e82:	4034      	ands	r4, r6
 8000e84:	605c      	str	r4, [r3, #4]
 8000e86:	6814      	ldr	r4, [r2, #0]
 8000e88:	4321      	orrs	r1, r4
 8000e8a:	6011      	str	r1, [r2, #0]
 8000e8c:	6802      	ldr	r2, [r0, #0]
 8000e8e:	6898      	ldr	r0, [r3, #8]
 8000e90:	43d1      	mvns	r1, r2
 8000e92:	4008      	ands	r0, r1
 8000e94:	6098      	str	r0, [r3, #8]
 8000e96:	68d8      	ldr	r0, [r3, #12]
 8000e98:	2d10      	cmp	r5, #16
 8000e9a:	ea01 0100 	and.w	r1, r1, r0
 8000e9e:	60d9      	str	r1, [r3, #12]
 8000ea0:	d016      	beq.n	8000ed0 <EXTI_Init+0x74>
 8000ea2:	f105 4580 	add.w	r5, r5, #1073741824	; 0x40000000
 8000ea6:	f505 359e 	add.w	r5, r5, #80896	; 0x13c00
 8000eaa:	6828      	ldr	r0, [r5, #0]
 8000eac:	ea40 0302 	orr.w	r3, r0, r2
 8000eb0:	602b      	str	r3, [r5, #0]
 8000eb2:	e00b      	b.n	8000ecc <EXTI_Init+0x70>
 8000eb4:	7902      	ldrb	r2, [r0, #4]
 8000eb6:	6801      	ldr	r1, [r0, #0]
 8000eb8:	f102 4080 	add.w	r0, r2, #1073741824	; 0x40000000
 8000ebc:	f500 3c9e 	add.w	ip, r0, #80896	; 0x13c00
 8000ec0:	f8dc 3000 	ldr.w	r3, [ip]
 8000ec4:	ea23 0201 	bic.w	r2, r3, r1
 8000ec8:	f8cc 2000 	str.w	r2, [ip]
 8000ecc:	bc70      	pop	{r4, r5, r6}
 8000ece:	4770      	bx	lr
 8000ed0:	6899      	ldr	r1, [r3, #8]
 8000ed2:	ea41 0002 	orr.w	r0, r1, r2
 8000ed6:	6098      	str	r0, [r3, #8]
 8000ed8:	68d9      	ldr	r1, [r3, #12]
 8000eda:	ea41 0002 	orr.w	r0, r1, r2
 8000ede:	60d8      	str	r0, [r3, #12]
 8000ee0:	e7f4      	b.n	8000ecc <EXTI_Init+0x70>
 8000ee2:	bf00      	nop

08000ee4 <EXTI_StructInit>:
 8000ee4:	2300      	movs	r3, #0
 8000ee6:	220c      	movs	r2, #12
 8000ee8:	6003      	str	r3, [r0, #0]
 8000eea:	7103      	strb	r3, [r0, #4]
 8000eec:	7142      	strb	r2, [r0, #5]
 8000eee:	7183      	strb	r3, [r0, #6]
 8000ef0:	4770      	bx	lr
 8000ef2:	bf00      	nop

08000ef4 <EXTI_GenerateSWInterrupt>:
 8000ef4:	f44f 5370 	mov.w	r3, #15360	; 0x3c00
 8000ef8:	f2c4 0301 	movt	r3, #16385	; 0x4001
 8000efc:	6919      	ldr	r1, [r3, #16]
 8000efe:	ea40 0201 	orr.w	r2, r0, r1
 8000f02:	611a      	str	r2, [r3, #16]
 8000f04:	4770      	bx	lr
 8000f06:	bf00      	nop

08000f08 <EXTI_GetFlagStatus>:
 8000f08:	f44f 5170 	mov.w	r1, #15360	; 0x3c00
 8000f0c:	f2c4 0101 	movt	r1, #16385	; 0x4001
 8000f10:	694b      	ldr	r3, [r1, #20]
 8000f12:	4218      	tst	r0, r3
 8000f14:	bf0c      	ite	eq
 8000f16:	2000      	moveq	r0, #0
 8000f18:	2001      	movne	r0, #1
 8000f1a:	4770      	bx	lr

08000f1c <EXTI_ClearFlag>:
 8000f1c:	f44f 5370 	mov.w	r3, #15360	; 0x3c00
 8000f20:	f2c4 0301 	movt	r3, #16385	; 0x4001
 8000f24:	6158      	str	r0, [r3, #20]
 8000f26:	4770      	bx	lr

08000f28 <EXTI_GetITStatus>:
 8000f28:	f44f 5170 	mov.w	r1, #15360	; 0x3c00
 8000f2c:	f2c4 0101 	movt	r1, #16385	; 0x4001
 8000f30:	680a      	ldr	r2, [r1, #0]
 8000f32:	694b      	ldr	r3, [r1, #20]
 8000f34:	4003      	ands	r3, r0
 8000f36:	d004      	beq.n	8000f42 <EXTI_GetITStatus+0x1a>
 8000f38:	4210      	tst	r0, r2
 8000f3a:	bf0c      	ite	eq
 8000f3c:	2000      	moveq	r0, #0
 8000f3e:	2001      	movne	r0, #1
 8000f40:	4770      	bx	lr
 8000f42:	4618      	mov	r0, r3
 8000f44:	4770      	bx	lr
 8000f46:	bf00      	nop

08000f48 <EXTI_ClearITPendingBit>:
 8000f48:	f44f 5370 	mov.w	r3, #15360	; 0x3c00
 8000f4c:	f2c4 0301 	movt	r3, #16385	; 0x4001
 8000f50:	6158      	str	r0, [r3, #20]
 8000f52:	4770      	bx	lr

08000f54 <RCC_DeInit>:
 8000f54:	f44f 5360 	mov.w	r3, #14336	; 0x3800
 8000f58:	f2c4 0302 	movt	r3, #16386	; 0x4002
 8000f5c:	2200      	movs	r2, #0
 8000f5e:	6818      	ldr	r0, [r3, #0]
 8000f60:	f040 0101 	orr.w	r1, r0, #1
 8000f64:	6019      	str	r1, [r3, #0]
 8000f66:	609a      	str	r2, [r3, #8]
 8000f68:	6818      	ldr	r0, [r3, #0]
 8000f6a:	f243 0110 	movw	r1, #12304	; 0x3010
 8000f6e:	f020 7c84 	bic.w	ip, r0, #17301504	; 0x1080000
 8000f72:	f42c 3080 	bic.w	r0, ip, #65536	; 0x10000
 8000f76:	f2c2 4100 	movt	r1, #9216	; 0x2400
 8000f7a:	6018      	str	r0, [r3, #0]
 8000f7c:	6059      	str	r1, [r3, #4]
 8000f7e:	6818      	ldr	r0, [r3, #0]
 8000f80:	f420 2180 	bic.w	r1, r0, #262144	; 0x40000
 8000f84:	6019      	str	r1, [r3, #0]
 8000f86:	60da      	str	r2, [r3, #12]
 8000f88:	4770      	bx	lr
 8000f8a:	bf00      	nop

08000f8c <RCC_HSEConfig>:
 8000f8c:	f643 0302 	movw	r3, #14338	; 0x3802
 8000f90:	f2c4 0302 	movt	r3, #16386	; 0x4002
 8000f94:	2200      	movs	r2, #0
 8000f96:	701a      	strb	r2, [r3, #0]
 8000f98:	7018      	strb	r0, [r3, #0]
 8000f9a:	4770      	bx	lr

08000f9c <RCC_WaitForHSEStartUp>:
 8000f9c:	b082      	sub	sp, #8
 8000f9e:	f44f 5160 	mov.w	r1, #14336	; 0x3800
 8000fa2:	2300      	movs	r3, #0
 8000fa4:	9301      	str	r3, [sp, #4]
 8000fa6:	f2c4 0102 	movt	r1, #16386	; 0x4002
 8000faa:	680a      	ldr	r2, [r1, #0]
 8000fac:	9801      	ldr	r0, [sp, #4]
 8000fae:	1c43      	adds	r3, r0, #1
 8000fb0:	9301      	str	r3, [sp, #4]
 8000fb2:	9801      	ldr	r0, [sp, #4]
 8000fb4:	f5b0 6fa0 	cmp.w	r0, #1280	; 0x500
 8000fb8:	d001      	beq.n	8000fbe <RCC_WaitForHSEStartUp+0x22>
 8000fba:	0393      	lsls	r3, r2, #14
 8000fbc:	d5f5      	bpl.n	8000faa <RCC_WaitForHSEStartUp+0xe>
 8000fbe:	f44f 5260 	mov.w	r2, #14336	; 0x3800
 8000fc2:	f2c4 0202 	movt	r2, #16386	; 0x4002
 8000fc6:	6811      	ldr	r1, [r2, #0]
 8000fc8:	f3c1 4040 	ubfx	r0, r1, #17, #1
 8000fcc:	b002      	add	sp, #8
 8000fce:	4770      	bx	lr

08000fd0 <RCC_AdjustHSICalibrationValue>:
 8000fd0:	f44f 5360 	mov.w	r3, #14336	; 0x3800
 8000fd4:	f2c4 0302 	movt	r3, #16386	; 0x4002
 8000fd8:	681a      	ldr	r2, [r3, #0]
 8000fda:	f022 01f8 	bic.w	r1, r2, #248	; 0xf8
 8000fde:	ea41 02c0 	orr.w	r2, r1, r0, lsl #3
 8000fe2:	601a      	str	r2, [r3, #0]
 8000fe4:	4770      	bx	lr
 8000fe6:	bf00      	nop

08000fe8 <RCC_HSICmd>:
 8000fe8:	2300      	movs	r3, #0
 8000fea:	f2c4 2347 	movt	r3, #16967	; 0x4247
 8000fee:	6018      	str	r0, [r3, #0]
 8000ff0:	4770      	bx	lr
 8000ff2:	bf00      	nop

08000ff4 <RCC_LSEConfig>:
 8000ff4:	f643 0370 	movw	r3, #14448	; 0x3870
 8000ff8:	f2c4 0302 	movt	r3, #16386	; 0x4002
 8000ffc:	2200      	movs	r2, #0
 8000ffe:	2801      	cmp	r0, #1
 8001000:	701a      	strb	r2, [r3, #0]
 8001002:	701a      	strb	r2, [r3, #0]
 8001004:	d004      	beq.n	8001010 <RCC_LSEConfig+0x1c>
 8001006:	2804      	cmp	r0, #4
 8001008:	d101      	bne.n	800100e <RCC_LSEConfig+0x1a>
 800100a:	2005      	movs	r0, #5
 800100c:	7018      	strb	r0, [r3, #0]
 800100e:	4770      	bx	lr
 8001010:	7018      	strb	r0, [r3, #0]
 8001012:	4770      	bx	lr

08001014 <RCC_LSICmd>:
 8001014:	f44f 6368 	mov.w	r3, #3712	; 0xe80
 8001018:	f2c4 2347 	movt	r3, #16967	; 0x4247
 800101c:	6018      	str	r0, [r3, #0]
 800101e:	4770      	bx	lr

08001020 <RCC_PLLConfig>:
 8001020:	4308      	orrs	r0, r1
 8001022:	ea40 1c82 	orr.w	ip, r0, r2, lsl #6
 8001026:	9a00      	ldr	r2, [sp, #0]
 8001028:	085b      	lsrs	r3, r3, #1
 800102a:	f44f 5060 	mov.w	r0, #14336	; 0x3800
 800102e:	ea4c 6102 	orr.w	r1, ip, r2, lsl #24
 8001032:	3b01      	subs	r3, #1
 8001034:	f2c4 0002 	movt	r0, #16386	; 0x4002
 8001038:	ea41 4203 	orr.w	r2, r1, r3, lsl #16
 800103c:	6042      	str	r2, [r0, #4]
 800103e:	4770      	bx	lr

08001040 <RCC_PLLCmd>:
 8001040:	2360      	movs	r3, #96	; 0x60
 8001042:	f2c4 2347 	movt	r3, #16967	; 0x4247
 8001046:	6018      	str	r0, [r3, #0]
 8001048:	4770      	bx	lr
 800104a:	bf00      	nop

0800104c <RCC_PLLI2SConfig>:
 800104c:	f44f 5360 	mov.w	r3, #14336	; 0x3800
 8001050:	0180      	lsls	r0, r0, #6
 8001052:	f2c4 0302 	movt	r3, #16386	; 0x4002
 8001056:	ea40 7101 	orr.w	r1, r0, r1, lsl #28
 800105a:	f8c3 1084 	str.w	r1, [r3, #132]	; 0x84
 800105e:	4770      	bx	lr

08001060 <RCC_PLLI2SCmd>:
 8001060:	2368      	movs	r3, #104	; 0x68
 8001062:	f2c4 2347 	movt	r3, #16967	; 0x4247
 8001066:	6018      	str	r0, [r3, #0]
 8001068:	4770      	bx	lr
 800106a:	bf00      	nop

0800106c <RCC_ClockSecuritySystemCmd>:
 800106c:	234c      	movs	r3, #76	; 0x4c
 800106e:	f2c4 2347 	movt	r3, #16967	; 0x4247
 8001072:	6018      	str	r0, [r3, #0]
 8001074:	4770      	bx	lr
 8001076:	bf00      	nop

08001078 <RCC_MCO1Config>:
 8001078:	f44f 5360 	mov.w	r3, #14336	; 0x3800
 800107c:	f2c4 0302 	movt	r3, #16386	; 0x4002
 8001080:	689a      	ldr	r2, [r3, #8]
 8001082:	f022 6cec 	bic.w	ip, r2, #123731968	; 0x7600000
 8001086:	ea40 000c 	orr.w	r0, r0, ip
 800108a:	ea40 0201 	orr.w	r2, r0, r1
 800108e:	609a      	str	r2, [r3, #8]
 8001090:	4770      	bx	lr
 8001092:	bf00      	nop

08001094 <RCC_MCO2Config>:
 8001094:	f44f 5360 	mov.w	r3, #14336	; 0x3800
 8001098:	f2c4 0302 	movt	r3, #16386	; 0x4002
 800109c:	689a      	ldr	r2, [r3, #8]
 800109e:	f022 4c78 	bic.w	ip, r2, #4160749568	; 0xf8000000
 80010a2:	ea40 000c 	orr.w	r0, r0, ip
 80010a6:	ea40 0201 	orr.w	r2, r0, r1
 80010aa:	609a      	str	r2, [r3, #8]
 80010ac:	4770      	bx	lr
 80010ae:	bf00      	nop

080010b0 <RCC_SYSCLKConfig>:
 80010b0:	f44f 5360 	mov.w	r3, #14336	; 0x3800
 80010b4:	f2c4 0302 	movt	r3, #16386	; 0x4002
 80010b8:	689a      	ldr	r2, [r3, #8]
 80010ba:	f022 0103 	bic.w	r1, r2, #3
 80010be:	ea40 0201 	orr.w	r2, r0, r1
 80010c2:	609a      	str	r2, [r3, #8]
 80010c4:	4770      	bx	lr
 80010c6:	bf00      	nop

080010c8 <RCC_GetSYSCLKSource>:
 80010c8:	f44f 5360 	mov.w	r3, #14336	; 0x3800
 80010cc:	f2c4 0302 	movt	r3, #16386	; 0x4002
 80010d0:	6898      	ldr	r0, [r3, #8]
 80010d2:	f000 000c 	and.w	r0, r0, #12
 80010d6:	4770      	bx	lr

080010d8 <RCC_HCLKConfig>:
 80010d8:	f44f 5360 	mov.w	r3, #14336	; 0x3800
 80010dc:	f2c4 0302 	movt	r3, #16386	; 0x4002
 80010e0:	689a      	ldr	r2, [r3, #8]
 80010e2:	f022 01f0 	bic.w	r1, r2, #240	; 0xf0
 80010e6:	ea40 0201 	orr.w	r2, r0, r1
 80010ea:	609a      	str	r2, [r3, #8]
 80010ec:	4770      	bx	lr
 80010ee:	bf00      	nop

080010f0 <RCC_PCLK1Config>:
 80010f0:	f44f 5360 	mov.w	r3, #14336	; 0x3800
 80010f4:	f2c4 0302 	movt	r3, #16386	; 0x4002
 80010f8:	689a      	ldr	r2, [r3, #8]
 80010fa:	f422 51e0 	bic.w	r1, r2, #7168	; 0x1c00
 80010fe:	ea40 0201 	orr.w	r2, r0, r1
 8001102:	609a      	str	r2, [r3, #8]
 8001104:	4770      	bx	lr
 8001106:	bf00      	nop

08001108 <RCC_PCLK2Config>:
 8001108:	f44f 5360 	mov.w	r3, #14336	; 0x3800
 800110c:	f2c4 0302 	movt	r3, #16386	; 0x4002
 8001110:	689a      	ldr	r2, [r3, #8]
 8001112:	f422 4160 	bic.w	r1, r2, #57344	; 0xe000
 8001116:	ea41 02c0 	orr.w	r2, r1, r0, lsl #3
 800111a:	609a      	str	r2, [r3, #8]
 800111c:	4770      	bx	lr
 800111e:	bf00      	nop

08001120 <RCC_GetClocksFreq>:
 8001120:	f44f 5360 	mov.w	r3, #14336	; 0x3800
 8001124:	f2c4 0302 	movt	r3, #16386	; 0x4002
 8001128:	b410      	push	{r4}
 800112a:	689a      	ldr	r2, [r3, #8]
 800112c:	f002 020c 	and.w	r2, r2, #12
 8001130:	2a04      	cmp	r2, #4
 8001132:	bf02      	ittt	eq
 8001134:	f44f 5190 	moveq.w	r1, #4608	; 0x1200
 8001138:	f2c0 017a 	movteq	r1, #122	; 0x7a
 800113c:	6001      	streq	r1, [r0, #0]
 800113e:	d007      	beq.n	8001150 <RCC_GetClocksFreq+0x30>
 8001140:	2a08      	cmp	r2, #8
 8001142:	bf1e      	ittt	ne
 8001144:	f44f 5110 	movne.w	r1, #9216	; 0x2400
 8001148:	f2c0 01f4 	movtne	r1, #244	; 0xf4
 800114c:	6001      	strne	r1, [r0, #0]
 800114e:	d020      	beq.n	8001192 <RCC_GetClocksFreq+0x72>
 8001150:	f44f 5360 	mov.w	r3, #14336	; 0x3800
 8001154:	f2c4 0302 	movt	r3, #16386	; 0x4002
 8001158:	f240 0ca0 	movw	ip, #160	; 0xa0
 800115c:	689a      	ldr	r2, [r3, #8]
 800115e:	f2c2 0c00 	movt	ip, #8192	; 0x2000
 8001162:	f3c2 1403 	ubfx	r4, r2, #4, #4
 8001166:	f81c 2004 	ldrb.w	r2, [ip, r4]
 800116a:	40d1      	lsrs	r1, r2
 800116c:	6041      	str	r1, [r0, #4]
 800116e:	689c      	ldr	r4, [r3, #8]
 8001170:	f3c4 2282 	ubfx	r2, r4, #10, #3
 8001174:	f81c 4002 	ldrb.w	r4, [ip, r2]
 8001178:	fa31 f404 	lsrs.w	r4, r1, r4
 800117c:	6084      	str	r4, [r0, #8]
 800117e:	689a      	ldr	r2, [r3, #8]
 8001180:	f3c2 3342 	ubfx	r3, r2, #13, #3
 8001184:	f81c 2003 	ldrb.w	r2, [ip, r3]
 8001188:	fa31 f302 	lsrs.w	r3, r1, r2
 800118c:	60c3      	str	r3, [r0, #12]
 800118e:	bc10      	pop	{r4}
 8001190:	4770      	bx	lr
 8001192:	685c      	ldr	r4, [r3, #4]
 8001194:	685a      	ldr	r2, [r3, #4]
 8001196:	6859      	ldr	r1, [r3, #4]
 8001198:	f414 0f80 	tst.w	r4, #4194304	; 0x400000
 800119c:	f44f 5c60 	mov.w	ip, #14336	; 0x3800
 80011a0:	bf14      	ite	ne
 80011a2:	f44f 5390 	movne.w	r3, #4608	; 0x1200
 80011a6:	f44f 5310 	moveq.w	r3, #9216	; 0x2400
 80011aa:	f2c4 0c02 	movt	ip, #16386	; 0x4002
 80011ae:	bf14      	ite	ne
 80011b0:	f2c0 037a 	movtne	r3, #122	; 0x7a
 80011b4:	f2c0 03f4 	movteq	r3, #244	; 0xf4
 80011b8:	f002 023f 	and.w	r2, r2, #63	; 0x3f
 80011bc:	f3c1 1488 	ubfx	r4, r1, #6, #9
 80011c0:	fbb3 f1f2 	udiv	r1, r3, r2
 80011c4:	f8dc 3004 	ldr.w	r3, [ip, #4]
 80011c8:	f3c3 4201 	ubfx	r2, r3, #16, #2
 80011cc:	fb01 f104 	mul.w	r1, r1, r4
 80011d0:	1c54      	adds	r4, r2, #1
 80011d2:	0063      	lsls	r3, r4, #1
 80011d4:	fbb1 f1f3 	udiv	r1, r1, r3
 80011d8:	6001      	str	r1, [r0, #0]
 80011da:	e7b9      	b.n	8001150 <RCC_GetClocksFreq+0x30>

080011dc <RCC_RTCCLKConfig>:
 80011dc:	f400 7340 	and.w	r3, r0, #768	; 0x300
 80011e0:	f5b3 7f40 	cmp.w	r3, #768	; 0x300
 80011e4:	d10f      	bne.n	8001206 <RCC_RTCCLKConfig+0x2a>
 80011e6:	f44f 5c60 	mov.w	ip, #14336	; 0x3800
 80011ea:	f2c4 0c02 	movt	ip, #16386	; 0x4002
 80011ee:	f020 4370 	bic.w	r3, r0, #4026531840	; 0xf0000000
 80011f2:	f8dc 2008 	ldr.w	r2, [ip, #8]
 80011f6:	f423 7140 	bic.w	r1, r3, #768	; 0x300
 80011fa:	f422 13f8 	bic.w	r3, r2, #2031616	; 0x1f0000
 80011fe:	ea41 0203 	orr.w	r2, r1, r3
 8001202:	f8cc 2008 	str.w	r2, [ip, #8]
 8001206:	f44f 5c60 	mov.w	ip, #14336	; 0x3800
 800120a:	f2c4 0c02 	movt	ip, #16386	; 0x4002
 800120e:	0503      	lsls	r3, r0, #20
 8001210:	f8dc 2070 	ldr.w	r2, [ip, #112]	; 0x70
 8001214:	0d19      	lsrs	r1, r3, #20
 8001216:	ea41 0002 	orr.w	r0, r1, r2
 800121a:	f8cc 0070 	str.w	r0, [ip, #112]	; 0x70
 800121e:	4770      	bx	lr

08001220 <RCC_RTCCLKCmd>:
 8001220:	f640 633c 	movw	r3, #3644	; 0xe3c
 8001224:	f2c4 2347 	movt	r3, #16967	; 0x4247
 8001228:	6018      	str	r0, [r3, #0]
 800122a:	4770      	bx	lr

0800122c <RCC_BackupResetCmd>:
 800122c:	f44f 6364 	mov.w	r3, #3648	; 0xe40
 8001230:	f2c4 2347 	movt	r3, #16967	; 0x4247
 8001234:	6018      	str	r0, [r3, #0]
 8001236:	4770      	bx	lr

08001238 <RCC_I2SCLKConfig>:
 8001238:	f44f 73ae 	mov.w	r3, #348	; 0x15c
 800123c:	f2c4 2347 	movt	r3, #16967	; 0x4247
 8001240:	6018      	str	r0, [r3, #0]
 8001242:	4770      	bx	lr

08001244 <RCC_AHB1PeriphClockCmd>:
 8001244:	f44f 5360 	mov.w	r3, #14336	; 0x3800
 8001248:	f2c4 0302 	movt	r3, #16386	; 0x4002
 800124c:	6b1a      	ldr	r2, [r3, #48]	; 0x30
 800124e:	b919      	cbnz	r1, 8001258 <RCC_AHB1PeriphClockCmd+0x14>
 8001250:	ea22 0100 	bic.w	r1, r2, r0
 8001254:	6319      	str	r1, [r3, #48]	; 0x30
 8001256:	4770      	bx	lr
 8001258:	4310      	orrs	r0, r2
 800125a:	6318      	str	r0, [r3, #48]	; 0x30
 800125c:	4770      	bx	lr
 800125e:	bf00      	nop

08001260 <RCC_AHB2PeriphClockCmd>:
 8001260:	f44f 5360 	mov.w	r3, #14336	; 0x3800
 8001264:	f2c4 0302 	movt	r3, #16386	; 0x4002
 8001268:	6b5a      	ldr	r2, [r3, #52]	; 0x34
 800126a:	b919      	cbnz	r1, 8001274 <RCC_AHB2PeriphClockCmd+0x14>
 800126c:	ea22 0100 	bic.w	r1, r2, r0
 8001270:	6359      	str	r1, [r3, #52]	; 0x34
 8001272:	4770      	bx	lr
 8001274:	4310      	orrs	r0, r2
 8001276:	6358      	str	r0, [r3, #52]	; 0x34
 8001278:	4770      	bx	lr
 800127a:	bf00      	nop

0800127c <RCC_AHB3PeriphClockCmd>:
 800127c:	f44f 5360 	mov.w	r3, #14336	; 0x3800
 8001280:	f2c4 0302 	movt	r3, #16386	; 0x4002
 8001284:	6b9a      	ldr	r2, [r3, #56]	; 0x38
 8001286:	b919      	cbnz	r1, 8001290 <RCC_AHB3PeriphClockCmd+0x14>
 8001288:	ea22 0100 	bic.w	r1, r2, r0
 800128c:	6399      	str	r1, [r3, #56]	; 0x38
 800128e:	4770      	bx	lr
 8001290:	4310      	orrs	r0, r2
 8001292:	6398      	str	r0, [r3, #56]	; 0x38
 8001294:	4770      	bx	lr
 8001296:	bf00      	nop

08001298 <RCC_APB1PeriphClockCmd>:
 8001298:	f44f 5360 	mov.w	r3, #14336	; 0x3800
 800129c:	f2c4 0302 	movt	r3, #16386	; 0x4002
 80012a0:	6c1a      	ldr	r2, [r3, #64]	; 0x40
 80012a2:	b919      	cbnz	r1, 80012ac <RCC_APB1PeriphClockCmd+0x14>
 80012a4:	ea22 0100 	bic.w	r1, r2, r0
 80012a8:	6419      	str	r1, [r3, #64]	; 0x40
 80012aa:	4770      	bx	lr
 80012ac:	4310      	orrs	r0, r2
 80012ae:	6418      	str	r0, [r3, #64]	; 0x40
 80012b0:	4770      	bx	lr
 80012b2:	bf00      	nop

080012b4 <RCC_APB2PeriphClockCmd>:
 80012b4:	f44f 5360 	mov.w	r3, #14336	; 0x3800
 80012b8:	f2c4 0302 	movt	r3, #16386	; 0x4002
 80012bc:	6c5a      	ldr	r2, [r3, #68]	; 0x44
 80012be:	b919      	cbnz	r1, 80012c8 <RCC_APB2PeriphClockCmd+0x14>
 80012c0:	ea22 0100 	bic.w	r1, r2, r0
 80012c4:	6459      	str	r1, [r3, #68]	; 0x44
 80012c6:	4770      	bx	lr
 80012c8:	4310      	orrs	r0, r2
 80012ca:	6458      	str	r0, [r3, #68]	; 0x44
 80012cc:	4770      	bx	lr
 80012ce:	bf00      	nop

080012d0 <RCC_AHB1PeriphResetCmd>:
 80012d0:	f44f 5360 	mov.w	r3, #14336	; 0x3800
 80012d4:	f2c4 0302 	movt	r3, #16386	; 0x4002
 80012d8:	691a      	ldr	r2, [r3, #16]
 80012da:	b919      	cbnz	r1, 80012e4 <RCC_AHB1PeriphResetCmd+0x14>
 80012dc:	ea22 0100 	bic.w	r1, r2, r0
 80012e0:	6119      	str	r1, [r3, #16]
 80012e2:	4770      	bx	lr
 80012e4:	4310      	orrs	r0, r2
 80012e6:	6118      	str	r0, [r3, #16]
 80012e8:	4770      	bx	lr
 80012ea:	bf00      	nop

080012ec <RCC_AHB2PeriphResetCmd>:
 80012ec:	f44f 5360 	mov.w	r3, #14336	; 0x3800
 80012f0:	f2c4 0302 	movt	r3, #16386	; 0x4002
 80012f4:	695a      	ldr	r2, [r3, #20]
 80012f6:	b919      	cbnz	r1, 8001300 <RCC_AHB2PeriphResetCmd+0x14>
 80012f8:	ea22 0100 	bic.w	r1, r2, r0
 80012fc:	6159      	str	r1, [r3, #20]
 80012fe:	4770      	bx	lr
 8001300:	4310      	orrs	r0, r2
 8001302:	6158      	str	r0, [r3, #20]
 8001304:	4770      	bx	lr
 8001306:	bf00      	nop

08001308 <RCC_AHB3PeriphResetCmd>:
 8001308:	f44f 5360 	mov.w	r3, #14336	; 0x3800
 800130c:	f2c4 0302 	movt	r3, #16386	; 0x4002
 8001310:	699a      	ldr	r2, [r3, #24]
 8001312:	b919      	cbnz	r1, 800131c <RCC_AHB3PeriphResetCmd+0x14>
 8001314:	ea22 0100 	bic.w	r1, r2, r0
 8001318:	6199      	str	r1, [r3, #24]
 800131a:	4770      	bx	lr
 800131c:	4310      	orrs	r0, r2
 800131e:	6198      	str	r0, [r3, #24]
 8001320:	4770      	bx	lr
 8001322:	bf00      	nop

08001324 <RCC_APB1PeriphResetCmd>:
 8001324:	f44f 5360 	mov.w	r3, #14336	; 0x3800
 8001328:	f2c4 0302 	movt	r3, #16386	; 0x4002
 800132c:	6a1a      	ldr	r2, [r3, #32]
 800132e:	b919      	cbnz	r1, 8001338 <RCC_APB1PeriphResetCmd+0x14>
 8001330:	ea22 0100 	bic.w	r1, r2, r0
 8001334:	6219      	str	r1, [r3, #32]
 8001336:	4770      	bx	lr
 8001338:	4310      	orrs	r0, r2
 800133a:	6218      	str	r0, [r3, #32]
 800133c:	4770      	bx	lr
 800133e:	bf00      	nop

08001340 <RCC_APB2PeriphResetCmd>:
 8001340:	f44f 5360 	mov.w	r3, #14336	; 0x3800
 8001344:	f2c4 0302 	movt	r3, #16386	; 0x4002
 8001348:	6a5a      	ldr	r2, [r3, #36]	; 0x24
 800134a:	b919      	cbnz	r1, 8001354 <RCC_APB2PeriphResetCmd+0x14>
 800134c:	ea22 0100 	bic.w	r1, r2, r0
 8001350:	6259      	str	r1, [r3, #36]	; 0x24
 8001352:	4770      	bx	lr
 8001354:	4310      	orrs	r0, r2
 8001356:	6258      	str	r0, [r3, #36]	; 0x24
 8001358:	4770      	bx	lr
 800135a:	bf00      	nop

0800135c <RCC_AHB1PeriphClockLPModeCmd>:
 800135c:	f44f 5360 	mov.w	r3, #14336	; 0x3800
 8001360:	f2c4 0302 	movt	r3, #16386	; 0x4002
 8001364:	6d1a      	ldr	r2, [r3, #80]	; 0x50
 8001366:	b919      	cbnz	r1, 8001370 <RCC_AHB1PeriphClockLPModeCmd+0x14>
 8001368:	ea22 0100 	bic.w	r1, r2, r0
 800136c:	6519      	str	r1, [r3, #80]	; 0x50
 800136e:	4770      	bx	lr
 8001370:	4310      	orrs	r0, r2
 8001372:	6518      	str	r0, [r3, #80]	; 0x50
 8001374:	4770      	bx	lr
 8001376:	bf00      	nop

08001378 <RCC_AHB2PeriphClockLPModeCmd>:
 8001378:	f44f 5360 	mov.w	r3, #14336	; 0x3800
 800137c:	f2c4 0302 	movt	r3, #16386	; 0x4002
 8001380:	6d5a      	ldr	r2, [r3, #84]	; 0x54
 8001382:	b919      	cbnz	r1, 800138c <RCC_AHB2PeriphClockLPModeCmd+0x14>
 8001384:	ea22 0100 	bic.w	r1, r2, r0
 8001388:	6559      	str	r1, [r3, #84]	; 0x54
 800138a:	4770      	bx	lr
 800138c:	4310      	orrs	r0, r2
 800138e:	6558      	str	r0, [r3, #84]	; 0x54
 8001390:	4770      	bx	lr
 8001392:	bf00      	nop

08001394 <RCC_AHB3PeriphClockLPModeCmd>:
 8001394:	f44f 5360 	mov.w	r3, #14336	; 0x3800
 8001398:	f2c4 0302 	movt	r3, #16386	; 0x4002
 800139c:	6d9a      	ldr	r2, [r3, #88]	; 0x58
 800139e:	b919      	cbnz	r1, 80013a8 <RCC_AHB3PeriphClockLPModeCmd+0x14>
 80013a0:	ea22 0100 	bic.w	r1, r2, r0
 80013a4:	6599      	str	r1, [r3, #88]	; 0x58
 80013a6:	4770      	bx	lr
 80013a8:	4310      	orrs	r0, r2
 80013aa:	6598      	str	r0, [r3, #88]	; 0x58
 80013ac:	4770      	bx	lr
 80013ae:	bf00      	nop

080013b0 <RCC_APB1PeriphClockLPModeCmd>:
 80013b0:	f44f 5360 	mov.w	r3, #14336	; 0x3800
 80013b4:	f2c4 0302 	movt	r3, #16386	; 0x4002
 80013b8:	6e1a      	ldr	r2, [r3, #96]	; 0x60
 80013ba:	b919      	cbnz	r1, 80013c4 <RCC_APB1PeriphClockLPModeCmd+0x14>
 80013bc:	ea22 0100 	bic.w	r1, r2, r0
 80013c0:	6619      	str	r1, [r3, #96]	; 0x60
 80013c2:	4770      	bx	lr
 80013c4:	4310      	orrs	r0, r2
 80013c6:	6618      	str	r0, [r3, #96]	; 0x60
 80013c8:	4770      	bx	lr
 80013ca:	bf00      	nop

080013cc <RCC_APB2PeriphClockLPModeCmd>:
 80013cc:	f44f 5360 	mov.w	r3, #14336	; 0x3800
 80013d0:	f2c4 0302 	movt	r3, #16386	; 0x4002
 80013d4:	6e5a      	ldr	r2, [r3, #100]	; 0x64
 80013d6:	b919      	cbnz	r1, 80013e0 <RCC_APB2PeriphClockLPModeCmd+0x14>
 80013d8:	ea22 0100 	bic.w	r1, r2, r0
 80013dc:	6659      	str	r1, [r3, #100]	; 0x64
 80013de:	4770      	bx	lr
 80013e0:	4310      	orrs	r0, r2
 80013e2:	6658      	str	r0, [r3, #100]	; 0x64
 80013e4:	4770      	bx	lr
 80013e6:	bf00      	nop

080013e8 <RCC_ITConfig>:
 80013e8:	f643 030d 	movw	r3, #14349	; 0x380d
 80013ec:	f2c4 0302 	movt	r3, #16386	; 0x4002
 80013f0:	781a      	ldrb	r2, [r3, #0]
 80013f2:	b919      	cbnz	r1, 80013fc <RCC_ITConfig+0x14>
 80013f4:	ea22 0100 	bic.w	r1, r2, r0
 80013f8:	7019      	strb	r1, [r3, #0]
 80013fa:	4770      	bx	lr
 80013fc:	4310      	orrs	r0, r2
 80013fe:	7018      	strb	r0, [r3, #0]
 8001400:	4770      	bx	lr
 8001402:	bf00      	nop

08001404 <RCC_GetFlagStatus>:
 8001404:	0943      	lsrs	r3, r0, #5
 8001406:	2b01      	cmp	r3, #1
 8001408:	d00e      	beq.n	8001428 <RCC_GetFlagStatus+0x24>
 800140a:	2b02      	cmp	r3, #2
 800140c:	f44f 5360 	mov.w	r3, #14336	; 0x3800
 8001410:	f2c4 0302 	movt	r3, #16386	; 0x4002
 8001414:	f000 011f 	and.w	r1, r0, #31
 8001418:	bf0c      	ite	eq
 800141a:	6f1b      	ldreq	r3, [r3, #112]	; 0x70
 800141c:	6f5b      	ldrne	r3, [r3, #116]	; 0x74
 800141e:	fa33 f001 	lsrs.w	r0, r3, r1
 8001422:	f000 0001 	and.w	r0, r0, #1
 8001426:	4770      	bx	lr
 8001428:	f44f 5360 	mov.w	r3, #14336	; 0x3800
 800142c:	f2c4 0302 	movt	r3, #16386	; 0x4002
 8001430:	f000 011f 	and.w	r1, r0, #31
 8001434:	681b      	ldr	r3, [r3, #0]
 8001436:	fa33 f001 	lsrs.w	r0, r3, r1
 800143a:	f000 0001 	and.w	r0, r0, #1
 800143e:	4770      	bx	lr

08001440 <RCC_ClearFlag>:
 8001440:	f44f 5360 	mov.w	r3, #14336	; 0x3800
 8001444:	f2c4 0302 	movt	r3, #16386	; 0x4002
 8001448:	6f58      	ldr	r0, [r3, #116]	; 0x74
 800144a:	f040 7280 	orr.w	r2, r0, #16777216	; 0x1000000
 800144e:	675a      	str	r2, [r3, #116]	; 0x74
 8001450:	4770      	bx	lr
 8001452:	bf00      	nop

08001454 <RCC_GetITStatus>:
 8001454:	f44f 5160 	mov.w	r1, #14336	; 0x3800
 8001458:	f2c4 0102 	movt	r1, #16386	; 0x4002
 800145c:	68cb      	ldr	r3, [r1, #12]
 800145e:	4218      	tst	r0, r3
 8001460:	bf0c      	ite	eq
 8001462:	2000      	moveq	r0, #0
 8001464:	2001      	movne	r0, #1
 8001466:	4770      	bx	lr

08001468 <RCC_ClearITPendingBit>:
 8001468:	f643 030e 	movw	r3, #14350	; 0x380e
 800146c:	f2c4 0302 	movt	r3, #16386	; 0x4002
 8001470:	7018      	strb	r0, [r3, #0]
 8001472:	4770      	bx	lr

08001474 <SYSCFG_DeInit>:
 8001474:	b508      	push	{r3, lr}
 8001476:	2101      	movs	r1, #1
 8001478:	f44f 4080 	mov.w	r0, #16384	; 0x4000
 800147c:	f7ff ff60 	bl	8001340 <RCC_APB2PeriphResetCmd>
 8001480:	f44f 4080 	mov.w	r0, #16384	; 0x4000
 8001484:	2100      	movs	r1, #0
 8001486:	e8bd 4008 	ldmia.w	sp!, {r3, lr}
 800148a:	f7ff bf59 	b.w	8001340 <RCC_APB2PeriphResetCmd>
 800148e:	bf00      	nop

08001490 <SYSCFG_MemoryRemapConfig>:
 8001490:	f44f 5360 	mov.w	r3, #14336	; 0x3800
 8001494:	f2c4 0301 	movt	r3, #16385	; 0x4001
 8001498:	6018      	str	r0, [r3, #0]
 800149a:	4770      	bx	lr

0800149c <SYSCFG_EXTILineConfig>:
 800149c:	b430      	push	{r4, r5}
 800149e:	f44f 5360 	mov.w	r3, #14336	; 0x3800
 80014a2:	088d      	lsrs	r5, r1, #2
 80014a4:	f2c4 0301 	movt	r3, #16385	; 0x4001
 80014a8:	1caa      	adds	r2, r5, #2
 80014aa:	f001 0103 	and.w	r1, r1, #3
 80014ae:	f853 5022 	ldr.w	r5, [r3, r2, lsl #2]
 80014b2:	0089      	lsls	r1, r1, #2
 80014b4:	240f      	movs	r4, #15
 80014b6:	408c      	lsls	r4, r1
 80014b8:	ea25 0404 	bic.w	r4, r5, r4
 80014bc:	f843 4022 	str.w	r4, [r3, r2, lsl #2]
 80014c0:	f853 4022 	ldr.w	r4, [r3, r2, lsl #2]
 80014c4:	fa10 f101 	lsls.w	r1, r0, r1
 80014c8:	430c      	orrs	r4, r1
 80014ca:	f843 4022 	str.w	r4, [r3, r2, lsl #2]
 80014ce:	bc30      	pop	{r4, r5}
 80014d0:	4770      	bx	lr
 80014d2:	bf00      	nop

080014d4 <SYSCFG_ETH_MediaInterfaceConfig>:
 80014d4:	23dc      	movs	r3, #220	; 0xdc
 80014d6:	f2c4 2327 	movt	r3, #16935	; 0x4227
 80014da:	6018      	str	r0, [r3, #0]
 80014dc:	4770      	bx	lr
 80014de:	bf00      	nop

080014e0 <SYSCFG_CompensationCellCmd>:
 80014e0:	f44f 6380 	mov.w	r3, #1024	; 0x400
 80014e4:	f2c4 2327 	movt	r3, #16935	; 0x4227
 80014e8:	6018      	str	r0, [r3, #0]
 80014ea:	4770      	bx	lr

080014ec <SYSCFG_GetCompensationCellStatus>:
 80014ec:	f44f 5360 	mov.w	r3, #14336	; 0x3800
 80014f0:	f2c4 0301 	movt	r3, #16385	; 0x4001
 80014f4:	6a18      	ldr	r0, [r3, #32]
 80014f6:	f3c0 2000 	ubfx	r0, r0, #8, #1
 80014fa:	4770      	bx	lr

080014fc <NVIC_PriorityGroupConfig>:
 80014fc:	f44f 436d 	mov.w	r3, #60672	; 0xed00
 8001500:	f040 61be 	orr.w	r1, r0, #99614720	; 0x5f00000
 8001504:	f2ce 0300 	movt	r3, #57344	; 0xe000
 8001508:	f441 2020 	orr.w	r0, r1, #655360	; 0xa0000
 800150c:	60d8      	str	r0, [r3, #12]
 800150e:	4770      	bx	lr

08001510 <NVIC_Init>:
 8001510:	78c3      	ldrb	r3, [r0, #3]
 8001512:	b430      	push	{r4, r5}
 8001514:	b97b      	cbnz	r3, 8001536 <NVIC_Init+0x26>
 8001516:	7800      	ldrb	r0, [r0, #0]
 8001518:	f44f 4c61 	mov.w	ip, #57600	; 0xe100
 800151c:	0941      	lsrs	r1, r0, #5
 800151e:	f000 021f 	and.w	r2, r0, #31
 8001522:	f2ce 0c00 	movt	ip, #57344	; 0xe000
 8001526:	3120      	adds	r1, #32
 8001528:	2301      	movs	r3, #1
 800152a:	fa13 f002 	lsls.w	r0, r3, r2
 800152e:	f84c 0021 	str.w	r0, [ip, r1, lsl #2]
 8001532:	bc30      	pop	{r4, r5}
 8001534:	4770      	bx	lr
 8001536:	f44f 456d 	mov.w	r5, #60672	; 0xed00
 800153a:	f2ce 0500 	movt	r5, #57344	; 0xe000
 800153e:	7842      	ldrb	r2, [r0, #1]
 8001540:	68ec      	ldr	r4, [r5, #12]
 8001542:	7885      	ldrb	r5, [r0, #2]
 8001544:	7801      	ldrb	r1, [r0, #0]
 8001546:	43e3      	mvns	r3, r4
 8001548:	f3c3 2302 	ubfx	r3, r3, #8, #3
 800154c:	f1c3 0c04 	rsb	ip, r3, #4
 8001550:	fa5f f48c 	uxtb.w	r4, ip
 8001554:	fa12 f404 	lsls.w	r4, r2, r4
 8001558:	220f      	movs	r2, #15
 800155a:	fa52 f303 	asrs.w	r3, r2, r3
 800155e:	f44f 4c61 	mov.w	ip, #57600	; 0xe100
 8001562:	ea03 0205 	and.w	r2, r3, r5
 8001566:	f2ce 0c00 	movt	ip, #57344	; 0xe000
 800156a:	b2e4      	uxtb	r4, r4
 800156c:	4461      	add	r1, ip
 800156e:	ea42 0304 	orr.w	r3, r2, r4
 8001572:	011a      	lsls	r2, r3, #4
 8001574:	f881 2300 	strb.w	r2, [r1, #768]	; 0x300
 8001578:	7802      	ldrb	r2, [r0, #0]
 800157a:	f44f 4c61 	mov.w	ip, #57600	; 0xe100
 800157e:	0951      	lsrs	r1, r2, #5
 8001580:	f2ce 0c00 	movt	ip, #57344	; 0xe000
 8001584:	f002 031f 	and.w	r3, r2, #31
 8001588:	2001      	movs	r0, #1
 800158a:	fa10 f203 	lsls.w	r2, r0, r3
 800158e:	f84c 2021 	str.w	r2, [ip, r1, lsl #2]
 8001592:	e7ce      	b.n	8001532 <NVIC_Init+0x22>

08001594 <NVIC_SetVectorTable>:
 8001594:	f021 4c60 	bic.w	ip, r1, #3758096384	; 0xe0000000
 8001598:	f44f 436d 	mov.w	r3, #60672	; 0xed00
 800159c:	f02c 027f 	bic.w	r2, ip, #127	; 0x7f
 80015a0:	f2ce 0300 	movt	r3, #57344	; 0xe000
 80015a4:	ea42 0100 	orr.w	r1, r2, r0
 80015a8:	6099      	str	r1, [r3, #8]
 80015aa:	4770      	bx	lr

080015ac <NVIC_SystemLPConfig>:
 80015ac:	f44f 436d 	mov.w	r3, #60672	; 0xed00
 80015b0:	f2ce 0300 	movt	r3, #57344	; 0xe000
 80015b4:	691a      	ldr	r2, [r3, #16]
 80015b6:	b919      	cbnz	r1, 80015c0 <NVIC_SystemLPConfig+0x14>
 80015b8:	ea22 0100 	bic.w	r1, r2, r0
 80015bc:	6119      	str	r1, [r3, #16]
 80015be:	4770      	bx	lr
 80015c0:	4310      	orrs	r0, r2
 80015c2:	6118      	str	r0, [r3, #16]
 80015c4:	4770      	bx	lr
 80015c6:	bf00      	nop

080015c8 <SysTick_CLKSourceConfig>:
 80015c8:	f24e 0310 	movw	r3, #57360	; 0xe010
 80015cc:	f2ce 0300 	movt	r3, #57344	; 0xe000
 80015d0:	2804      	cmp	r0, #4
 80015d2:	681a      	ldr	r2, [r3, #0]
 80015d4:	bf0c      	ite	eq
 80015d6:	f042 0204 	orreq.w	r2, r2, #4
 80015da:	f022 0204 	bicne.w	r2, r2, #4
 80015de:	601a      	str	r2, [r3, #0]
 80015e0:	4770      	bx	lr
 80015e2:	bf00      	nop

080015e4 <USBD_cdc_GetCfgDesc>:
 80015e4:	2343      	movs	r3, #67	; 0x43
 80015e6:	f240 00b0 	movw	r0, #176	; 0xb0
 80015ea:	800b      	strh	r3, [r1, #0]
 80015ec:	f2c2 0000 	movt	r0, #8192	; 0x2000
 80015f0:	4770      	bx	lr
 80015f2:	bf00      	nop

080015f4 <usbd_cdc_SOF>:
 80015f4:	b538      	push	{r3, r4, r5, lr}
 80015f6:	f240 1458 	movw	r4, #344	; 0x158
 80015fa:	f2c2 0400 	movt	r4, #8192	; 0x2000
 80015fe:	6823      	ldr	r3, [r4, #0]
 8001600:	1c5a      	adds	r2, r3, #1
 8001602:	2b05      	cmp	r3, #5
 8001604:	6022      	str	r2, [r4, #0]
 8001606:	d001      	beq.n	800160c <usbd_cdc_SOF+0x18>
 8001608:	2000      	movs	r0, #0
 800160a:	bd38      	pop	{r3, r4, r5, pc}
 800160c:	7921      	ldrb	r1, [r4, #4]
 800160e:	2300      	movs	r3, #0
 8001610:	2901      	cmp	r1, #1
 8001612:	6023      	str	r3, [r4, #0]
 8001614:	d0f8      	beq.n	8001608 <usbd_cdc_SOF+0x14>
 8001616:	68a5      	ldr	r5, [r4, #8]
 8001618:	68e2      	ldr	r2, [r4, #12]
 800161a:	f5b5 6f00 	cmp.w	r5, #2048	; 0x800
 800161e:	bf04      	itt	eq
 8001620:	461d      	moveq	r5, r3
 8001622:	60a3      	streq	r3, [r4, #8]
 8001624:	f240 1358 	movw	r3, #344	; 0x158
 8001628:	42aa      	cmp	r2, r5
 800162a:	f2c2 0300 	movt	r3, #8192	; 0x2000
 800162e:	d024      	beq.n	800167a <usbd_cdc_SOF+0x86>
 8001630:	bf34      	ite	cc
 8001632:	f5c5 6200 	rsbcc	r2, r5, #2048	; 0x800
 8001636:	ebc5 0202 	rsbcs	r2, r5, r2
 800163a:	611a      	str	r2, [r3, #16]
 800163c:	f8d0 35ec 	ldr.w	r3, [r0, #1516]	; 0x5ec
 8001640:	f8b3 3039 	ldrh.w	r3, [r3, #57]	; 0x39
 8001644:	4293      	cmp	r3, r2
 8001646:	d211      	bcs.n	800166c <usbd_cdc_SOF+0x78>
 8001648:	18e9      	adds	r1, r5, r3
 800164a:	1ad2      	subs	r2, r2, r3
 800164c:	b2ad      	uxth	r5, r5
 800164e:	60a1      	str	r1, [r4, #8]
 8001650:	6122      	str	r2, [r4, #16]
 8001652:	f640 0c04 	movw	ip, #2052	; 0x804
 8001656:	f2c2 0c00 	movt	ip, #8192	; 0x2000
 800165a:	eb0c 0205 	add.w	r2, ip, r5
 800165e:	2181      	movs	r1, #129	; 0x81
 8001660:	2501      	movs	r5, #1
 8001662:	7125      	strb	r5, [r4, #4]
 8001664:	f001 fc24 	bl	8002eb0 <DCD_EP_Tx>
 8001668:	2000      	movs	r0, #0
 800166a:	bd38      	pop	{r3, r4, r5, pc}
 800166c:	1951      	adds	r1, r2, r5
 800166e:	2300      	movs	r3, #0
 8001670:	6123      	str	r3, [r4, #16]
 8001672:	b2ad      	uxth	r5, r5
 8001674:	60a1      	str	r1, [r4, #8]
 8001676:	b293      	uxth	r3, r2
 8001678:	e7eb      	b.n	8001652 <usbd_cdc_SOF+0x5e>
 800167a:	2000      	movs	r0, #0
 800167c:	7118      	strb	r0, [r3, #4]
 800167e:	e7c3      	b.n	8001608 <usbd_cdc_SOF+0x14>

08001680 <usbd_cdc_DataOut>:
 8001680:	b538      	push	{r3, r4, r5, lr}
 8001682:	f240 0c30 	movw	ip, #48	; 0x30
 8001686:	eb01 0481 	add.w	r4, r1, r1, lsl #2
 800168a:	f2c2 0c00 	movt	ip, #8192	; 0x2000
 800168e:	eb00 01c4 	add.w	r1, r0, r4, lsl #3
 8001692:	f240 74bc 	movw	r4, #1980	; 0x7bc
 8001696:	4605      	mov	r5, r0
 8001698:	f2c2 0400 	movt	r4, #8192	; 0x2000
 800169c:	f8dc 2010 	ldr.w	r2, [ip, #16]
 80016a0:	f8b1 1388 	ldrh.w	r1, [r1, #904]	; 0x388
 80016a4:	4620      	mov	r0, r4
 80016a6:	4790      	blx	r2
 80016a8:	f8d5 35ec 	ldr.w	r3, [r5, #1516]	; 0x5ec
 80016ac:	4628      	mov	r0, r5
 80016ae:	2101      	movs	r1, #1
 80016b0:	4622      	mov	r2, r4
 80016b2:	f8b3 3040 	ldrh.w	r3, [r3, #64]	; 0x40
 80016b6:	f001 fbdd 	bl	8002e74 <DCD_EP_PrepareRx>
 80016ba:	2000      	movs	r0, #0
 80016bc:	bd38      	pop	{r3, r4, r5, pc}
 80016be:	bf00      	nop

080016c0 <usbd_cdc_Setup>:
 80016c0:	b570      	push	{r4, r5, r6, lr}
 80016c2:	780b      	ldrb	r3, [r1, #0]
 80016c4:	f013 0560 	ands.w	r5, r3, #96	; 0x60
 80016c8:	460c      	mov	r4, r1
 80016ca:	4606      	mov	r6, r0
 80016cc:	d108      	bne.n	80016e0 <usbd_cdc_Setup+0x20>
 80016ce:	784b      	ldrb	r3, [r1, #1]
 80016d0:	2b0a      	cmp	r3, #10
 80016d2:	d025      	beq.n	8001720 <usbd_cdc_Setup+0x60>
 80016d4:	2b0b      	cmp	r3, #11
 80016d6:	d03f      	beq.n	8001758 <usbd_cdc_Setup+0x98>
 80016d8:	2b06      	cmp	r3, #6
 80016da:	d046      	beq.n	800176a <usbd_cdc_Setup+0xaa>
 80016dc:	4628      	mov	r0, r5
 80016de:	bd70      	pop	{r4, r5, r6, pc}
 80016e0:	2d20      	cmp	r5, #32
 80016e2:	d003      	beq.n	80016ec <usbd_cdc_Setup+0x2c>
 80016e4:	f000 faa6 	bl	8001c34 <USBD_CtlError>
 80016e8:	2002      	movs	r0, #2
 80016ea:	bd70      	pop	{r4, r5, r6, pc}
 80016ec:	88cd      	ldrh	r5, [r1, #6]
 80016ee:	2d00      	cmp	r5, #0
 80016f0:	d049      	beq.n	8001786 <usbd_cdc_Setup+0xc6>
 80016f2:	061b      	lsls	r3, r3, #24
 80016f4:	d41a      	bmi.n	800172c <usbd_cdc_Setup+0x6c>
 80016f6:	f240 06b0 	movw	r6, #176	; 0xb0
 80016fa:	784c      	ldrb	r4, [r1, #1]
 80016fc:	f240 1c58 	movw	ip, #344	; 0x158
 8001700:	f2c2 0600 	movt	r6, #8192	; 0x2000
 8001704:	f2c2 0c00 	movt	ip, #8192	; 0x2000
 8001708:	f240 71fc 	movw	r1, #2044	; 0x7fc
 800170c:	f2c2 0100 	movt	r1, #8192	; 0x2000
 8001710:	462a      	mov	r2, r5
 8001712:	6474      	str	r4, [r6, #68]	; 0x44
 8001714:	f8cc 5014 	str.w	r5, [ip, #20]
 8001718:	f000 fa24 	bl	8001b64 <USBD_CtlPrepareRx>
 800171c:	2000      	movs	r0, #0
 800171e:	bd70      	pop	{r4, r5, r6, pc}
 8001720:	4920      	ldr	r1, [pc, #128]	; (80017a4 <usbd_cdc_Setup+0xe4>)
 8001722:	2201      	movs	r2, #1
 8001724:	f000 fa04 	bl	8001b30 <USBD_CtlSendData>
 8001728:	4628      	mov	r0, r5
 800172a:	bd70      	pop	{r4, r5, r6, pc}
 800172c:	f240 0030 	movw	r0, #48	; 0x30
 8001730:	f2c2 0000 	movt	r0, #8192	; 0x2000
 8001734:	f240 71fc 	movw	r1, #2044	; 0x7fc
 8001738:	6883      	ldr	r3, [r0, #8]
 800173a:	7860      	ldrb	r0, [r4, #1]
 800173c:	f2c2 0100 	movt	r1, #8192	; 0x2000
 8001740:	462a      	mov	r2, r5
 8001742:	4798      	blx	r3
 8001744:	f240 71fc 	movw	r1, #2044	; 0x7fc
 8001748:	4630      	mov	r0, r6
 800174a:	f2c2 0100 	movt	r1, #8192	; 0x2000
 800174e:	88e2      	ldrh	r2, [r4, #6]
 8001750:	f000 f9ee 	bl	8001b30 <USBD_CtlSendData>
 8001754:	2000      	movs	r0, #0
 8001756:	bd70      	pop	{r4, r5, r6, pc}
 8001758:	788b      	ldrb	r3, [r1, #2]
 800175a:	b9fb      	cbnz	r3, 800179c <usbd_cdc_Setup+0xdc>
 800175c:	f240 1158 	movw	r1, #344	; 0x158
 8001760:	f2c2 0100 	movt	r1, #8192	; 0x2000
 8001764:	4618      	mov	r0, r3
 8001766:	618b      	str	r3, [r1, #24]
 8001768:	bd70      	pop	{r4, r5, r6, pc}
 800176a:	884b      	ldrh	r3, [r1, #2]
 800176c:	0a18      	lsrs	r0, r3, #8
 800176e:	2821      	cmp	r0, #33	; 0x21
 8001770:	d103      	bne.n	800177a <usbd_cdc_Setup+0xba>
 8001772:	88ca      	ldrh	r2, [r1, #6]
 8001774:	2a3a      	cmp	r2, #58	; 0x3a
 8001776:	bf28      	it	cs
 8001778:	223a      	movcs	r2, #58	; 0x3a
 800177a:	4630      	mov	r0, r6
 800177c:	490a      	ldr	r1, [pc, #40]	; (80017a8 <usbd_cdc_Setup+0xe8>)
 800177e:	f000 f9d7 	bl	8001b30 <USBD_CtlSendData>
 8001782:	2000      	movs	r0, #0
 8001784:	bd70      	pop	{r4, r5, r6, pc}
 8001786:	f240 0230 	movw	r2, #48	; 0x30
 800178a:	f2c2 0200 	movt	r2, #8192	; 0x2000
 800178e:	7848      	ldrb	r0, [r1, #1]
 8001790:	6893      	ldr	r3, [r2, #8]
 8001792:	4629      	mov	r1, r5
 8001794:	462a      	mov	r2, r5
 8001796:	4798      	blx	r3
 8001798:	4628      	mov	r0, r5
 800179a:	bd70      	pop	{r4, r5, r6, pc}
 800179c:	f000 fa4a 	bl	8001c34 <USBD_CtlError>
 80017a0:	4628      	mov	r0, r5
 80017a2:	bd70      	pop	{r4, r5, r6, pc}
 80017a4:	20000170 	andcs	r0, r0, r0, ror r1
 80017a8:	200000c2 	andcs	r0, r0, r2, asr #1

080017ac <usbd_cdc_DeInit>:
 80017ac:	b510      	push	{r4, lr}
 80017ae:	2181      	movs	r1, #129	; 0x81
 80017b0:	4604      	mov	r4, r0
 80017b2:	f001 fb49 	bl	8002e48 <DCD_EP_Close>
 80017b6:	2101      	movs	r1, #1
 80017b8:	4620      	mov	r0, r4
 80017ba:	f001 fb45 	bl	8002e48 <DCD_EP_Close>
 80017be:	2182      	movs	r1, #130	; 0x82
 80017c0:	4620      	mov	r0, r4
 80017c2:	f001 fb41 	bl	8002e48 <DCD_EP_Close>
 80017c6:	f240 0030 	movw	r0, #48	; 0x30
 80017ca:	f2c2 0000 	movt	r0, #8192	; 0x2000
 80017ce:	6843      	ldr	r3, [r0, #4]
 80017d0:	4798      	blx	r3
 80017d2:	2000      	movs	r0, #0
 80017d4:	bd10      	pop	{r4, pc}
 80017d6:	bf00      	nop

080017d8 <usbd_cdc_Init>:
 80017d8:	f8d0 25ec 	ldr.w	r2, [r0, #1516]	; 0x5ec
 80017dc:	b538      	push	{r3, r4, r5, lr}
 80017de:	4604      	mov	r4, r0
 80017e0:	2181      	movs	r1, #129	; 0x81
 80017e2:	2302      	movs	r3, #2
 80017e4:	f8b2 2039 	ldrh.w	r2, [r2, #57]	; 0x39
 80017e8:	f001 fb0e 	bl	8002e08 <DCD_EP_Open>
 80017ec:	f8d4 55ec 	ldr.w	r5, [r4, #1516]	; 0x5ec
 80017f0:	2101      	movs	r1, #1
 80017f2:	f8b5 2040 	ldrh.w	r2, [r5, #64]	; 0x40
 80017f6:	2302      	movs	r3, #2
 80017f8:	4620      	mov	r0, r4
 80017fa:	f001 fb05 	bl	8002e08 <DCD_EP_Open>
 80017fe:	2303      	movs	r3, #3
 8001800:	2182      	movs	r1, #130	; 0x82
 8001802:	2208      	movs	r2, #8
 8001804:	4620      	mov	r0, r4
 8001806:	f001 faff 	bl	8002e08 <DCD_EP_Open>
 800180a:	f240 0c44 	movw	ip, #68	; 0x44
 800180e:	f240 0230 	movw	r2, #48	; 0x30
 8001812:	f2c2 0c00 	movt	ip, #8192	; 0x2000
 8001816:	f2c2 0200 	movt	r2, #8192	; 0x2000
 800181a:	2102      	movs	r1, #2
 800181c:	2500      	movs	r5, #0
 800181e:	f88c 1004 	strb.w	r1, [ip, #4]
 8001822:	f88c 5005 	strb.w	r5, [ip, #5]
 8001826:	6810      	ldr	r0, [r2, #0]
 8001828:	4780      	blx	r0
 800182a:	f8d4 35ec 	ldr.w	r3, [r4, #1516]	; 0x5ec
 800182e:	f240 72bc 	movw	r2, #1980	; 0x7bc
 8001832:	4620      	mov	r0, r4
 8001834:	2101      	movs	r1, #1
 8001836:	f2c2 0200 	movt	r2, #8192	; 0x2000
 800183a:	f8b3 3040 	ldrh.w	r3, [r3, #64]	; 0x40
 800183e:	f001 fb19 	bl	8002e74 <DCD_EP_PrepareRx>
 8001842:	4628      	mov	r0, r5
 8001844:	bd38      	pop	{r3, r4, r5, pc}
 8001846:	bf00      	nop

08001848 <usbd_cdc_EP0_RxReady>:
 8001848:	b510      	push	{r4, lr}
 800184a:	f240 04b0 	movw	r4, #176	; 0xb0
 800184e:	f2c2 0400 	movt	r4, #8192	; 0x2000
 8001852:	6c60      	ldr	r0, [r4, #68]	; 0x44
 8001854:	28ff      	cmp	r0, #255	; 0xff
 8001856:	d011      	beq.n	800187c <usbd_cdc_EP0_RxReady+0x34>
 8001858:	f240 0c30 	movw	ip, #48	; 0x30
 800185c:	f240 1258 	movw	r2, #344	; 0x158
 8001860:	f2c2 0c00 	movt	ip, #8192	; 0x2000
 8001864:	f2c2 0200 	movt	r2, #8192	; 0x2000
 8001868:	f240 71fc 	movw	r1, #2044	; 0x7fc
 800186c:	f8dc 3008 	ldr.w	r3, [ip, #8]
 8001870:	6952      	ldr	r2, [r2, #20]
 8001872:	f2c2 0100 	movt	r1, #8192	; 0x2000
 8001876:	4798      	blx	r3
 8001878:	23ff      	movs	r3, #255	; 0xff
 800187a:	6463      	str	r3, [r4, #68]	; 0x44
 800187c:	2000      	movs	r0, #0
 800187e:	bd10      	pop	{r4, pc}

08001880 <usbd_cdc_DataIn>:
 8001880:	b538      	push	{r3, r4, r5, lr}
 8001882:	f240 1158 	movw	r1, #344	; 0x158
 8001886:	f2c2 0100 	movt	r1, #8192	; 0x2000
 800188a:	790b      	ldrb	r3, [r1, #4]
 800188c:	2b01      	cmp	r3, #1
 800188e:	d001      	beq.n	8001894 <usbd_cdc_DataIn+0x14>
 8001890:	2000      	movs	r0, #0
 8001892:	bd38      	pop	{r3, r4, r5, pc}
 8001894:	690a      	ldr	r2, [r1, #16]
 8001896:	b1ea      	cbz	r2, 80018d4 <usbd_cdc_DataIn+0x54>
 8001898:	f8d0 45ec 	ldr.w	r4, [r0, #1516]	; 0x5ec
 800189c:	f8b4 3039 	ldrh.w	r3, [r4, #57]	; 0x39
 80018a0:	688c      	ldr	r4, [r1, #8]
 80018a2:	429a      	cmp	r2, r3
 80018a4:	d810      	bhi.n	80018c8 <usbd_cdc_DataIn+0x48>
 80018a6:	18a3      	adds	r3, r4, r2
 80018a8:	608b      	str	r3, [r1, #8]
 80018aa:	2300      	movs	r3, #0
 80018ac:	610b      	str	r3, [r1, #16]
 80018ae:	b2a4      	uxth	r4, r4
 80018b0:	b293      	uxth	r3, r2
 80018b2:	f640 0c04 	movw	ip, #2052	; 0x804
 80018b6:	f2c2 0c00 	movt	ip, #8192	; 0x2000
 80018ba:	2181      	movs	r1, #129	; 0x81
 80018bc:	eb0c 0204 	add.w	r2, ip, r4
 80018c0:	f001 faf6 	bl	8002eb0 <DCD_EP_Tx>
 80018c4:	2000      	movs	r0, #0
 80018c6:	bd38      	pop	{r3, r4, r5, pc}
 80018c8:	191d      	adds	r5, r3, r4
 80018ca:	1ad2      	subs	r2, r2, r3
 80018cc:	b2a4      	uxth	r4, r4
 80018ce:	608d      	str	r5, [r1, #8]
 80018d0:	610a      	str	r2, [r1, #16]
 80018d2:	e7ee      	b.n	80018b2 <usbd_cdc_DataIn+0x32>
 80018d4:	710a      	strb	r2, [r1, #4]
 80018d6:	2000      	movs	r0, #0
 80018d8:	bd38      	pop	{r3, r4, r5, pc}
 80018da:	bf00      	nop

080018dc <USBD_Resume>:
 80018dc:	f8d0 15e4 	ldr.w	r1, [r0, #1508]	; 0x5e4
 80018e0:	b510      	push	{r4, lr}
 80018e2:	4604      	mov	r4, r0
 80018e4:	6908      	ldr	r0, [r1, #16]
 80018e6:	4780      	blx	r0
 80018e8:	2303      	movs	r3, #3
 80018ea:	f884 3112 	strb.w	r3, [r4, #274]	; 0x112
 80018ee:	2000      	movs	r0, #0
 80018f0:	bd10      	pop	{r4, pc}
 80018f2:	bf00      	nop

080018f4 <USBD_Suspend>:
 80018f4:	f8d0 15e4 	ldr.w	r1, [r0, #1508]	; 0x5e4
 80018f8:	2204      	movs	r2, #4
 80018fa:	b508      	push	{r3, lr}
 80018fc:	f880 2112 	strb.w	r2, [r0, #274]	; 0x112
 8001900:	68cb      	ldr	r3, [r1, #12]
 8001902:	4798      	blx	r3
 8001904:	2000      	movs	r0, #0
 8001906:	bd08      	pop	{r3, pc}

08001908 <USBD_SOF>:
 8001908:	b508      	push	{r3, lr}
 800190a:	f8d0 35e0 	ldr.w	r3, [r0, #1504]	; 0x5e0
 800190e:	69db      	ldr	r3, [r3, #28]
 8001910:	b103      	cbz	r3, 8001914 <USBD_SOF+0xc>
 8001912:	4798      	blx	r3
 8001914:	2000      	movs	r0, #0
 8001916:	bd08      	pop	{r3, pc}

08001918 <USBD_IsoINIncomplete>:
 8001918:	f8d0 15e0 	ldr.w	r1, [r0, #1504]	; 0x5e0
 800191c:	b508      	push	{r3, lr}
 800191e:	6a0b      	ldr	r3, [r1, #32]
 8001920:	4798      	blx	r3
 8001922:	2000      	movs	r0, #0
 8001924:	bd08      	pop	{r3, pc}
 8001926:	bf00      	nop

08001928 <USBD_IsoOUTIncomplete>:
 8001928:	f8d0 15e0 	ldr.w	r1, [r0, #1504]	; 0x5e0
 800192c:	b508      	push	{r3, lr}
 800192e:	6a4b      	ldr	r3, [r1, #36]	; 0x24
 8001930:	4798      	blx	r3
 8001932:	2000      	movs	r0, #0
 8001934:	bd08      	pop	{r3, pc}
 8001936:	bf00      	nop

08001938 <USBD_Reset>:
 8001938:	2100      	movs	r1, #0
 800193a:	b510      	push	{r4, lr}
 800193c:	460b      	mov	r3, r1
 800193e:	4604      	mov	r4, r0
 8001940:	2208      	movs	r2, #8
 8001942:	f001 fa61 	bl	8002e08 <DCD_EP_Open>
 8001946:	2180      	movs	r1, #128	; 0x80
 8001948:	2208      	movs	r2, #8
 800194a:	2300      	movs	r3, #0
 800194c:	4620      	mov	r0, r4
 800194e:	f001 fa5b 	bl	8002e08 <DCD_EP_Open>
 8001952:	f8d4 15e4 	ldr.w	r1, [r4, #1508]	; 0x5e4
 8001956:	78a0      	ldrb	r0, [r4, #2]
 8001958:	2201      	movs	r2, #1
 800195a:	f884 2112 	strb.w	r2, [r4, #274]	; 0x112
 800195e:	684b      	ldr	r3, [r1, #4]
 8001960:	4798      	blx	r3
 8001962:	2000      	movs	r0, #0
 8001964:	bd10      	pop	{r4, pc}
 8001966:	bf00      	nop

08001968 <USBD_SetupStage>:
 8001968:	b510      	push	{r4, lr}
 800196a:	b082      	sub	sp, #8
 800196c:	4669      	mov	r1, sp
 800196e:	4604      	mov	r4, r0
 8001970:	f000 f93a 	bl	8001be8 <USBD_ParseSetupRequest>
 8001974:	f89d 1000 	ldrb.w	r1, [sp]
 8001978:	f001 031f 	and.w	r3, r1, #31
 800197c:	2b01      	cmp	r3, #1
 800197e:	4620      	mov	r0, r4
 8001980:	d011      	beq.n	80019a6 <USBD_SetupStage+0x3e>
 8001982:	2b02      	cmp	r3, #2
 8001984:	d00b      	beq.n	800199e <USBD_SetupStage+0x36>
 8001986:	b133      	cbz	r3, 8001996 <USBD_SetupStage+0x2e>
 8001988:	f001 0180 	and.w	r1, r1, #128	; 0x80
 800198c:	f001 faac 	bl	8002ee8 <DCD_EP_Stall>
 8001990:	2000      	movs	r0, #0
 8001992:	b002      	add	sp, #8
 8001994:	bd10      	pop	{r4, pc}
 8001996:	4669      	mov	r1, sp
 8001998:	f000 fa08 	bl	8001dac <USBD_StdDevReq>
 800199c:	e7f8      	b.n	8001990 <USBD_SetupStage+0x28>
 800199e:	4669      	mov	r1, sp
 80019a0:	f000 f95c 	bl	8001c5c <USBD_StdEPReq>
 80019a4:	e7f4      	b.n	8001990 <USBD_SetupStage+0x28>
 80019a6:	4669      	mov	r1, sp
 80019a8:	f000 f9e6 	bl	8001d78 <USBD_StdItfReq>
 80019ac:	e7f0      	b.n	8001990 <USBD_SetupStage+0x28>
 80019ae:	bf00      	nop

080019b0 <USBD_DataInStage>:
 80019b0:	b538      	push	{r3, r4, r5, lr}
 80019b2:	4604      	mov	r4, r0
 80019b4:	b929      	cbnz	r1, 80019c2 <USBD_DataInStage+0x12>
 80019b6:	f890 3111 	ldrb.w	r3, [r0, #273]	; 0x111
 80019ba:	2b02      	cmp	r3, #2
 80019bc:	d00d      	beq.n	80019da <USBD_DataInStage+0x2a>
 80019be:	2000      	movs	r0, #0
 80019c0:	bd38      	pop	{r3, r4, r5, pc}
 80019c2:	f8d0 25e0 	ldr.w	r2, [r0, #1504]	; 0x5e0
 80019c6:	6953      	ldr	r3, [r2, #20]
 80019c8:	2b00      	cmp	r3, #0
 80019ca:	d0f8      	beq.n	80019be <USBD_DataInStage+0xe>
 80019cc:	f890 c112 	ldrb.w	ip, [r0, #274]	; 0x112
 80019d0:	f1bc 0f03 	cmp.w	ip, #3
 80019d4:	d1f3      	bne.n	80019be <USBD_DataInStage+0xe>
 80019d6:	4798      	blx	r3
 80019d8:	e7f1      	b.n	80019be <USBD_DataInStage+0xe>
 80019da:	f8d0 2134 	ldr.w	r2, [r0, #308]	; 0x134
 80019de:	f8d0 3120 	ldr.w	r3, [r0, #288]	; 0x120
 80019e2:	429a      	cmp	r2, r3
 80019e4:	d910      	bls.n	8001a08 <USBD_DataInStage+0x58>
 80019e6:	78c1      	ldrb	r1, [r0, #3]
 80019e8:	2901      	cmp	r1, #1
 80019ea:	f8d0 1124 	ldr.w	r1, [r0, #292]	; 0x124
 80019ee:	ebc3 0202 	rsb	r2, r3, r2
 80019f2:	bf08      	it	eq
 80019f4:	18c9      	addeq	r1, r1, r3
 80019f6:	f8c0 2134 	str.w	r2, [r0, #308]	; 0x134
 80019fa:	bf08      	it	eq
 80019fc:	f8c0 1124 	streq.w	r1, [r0, #292]	; 0x124
 8001a00:	b292      	uxth	r2, r2
 8001a02:	f000 f8a5 	bl	8001b50 <USBD_CtlContinueSendData>
 8001a06:	e7da      	b.n	80019be <USBD_DataInStage+0xe>
 8001a08:	f8d0 2138 	ldr.w	r2, [r0, #312]	; 0x138
 8001a0c:	fbb2 f5f3 	udiv	r5, r2, r3
 8001a10:	fb03 2515 	mls	r5, r3, r5, r2
 8001a14:	b95d      	cbnz	r5, 8001a2e <USBD_DataInStage+0x7e>
 8001a16:	4293      	cmp	r3, r2
 8001a18:	d809      	bhi.n	8001a2e <USBD_DataInStage+0x7e>
 8001a1a:	f8d0 313c 	ldr.w	r3, [r0, #316]	; 0x13c
 8001a1e:	429a      	cmp	r2, r3
 8001a20:	d205      	bcs.n	8001a2e <USBD_DataInStage+0x7e>
 8001a22:	462a      	mov	r2, r5
 8001a24:	f000 f894 	bl	8001b50 <USBD_CtlContinueSendData>
 8001a28:	f8c4 513c 	str.w	r5, [r4, #316]	; 0x13c
 8001a2c:	e7c7      	b.n	80019be <USBD_DataInStage+0xe>
 8001a2e:	f8d4 05e0 	ldr.w	r0, [r4, #1504]	; 0x5e0
 8001a32:	68c3      	ldr	r3, [r0, #12]
 8001a34:	b123      	cbz	r3, 8001a40 <USBD_DataInStage+0x90>
 8001a36:	f894 c112 	ldrb.w	ip, [r4, #274]	; 0x112
 8001a3a:	f1bc 0f03 	cmp.w	ip, #3
 8001a3e:	d003      	beq.n	8001a48 <USBD_DataInStage+0x98>
 8001a40:	4620      	mov	r0, r4
 8001a42:	f000 f8b9 	bl	8001bb8 <USBD_CtlReceiveStatus>
 8001a46:	e7ba      	b.n	80019be <USBD_DataInStage+0xe>
 8001a48:	4620      	mov	r0, r4
 8001a4a:	4798      	blx	r3
 8001a4c:	e7f8      	b.n	8001a40 <USBD_DataInStage+0x90>
 8001a4e:	bf00      	nop

08001a50 <USBD_DataOutStage>:
 8001a50:	b510      	push	{r4, lr}
 8001a52:	4604      	mov	r4, r0
 8001a54:	b929      	cbnz	r1, 8001a62 <USBD_DataOutStage+0x12>
 8001a56:	f890 3111 	ldrb.w	r3, [r0, #273]	; 0x111
 8001a5a:	2b03      	cmp	r3, #3
 8001a5c:	d00d      	beq.n	8001a7a <USBD_DataOutStage+0x2a>
 8001a5e:	2000      	movs	r0, #0
 8001a60:	bd10      	pop	{r4, pc}
 8001a62:	f8d0 25e0 	ldr.w	r2, [r0, #1504]	; 0x5e0
 8001a66:	6993      	ldr	r3, [r2, #24]
 8001a68:	2b00      	cmp	r3, #0
 8001a6a:	d0f8      	beq.n	8001a5e <USBD_DataOutStage+0xe>
 8001a6c:	f890 c112 	ldrb.w	ip, [r0, #274]	; 0x112
 8001a70:	f1bc 0f03 	cmp.w	ip, #3
 8001a74:	d1f3      	bne.n	8001a5e <USBD_DataOutStage+0xe>
 8001a76:	4798      	blx	r3
 8001a78:	e7f1      	b.n	8001a5e <USBD_DataOutStage+0xe>
 8001a7a:	f8d0 238c 	ldr.w	r2, [r0, #908]	; 0x38c
 8001a7e:	f8d0 3378 	ldr.w	r3, [r0, #888]	; 0x378
 8001a82:	429a      	cmp	r2, r3
 8001a84:	d912      	bls.n	8001aac <USBD_DataOutStage+0x5c>
 8001a86:	78c1      	ldrb	r1, [r0, #3]
 8001a88:	2901      	cmp	r1, #1
 8001a8a:	f8d0 137c 	ldr.w	r1, [r0, #892]	; 0x37c
 8001a8e:	ebc3 0202 	rsb	r2, r3, r2
 8001a92:	bf04      	itt	eq
 8001a94:	18c9      	addeq	r1, r1, r3
 8001a96:	f8c0 137c 	streq.w	r1, [r0, #892]	; 0x37c
 8001a9a:	f8c0 238c 	str.w	r2, [r0, #908]	; 0x38c
 8001a9e:	429a      	cmp	r2, r3
 8001aa0:	bf28      	it	cs
 8001aa2:	461a      	movcs	r2, r3
 8001aa4:	b292      	uxth	r2, r2
 8001aa6:	f000 f86d 	bl	8001b84 <USBD_CtlContinueRx>
 8001aaa:	e7d8      	b.n	8001a5e <USBD_DataOutStage+0xe>
 8001aac:	f8d0 35e0 	ldr.w	r3, [r0, #1504]	; 0x5e0
 8001ab0:	691b      	ldr	r3, [r3, #16]
 8001ab2:	b123      	cbz	r3, 8001abe <USBD_DataOutStage+0x6e>
 8001ab4:	f890 c112 	ldrb.w	ip, [r0, #274]	; 0x112
 8001ab8:	f1bc 0f03 	cmp.w	ip, #3
 8001abc:	d003      	beq.n	8001ac6 <USBD_DataOutStage+0x76>
 8001abe:	4620      	mov	r0, r4
 8001ac0:	f000 f86a 	bl	8001b98 <USBD_CtlSendStatus>
 8001ac4:	e7cb      	b.n	8001a5e <USBD_DataOutStage+0xe>
 8001ac6:	4798      	blx	r3
 8001ac8:	e7f9      	b.n	8001abe <USBD_DataOutStage+0x6e>
 8001aca:	bf00      	nop

08001acc <USBD_Init>:
 8001acc:	e92d 41f0 	stmdb	sp!, {r4, r5, r6, r7, r8, lr}
 8001ad0:	9d06      	ldr	r5, [sp, #24]
 8001ad2:	4604      	mov	r4, r0
 8001ad4:	4616      	mov	r6, r2
 8001ad6:	461f      	mov	r7, r3
 8001ad8:	4688      	mov	r8, r1
 8001ada:	f7fe fd53 	bl	8000584 <USB_OTG_BSP_Init>
 8001ade:	4620      	mov	r0, r4
 8001ae0:	4641      	mov	r1, r8
 8001ae2:	f8c4 75e0 	str.w	r7, [r4, #1504]	; 0x5e0
 8001ae6:	f8c4 55e4 	str.w	r5, [r4, #1508]	; 0x5e4
 8001aea:	f8c4 65e8 	str.w	r6, [r4, #1512]	; 0x5e8
 8001aee:	f001 f935 	bl	8002d5c <DCD_Init>
 8001af2:	f8d4 05e4 	ldr.w	r0, [r4, #1508]	; 0x5e4
 8001af6:	6803      	ldr	r3, [r0, #0]
 8001af8:	4798      	blx	r3
 8001afa:	4620      	mov	r0, r4
 8001afc:	e8bd 41f0 	ldmia.w	sp!, {r4, r5, r6, r7, r8, lr}
 8001b00:	f7fe bd96 	b.w	8000630 <USB_OTG_BSP_EnableInterrupt>

08001b04 <USBD_DeInit>:
 8001b04:	2000      	movs	r0, #0
 8001b06:	4770      	bx	lr

08001b08 <USBD_SetCfg>:
 8001b08:	f8d0 35e0 	ldr.w	r3, [r0, #1504]	; 0x5e0
 8001b0c:	b510      	push	{r4, lr}
 8001b0e:	4604      	mov	r4, r0
 8001b10:	681a      	ldr	r2, [r3, #0]
 8001b12:	4790      	blx	r2
 8001b14:	f8d4 05e4 	ldr.w	r0, [r4, #1508]	; 0x5e4
 8001b18:	6883      	ldr	r3, [r0, #8]
 8001b1a:	4798      	blx	r3
 8001b1c:	2000      	movs	r0, #0
 8001b1e:	bd10      	pop	{r4, pc}

08001b20 <USBD_ClrCfg>:
 8001b20:	f8d0 25e0 	ldr.w	r2, [r0, #1504]	; 0x5e0
 8001b24:	b508      	push	{r3, lr}
 8001b26:	6853      	ldr	r3, [r2, #4]
 8001b28:	4798      	blx	r3
 8001b2a:	2000      	movs	r0, #0
 8001b2c:	bd08      	pop	{r3, pc}
 8001b2e:	bf00      	nop

08001b30 <USBD_CtlSendData>:
 8001b30:	4613      	mov	r3, r2
 8001b32:	460a      	mov	r2, r1
 8001b34:	2102      	movs	r1, #2
 8001b36:	b510      	push	{r4, lr}
 8001b38:	f8c0 3138 	str.w	r3, [r0, #312]	; 0x138
 8001b3c:	f8c0 3134 	str.w	r3, [r0, #308]	; 0x134
 8001b40:	f880 1111 	strb.w	r1, [r0, #273]	; 0x111
 8001b44:	2100      	movs	r1, #0
 8001b46:	f001 f9b3 	bl	8002eb0 <DCD_EP_Tx>
 8001b4a:	2000      	movs	r0, #0
 8001b4c:	bd10      	pop	{r4, pc}
 8001b4e:	bf00      	nop

08001b50 <USBD_CtlContinueSendData>:
 8001b50:	b510      	push	{r4, lr}
 8001b52:	460c      	mov	r4, r1
 8001b54:	4613      	mov	r3, r2
 8001b56:	2100      	movs	r1, #0
 8001b58:	4622      	mov	r2, r4
 8001b5a:	f001 f9a9 	bl	8002eb0 <DCD_EP_Tx>
 8001b5e:	2000      	movs	r0, #0
 8001b60:	bd10      	pop	{r4, pc}
 8001b62:	bf00      	nop

08001b64 <USBD_CtlPrepareRx>:
 8001b64:	4613      	mov	r3, r2
 8001b66:	460a      	mov	r2, r1
 8001b68:	2103      	movs	r1, #3
 8001b6a:	b510      	push	{r4, lr}
 8001b6c:	f8c0 3390 	str.w	r3, [r0, #912]	; 0x390
 8001b70:	f8c0 338c 	str.w	r3, [r0, #908]	; 0x38c
 8001b74:	f880 1111 	strb.w	r1, [r0, #273]	; 0x111
 8001b78:	2100      	movs	r1, #0
 8001b7a:	f001 f97b 	bl	8002e74 <DCD_EP_PrepareRx>
 8001b7e:	2000      	movs	r0, #0
 8001b80:	bd10      	pop	{r4, pc}
 8001b82:	bf00      	nop

08001b84 <USBD_CtlContinueRx>:
 8001b84:	b510      	push	{r4, lr}
 8001b86:	460c      	mov	r4, r1
 8001b88:	4613      	mov	r3, r2
 8001b8a:	2100      	movs	r1, #0
 8001b8c:	4622      	mov	r2, r4
 8001b8e:	f001 f971 	bl	8002e74 <DCD_EP_PrepareRx>
 8001b92:	2000      	movs	r0, #0
 8001b94:	bd10      	pop	{r4, pc}
 8001b96:	bf00      	nop

08001b98 <USBD_CtlSendStatus>:
 8001b98:	b538      	push	{r3, r4, r5, lr}
 8001b9a:	2100      	movs	r1, #0
 8001b9c:	2504      	movs	r5, #4
 8001b9e:	4604      	mov	r4, r0
 8001ba0:	460a      	mov	r2, r1
 8001ba2:	460b      	mov	r3, r1
 8001ba4:	f880 5111 	strb.w	r5, [r0, #273]	; 0x111
 8001ba8:	f001 f982 	bl	8002eb0 <DCD_EP_Tx>
 8001bac:	4620      	mov	r0, r4
 8001bae:	f000 fff1 	bl	8002b94 <USB_OTG_EP0_OutStart>
 8001bb2:	2000      	movs	r0, #0
 8001bb4:	bd38      	pop	{r3, r4, r5, pc}
 8001bb6:	bf00      	nop

08001bb8 <USBD_CtlReceiveStatus>:
 8001bb8:	b538      	push	{r3, r4, r5, lr}
 8001bba:	2100      	movs	r1, #0
 8001bbc:	2505      	movs	r5, #5
 8001bbe:	4604      	mov	r4, r0
 8001bc0:	460a      	mov	r2, r1
 8001bc2:	460b      	mov	r3, r1
 8001bc4:	f880 5111 	strb.w	r5, [r0, #273]	; 0x111
 8001bc8:	f001 f954 	bl	8002e74 <DCD_EP_PrepareRx>
 8001bcc:	4620      	mov	r0, r4
 8001bce:	f000 ffe1 	bl	8002b94 <USB_OTG_EP0_OutStart>
 8001bd2:	2000      	movs	r0, #0
 8001bd4:	bd38      	pop	{r3, r4, r5, pc}
 8001bd6:	bf00      	nop

08001bd8 <USBD_GetRxCount>:
 8001bd8:	eb01 0281 	add.w	r2, r1, r1, lsl #2
 8001bdc:	eb00 01c2 	add.w	r1, r0, r2, lsl #3
 8001be0:	f8b1 0388 	ldrh.w	r0, [r1, #904]	; 0x388
 8001be4:	4770      	bx	lr
 8001be6:	bf00      	nop

08001be8 <USBD_ParseSetupRequest>:
 8001be8:	f890 25c8 	ldrb.w	r2, [r0, #1480]	; 0x5c8
 8001bec:	700a      	strb	r2, [r1, #0]
 8001bee:	f890 35c9 	ldrb.w	r3, [r0, #1481]	; 0x5c9
 8001bf2:	704b      	strb	r3, [r1, #1]
 8001bf4:	f890 25cb 	ldrb.w	r2, [r0, #1483]	; 0x5cb
 8001bf8:	f890 c5ca 	ldrb.w	ip, [r0, #1482]	; 0x5ca
 8001bfc:	0213      	lsls	r3, r2, #8
 8001bfe:	4463      	add	r3, ip
 8001c00:	804b      	strh	r3, [r1, #2]
 8001c02:	f890 25cd 	ldrb.w	r2, [r0, #1485]	; 0x5cd
 8001c06:	f890 c5cc 	ldrb.w	ip, [r0, #1484]	; 0x5cc
 8001c0a:	0213      	lsls	r3, r2, #8
 8001c0c:	eb03 020c 	add.w	r2, r3, ip
 8001c10:	808a      	strh	r2, [r1, #4]
 8001c12:	f890 35cf 	ldrb.w	r3, [r0, #1487]	; 0x5cf
 8001c16:	f890 25ce 	ldrb.w	r2, [r0, #1486]	; 0x5ce
 8001c1a:	021b      	lsls	r3, r3, #8
 8001c1c:	eb03 0c02 	add.w	ip, r3, r2
 8001c20:	fa1f f28c 	uxth.w	r2, ip
 8001c24:	2301      	movs	r3, #1
 8001c26:	80ca      	strh	r2, [r1, #6]
 8001c28:	f8c0 213c 	str.w	r2, [r0, #316]	; 0x13c
 8001c2c:	f880 3111 	strb.w	r3, [r0, #273]	; 0x111
 8001c30:	4770      	bx	lr
 8001c32:	bf00      	nop

08001c34 <USBD_CtlError>:
 8001c34:	b510      	push	{r4, lr}
 8001c36:	f991 3000 	ldrsb.w	r3, [r1]
 8001c3a:	2b00      	cmp	r3, #0
 8001c3c:	4604      	mov	r4, r0
 8001c3e:	db09      	blt.n	8001c54 <USBD_CtlError+0x20>
 8001c40:	88c9      	ldrh	r1, [r1, #6]
 8001c42:	b139      	cbz	r1, 8001c54 <USBD_CtlError+0x20>
 8001c44:	2100      	movs	r1, #0
 8001c46:	f001 f94f 	bl	8002ee8 <DCD_EP_Stall>
 8001c4a:	4620      	mov	r0, r4
 8001c4c:	e8bd 4010 	ldmia.w	sp!, {r4, lr}
 8001c50:	f000 bfa0 	b.w	8002b94 <USB_OTG_EP0_OutStart>
 8001c54:	2180      	movs	r1, #128	; 0x80
 8001c56:	f001 f947 	bl	8002ee8 <DCD_EP_Stall>
 8001c5a:	e7f6      	b.n	8001c4a <USBD_CtlError+0x16>

08001c5c <USBD_StdEPReq>:
 8001c5c:	b538      	push	{r3, r4, r5, lr}
 8001c5e:	784b      	ldrb	r3, [r1, #1]
 8001c60:	790a      	ldrb	r2, [r1, #4]
 8001c62:	2b01      	cmp	r3, #1
 8001c64:	460c      	mov	r4, r1
 8001c66:	4605      	mov	r5, r0
 8001c68:	d00e      	beq.n	8001c88 <USBD_StdEPReq+0x2c>
 8001c6a:	d303      	bcc.n	8001c74 <USBD_StdEPReq+0x18>
 8001c6c:	2b03      	cmp	r3, #3
 8001c6e:	d01d      	beq.n	8001cac <USBD_StdEPReq+0x50>
 8001c70:	2000      	movs	r0, #0
 8001c72:	bd38      	pop	{r3, r4, r5, pc}
 8001c74:	f890 3112 	ldrb.w	r3, [r0, #274]	; 0x112
 8001c78:	2b02      	cmp	r3, #2
 8001c7a:	d009      	beq.n	8001c90 <USBD_StdEPReq+0x34>
 8001c7c:	2b03      	cmp	r3, #3
 8001c7e:	d043      	beq.n	8001d08 <USBD_StdEPReq+0xac>
 8001c80:	f7ff ffd8 	bl	8001c34 <USBD_CtlError>
 8001c84:	2000      	movs	r0, #0
 8001c86:	bd38      	pop	{r3, r4, r5, pc}
 8001c88:	f890 3112 	ldrb.w	r3, [r0, #274]	; 0x112
 8001c8c:	2b02      	cmp	r3, #2
 8001c8e:	d129      	bne.n	8001ce4 <USBD_StdEPReq+0x88>
 8001c90:	1c13      	adds	r3, r2, #0
 8001c92:	bf18      	it	ne
 8001c94:	2301      	movne	r3, #1
 8001c96:	2a80      	cmp	r2, #128	; 0x80
 8001c98:	bf0c      	ite	eq
 8001c9a:	2300      	moveq	r3, #0
 8001c9c:	f003 0301 	andne.w	r3, r3, #1
 8001ca0:	2b00      	cmp	r3, #0
 8001ca2:	d0e5      	beq.n	8001c70 <USBD_StdEPReq+0x14>
 8001ca4:	4611      	mov	r1, r2
 8001ca6:	f001 f91f 	bl	8002ee8 <DCD_EP_Stall>
 8001caa:	e7e1      	b.n	8001c70 <USBD_StdEPReq+0x14>
 8001cac:	f890 3112 	ldrb.w	r3, [r0, #274]	; 0x112
 8001cb0:	2b02      	cmp	r3, #2
 8001cb2:	d0ed      	beq.n	8001c90 <USBD_StdEPReq+0x34>
 8001cb4:	2b03      	cmp	r3, #3
 8001cb6:	d1e3      	bne.n	8001c80 <USBD_StdEPReq+0x24>
 8001cb8:	884b      	ldrh	r3, [r1, #2]
 8001cba:	b94b      	cbnz	r3, 8001cd0 <USBD_StdEPReq+0x74>
 8001cbc:	1c11      	adds	r1, r2, #0
 8001cbe:	bf18      	it	ne
 8001cc0:	2101      	movne	r1, #1
 8001cc2:	2a80      	cmp	r2, #128	; 0x80
 8001cc4:	bf0c      	ite	eq
 8001cc6:	2100      	moveq	r1, #0
 8001cc8:	f001 0101 	andne.w	r1, r1, #1
 8001ccc:	2900      	cmp	r1, #0
 8001cce:	d144      	bne.n	8001d5a <USBD_StdEPReq+0xfe>
 8001cd0:	f8d5 35e0 	ldr.w	r3, [r5, #1504]	; 0x5e0
 8001cd4:	4628      	mov	r0, r5
 8001cd6:	689a      	ldr	r2, [r3, #8]
 8001cd8:	4621      	mov	r1, r4
 8001cda:	4790      	blx	r2
 8001cdc:	4628      	mov	r0, r5
 8001cde:	f7ff ff5b 	bl	8001b98 <USBD_CtlSendStatus>
 8001ce2:	e7c5      	b.n	8001c70 <USBD_StdEPReq+0x14>
 8001ce4:	2b03      	cmp	r3, #3
 8001ce6:	d1cb      	bne.n	8001c80 <USBD_StdEPReq+0x24>
 8001ce8:	8849      	ldrh	r1, [r1, #2]
 8001cea:	2900      	cmp	r1, #0
 8001cec:	d1c0      	bne.n	8001c70 <USBD_StdEPReq+0x14>
 8001cee:	1c13      	adds	r3, r2, #0
 8001cf0:	bf18      	it	ne
 8001cf2:	2301      	movne	r3, #1
 8001cf4:	2a80      	cmp	r2, #128	; 0x80
 8001cf6:	bf0c      	ite	eq
 8001cf8:	2300      	moveq	r3, #0
 8001cfa:	f003 0301 	andne.w	r3, r3, #1
 8001cfe:	bb83      	cbnz	r3, 8001d62 <USBD_StdEPReq+0x106>
 8001d00:	4628      	mov	r0, r5
 8001d02:	f7ff ff49 	bl	8001b98 <USBD_CtlSendStatus>
 8001d06:	e7b3      	b.n	8001c70 <USBD_StdEPReq+0x14>
 8001d08:	0613      	lsls	r3, r2, #24
 8001d0a:	d415      	bmi.n	8001d38 <USBD_StdEPReq+0xdc>
 8001d0c:	eb02 0182 	add.w	r1, r2, r2, lsl #2
 8001d10:	eb00 02c1 	add.w	r2, r0, r1, lsl #3
 8001d14:	f892 3372 	ldrb.w	r3, [r2, #882]	; 0x372
 8001d18:	b9c3      	cbnz	r3, 8001d4c <USBD_StdEPReq+0xf0>
 8001d1a:	f240 1c74 	movw	ip, #372	; 0x174
 8001d1e:	f2c2 0c00 	movt	ip, #8192	; 0x2000
 8001d22:	f8cc 3000 	str.w	r3, [ip]
 8001d26:	f240 1174 	movw	r1, #372	; 0x174
 8001d2a:	4628      	mov	r0, r5
 8001d2c:	f2c2 0100 	movt	r1, #8192	; 0x2000
 8001d30:	2202      	movs	r2, #2
 8001d32:	f7ff fefd 	bl	8001b30 <USBD_CtlSendData>
 8001d36:	e79b      	b.n	8001c70 <USBD_StdEPReq+0x14>
 8001d38:	f002 0e7f 	and.w	lr, r2, #127	; 0x7f
 8001d3c:	eb0e 0c8e 	add.w	ip, lr, lr, lsl #2
 8001d40:	eb00 00cc 	add.w	r0, r0, ip, lsl #3
 8001d44:	f890 311a 	ldrb.w	r3, [r0, #282]	; 0x11a
 8001d48:	2b00      	cmp	r3, #0
 8001d4a:	d0e6      	beq.n	8001d1a <USBD_StdEPReq+0xbe>
 8001d4c:	f240 1374 	movw	r3, #372	; 0x174
 8001d50:	f2c2 0300 	movt	r3, #8192	; 0x2000
 8001d54:	2001      	movs	r0, #1
 8001d56:	6018      	str	r0, [r3, #0]
 8001d58:	e7e5      	b.n	8001d26 <USBD_StdEPReq+0xca>
 8001d5a:	4611      	mov	r1, r2
 8001d5c:	f001 f8c4 	bl	8002ee8 <DCD_EP_Stall>
 8001d60:	e7b6      	b.n	8001cd0 <USBD_StdEPReq+0x74>
 8001d62:	4611      	mov	r1, r2
 8001d64:	f001 f8e0 	bl	8002f28 <DCD_EP_ClrStall>
 8001d68:	f8d5 15e0 	ldr.w	r1, [r5, #1504]	; 0x5e0
 8001d6c:	4628      	mov	r0, r5
 8001d6e:	688a      	ldr	r2, [r1, #8]
 8001d70:	4621      	mov	r1, r4
 8001d72:	4790      	blx	r2
 8001d74:	e7c4      	b.n	8001d00 <USBD_StdEPReq+0xa4>
 8001d76:	bf00      	nop

08001d78 <USBD_StdItfReq>:
 8001d78:	b538      	push	{r3, r4, r5, lr}
 8001d7a:	f890 3112 	ldrb.w	r3, [r0, #274]	; 0x112
 8001d7e:	2b03      	cmp	r3, #3
 8001d80:	4604      	mov	r4, r0
 8001d82:	460d      	mov	r5, r1
 8001d84:	d003      	beq.n	8001d8e <USBD_StdItfReq+0x16>
 8001d86:	f7ff ff55 	bl	8001c34 <USBD_CtlError>
 8001d8a:	2000      	movs	r0, #0
 8001d8c:	bd38      	pop	{r3, r4, r5, pc}
 8001d8e:	790a      	ldrb	r2, [r1, #4]
 8001d90:	2a01      	cmp	r2, #1
 8001d92:	d8f8      	bhi.n	8001d86 <USBD_StdItfReq+0xe>
 8001d94:	f8d0 25e0 	ldr.w	r2, [r0, #1504]	; 0x5e0
 8001d98:	6893      	ldr	r3, [r2, #8]
 8001d9a:	4798      	blx	r3
 8001d9c:	88e8      	ldrh	r0, [r5, #6]
 8001d9e:	2800      	cmp	r0, #0
 8001da0:	d1f3      	bne.n	8001d8a <USBD_StdItfReq+0x12>
 8001da2:	4620      	mov	r0, r4
 8001da4:	f7ff fef8 	bl	8001b98 <USBD_CtlSendStatus>
 8001da8:	e7ef      	b.n	8001d8a <USBD_StdItfReq+0x12>
 8001daa:	bf00      	nop

08001dac <USBD_StdDevReq>:
 8001dac:	b570      	push	{r4, r5, r6, lr}
 8001dae:	784b      	ldrb	r3, [r1, #1]
 8001db0:	b082      	sub	sp, #8
 8001db2:	460c      	mov	r4, r1
 8001db4:	4605      	mov	r5, r0
 8001db6:	2b09      	cmp	r3, #9
 8001db8:	d816      	bhi.n	8001de8 <USBD_StdDevReq+0x3c>
 8001dba:	e8df f003 	tbb	[pc, r3]
 8001dbe:	4615301b 			; <UNDEFINED> instruction: 0x4615301b
 8001dc2:	15795d15 	ldrbne	r5, [r9, #-3349]!	; 0xfffff2eb
 8001dc6:	78a1058f 	stmiavc	r1!, {r0, r1, r2, r3, r7, r8, sl}
 8001dca:	f240 1674 	movw	r6, #372	; 0x174
 8001dce:	f2c2 0600 	movt	r6, #8192	; 0x2000
 8001dd2:	2901      	cmp	r1, #1
 8001dd4:	7131      	strb	r1, [r6, #4]
 8001dd6:	d807      	bhi.n	8001de8 <USBD_StdDevReq+0x3c>
 8001dd8:	f890 3112 	ldrb.w	r3, [r0, #274]	; 0x112
 8001ddc:	2b02      	cmp	r3, #2
 8001dde:	f000 8142 	beq.w	8002066 <USBD_StdDevReq+0x2ba>
 8001de2:	2b03      	cmp	r3, #3
 8001de4:	f000 80ca 	beq.w	8001f7c <USBD_StdDevReq+0x1d0>
 8001de8:	4621      	mov	r1, r4
 8001dea:	f7ff ff23 	bl	8001c34 <USBD_CtlError>
 8001dee:	2000      	movs	r0, #0
 8001df0:	b002      	add	sp, #8
 8001df2:	bd70      	pop	{r4, r5, r6, pc}
 8001df4:	f890 2112 	ldrb.w	r2, [r0, #274]	; 0x112
 8001df8:	1e91      	subs	r1, r2, #2
 8001dfa:	2901      	cmp	r1, #1
 8001dfc:	d8f4      	bhi.n	8001de8 <USBD_StdDevReq+0x3c>
 8001dfe:	f8d0 2114 	ldr.w	r2, [r0, #276]	; 0x114
 8001e02:	f240 1174 	movw	r1, #372	; 0x174
 8001e06:	f2c2 0100 	movt	r1, #8192	; 0x2000
 8001e0a:	2a00      	cmp	r2, #0
 8001e0c:	bf0c      	ite	eq
 8001e0e:	2301      	moveq	r3, #1
 8001e10:	2303      	movne	r3, #3
 8001e12:	f841 3f0c 	str.w	r3, [r1, #12]!
 8001e16:	2201      	movs	r2, #1
 8001e18:	f7ff fe8a 	bl	8001b30 <USBD_CtlSendData>
 8001e1c:	e7e7      	b.n	8001dee <USBD_StdDevReq+0x42>
 8001e1e:	f890 2112 	ldrb.w	r2, [r0, #274]	; 0x112
 8001e22:	1e91      	subs	r1, r2, #2
 8001e24:	2901      	cmp	r1, #1
 8001e26:	d8df      	bhi.n	8001de8 <USBD_StdDevReq+0x3c>
 8001e28:	f8b4 c002 	ldrh.w	ip, [r4, #2]
 8001e2c:	f1bc 0f01 	cmp.w	ip, #1
 8001e30:	d1dd      	bne.n	8001dee <USBD_StdDevReq+0x42>
 8001e32:	f8d0 15e0 	ldr.w	r1, [r0, #1504]	; 0x5e0
 8001e36:	2200      	movs	r2, #0
 8001e38:	688b      	ldr	r3, [r1, #8]
 8001e3a:	f8c0 2114 	str.w	r2, [r0, #276]	; 0x114
 8001e3e:	4621      	mov	r1, r4
 8001e40:	4798      	blx	r3
 8001e42:	4628      	mov	r0, r5
 8001e44:	f7ff fea8 	bl	8001b98 <USBD_CtlSendStatus>
 8001e48:	e7d1      	b.n	8001dee <USBD_StdDevReq+0x42>
 8001e4a:	8863      	ldrh	r3, [r4, #2]
 8001e4c:	2b01      	cmp	r3, #1
 8001e4e:	f000 80fb 	beq.w	8002048 <USBD_StdDevReq+0x29c>
 8001e52:	2b02      	cmp	r3, #2
 8001e54:	d1cb      	bne.n	8001dee <USBD_StdDevReq+0x42>
 8001e56:	88a3      	ldrh	r3, [r4, #4]
 8001e58:	f013 0fff 	tst.w	r3, #255	; 0xff
 8001e5c:	d1c7      	bne.n	8001dee <USBD_StdDevReq+0x42>
 8001e5e:	6901      	ldr	r1, [r0, #16]
 8001e60:	0a1c      	lsrs	r4, r3, #8
 8001e62:	684a      	ldr	r2, [r1, #4]
 8001e64:	1e63      	subs	r3, r4, #1
 8001e66:	4610      	mov	r0, r2
 8001e68:	2b04      	cmp	r3, #4
 8001e6a:	f200 809e 	bhi.w	8001faa <USBD_StdDevReq+0x1fe>
 8001e6e:	e8df f003 	tbb	[pc, r3]
 8001e72:	b0a6aba1 	adclt	sl, r6, r1, lsr #23
 8001e76:	88a30098 	stmiahi	r3!, {r3, r4, r7}
 8001e7a:	2b00      	cmp	r3, #0
 8001e7c:	d13e      	bne.n	8001efc <USBD_StdDevReq+0x150>
 8001e7e:	88e2      	ldrh	r2, [r4, #6]
 8001e80:	2a00      	cmp	r2, #0
 8001e82:	d13b      	bne.n	8001efc <USBD_StdDevReq+0x150>
 8001e84:	f890 1112 	ldrb.w	r1, [r0, #274]	; 0x112
 8001e88:	8862      	ldrh	r2, [r4, #2]
 8001e8a:	2903      	cmp	r1, #3
 8001e8c:	d0ac      	beq.n	8001de8 <USBD_StdDevReq+0x3c>
 8001e8e:	f002 047f 	and.w	r4, r2, #127	; 0x7f
 8001e92:	f880 4113 	strb.w	r4, [r0, #275]	; 0x113
 8001e96:	4621      	mov	r1, r4
 8001e98:	f001 f874 	bl	8002f84 <DCD_EP_SetAddress>
 8001e9c:	4628      	mov	r0, r5
 8001e9e:	f7ff fe7b 	bl	8001b98 <USBD_CtlSendStatus>
 8001ea2:	2c00      	cmp	r4, #0
 8001ea4:	f000 80ed 	beq.w	8002082 <USBD_StdDevReq+0x2d6>
 8001ea8:	2002      	movs	r0, #2
 8001eaa:	f885 0112 	strb.w	r0, [r5, #274]	; 0x112
 8001eae:	e79e      	b.n	8001dee <USBD_StdDevReq+0x42>
 8001eb0:	8862      	ldrh	r2, [r4, #2]
 8001eb2:	0a11      	lsrs	r1, r2, #8
 8001eb4:	1e4b      	subs	r3, r1, #1
 8001eb6:	2b06      	cmp	r3, #6
 8001eb8:	d896      	bhi.n	8001de8 <USBD_StdDevReq+0x3c>
 8001eba:	a101      	add	r1, pc, #4	; (adr r1, 8001ec0 <USBD_StdDevReq+0x114>)
 8001ebc:	f851 f023 	ldr.w	pc, [r1, r3, lsl #2]
 8001ec0:	08001f5b 	stmdaeq	r0, {r0, r1, r3, r4, r6, r8, r9, sl, fp, ip}
 8001ec4:	08001f1d 	stmdaeq	r0, {r0, r2, r3, r4, r8, r9, sl, fp, ip}
 8001ec8:	08001f07 	stmdaeq	r0, {r0, r1, r2, r8, r9, sl, fp, ip}
 8001ecc:	08001de9 	stmdaeq	r0, {r0, r3, r5, r6, r7, r8, sl, fp, ip}
 8001ed0:	08001de9 	stmdaeq	r0, {r0, r3, r5, r6, r7, r8, sl, fp, ip}
 8001ed4:	08001de9 	stmdaeq	r0, {r0, r3, r5, r6, r7, r8, sl, fp, ip}
 8001ed8:	08001de9 	stmdaeq	r0, {r0, r3, r5, r6, r7, r8, sl, fp, ip}
 8001edc:	88e2      	ldrh	r2, [r4, #6]
 8001ede:	2a01      	cmp	r2, #1
 8001ee0:	d182      	bne.n	8001de8 <USBD_StdDevReq+0x3c>
 8001ee2:	f890 3112 	ldrb.w	r3, [r0, #274]	; 0x112
 8001ee6:	2b02      	cmp	r3, #2
 8001ee8:	f000 80b9 	beq.w	800205e <USBD_StdDevReq+0x2b2>
 8001eec:	2b03      	cmp	r3, #3
 8001eee:	f47f af7b 	bne.w	8001de8 <USBD_StdDevReq+0x3c>
 8001ef2:	f500 7188 	add.w	r1, r0, #272	; 0x110
 8001ef6:	f7ff fe1b 	bl	8001b30 <USBD_CtlSendData>
 8001efa:	e778      	b.n	8001dee <USBD_StdDevReq+0x42>
 8001efc:	4628      	mov	r0, r5
 8001efe:	4621      	mov	r1, r4
 8001f00:	f7ff fe98 	bl	8001c34 <USBD_CtlError>
 8001f04:	e773      	b.n	8001dee <USBD_StdDevReq+0x42>
 8001f06:	fa5f fc82 	uxtb.w	ip, r2
 8001f0a:	f1bc 0f05 	cmp.w	ip, #5
 8001f0e:	f63f af6b 	bhi.w	8001de8 <USBD_StdDevReq+0x3c>
 8001f12:	e8df f00c 	tbb	[pc, ip]
 8001f16:	757e8790 	ldrbvc	r8, [lr, #-1936]!	; 0xfffff870
 8001f1a:	f8d0636c 			; <UNDEFINED> instruction: 0xf8d0636c
 8001f1e:	15e0      	asrs	r0, r4, #23
 8001f20:	7880      	ldrb	r0, [r0, #2]
 8001f22:	6a8b      	ldr	r3, [r1, #40]	; 0x28
 8001f24:	f10d 0106 	add.w	r1, sp, #6
 8001f28:	4798      	blx	r3
 8001f2a:	2202      	movs	r2, #2
 8001f2c:	7042      	strb	r2, [r0, #1]
 8001f2e:	4601      	mov	r1, r0
 8001f30:	f8c5 05ec 	str.w	r0, [r5, #1516]	; 0x5ec
 8001f34:	f8bd 3006 	ldrh.w	r3, [sp, #6]
 8001f38:	2b00      	cmp	r3, #0
 8001f3a:	f43f af58 	beq.w	8001dee <USBD_StdDevReq+0x42>
 8001f3e:	88e2      	ldrh	r2, [r4, #6]
 8001f40:	2a00      	cmp	r2, #0
 8001f42:	f43f af54 	beq.w	8001dee <USBD_StdDevReq+0x42>
 8001f46:	4293      	cmp	r3, r2
 8001f48:	bf28      	it	cs
 8001f4a:	4613      	movcs	r3, r2
 8001f4c:	4628      	mov	r0, r5
 8001f4e:	461a      	mov	r2, r3
 8001f50:	f8ad 3006 	strh.w	r3, [sp, #6]
 8001f54:	f7ff fdec 	bl	8001b30 <USBD_CtlSendData>
 8001f58:	e749      	b.n	8001dee <USBD_StdDevReq+0x42>
 8001f5a:	f8d0 35e8 	ldr.w	r3, [r0, #1512]	; 0x5e8
 8001f5e:	7880      	ldrb	r0, [r0, #2]
 8001f60:	681a      	ldr	r2, [r3, #0]
 8001f62:	f10d 0106 	add.w	r1, sp, #6
 8001f66:	4790      	blx	r2
 8001f68:	88e2      	ldrh	r2, [r4, #6]
 8001f6a:	2a40      	cmp	r2, #64	; 0x40
 8001f6c:	4601      	mov	r1, r0
 8001f6e:	d003      	beq.n	8001f78 <USBD_StdDevReq+0x1cc>
 8001f70:	f895 0112 	ldrb.w	r0, [r5, #274]	; 0x112
 8001f74:	2801      	cmp	r0, #1
 8001f76:	d1dd      	bne.n	8001f34 <USBD_StdDevReq+0x188>
 8001f78:	2308      	movs	r3, #8
 8001f7a:	e7e1      	b.n	8001f40 <USBD_StdDevReq+0x194>
 8001f7c:	2900      	cmp	r1, #0
 8001f7e:	f000 8084 	beq.w	800208a <USBD_StdDevReq+0x2de>
 8001f82:	f890 1110 	ldrb.w	r1, [r0, #272]	; 0x110
 8001f86:	2901      	cmp	r1, #1
 8001f88:	d066      	beq.n	8002058 <USBD_StdDevReq+0x2ac>
 8001f8a:	f7ff fdc9 	bl	8001b20 <USBD_ClrCfg>
 8001f8e:	7931      	ldrb	r1, [r6, #4]
 8001f90:	4628      	mov	r0, r5
 8001f92:	f885 1110 	strb.w	r1, [r5, #272]	; 0x110
 8001f96:	f7ff fdb7 	bl	8001b08 <USBD_SetCfg>
 8001f9a:	4628      	mov	r0, r5
 8001f9c:	f7ff fdfc 	bl	8001b98 <USBD_CtlSendStatus>
 8001fa0:	e725      	b.n	8001dee <USBD_StdDevReq+0x42>
 8001fa2:	2305      	movs	r3, #5
 8001fa4:	f363 1006 	bfi	r0, r3, #4, #3
 8001fa8:	4602      	mov	r2, r0
 8001faa:	604a      	str	r2, [r1, #4]
 8001fac:	4628      	mov	r0, r5
 8001fae:	f7ff fdf3 	bl	8001b98 <USBD_CtlSendStatus>
 8001fb2:	e71c      	b.n	8001dee <USBD_StdDevReq+0x42>
 8001fb4:	2201      	movs	r2, #1
 8001fb6:	f362 1006 	bfi	r0, r2, #4, #3
 8001fba:	4602      	mov	r2, r0
 8001fbc:	e7f5      	b.n	8001faa <USBD_StdDevReq+0x1fe>
 8001fbe:	2403      	movs	r4, #3
 8001fc0:	f364 1006 	bfi	r0, r4, #4, #3
 8001fc4:	4602      	mov	r2, r0
 8001fc6:	e7f0      	b.n	8001faa <USBD_StdDevReq+0x1fe>
 8001fc8:	2302      	movs	r3, #2
 8001fca:	f363 1006 	bfi	r0, r3, #4, #3
 8001fce:	4602      	mov	r2, r0
 8001fd0:	e7eb      	b.n	8001faa <USBD_StdDevReq+0x1fe>
 8001fd2:	2204      	movs	r2, #4
 8001fd4:	f362 1006 	bfi	r0, r2, #4, #3
 8001fd8:	4602      	mov	r2, r0
 8001fda:	e7e6      	b.n	8001faa <USBD_StdDevReq+0x1fe>
 8001fdc:	f8d0 15e8 	ldr.w	r1, [r0, #1512]	; 0x5e8
 8001fe0:	7880      	ldrb	r0, [r0, #2]
 8001fe2:	698a      	ldr	r2, [r1, #24]
 8001fe4:	f10d 0106 	add.w	r1, sp, #6
 8001fe8:	4790      	blx	r2
 8001fea:	4601      	mov	r1, r0
 8001fec:	e7a2      	b.n	8001f34 <USBD_StdDevReq+0x188>
 8001fee:	f8d0 35e8 	ldr.w	r3, [r0, #1512]	; 0x5e8
 8001ff2:	7880      	ldrb	r0, [r0, #2]
 8001ff4:	695a      	ldr	r2, [r3, #20]
 8001ff6:	f10d 0106 	add.w	r1, sp, #6
 8001ffa:	4790      	blx	r2
 8001ffc:	4601      	mov	r1, r0
 8001ffe:	e799      	b.n	8001f34 <USBD_StdDevReq+0x188>
 8002000:	f8d0 15e8 	ldr.w	r1, [r0, #1512]	; 0x5e8
 8002004:	7880      	ldrb	r0, [r0, #2]
 8002006:	690b      	ldr	r3, [r1, #16]
 8002008:	f10d 0106 	add.w	r1, sp, #6
 800200c:	4798      	blx	r3
 800200e:	4601      	mov	r1, r0
 8002010:	e790      	b.n	8001f34 <USBD_StdDevReq+0x188>
 8002012:	f8d0 25e8 	ldr.w	r2, [r0, #1512]	; 0x5e8
 8002016:	7880      	ldrb	r0, [r0, #2]
 8002018:	68d3      	ldr	r3, [r2, #12]
 800201a:	f10d 0106 	add.w	r1, sp, #6
 800201e:	4798      	blx	r3
 8002020:	4601      	mov	r1, r0
 8002022:	e787      	b.n	8001f34 <USBD_StdDevReq+0x188>
 8002024:	f8d0 15e8 	ldr.w	r1, [r0, #1512]	; 0x5e8
 8002028:	7880      	ldrb	r0, [r0, #2]
 800202a:	688a      	ldr	r2, [r1, #8]
 800202c:	f10d 0106 	add.w	r1, sp, #6
 8002030:	4790      	blx	r2
 8002032:	4601      	mov	r1, r0
 8002034:	e77e      	b.n	8001f34 <USBD_StdDevReq+0x188>
 8002036:	f8d0 35e8 	ldr.w	r3, [r0, #1512]	; 0x5e8
 800203a:	7880      	ldrb	r0, [r0, #2]
 800203c:	685a      	ldr	r2, [r3, #4]
 800203e:	f10d 0106 	add.w	r1, sp, #6
 8002042:	4790      	blx	r2
 8002044:	4601      	mov	r1, r0
 8002046:	e775      	b.n	8001f34 <USBD_StdDevReq+0x188>
 8002048:	f8d0 15e0 	ldr.w	r1, [r0, #1504]	; 0x5e0
 800204c:	f8c0 3114 	str.w	r3, [r0, #276]	; 0x114
 8002050:	688b      	ldr	r3, [r1, #8]
 8002052:	4621      	mov	r1, r4
 8002054:	4798      	blx	r3
 8002056:	4628      	mov	r0, r5
 8002058:	f7ff fd9e 	bl	8001b98 <USBD_CtlSendStatus>
 800205c:	e6c7      	b.n	8001dee <USBD_StdDevReq+0x42>
 800205e:	4910      	ldr	r1, [pc, #64]	; (80020a0 <USBD_StdDevReq+0x2f4>)
 8002060:	f7ff fd66 	bl	8001b30 <USBD_CtlSendData>
 8002064:	e6c3      	b.n	8001dee <USBD_StdDevReq+0x42>
 8002066:	2900      	cmp	r1, #0
 8002068:	d0f6      	beq.n	8002058 <USBD_StdDevReq+0x2ac>
 800206a:	2101      	movs	r1, #1
 800206c:	2203      	movs	r2, #3
 800206e:	f880 1110 	strb.w	r1, [r0, #272]	; 0x110
 8002072:	f880 2112 	strb.w	r2, [r0, #274]	; 0x112
 8002076:	f7ff fd47 	bl	8001b08 <USBD_SetCfg>
 800207a:	4628      	mov	r0, r5
 800207c:	f7ff fd8c 	bl	8001b98 <USBD_CtlSendStatus>
 8002080:	e6b5      	b.n	8001dee <USBD_StdDevReq+0x42>
 8002082:	2301      	movs	r3, #1
 8002084:	f885 3112 	strb.w	r3, [r5, #274]	; 0x112
 8002088:	e6b1      	b.n	8001dee <USBD_StdDevReq+0x42>
 800208a:	2302      	movs	r3, #2
 800208c:	f880 3112 	strb.w	r3, [r0, #274]	; 0x112
 8002090:	f880 1110 	strb.w	r1, [r0, #272]	; 0x110
 8002094:	f7ff fd44 	bl	8001b20 <USBD_ClrCfg>
 8002098:	4628      	mov	r0, r5
 800209a:	f7ff fd7d 	bl	8001b98 <USBD_CtlSendStatus>
 800209e:	e6a6      	b.n	8001dee <USBD_StdDevReq+0x42>
 80020a0:	2000017c 	andcs	r0, r0, ip, ror r1

080020a4 <USBD_GetString>:
 80020a4:	b430      	push	{r4, r5}
 80020a6:	b1f8      	cbz	r0, 80020e8 <USBD_GetString+0x44>
 80020a8:	7803      	ldrb	r3, [r0, #0]
 80020aa:	2b00      	cmp	r3, #0
 80020ac:	d01e      	beq.n	80020ec <USBD_GetString+0x48>
 80020ae:	4604      	mov	r4, r0
 80020b0:	2300      	movs	r3, #0
 80020b2:	f814 5f01 	ldrb.w	r5, [r4, #1]!
 80020b6:	3301      	adds	r3, #1
 80020b8:	b2db      	uxtb	r3, r3
 80020ba:	2d00      	cmp	r5, #0
 80020bc:	d1f9      	bne.n	80020b2 <USBD_GetString+0xe>
 80020be:	005c      	lsls	r4, r3, #1
 80020c0:	1ca3      	adds	r3, r4, #2
 80020c2:	b2dc      	uxtb	r4, r3
 80020c4:	8013      	strh	r3, [r2, #0]
 80020c6:	2203      	movs	r2, #3
 80020c8:	700c      	strb	r4, [r1, #0]
 80020ca:	704a      	strb	r2, [r1, #1]
 80020cc:	7802      	ldrb	r2, [r0, #0]
 80020ce:	b15a      	cbz	r2, 80020e8 <USBD_GetString+0x44>
 80020d0:	2302      	movs	r3, #2
 80020d2:	2500      	movs	r5, #0
 80020d4:	1c5c      	adds	r4, r3, #1
 80020d6:	b2e4      	uxtb	r4, r4
 80020d8:	54ca      	strb	r2, [r1, r3]
 80020da:	550d      	strb	r5, [r1, r4]
 80020dc:	f810 2f01 	ldrb.w	r2, [r0, #1]!
 80020e0:	3302      	adds	r3, #2
 80020e2:	b2db      	uxtb	r3, r3
 80020e4:	2a00      	cmp	r2, #0
 80020e6:	d1f5      	bne.n	80020d4 <USBD_GetString+0x30>
 80020e8:	bc30      	pop	{r4, r5}
 80020ea:	4770      	bx	lr
 80020ec:	2402      	movs	r4, #2
 80020ee:	4623      	mov	r3, r4
 80020f0:	e7e8      	b.n	80020c4 <USBD_GetString+0x20>
 80020f2:	bf00      	nop

080020f4 <USB_OTG_CoreReset.isra.1>:
 80020f4:	b530      	push	{r4, r5, lr}
 80020f6:	4605      	mov	r5, r0
 80020f8:	b083      	sub	sp, #12
 80020fa:	2300      	movs	r3, #0
 80020fc:	2003      	movs	r0, #3
 80020fe:	9301      	str	r3, [sp, #4]
 8002100:	f7fe faac 	bl	800065c <USB_OTG_BSP_uDelay>
 8002104:	682b      	ldr	r3, [r5, #0]
 8002106:	691a      	ldr	r2, [r3, #16]
 8002108:	f44f 6454 	mov.w	r4, #3392	; 0xd40
 800210c:	9201      	str	r2, [sp, #4]
 800210e:	f2c0 0403 	movt	r4, #3
 8002112:	e011      	b.n	8002138 <USB_OTG_CoreReset.isra.1+0x44>
 8002114:	2003      	movs	r0, #3
 8002116:	f7fe faa1 	bl	800065c <USB_OTG_BSP_uDelay>
 800211a:	682b      	ldr	r3, [r5, #0]
 800211c:	6919      	ldr	r1, [r3, #16]
 800211e:	9101      	str	r1, [sp, #4]
 8002120:	9801      	ldr	r0, [sp, #4]
 8002122:	3c01      	subs	r4, #1
 8002124:	2800      	cmp	r0, #0
 8002126:	db0a      	blt.n	800213e <USB_OTG_CoreReset.isra.1+0x4a>
 8002128:	2003      	movs	r0, #3
 800212a:	f7fe fa97 	bl	800065c <USB_OTG_BSP_uDelay>
 800212e:	682b      	ldr	r3, [r5, #0]
 8002130:	691a      	ldr	r2, [r3, #16]
 8002132:	3c01      	subs	r4, #1
 8002134:	9201      	str	r2, [sp, #4]
 8002136:	d01f      	beq.n	8002178 <USB_OTG_CoreReset.isra.1+0x84>
 8002138:	9a01      	ldr	r2, [sp, #4]
 800213a:	2a00      	cmp	r2, #0
 800213c:	daea      	bge.n	8002114 <USB_OTG_CoreReset.isra.1+0x20>
 800213e:	9801      	ldr	r0, [sp, #4]
 8002140:	f040 0201 	orr.w	r2, r0, #1
 8002144:	9201      	str	r2, [sp, #4]
 8002146:	9901      	ldr	r1, [sp, #4]
 8002148:	6119      	str	r1, [r3, #16]
 800214a:	6918      	ldr	r0, [r3, #16]
 800214c:	f44f 6254 	mov.w	r2, #3392	; 0xd40
 8002150:	9001      	str	r0, [sp, #4]
 8002152:	f2c0 0203 	movt	r2, #3
 8002156:	e009      	b.n	800216c <USB_OTG_CoreReset.isra.1+0x78>
 8002158:	6918      	ldr	r0, [r3, #16]
 800215a:	9001      	str	r0, [sp, #4]
 800215c:	9901      	ldr	r1, [sp, #4]
 800215e:	3a01      	subs	r2, #1
 8002160:	07c8      	lsls	r0, r1, #31
 8002162:	d506      	bpl.n	8002172 <USB_OTG_CoreReset.isra.1+0x7e>
 8002164:	6918      	ldr	r0, [r3, #16]
 8002166:	3a01      	subs	r2, #1
 8002168:	9001      	str	r0, [sp, #4]
 800216a:	d002      	beq.n	8002172 <USB_OTG_CoreReset.isra.1+0x7e>
 800216c:	9901      	ldr	r1, [sp, #4]
 800216e:	07c9      	lsls	r1, r1, #31
 8002170:	d4f2      	bmi.n	8002158 <USB_OTG_CoreReset.isra.1+0x64>
 8002172:	2003      	movs	r0, #3
 8002174:	f7fe fa72 	bl	800065c <USB_OTG_BSP_uDelay>
 8002178:	2000      	movs	r0, #0
 800217a:	b003      	add	sp, #12
 800217c:	bd30      	pop	{r4, r5, pc}
 800217e:	bf00      	nop

08002180 <USB_OTG_WritePacket>:
 8002180:	b410      	push	{r4}
 8002182:	78c4      	ldrb	r4, [r0, #3]
 8002184:	b9f4      	cbnz	r4, 80021c4 <USB_OTG_WritePacket+0x44>
 8002186:	eb00 0082 	add.w	r0, r0, r2, lsl #2
 800218a:	3303      	adds	r3, #3
 800218c:	109b      	asrs	r3, r3, #2
 800218e:	f8d0 00d0 	ldr.w	r0, [r0, #208]	; 0xd0
 8002192:	d017      	beq.n	80021c4 <USB_OTG_WritePacket+0x44>
 8002194:	680c      	ldr	r4, [r1, #0]
 8002196:	1e5a      	subs	r2, r3, #1
 8002198:	6004      	str	r4, [r0, #0]
 800219a:	f002 0401 	and.w	r4, r2, #1
 800219e:	2201      	movs	r2, #1
 80021a0:	4293      	cmp	r3, r2
 80021a2:	d00f      	beq.n	80021c4 <USB_OTG_WritePacket+0x44>
 80021a4:	b124      	cbz	r4, 80021b0 <USB_OTG_WritePacket+0x30>
 80021a6:	684c      	ldr	r4, [r1, #4]
 80021a8:	2202      	movs	r2, #2
 80021aa:	4293      	cmp	r3, r2
 80021ac:	6004      	str	r4, [r0, #0]
 80021ae:	d009      	beq.n	80021c4 <USB_OTG_WritePacket+0x44>
 80021b0:	f851 4022 	ldr.w	r4, [r1, r2, lsl #2]
 80021b4:	3201      	adds	r2, #1
 80021b6:	6004      	str	r4, [r0, #0]
 80021b8:	f851 4022 	ldr.w	r4, [r1, r2, lsl #2]
 80021bc:	3201      	adds	r2, #1
 80021be:	4293      	cmp	r3, r2
 80021c0:	6004      	str	r4, [r0, #0]
 80021c2:	d1f5      	bne.n	80021b0 <USB_OTG_WritePacket+0x30>
 80021c4:	2000      	movs	r0, #0
 80021c6:	bc10      	pop	{r4}
 80021c8:	4770      	bx	lr
 80021ca:	bf00      	nop

080021cc <USB_OTG_ReadPacket>:
 80021cc:	3203      	adds	r2, #3
 80021ce:	1092      	asrs	r2, r2, #2
 80021d0:	b430      	push	{r4, r5}
 80021d2:	f8d0 40d0 	ldr.w	r4, [r0, #208]	; 0xd0
 80021d6:	d019      	beq.n	800220c <USB_OTG_ReadPacket+0x40>
 80021d8:	6820      	ldr	r0, [r4, #0]
 80021da:	1e53      	subs	r3, r2, #1
 80021dc:	6008      	str	r0, [r1, #0]
 80021de:	f003 0001 	and.w	r0, r3, #1
 80021e2:	2301      	movs	r3, #1
 80021e4:	429a      	cmp	r2, r3
 80021e6:	d00f      	beq.n	8002208 <USB_OTG_ReadPacket+0x3c>
 80021e8:	b120      	cbz	r0, 80021f4 <USB_OTG_ReadPacket+0x28>
 80021ea:	6820      	ldr	r0, [r4, #0]
 80021ec:	2302      	movs	r3, #2
 80021ee:	429a      	cmp	r2, r3
 80021f0:	6048      	str	r0, [r1, #4]
 80021f2:	d009      	beq.n	8002208 <USB_OTG_ReadPacket+0x3c>
 80021f4:	6825      	ldr	r5, [r4, #0]
 80021f6:	f841 5023 	str.w	r5, [r1, r3, lsl #2]
 80021fa:	1c58      	adds	r0, r3, #1
 80021fc:	6825      	ldr	r5, [r4, #0]
 80021fe:	3302      	adds	r3, #2
 8002200:	429a      	cmp	r2, r3
 8002202:	f841 5020 	str.w	r5, [r1, r0, lsl #2]
 8002206:	d1f5      	bne.n	80021f4 <USB_OTG_ReadPacket+0x28>
 8002208:	eb01 0182 	add.w	r1, r1, r2, lsl #2
 800220c:	4608      	mov	r0, r1
 800220e:	bc30      	pop	{r4, r5}
 8002210:	4770      	bx	lr
 8002212:	bf00      	nop

08002214 <USB_OTG_SelectCore>:
 8002214:	e92d 0ff0 	stmdb	sp!, {r4, r5, r6, r7, r8, r9, sl, fp}
 8002218:	2201      	movs	r2, #1
 800221a:	2300      	movs	r3, #0
 800221c:	7082      	strb	r2, [r0, #2]
 800221e:	2240      	movs	r2, #64	; 0x40
 8002220:	2901      	cmp	r1, #1
 8002222:	b082      	sub	sp, #8
 8002224:	70c3      	strb	r3, [r0, #3]
 8002226:	8082      	strh	r2, [r0, #4]
 8002228:	f000 80b4 	beq.w	8002394 <USB_OTG_SelectCore+0x180>
 800222c:	2900      	cmp	r1, #0
 800222e:	f000 808e 	beq.w	800234e <USB_OTG_SelectCore+0x13a>
 8002232:	7802      	ldrb	r2, [r0, #0]
 8002234:	7841      	ldrb	r1, [r0, #1]
 8002236:	9201      	str	r2, [sp, #4]
 8002238:	f44f 6200 	mov.w	r2, #2048	; 0x800
 800223c:	60c3      	str	r3, [r0, #12]
 800223e:	6102      	str	r2, [r0, #16]
 8002240:	f44f 6a60 	mov.w	sl, #3584	; 0xe00
 8002244:	f44f 6988 	mov.w	r9, #1088	; 0x440
 8002248:	f44f 6b80 	mov.w	fp, #1024	; 0x400
 800224c:	4688      	mov	r8, r1
 800224e:	b379      	cbz	r1, 80022b0 <USB_OTG_SelectCore+0x9c>
 8002250:	4698      	mov	r8, r3
 8002252:	4602      	mov	r2, r0
 8002254:	f508 6410 	add.w	r4, r8, #2304	; 0x900
 8002258:	ea4f 1c41 	mov.w	ip, r1, lsl #5
 800225c:	f842 4f18 	str.w	r4, [r2, #24]!
 8002260:	2420      	movs	r4, #32
 8002262:	f1ac 0320 	sub.w	r3, ip, #32
 8002266:	f508 6130 	add.w	r1, r8, #2816	; 0xb00
 800226a:	4564      	cmp	r4, ip
 800226c:	63d1      	str	r1, [r2, #60]	; 0x3c
 800226e:	f3c3 1140 	ubfx	r1, r3, #5, #1
 8002272:	f508 6312 	add.w	r3, r8, #2336	; 0x920
 8002276:	d01b      	beq.n	80022b0 <USB_OTG_SelectCore+0x9c>
 8002278:	b151      	cbz	r1, 8002290 <USB_OTG_SelectCore+0x7c>
 800227a:	4602      	mov	r2, r0
 800227c:	2440      	movs	r4, #64	; 0x40
 800227e:	f842 3f1c 	str.w	r3, [r2, #28]!
 8002282:	f508 6132 	add.w	r1, r8, #2848	; 0xb20
 8002286:	4564      	cmp	r4, ip
 8002288:	63d1      	str	r1, [r2, #60]	; 0x3c
 800228a:	f508 6314 	add.w	r3, r8, #2368	; 0x940
 800228e:	d00f      	beq.n	80022b0 <USB_OTG_SelectCore+0x9c>
 8002290:	1d11      	adds	r1, r2, #4
 8002292:	6053      	str	r3, [r2, #4]
 8002294:	3440      	adds	r4, #64	; 0x40
 8002296:	3208      	adds	r2, #8
 8002298:	f503 7700 	add.w	r7, r3, #512	; 0x200
 800229c:	f103 0520 	add.w	r5, r3, #32
 80022a0:	f503 7608 	add.w	r6, r3, #544	; 0x220
 80022a4:	3340      	adds	r3, #64	; 0x40
 80022a6:	4564      	cmp	r4, ip
 80022a8:	63cf      	str	r7, [r1, #60]	; 0x3c
 80022aa:	604d      	str	r5, [r1, #4]
 80022ac:	63d6      	str	r6, [r2, #60]	; 0x3c
 80022ae:	d1ef      	bne.n	8002290 <USB_OTG_SelectCore+0x7c>
 80022b0:	9a01      	ldr	r2, [sp, #4]
 80022b2:	f8c0 b014 	str.w	fp, [r0, #20]
 80022b6:	f8c0 90cc 	str.w	r9, [r0, #204]	; 0xcc
 80022ba:	2a00      	cmp	r2, #0
 80022bc:	d040      	beq.n	8002340 <USB_OTG_SelectCore+0x12c>
 80022be:	0155      	lsls	r5, r2, #5
 80022c0:	f508 64a0 	add.w	r4, r8, #1280	; 0x500
 80022c4:	f1a5 0c20 	sub.w	ip, r5, #32
 80022c8:	4602      	mov	r2, r0
 80022ca:	192d      	adds	r5, r5, r4
 80022cc:	f508 63a4 	add.w	r3, r8, #1312	; 0x520
 80022d0:	42ab      	cmp	r3, r5
 80022d2:	f842 4f90 	str.w	r4, [r2, #144]!
 80022d6:	f3cc 1440 	ubfx	r4, ip, #5, #1
 80022da:	d00f      	beq.n	80022fc <USB_OTG_SelectCore+0xe8>
 80022dc:	b134      	cbz	r4, 80022ec <USB_OTG_SelectCore+0xd8>
 80022de:	4602      	mov	r2, r0
 80022e0:	f842 3f94 	str.w	r3, [r2, #148]!
 80022e4:	f508 63a8 	add.w	r3, r8, #1344	; 0x540
 80022e8:	42ab      	cmp	r3, r5
 80022ea:	d007      	beq.n	80022fc <USB_OTG_SelectCore+0xe8>
 80022ec:	f103 0120 	add.w	r1, r3, #32
 80022f0:	6053      	str	r3, [r2, #4]
 80022f2:	3340      	adds	r3, #64	; 0x40
 80022f4:	6091      	str	r1, [r2, #8]
 80022f6:	3208      	adds	r2, #8
 80022f8:	42ab      	cmp	r3, r5
 80022fa:	d1f7      	bne.n	80022ec <USB_OTG_SelectCore+0xd8>
 80022fc:	9a01      	ldr	r2, [sp, #4]
 80022fe:	f508 5480 	add.w	r4, r8, #4096	; 0x1000
 8002302:	0313      	lsls	r3, r2, #12
 8002304:	191d      	adds	r5, r3, r4
 8002306:	f5a3 5c80 	sub.w	ip, r3, #4096	; 0x1000
 800230a:	4602      	mov	r2, r0
 800230c:	f508 5300 	add.w	r3, r8, #8192	; 0x2000
 8002310:	42ab      	cmp	r3, r5
 8002312:	f842 4fd0 	str.w	r4, [r2, #208]!
 8002316:	f3cc 3400 	ubfx	r4, ip, #12, #1
 800231a:	d011      	beq.n	8002340 <USB_OTG_SelectCore+0x12c>
 800231c:	b134      	cbz	r4, 800232c <USB_OTG_SelectCore+0x118>
 800231e:	4602      	mov	r2, r0
 8002320:	f842 3fd4 	str.w	r3, [r2, #212]!
 8002324:	f503 5380 	add.w	r3, r3, #4096	; 0x1000
 8002328:	42ab      	cmp	r3, r5
 800232a:	d009      	beq.n	8002340 <USB_OTG_SelectCore+0x12c>
 800232c:	1d11      	adds	r1, r2, #4
 800232e:	6053      	str	r3, [r2, #4]
 8002330:	f503 5480 	add.w	r4, r3, #4096	; 0x1000
 8002334:	f503 5300 	add.w	r3, r3, #8192	; 0x2000
 8002338:	1d0a      	adds	r2, r1, #4
 800233a:	42ab      	cmp	r3, r5
 800233c:	604c      	str	r4, [r1, #4]
 800233e:	d1f5      	bne.n	800232c <USB_OTG_SelectCore+0x118>
 8002340:	f8c0 a10c 	str.w	sl, [r0, #268]	; 0x10c
 8002344:	2000      	movs	r0, #0
 8002346:	b002      	add	sp, #8
 8002348:	e8bd 0ff0 	ldmia.w	sp!, {r4, r5, r6, r7, r8, r9, sl, fp}
 800234c:	4770      	bx	lr
 800234e:	2300      	movs	r3, #0
 8002350:	240c      	movs	r4, #12
 8002352:	f04f 0c06 	mov.w	ip, #6
 8002356:	f44f 6a60 	mov.w	sl, #3584	; 0xe00
 800235a:	f44f 6988 	mov.w	r9, #1088	; 0x440
 800235e:	f44f 6b80 	mov.w	fp, #1024	; 0x400
 8002362:	f44f 6200 	mov.w	r2, #2048	; 0x800
 8002366:	f2c4 0304 	movt	r3, #16388	; 0x4004
 800236a:	72c1      	strb	r1, [r0, #11]
 800236c:	f44f 61a0 	mov.w	r1, #1280	; 0x500
 8002370:	80c1      	strh	r1, [r0, #6]
 8002372:	7004      	strb	r4, [r0, #0]
 8002374:	f880 c001 	strb.w	ip, [r0, #1]
 8002378:	f2c4 0a04 	movt	sl, #16388	; 0x4004
 800237c:	9401      	str	r4, [sp, #4]
 800237e:	f2c4 0904 	movt	r9, #16388	; 0x4004
 8002382:	f2c4 0b04 	movt	fp, #16388	; 0x4004
 8002386:	4661      	mov	r1, ip
 8002388:	f2c4 0204 	movt	r2, #16388	; 0x4004
 800238c:	4698      	mov	r8, r3
 800238e:	60c3      	str	r3, [r0, #12]
 8002390:	6102      	str	r2, [r0, #16]
 8002392:	e75e      	b.n	8002252 <USB_OTG_SelectCore+0x3e>
 8002394:	2408      	movs	r4, #8
 8002396:	f04f 0c04 	mov.w	ip, #4
 800239a:	f44f 78a0 	mov.w	r8, #320	; 0x140
 800239e:	f44f 6a60 	mov.w	sl, #3584	; 0xe00
 80023a2:	f44f 6988 	mov.w	r9, #1088	; 0x440
 80023a6:	f44f 6b80 	mov.w	fp, #1024	; 0x400
 80023aa:	f44f 6200 	mov.w	r2, #2048	; 0x800
 80023ae:	f04f 43a0 	mov.w	r3, #1342177280	; 0x50000000
 80023b2:	72c1      	strb	r1, [r0, #11]
 80023b4:	2102      	movs	r1, #2
 80023b6:	f8a0 8006 	strh.w	r8, [r0, #6]
 80023ba:	7201      	strb	r1, [r0, #8]
 80023bc:	7004      	strb	r4, [r0, #0]
 80023be:	f880 c001 	strb.w	ip, [r0, #1]
 80023c2:	f2c5 0a00 	movt	sl, #20480	; 0x5000
 80023c6:	9401      	str	r4, [sp, #4]
 80023c8:	f2c5 0900 	movt	r9, #20480	; 0x5000
 80023cc:	f2c5 0b00 	movt	fp, #20480	; 0x5000
 80023d0:	4661      	mov	r1, ip
 80023d2:	f2c5 0200 	movt	r2, #20480	; 0x5000
 80023d6:	4698      	mov	r8, r3
 80023d8:	e7d9      	b.n	800238e <USB_OTG_SelectCore+0x17a>
 80023da:	bf00      	nop

080023dc <USB_OTG_CoreInit>:
 80023dc:	b538      	push	{r3, r4, r5, lr}
 80023de:	7a03      	ldrb	r3, [r0, #8]
 80023e0:	2500      	movs	r5, #0
 80023e2:	2b01      	cmp	r3, #1
 80023e4:	4604      	mov	r4, r0
 80023e6:	d033      	beq.n	8002450 <USB_OTG_CoreInit+0x74>
 80023e8:	f850 3f0c 	ldr.w	r3, [r0, #12]!
 80023ec:	68da      	ldr	r2, [r3, #12]
 80023ee:	f042 0140 	orr.w	r1, r2, #64	; 0x40
 80023f2:	60d9      	str	r1, [r3, #12]
 80023f4:	f7ff fe7e 	bl	80020f4 <USB_OTG_CoreReset.isra.1>
 80023f8:	7a22      	ldrb	r2, [r4, #8]
 80023fa:	7a61      	ldrb	r1, [r4, #9]
 80023fc:	2a03      	cmp	r2, #3
 80023fe:	bf14      	ite	ne
 8002400:	f44f 3280 	movne.w	r2, #65536	; 0x10000
 8002404:	f44f 3240 	moveq.w	r2, #196608	; 0x30000
 8002408:	f442 1330 	orr.w	r3, r2, #2883584	; 0x2c0000
 800240c:	b109      	cbz	r1, 8002412 <USB_OTG_CoreInit+0x36>
 800240e:	f442 1370 	orr.w	r3, r2, #3932160	; 0x3c0000
 8002412:	68e1      	ldr	r1, [r4, #12]
 8002414:	2014      	movs	r0, #20
 8002416:	638b      	str	r3, [r1, #56]	; 0x38
 8002418:	f7fe f93c 	bl	8000694 <USB_OTG_BSP_mDelay>
 800241c:	68e3      	ldr	r3, [r4, #12]
 800241e:	f894 c008 	ldrb.w	ip, [r4, #8]
 8002422:	68d8      	ldr	r0, [r3, #12]
 8002424:	f1bc 0f03 	cmp.w	ip, #3
 8002428:	bf08      	it	eq
 800242a:	f440 3080 	orreq.w	r0, r0, #65536	; 0x10000
 800242e:	60d8      	str	r0, [r3, #12]
 8002430:	7a22      	ldrb	r2, [r4, #8]
 8002432:	2a03      	cmp	r2, #3
 8002434:	d034      	beq.n	80024a0 <USB_OTG_CoreInit+0xc4>
 8002436:	78e3      	ldrb	r3, [r4, #3]
 8002438:	2b01      	cmp	r3, #1
 800243a:	bf01      	itttt	eq
 800243c:	68e3      	ldreq	r3, [r4, #12]
 800243e:	689a      	ldreq	r2, [r3, #8]
 8002440:	f022 023e 	biceq.w	r2, r2, #62	; 0x3e
 8002444:	f042 022a 	orreq.w	r2, r2, #42	; 0x2a
 8002448:	bf08      	it	eq
 800244a:	609a      	streq	r2, [r3, #8]
 800244c:	2000      	movs	r0, #0
 800244e:	bd38      	pop	{r3, r4, r5, pc}
 8002450:	68c2      	ldr	r2, [r0, #12]
 8002452:	7a41      	ldrb	r1, [r0, #9]
 8002454:	6b93      	ldr	r3, [r2, #56]	; 0x38
 8002456:	f365 4310 	bfi	r3, r5, #16, #1
 800245a:	b109      	cbz	r1, 8002460 <USB_OTG_CoreInit+0x84>
 800245c:	f443 1380 	orr.w	r3, r3, #1048576	; 0x100000
 8002460:	6393      	str	r3, [r2, #56]	; 0x38
 8002462:	68d3      	ldr	r3, [r2, #12]
 8002464:	f423 0080 	bic.w	r0, r3, #4194304	; 0x400000
 8002468:	f020 0150 	bic.w	r1, r0, #80	; 0x50
 800246c:	f041 0310 	orr.w	r3, r1, #16
 8002470:	f36f 03c3 	bfc	r3, #3, #1
 8002474:	f36f 13c7 	bfc	r3, #7, #1
 8002478:	f36f 4351 	bfc	r3, #17, #1
 800247c:	f36f 43d3 	bfc	r3, #19, #1
 8002480:	60d3      	str	r3, [r2, #12]
 8002482:	f104 000c 	add.w	r0, r4, #12
 8002486:	f7ff fe35 	bl	80020f4 <USB_OTG_CoreReset.isra.1>
 800248a:	78e0      	ldrb	r0, [r4, #3]
 800248c:	2801      	cmp	r0, #1
 800248e:	d1dd      	bne.n	800244c <USB_OTG_CoreInit+0x70>
 8002490:	2005      	movs	r0, #5
 8002492:	f360 0544 	bfi	r5, r0, #1, #4
 8002496:	68e1      	ldr	r1, [r4, #12]
 8002498:	f045 0520 	orr.w	r5, r5, #32
 800249c:	608d      	str	r5, [r1, #8]
 800249e:	e7ca      	b.n	8002436 <USB_OTG_CoreInit+0x5a>
 80024a0:	6b18      	ldr	r0, [r3, #48]	; 0x30
 80024a2:	2101      	movs	r1, #1
 80024a4:	f361 609b 	bfi	r0, r1, #26, #2
 80024a8:	f36f 50d7 	bfc	r0, #23, #1
 80024ac:	222d      	movs	r2, #45	; 0x2d
 80024ae:	f040 5580 	orr.w	r5, r0, #268435456	; 0x10000000
 80024b2:	f362 4516 	bfi	r5, r2, #16, #7
 80024b6:	20c8      	movs	r0, #200	; 0xc8
 80024b8:	631d      	str	r5, [r3, #48]	; 0x30
 80024ba:	f7fe f8eb 	bl	8000694 <USB_OTG_BSP_mDelay>
 80024be:	68e3      	ldr	r3, [r4, #12]
 80024c0:	f445 0500 	orr.w	r5, r5, #8388608	; 0x800000
 80024c4:	631d      	str	r5, [r3, #48]	; 0x30
 80024c6:	20c8      	movs	r0, #200	; 0xc8
 80024c8:	f7fe f8e4 	bl	8000694 <USB_OTG_BSP_mDelay>
 80024cc:	e7b3      	b.n	8002436 <USB_OTG_CoreInit+0x5a>
 80024ce:	bf00      	nop

080024d0 <USB_OTG_EnableGlobalInt>:
 80024d0:	68c3      	ldr	r3, [r0, #12]
 80024d2:	6898      	ldr	r0, [r3, #8]
 80024d4:	f040 0201 	orr.w	r2, r0, #1
 80024d8:	609a      	str	r2, [r3, #8]
 80024da:	2000      	movs	r0, #0
 80024dc:	4770      	bx	lr
 80024de:	bf00      	nop

080024e0 <USB_OTG_DisableGlobalInt>:
 80024e0:	68c3      	ldr	r3, [r0, #12]
 80024e2:	6898      	ldr	r0, [r3, #8]
 80024e4:	f020 0201 	bic.w	r2, r0, #1
 80024e8:	609a      	str	r2, [r3, #8]
 80024ea:	2000      	movs	r0, #0
 80024ec:	4770      	bx	lr
 80024ee:	bf00      	nop

080024f0 <USB_OTG_FlushTxFifo>:
 80024f0:	b500      	push	{lr}
 80024f2:	b083      	sub	sp, #12
 80024f4:	2300      	movs	r3, #0
 80024f6:	9301      	str	r3, [sp, #4]
 80024f8:	9a01      	ldr	r2, [sp, #4]
 80024fa:	f042 0320 	orr.w	r3, r2, #32
 80024fe:	9301      	str	r3, [sp, #4]
 8002500:	9a01      	ldr	r2, [sp, #4]
 8002502:	f361 128a 	bfi	r2, r1, #6, #5
 8002506:	9201      	str	r2, [sp, #4]
 8002508:	9b01      	ldr	r3, [sp, #4]
 800250a:	68c2      	ldr	r2, [r0, #12]
 800250c:	6113      	str	r3, [r2, #16]
 800250e:	6911      	ldr	r1, [r2, #16]
 8002510:	f44f 6354 	mov.w	r3, #3392	; 0xd40
 8002514:	9101      	str	r1, [sp, #4]
 8002516:	f2c0 0303 	movt	r3, #3
 800251a:	e009      	b.n	8002530 <USB_OTG_FlushTxFifo+0x40>
 800251c:	6911      	ldr	r1, [r2, #16]
 800251e:	9101      	str	r1, [sp, #4]
 8002520:	9801      	ldr	r0, [sp, #4]
 8002522:	3b01      	subs	r3, #1
 8002524:	0680      	lsls	r0, r0, #26
 8002526:	d506      	bpl.n	8002536 <USB_OTG_FlushTxFifo+0x46>
 8002528:	6911      	ldr	r1, [r2, #16]
 800252a:	3b01      	subs	r3, #1
 800252c:	9101      	str	r1, [sp, #4]
 800252e:	d002      	beq.n	8002536 <USB_OTG_FlushTxFifo+0x46>
 8002530:	9801      	ldr	r0, [sp, #4]
 8002532:	0681      	lsls	r1, r0, #26
 8002534:	d4f2      	bmi.n	800251c <USB_OTG_FlushTxFifo+0x2c>
 8002536:	2003      	movs	r0, #3
 8002538:	f7fe f890 	bl	800065c <USB_OTG_BSP_uDelay>
 800253c:	2000      	movs	r0, #0
 800253e:	b003      	add	sp, #12
 8002540:	bd00      	pop	{pc}
 8002542:	bf00      	nop

08002544 <USB_OTG_FlushRxFifo>:
 8002544:	b500      	push	{lr}
 8002546:	b083      	sub	sp, #12
 8002548:	2300      	movs	r3, #0
 800254a:	9301      	str	r3, [sp, #4]
 800254c:	9901      	ldr	r1, [sp, #4]
 800254e:	f041 0210 	orr.w	r2, r1, #16
 8002552:	9201      	str	r2, [sp, #4]
 8002554:	9b01      	ldr	r3, [sp, #4]
 8002556:	68c2      	ldr	r2, [r0, #12]
 8002558:	6113      	str	r3, [r2, #16]
 800255a:	6911      	ldr	r1, [r2, #16]
 800255c:	f44f 6354 	mov.w	r3, #3392	; 0xd40
 8002560:	9101      	str	r1, [sp, #4]
 8002562:	f2c0 0303 	movt	r3, #3
 8002566:	e009      	b.n	800257c <USB_OTG_FlushRxFifo+0x38>
 8002568:	6911      	ldr	r1, [r2, #16]
 800256a:	9101      	str	r1, [sp, #4]
 800256c:	9801      	ldr	r0, [sp, #4]
 800256e:	3b01      	subs	r3, #1
 8002570:	06c0      	lsls	r0, r0, #27
 8002572:	d506      	bpl.n	8002582 <USB_OTG_FlushRxFifo+0x3e>
 8002574:	6911      	ldr	r1, [r2, #16]
 8002576:	3b01      	subs	r3, #1
 8002578:	9101      	str	r1, [sp, #4]
 800257a:	d002      	beq.n	8002582 <USB_OTG_FlushRxFifo+0x3e>
 800257c:	9801      	ldr	r0, [sp, #4]
 800257e:	06c1      	lsls	r1, r0, #27
 8002580:	d4f2      	bmi.n	8002568 <USB_OTG_FlushRxFifo+0x24>
 8002582:	2003      	movs	r0, #3
 8002584:	f7fe f86a 	bl	800065c <USB_OTG_BSP_uDelay>
 8002588:	2000      	movs	r0, #0
 800258a:	b003      	add	sp, #12
 800258c:	bd00      	pop	{pc}
 800258e:	bf00      	nop

08002590 <USB_OTG_SetCurrentMode>:
 8002590:	68c2      	ldr	r2, [r0, #12]
 8002592:	b508      	push	{r3, lr}
 8002594:	68d3      	ldr	r3, [r2, #12]
 8002596:	f36f 735d 	bfc	r3, #29, #1
 800259a:	f36f 739e 	bfc	r3, #30, #1
 800259e:	2901      	cmp	r1, #1
 80025a0:	bf08      	it	eq
 80025a2:	f043 5300 	orreq.w	r3, r3, #536870912	; 0x20000000
 80025a6:	d002      	beq.n	80025ae <USB_OTG_SetCurrentMode+0x1e>
 80025a8:	b909      	cbnz	r1, 80025ae <USB_OTG_SetCurrentMode+0x1e>
 80025aa:	f043 4380 	orr.w	r3, r3, #1073741824	; 0x40000000
 80025ae:	2032      	movs	r0, #50	; 0x32
 80025b0:	60d3      	str	r3, [r2, #12]
 80025b2:	f7fe f86f 	bl	8000694 <USB_OTG_BSP_mDelay>
 80025b6:	2000      	movs	r0, #0
 80025b8:	bd08      	pop	{r3, pc}
 80025ba:	bf00      	nop

080025bc <USB_OTG_GetMode>:
 80025bc:	68c3      	ldr	r3, [r0, #12]
 80025be:	6958      	ldr	r0, [r3, #20]
 80025c0:	f000 0001 	and.w	r0, r0, #1
 80025c4:	4770      	bx	lr
 80025c6:	bf00      	nop

080025c8 <USB_OTG_IsDeviceMode>:
 80025c8:	68c0      	ldr	r0, [r0, #12]
 80025ca:	6943      	ldr	r3, [r0, #20]
 80025cc:	f013 0f01 	tst.w	r3, #1
 80025d0:	bf14      	ite	ne
 80025d2:	2000      	movne	r0, #0
 80025d4:	2001      	moveq	r0, #1
 80025d6:	4770      	bx	lr

080025d8 <USB_OTG_IsHostMode>:
 80025d8:	68c3      	ldr	r3, [r0, #12]
 80025da:	6958      	ldr	r0, [r3, #20]
 80025dc:	f000 0001 	and.w	r0, r0, #1
 80025e0:	4770      	bx	lr
 80025e2:	bf00      	nop

080025e4 <USB_OTG_ReadCoreItr>:
 80025e4:	68c3      	ldr	r3, [r0, #12]
 80025e6:	695a      	ldr	r2, [r3, #20]
 80025e8:	6998      	ldr	r0, [r3, #24]
 80025ea:	4010      	ands	r0, r2
 80025ec:	4770      	bx	lr
 80025ee:	bf00      	nop

080025f0 <USB_OTG_ReadOtgItr>:
 80025f0:	68c3      	ldr	r3, [r0, #12]
 80025f2:	6858      	ldr	r0, [r3, #4]
 80025f4:	4770      	bx	lr
 80025f6:	bf00      	nop

080025f8 <USB_OTG_InitDevSpeed>:
 80025f8:	6903      	ldr	r3, [r0, #16]
 80025fa:	681a      	ldr	r2, [r3, #0]
 80025fc:	f361 0201 	bfi	r2, r1, #0, #2
 8002600:	601a      	str	r2, [r3, #0]
 8002602:	4770      	bx	lr

08002604 <USB_OTG_EnableDevInt>:
 8002604:	b410      	push	{r4}
 8002606:	68c3      	ldr	r3, [r0, #12]
 8002608:	f44f 6400 	mov.w	r4, #2048	; 0x800
 800260c:	2200      	movs	r2, #0
 800260e:	f04f 31ff 	mov.w	r1, #4294967295
 8002612:	f2c8 0400 	movt	r4, #32768	; 0x8000
 8002616:	619a      	str	r2, [r3, #24]
 8002618:	6159      	str	r1, [r3, #20]
 800261a:	6059      	str	r1, [r3, #4]
 800261c:	6159      	str	r1, [r3, #20]
 800261e:	619c      	str	r4, [r3, #24]
 8002620:	f890 c003 	ldrb.w	ip, [r0, #3]
 8002624:	6998      	ldr	r0, [r3, #24]
 8002626:	4594      	cmp	ip, r2
 8002628:	bf14      	ite	ne
 800262a:	4611      	movne	r1, r2
 800262c:	2110      	moveq	r1, #16
 800262e:	f441 2c87 	orr.w	ip, r1, #276480	; 0x43800
 8002632:	f04c 1108 	orr.w	r1, ip, #524296	; 0x80008
 8002636:	f441 1c40 	orr.w	ip, r1, #3145728	; 0x300000
 800263a:	ea20 000c 	bic.w	r0, r0, ip
 800263e:	ea40 010c 	orr.w	r1, r0, ip
 8002642:	6199      	str	r1, [r3, #24]
 8002644:	4610      	mov	r0, r2
 8002646:	bc10      	pop	{r4}
 8002648:	4770      	bx	lr
 800264a:	bf00      	nop

0800264c <USB_OTG_CoreInitDev>:
 800264c:	b5f8      	push	{r3, r4, r5, r6, r7, lr}
 800264e:	f8d0 510c 	ldr.w	r5, [r0, #268]	; 0x10c
 8002652:	6902      	ldr	r2, [r0, #16]
 8002654:	2100      	movs	r1, #0
 8002656:	6029      	str	r1, [r5, #0]
 8002658:	4604      	mov	r4, r0
 800265a:	6810      	ldr	r0, [r2, #0]
 800265c:	f361 20cc 	bfi	r0, r1, #11, #2
 8002660:	6010      	str	r0, [r2, #0]
 8002662:	460b      	mov	r3, r1
 8002664:	7ae1      	ldrb	r1, [r4, #11]
 8002666:	2901      	cmp	r1, #1
 8002668:	d057      	beq.n	800271a <USB_OTG_CoreInitDev+0xce>
 800266a:	2110      	movs	r1, #16
 800266c:	4620      	mov	r0, r4
 800266e:	f7ff ff3f 	bl	80024f0 <USB_OTG_FlushTxFifo>
 8002672:	4620      	mov	r0, r4
 8002674:	f7ff ff66 	bl	8002544 <USB_OTG_FlushRxFifo>
 8002678:	6925      	ldr	r5, [r4, #16]
 800267a:	2200      	movs	r2, #0
 800267c:	f04f 30ff 	mov.w	r0, #4294967295
 8002680:	612a      	str	r2, [r5, #16]
 8002682:	616a      	str	r2, [r5, #20]
 8002684:	61a8      	str	r0, [r5, #24]
 8002686:	61ea      	str	r2, [r5, #28]
 8002688:	7863      	ldrb	r3, [r4, #1]
 800268a:	2b00      	cmp	r3, #0
 800268c:	d031      	beq.n	80026f2 <USB_OTG_CoreInitDev+0xa6>
 800268e:	f104 0014 	add.w	r0, r4, #20
 8002692:	4617      	mov	r7, r2
 8002694:	26ff      	movs	r6, #255	; 0xff
 8002696:	f850 3f04 	ldr.w	r3, [r0, #4]!
 800269a:	6819      	ldr	r1, [r3, #0]
 800269c:	f3c1 6e07 	ubfx	lr, r1, #24, #8
 80026a0:	f00e 0c80 	and.w	ip, lr, #128	; 0x80
 80026a4:	fa5f f18c 	uxtb.w	r1, ip
 80026a8:	2900      	cmp	r1, #0
 80026aa:	bf18      	it	ne
 80026ac:	f04f 4190 	movne.w	r1, #1207959552	; 0x48000000
 80026b0:	6019      	str	r1, [r3, #0]
 80026b2:	611f      	str	r7, [r3, #16]
 80026b4:	609e      	str	r6, [r3, #8]
 80026b6:	7863      	ldrb	r3, [r4, #1]
 80026b8:	3201      	adds	r2, #1
 80026ba:	4293      	cmp	r3, r2
 80026bc:	d8eb      	bhi.n	8002696 <USB_OTG_CoreInitDev+0x4a>
 80026be:	b1c3      	cbz	r3, 80026f2 <USB_OTG_CoreInitDev+0xa6>
 80026c0:	2200      	movs	r2, #0
 80026c2:	f104 0050 	add.w	r0, r4, #80	; 0x50
 80026c6:	4617      	mov	r7, r2
 80026c8:	26ff      	movs	r6, #255	; 0xff
 80026ca:	f850 3f04 	ldr.w	r3, [r0, #4]!
 80026ce:	6819      	ldr	r1, [r3, #0]
 80026d0:	f3c1 6e07 	ubfx	lr, r1, #24, #8
 80026d4:	f00e 0c80 	and.w	ip, lr, #128	; 0x80
 80026d8:	fa5f f18c 	uxtb.w	r1, ip
 80026dc:	2900      	cmp	r1, #0
 80026de:	bf18      	it	ne
 80026e0:	f04f 4190 	movne.w	r1, #1207959552	; 0x48000000
 80026e4:	6019      	str	r1, [r3, #0]
 80026e6:	611f      	str	r7, [r3, #16]
 80026e8:	609e      	str	r6, [r3, #8]
 80026ea:	7863      	ldrb	r3, [r4, #1]
 80026ec:	3201      	adds	r2, #1
 80026ee:	4293      	cmp	r3, r2
 80026f0:	d8eb      	bhi.n	80026ca <USB_OTG_CoreInitDev+0x7e>
 80026f2:	692b      	ldr	r3, [r5, #16]
 80026f4:	f443 7080 	orr.w	r0, r3, #256	; 0x100
 80026f8:	6128      	str	r0, [r5, #16]
 80026fa:	78e2      	ldrb	r2, [r4, #3]
 80026fc:	2a01      	cmp	r2, #1
 80026fe:	d107      	bne.n	8002710 <USB_OTG_CoreInitDev+0xc4>
 8002700:	f240 1103 	movw	r1, #259	; 0x103
 8002704:	f2c0 0101 	movt	r1, #1
 8002708:	2240      	movs	r2, #64	; 0x40
 800270a:	f362 4159 	bfi	r1, r2, #17, #9
 800270e:	6329      	str	r1, [r5, #48]	; 0x30
 8002710:	4620      	mov	r0, r4
 8002712:	f7ff ff77 	bl	8002604 <USB_OTG_EnableDevInt>
 8002716:	2000      	movs	r0, #0
 8002718:	bdf8      	pop	{r3, r4, r5, r6, r7, pc}
 800271a:	6816      	ldr	r6, [r2, #0]
 800271c:	68e0      	ldr	r0, [r4, #12]
 800271e:	27a0      	movs	r7, #160	; 0xa0
 8002720:	2580      	movs	r5, #128	; 0x80
 8002722:	f44f 1100 	mov.w	r1, #2097152	; 0x200000
 8002726:	f367 030f 	bfi	r3, r7, #0, #16
 800272a:	f046 0603 	orr.w	r6, r6, #3
 800272e:	6016      	str	r6, [r2, #0]
 8002730:	f365 431f 	bfi	r3, r5, #16, #16
 8002734:	6245      	str	r5, [r0, #36]	; 0x24
 8002736:	f365 010f 	bfi	r1, r5, #0, #16
 800273a:	f44f 7590 	mov.w	r5, #288	; 0x120
 800273e:	6281      	str	r1, [r0, #40]	; 0x28
 8002740:	f8c0 3104 	str.w	r3, [r0, #260]	; 0x104
 8002744:	f365 030f 	bfi	r3, r5, #0, #16
 8002748:	f2c0 0320 	movt	r3, #32
 800274c:	f44f 72a0 	mov.w	r2, #320	; 0x140
 8002750:	f8c0 3108 	str.w	r3, [r0, #264]	; 0x108
 8002754:	f362 030f 	bfi	r3, r2, #0, #16
 8002758:	f36f 431f 	bfc	r3, #16, #16
 800275c:	f8c0 310c 	str.w	r3, [r0, #268]	; 0x10c
 8002760:	e783      	b.n	800266a <USB_OTG_CoreInitDev+0x1e>
 8002762:	bf00      	nop

08002764 <USB_OTG_GetDeviceSpeed>:
 8002764:	6901      	ldr	r1, [r0, #16]
 8002766:	688b      	ldr	r3, [r1, #8]
 8002768:	f3c3 0141 	ubfx	r1, r3, #1, #2
 800276c:	1e4b      	subs	r3, r1, #1
 800276e:	2b02      	cmp	r3, #2
 8002770:	bf9d      	ittte	ls
 8002772:	f243 62dc 	movwls	r2, #14044	; 0x36dc
 8002776:	f6c0 0200 	movtls	r2, #2048	; 0x800
 800277a:	5cd0      	ldrbls	r0, [r2, r3]
 800277c:	2003      	movhi	r0, #3
 800277e:	4770      	bx	lr

08002780 <USB_OTG_EP0Activate>:
 8002780:	6903      	ldr	r3, [r0, #16]
 8002782:	6982      	ldr	r2, [r0, #24]
 8002784:	6898      	ldr	r0, [r3, #8]
 8002786:	6811      	ldr	r1, [r2, #0]
 8002788:	f3c0 0041 	ubfx	r0, r0, #1, #2
 800278c:	2802      	cmp	r0, #2
 800278e:	bf18      	it	ne
 8002790:	f36f 010a 	bfcne	r1, #0, #11
 8002794:	d102      	bne.n	800279c <USB_OTG_EP0Activate+0x1c>
 8002796:	2003      	movs	r0, #3
 8002798:	f360 010a 	bfi	r1, r0, #0, #11
 800279c:	6011      	str	r1, [r2, #0]
 800279e:	6859      	ldr	r1, [r3, #4]
 80027a0:	f441 7280 	orr.w	r2, r1, #256	; 0x100
 80027a4:	605a      	str	r2, [r3, #4]
 80027a6:	2000      	movs	r0, #0
 80027a8:	4770      	bx	lr
 80027aa:	bf00      	nop

080027ac <USB_OTG_EPActivate>:
 80027ac:	b470      	push	{r4, r5, r6}
 80027ae:	784b      	ldrb	r3, [r1, #1]
 80027b0:	2200      	movs	r2, #0
 80027b2:	2b01      	cmp	r3, #1
 80027b4:	d027      	beq.n	8002806 <USB_OTG_EPActivate+0x5a>
 80027b6:	780c      	ldrb	r4, [r1, #0]
 80027b8:	eb00 0c84 	add.w	ip, r0, r4, lsl #2
 80027bc:	2501      	movs	r5, #1
 80027be:	fa15 f304 	lsls.w	r3, r5, r4
 80027c2:	f8dc 4054 	ldr.w	r4, [ip, #84]	; 0x54
 80027c6:	f363 421f 	bfi	r2, r3, #16, #16
 80027ca:	6823      	ldr	r3, [r4, #0]
 80027cc:	f3c3 2507 	ubfx	r5, r3, #8, #8
 80027d0:	f005 0c80 	and.w	ip, r5, #128	; 0x80
 80027d4:	fa5f f58c 	uxtb.w	r5, ip
 80027d8:	b975      	cbnz	r5, 80027f8 <USB_OTG_EPActivate+0x4c>
 80027da:	688e      	ldr	r6, [r1, #8]
 80027dc:	78cd      	ldrb	r5, [r1, #3]
 80027de:	f8b1 c006 	ldrh.w	ip, [r1, #6]
 80027e2:	f366 030a 	bfi	r3, r6, #0, #11
 80027e6:	f365 4393 	bfi	r3, r5, #18, #2
 80027ea:	f36c 5399 	bfi	r3, ip, #22, #4
 80027ee:	f043 5380 	orr.w	r3, r3, #268435456	; 0x10000000
 80027f2:	f443 4100 	orr.w	r1, r3, #32768	; 0x8000
 80027f6:	6021      	str	r1, [r4, #0]
 80027f8:	6900      	ldr	r0, [r0, #16]
 80027fa:	69c1      	ldr	r1, [r0, #28]
 80027fc:	430a      	orrs	r2, r1
 80027fe:	61c2      	str	r2, [r0, #28]
 8002800:	2000      	movs	r0, #0
 8002802:	bc70      	pop	{r4, r5, r6}
 8002804:	4770      	bx	lr
 8002806:	780c      	ldrb	r4, [r1, #0]
 8002808:	eb00 0584 	add.w	r5, r0, r4, lsl #2
 800280c:	40a3      	lsls	r3, r4
 800280e:	f363 020f 	bfi	r2, r3, #0, #16
 8002812:	69ac      	ldr	r4, [r5, #24]
 8002814:	e7d9      	b.n	80027ca <USB_OTG_EPActivate+0x1e>
 8002816:	bf00      	nop

08002818 <USB_OTG_EPDeactivate>:
 8002818:	b430      	push	{r4, r5}
 800281a:	784a      	ldrb	r2, [r1, #1]
 800281c:	2300      	movs	r3, #0
 800281e:	2a01      	cmp	r2, #1
 8002820:	461c      	mov	r4, r3
 8002822:	d014      	beq.n	800284e <USB_OTG_EPDeactivate+0x36>
 8002824:	7809      	ldrb	r1, [r1, #0]
 8002826:	eb00 0c81 	add.w	ip, r0, r1, lsl #2
 800282a:	2501      	movs	r5, #1
 800282c:	fa15 f201 	lsls.w	r2, r5, r1
 8002830:	f8dc 1054 	ldr.w	r1, [ip, #84]	; 0x54
 8002834:	f362 441f 	bfi	r4, r2, #16, #16
 8002838:	6900      	ldr	r0, [r0, #16]
 800283a:	f36f 33cf 	bfc	r3, #15, #1
 800283e:	600b      	str	r3, [r1, #0]
 8002840:	69c3      	ldr	r3, [r0, #28]
 8002842:	ea23 0404 	bic.w	r4, r3, r4
 8002846:	61c4      	str	r4, [r0, #28]
 8002848:	2000      	movs	r0, #0
 800284a:	bc30      	pop	{r4, r5}
 800284c:	4770      	bx	lr
 800284e:	7809      	ldrb	r1, [r1, #0]
 8002850:	eb00 0581 	add.w	r5, r0, r1, lsl #2
 8002854:	408a      	lsls	r2, r1
 8002856:	f362 040f 	bfi	r4, r2, #0, #16
 800285a:	69a9      	ldr	r1, [r5, #24]
 800285c:	e7ec      	b.n	8002838 <USB_OTG_EPDeactivate+0x20>
 800285e:	bf00      	nop

08002860 <USB_OTG_EPStartXfer>:
 8002860:	b4f0      	push	{r4, r5, r6, r7}
 8002862:	784b      	ldrb	r3, [r1, #1]
 8002864:	2b01      	cmp	r3, #1
 8002866:	d035      	beq.n	80028d4 <USB_OTG_EPStartXfer+0x74>
 8002868:	780c      	ldrb	r4, [r1, #0]
 800286a:	694e      	ldr	r6, [r1, #20]
 800286c:	eb00 0584 	add.w	r5, r0, r4, lsl #2
 8002870:	6d6b      	ldr	r3, [r5, #84]	; 0x54
 8002872:	681c      	ldr	r4, [r3, #0]
 8002874:	691a      	ldr	r2, [r3, #16]
 8002876:	2e00      	cmp	r6, #0
 8002878:	d025      	beq.n	80028c6 <USB_OTG_EPStartXfer+0x66>
 800287a:	688f      	ldr	r7, [r1, #8]
 800287c:	19f5      	adds	r5, r6, r7
 800287e:	3d01      	subs	r5, #1
 8002880:	fbb5 f5f7 	udiv	r5, r5, r7
 8002884:	05ad      	lsls	r5, r5, #22
 8002886:	0dad      	lsrs	r5, r5, #22
 8002888:	f365 42dc 	bfi	r2, r5, #19, #10
 800288c:	fb07 f505 	mul.w	r5, r7, r5
 8002890:	f365 0212 	bfi	r2, r5, #0, #19
 8002894:	611a      	str	r2, [r3, #16]
 8002896:	78c3      	ldrb	r3, [r0, #3]
 8002898:	2b01      	cmp	r3, #1
 800289a:	bf01      	itttt	eq
 800289c:	780b      	ldrbeq	r3, [r1, #0]
 800289e:	690a      	ldreq	r2, [r1, #16]
 80028a0:	eb00 0383 	addeq.w	r3, r0, r3, lsl #2
 80028a4:	6d5b      	ldreq	r3, [r3, #84]	; 0x54
 80028a6:	bf08      	it	eq
 80028a8:	615a      	streq	r2, [r3, #20]
 80028aa:	78ca      	ldrb	r2, [r1, #3]
 80028ac:	2a01      	cmp	r2, #1
 80028ae:	d07b      	beq.n	80029a8 <USB_OTG_EPStartXfer+0x148>
 80028b0:	780b      	ldrb	r3, [r1, #0]
 80028b2:	eb00 0c83 	add.w	ip, r0, r3, lsl #2
 80028b6:	f044 4404 	orr.w	r4, r4, #2214592512	; 0x84000000
 80028ba:	f8dc 1054 	ldr.w	r1, [ip, #84]	; 0x54
 80028be:	600c      	str	r4, [r1, #0]
 80028c0:	2000      	movs	r0, #0
 80028c2:	bcf0      	pop	{r4, r5, r6, r7}
 80028c4:	4770      	bx	lr
 80028c6:	688d      	ldr	r5, [r1, #8]
 80028c8:	f365 0212 	bfi	r2, r5, #0, #19
 80028cc:	2501      	movs	r5, #1
 80028ce:	f365 42dc 	bfi	r2, r5, #19, #10
 80028d2:	e7df      	b.n	8002894 <USB_OTG_EPStartXfer+0x34>
 80028d4:	780d      	ldrb	r5, [r1, #0]
 80028d6:	694a      	ldr	r2, [r1, #20]
 80028d8:	eb00 0485 	add.w	r4, r0, r5, lsl #2
 80028dc:	69a5      	ldr	r5, [r4, #24]
 80028de:	682e      	ldr	r6, [r5, #0]
 80028e0:	692c      	ldr	r4, [r5, #16]
 80028e2:	2a00      	cmp	r2, #0
 80028e4:	d065      	beq.n	80029b2 <USB_OTG_EPStartXfer+0x152>
 80028e6:	688b      	ldr	r3, [r1, #8]
 80028e8:	78cf      	ldrb	r7, [r1, #3]
 80028ea:	eb02 0c03 	add.w	ip, r2, r3
 80028ee:	f10c 3cff 	add.w	ip, ip, #4294967295
 80028f2:	f362 0412 	bfi	r4, r2, #0, #19
 80028f6:	fbbc f3f3 	udiv	r3, ip, r3
 80028fa:	f363 44dc 	bfi	r4, r3, #19, #10
 80028fe:	2f01      	cmp	r7, #1
 8002900:	bf08      	it	eq
 8002902:	f367 745e 	bfieq	r4, r7, #29, #2
 8002906:	612c      	str	r4, [r5, #16]
 8002908:	78c3      	ldrb	r3, [r0, #3]
 800290a:	2b01      	cmp	r3, #1
 800290c:	d062      	beq.n	80029d4 <USB_OTG_EPStartXfer+0x174>
 800290e:	f891 c003 	ldrb.w	ip, [r1, #3]
 8002912:	f1bc 0f01 	cmp.w	ip, #1
 8002916:	d054      	beq.n	80029c2 <USB_OTG_EPStartXfer+0x162>
 8002918:	b162      	cbz	r2, 8002934 <USB_OTG_EPStartXfer+0xd4>
 800291a:	6903      	ldr	r3, [r0, #16]
 800291c:	780c      	ldrb	r4, [r1, #0]
 800291e:	6b5d      	ldr	r5, [r3, #52]	; 0x34
 8002920:	2701      	movs	r7, #1
 8002922:	fa17 f404 	lsls.w	r4, r7, r4
 8002926:	432c      	orrs	r4, r5
 8002928:	635c      	str	r4, [r3, #52]	; 0x34
 800292a:	f891 c003 	ldrb.w	ip, [r1, #3]
 800292e:	f1bc 0f01 	cmp.w	ip, #1
 8002932:	d046      	beq.n	80029c2 <USB_OTG_EPStartXfer+0x162>
 8002934:	780b      	ldrb	r3, [r1, #0]
 8002936:	eb00 0c83 	add.w	ip, r0, r3, lsl #2
 800293a:	f046 4604 	orr.w	r6, r6, #2214592512	; 0x84000000
 800293e:	f8dc 3018 	ldr.w	r3, [ip, #24]
 8002942:	601e      	str	r6, [r3, #0]
 8002944:	78cb      	ldrb	r3, [r1, #3]
 8002946:	2b01      	cmp	r3, #1
 8002948:	d1ba      	bne.n	80028c0 <USB_OTG_EPStartXfer+0x60>
 800294a:	78c5      	ldrb	r5, [r0, #3]
 800294c:	68cc      	ldr	r4, [r1, #12]
 800294e:	7809      	ldrb	r1, [r1, #0]
 8002950:	2d00      	cmp	r5, #0
 8002952:	d1b5      	bne.n	80028c0 <USB_OTG_EPStartXfer+0x60>
 8002954:	b292      	uxth	r2, r2
 8002956:	eb00 0081 	add.w	r0, r0, r1, lsl #2
 800295a:	3203      	adds	r2, #3
 800295c:	1092      	asrs	r2, r2, #2
 800295e:	f8d0 10d0 	ldr.w	r1, [r0, #208]	; 0xd0
 8002962:	d0ad      	beq.n	80028c0 <USB_OTG_EPStartXfer+0x60>
 8002964:	6825      	ldr	r5, [r4, #0]
 8002966:	1e50      	subs	r0, r2, #1
 8002968:	2a01      	cmp	r2, #1
 800296a:	600d      	str	r5, [r1, #0]
 800296c:	f000 0001 	and.w	r0, r0, #1
 8002970:	d0a6      	beq.n	80028c0 <USB_OTG_EPStartXfer+0x60>
 8002972:	b120      	cbz	r0, 800297e <USB_OTG_EPStartXfer+0x11e>
 8002974:	6860      	ldr	r0, [r4, #4]
 8002976:	2302      	movs	r3, #2
 8002978:	429a      	cmp	r2, r3
 800297a:	6008      	str	r0, [r1, #0]
 800297c:	d0a0      	beq.n	80028c0 <USB_OTG_EPStartXfer+0x60>
 800297e:	f854 0023 	ldr.w	r0, [r4, r3, lsl #2]
 8002982:	3301      	adds	r3, #1
 8002984:	6008      	str	r0, [r1, #0]
 8002986:	f854 0023 	ldr.w	r0, [r4, r3, lsl #2]
 800298a:	3301      	adds	r3, #1
 800298c:	429a      	cmp	r2, r3
 800298e:	6008      	str	r0, [r1, #0]
 8002990:	d096      	beq.n	80028c0 <USB_OTG_EPStartXfer+0x60>
 8002992:	f854 0023 	ldr.w	r0, [r4, r3, lsl #2]
 8002996:	3301      	adds	r3, #1
 8002998:	6008      	str	r0, [r1, #0]
 800299a:	f854 0023 	ldr.w	r0, [r4, r3, lsl #2]
 800299e:	3301      	adds	r3, #1
 80029a0:	429a      	cmp	r2, r3
 80029a2:	6008      	str	r0, [r1, #0]
 80029a4:	d1eb      	bne.n	800297e <USB_OTG_EPStartXfer+0x11e>
 80029a6:	e78b      	b.n	80028c0 <USB_OTG_EPStartXfer+0x60>
 80029a8:	794a      	ldrb	r2, [r1, #5]
 80029aa:	b13a      	cbz	r2, 80029bc <USB_OTG_EPStartXfer+0x15c>
 80029ac:	f044 5400 	orr.w	r4, r4, #536870912	; 0x20000000
 80029b0:	e77e      	b.n	80028b0 <USB_OTG_EPStartXfer+0x50>
 80029b2:	f362 0412 	bfi	r4, r2, #0, #19
 80029b6:	f363 44dc 	bfi	r4, r3, #19, #10
 80029ba:	e7a4      	b.n	8002906 <USB_OTG_EPStartXfer+0xa6>
 80029bc:	f044 5480 	orr.w	r4, r4, #268435456	; 0x10000000
 80029c0:	e776      	b.n	80028b0 <USB_OTG_EPStartXfer+0x50>
 80029c2:	6903      	ldr	r3, [r0, #16]
 80029c4:	689b      	ldr	r3, [r3, #8]
 80029c6:	05db      	lsls	r3, r3, #23
 80029c8:	bf54      	ite	pl
 80029ca:	f046 5600 	orrpl.w	r6, r6, #536870912	; 0x20000000
 80029ce:	f046 5680 	orrmi.w	r6, r6, #268435456	; 0x10000000
 80029d2:	e7af      	b.n	8002934 <USB_OTG_EPStartXfer+0xd4>
 80029d4:	780b      	ldrb	r3, [r1, #0]
 80029d6:	690c      	ldr	r4, [r1, #16]
 80029d8:	eb00 0c83 	add.w	ip, r0, r3, lsl #2
 80029dc:	f8dc 3018 	ldr.w	r3, [ip, #24]
 80029e0:	615c      	str	r4, [r3, #20]
 80029e2:	e7a2      	b.n	800292a <USB_OTG_EPStartXfer+0xca>

080029e4 <USB_OTG_EP0StartXfer>:
 80029e4:	b4f0      	push	{r4, r5, r6, r7}
 80029e6:	784b      	ldrb	r3, [r1, #1]
 80029e8:	2b01      	cmp	r3, #1
 80029ea:	b082      	sub	sp, #8
 80029ec:	d036      	beq.n	8002a5c <USB_OTG_EP0StartXfer+0x78>
 80029ee:	f891 c000 	ldrb.w	ip, [r1]
 80029f2:	694c      	ldr	r4, [r1, #20]
 80029f4:	eb00 068c 	add.w	r6, r0, ip, lsl #2
 80029f8:	6d73      	ldr	r3, [r6, #84]	; 0x54
 80029fa:	681a      	ldr	r2, [r3, #0]
 80029fc:	691d      	ldr	r5, [r3, #16]
 80029fe:	9500      	str	r5, [sp, #0]
 8002a00:	2c00      	cmp	r4, #0
 8002a02:	d025      	beq.n	8002a50 <USB_OTG_EP0StartXfer+0x6c>
 8002a04:	688e      	ldr	r6, [r1, #8]
 8002a06:	f89d 5000 	ldrb.w	r5, [sp]
 8002a0a:	f89d 4002 	ldrb.w	r4, [sp, #2]
 8002a0e:	614e      	str	r6, [r1, #20]
 8002a10:	f366 0506 	bfi	r5, r6, #0, #7
 8002a14:	2601      	movs	r6, #1
 8002a16:	f366 04c4 	bfi	r4, r6, #3, #2
 8002a1a:	f88d 5000 	strb.w	r5, [sp]
 8002a1e:	f88d 4002 	strb.w	r4, [sp, #2]
 8002a22:	9c00      	ldr	r4, [sp, #0]
 8002a24:	611c      	str	r4, [r3, #16]
 8002a26:	78c3      	ldrb	r3, [r0, #3]
 8002a28:	2b01      	cmp	r3, #1
 8002a2a:	bf01      	itttt	eq
 8002a2c:	780b      	ldrbeq	r3, [r1, #0]
 8002a2e:	690c      	ldreq	r4, [r1, #16]
 8002a30:	eb00 0383 	addeq.w	r3, r0, r3, lsl #2
 8002a34:	6d5b      	ldreq	r3, [r3, #84]	; 0x54
 8002a36:	bf08      	it	eq
 8002a38:	615c      	streq	r4, [r3, #20]
 8002a3a:	7809      	ldrb	r1, [r1, #0]
 8002a3c:	eb00 0081 	add.w	r0, r0, r1, lsl #2
 8002a40:	f042 4104 	orr.w	r1, r2, #2214592512	; 0x84000000
 8002a44:	6d43      	ldr	r3, [r0, #84]	; 0x54
 8002a46:	6019      	str	r1, [r3, #0]
 8002a48:	2000      	movs	r0, #0
 8002a4a:	b002      	add	sp, #8
 8002a4c:	bcf0      	pop	{r4, r5, r6, r7}
 8002a4e:	4770      	bx	lr
 8002a50:	f89d 5000 	ldrb.w	r5, [sp]
 8002a54:	f89d 4002 	ldrb.w	r4, [sp, #2]
 8002a58:	688e      	ldr	r6, [r1, #8]
 8002a5a:	e7d9      	b.n	8002a10 <USB_OTG_EP0StartXfer+0x2c>
 8002a5c:	6982      	ldr	r2, [r0, #24]
 8002a5e:	694c      	ldr	r4, [r1, #20]
 8002a60:	6815      	ldr	r5, [r2, #0]
 8002a62:	6916      	ldr	r6, [r2, #16]
 8002a64:	9600      	str	r6, [sp, #0]
 8002a66:	2c00      	cmp	r4, #0
 8002a68:	d037      	beq.n	8002ada <USB_OTG_EP0StartXfer+0xf6>
 8002a6a:	688b      	ldr	r3, [r1, #8]
 8002a6c:	429c      	cmp	r4, r3
 8002a6e:	bf93      	iteet	ls
 8002a70:	f89d 3000 	ldrbls.w	r3, [sp]
 8002a74:	f89d 4000 	ldrbhi.w	r4, [sp]
 8002a78:	614b      	strhi	r3, [r1, #20]
 8002a7a:	f364 0306 	bfils	r3, r4, #0, #7
 8002a7e:	bf8c      	ite	hi
 8002a80:	f363 0406 	bfihi	r4, r3, #0, #7
 8002a84:	f88d 3000 	strbls.w	r3, [sp]
 8002a88:	f89d 3002 	ldrb.w	r3, [sp, #2]
 8002a8c:	bf88      	it	hi
 8002a8e:	f88d 4000 	strbhi.w	r4, [sp]
 8002a92:	2401      	movs	r4, #1
 8002a94:	f364 03c4 	bfi	r3, r4, #3, #2
 8002a98:	f88d 3002 	strb.w	r3, [sp, #2]
 8002a9c:	9b00      	ldr	r3, [sp, #0]
 8002a9e:	6113      	str	r3, [r2, #16]
 8002aa0:	78c3      	ldrb	r3, [r0, #3]
 8002aa2:	2b01      	cmp	r3, #1
 8002aa4:	bf01      	itttt	eq
 8002aa6:	780b      	ldrbeq	r3, [r1, #0]
 8002aa8:	690c      	ldreq	r4, [r1, #16]
 8002aaa:	eb00 0383 	addeq.w	r3, r0, r3, lsl #2
 8002aae:	699b      	ldreq	r3, [r3, #24]
 8002ab0:	bf08      	it	eq
 8002ab2:	615c      	streq	r4, [r3, #20]
 8002ab4:	f045 4304 	orr.w	r3, r5, #2214592512	; 0x84000000
 8002ab8:	6013      	str	r3, [r2, #0]
 8002aba:	78c2      	ldrb	r2, [r0, #3]
 8002abc:	2a00      	cmp	r2, #0
 8002abe:	d1c3      	bne.n	8002a48 <USB_OTG_EP0StartXfer+0x64>
 8002ac0:	694a      	ldr	r2, [r1, #20]
 8002ac2:	2a00      	cmp	r2, #0
 8002ac4:	d0c0      	beq.n	8002a48 <USB_OTG_EP0StartXfer+0x64>
 8002ac6:	6903      	ldr	r3, [r0, #16]
 8002ac8:	780a      	ldrb	r2, [r1, #0]
 8002aca:	6b59      	ldr	r1, [r3, #52]	; 0x34
 8002acc:	2001      	movs	r0, #1
 8002ace:	fa10 f202 	lsls.w	r2, r0, r2
 8002ad2:	ea42 0001 	orr.w	r0, r2, r1
 8002ad6:	6358      	str	r0, [r3, #52]	; 0x34
 8002ad8:	e7b6      	b.n	8002a48 <USB_OTG_EP0StartXfer+0x64>
 8002ada:	f89d 7000 	ldrb.w	r7, [sp]
 8002ade:	f89d 6002 	ldrb.w	r6, [sp, #2]
 8002ae2:	f364 0706 	bfi	r7, r4, #0, #7
 8002ae6:	f363 06c4 	bfi	r6, r3, #3, #2
 8002aea:	f88d 7000 	strb.w	r7, [sp]
 8002aee:	f88d 6002 	strb.w	r6, [sp, #2]
 8002af2:	e7d3      	b.n	8002a9c <USB_OTG_EP0StartXfer+0xb8>

08002af4 <USB_OTG_EPSetStall>:
 8002af4:	784a      	ldrb	r2, [r1, #1]
 8002af6:	780b      	ldrb	r3, [r1, #0]
 8002af8:	2a01      	cmp	r2, #1
 8002afa:	eb00 0083 	add.w	r0, r0, r3, lsl #2
 8002afe:	d006      	beq.n	8002b0e <USB_OTG_EPSetStall+0x1a>
 8002b00:	6d41      	ldr	r1, [r0, #84]	; 0x54
 8002b02:	6808      	ldr	r0, [r1, #0]
 8002b04:	f440 1200 	orr.w	r2, r0, #2097152	; 0x200000
 8002b08:	600a      	str	r2, [r1, #0]
 8002b0a:	2000      	movs	r0, #0
 8002b0c:	4770      	bx	lr
 8002b0e:	6982      	ldr	r2, [r0, #24]
 8002b10:	6813      	ldr	r3, [r2, #0]
 8002b12:	f3c3 6c07 	ubfx	ip, r3, #24, #8
 8002b16:	f00c 0080 	and.w	r0, ip, #128	; 0x80
 8002b1a:	b2c1      	uxtb	r1, r0
 8002b1c:	b109      	cbz	r1, 8002b22 <USB_OTG_EPSetStall+0x2e>
 8002b1e:	f043 4380 	orr.w	r3, r3, #1073741824	; 0x40000000
 8002b22:	f443 1300 	orr.w	r3, r3, #2097152	; 0x200000
 8002b26:	6013      	str	r3, [r2, #0]
 8002b28:	2000      	movs	r0, #0
 8002b2a:	4770      	bx	lr

08002b2c <USB_OTG_EPClearStall>:
 8002b2c:	f891 c001 	ldrb.w	ip, [r1, #1]
 8002b30:	780b      	ldrb	r3, [r1, #0]
 8002b32:	78c9      	ldrb	r1, [r1, #3]
 8002b34:	f1bc 0f01 	cmp.w	ip, #1
 8002b38:	eb00 0c83 	add.w	ip, r0, r3, lsl #2
 8002b3c:	bf0c      	ite	eq
 8002b3e:	f8dc 2018 	ldreq.w	r2, [ip, #24]
 8002b42:	f8dc 2054 	ldrne.w	r2, [ip, #84]	; 0x54
 8002b46:	1e88      	subs	r0, r1, #2
 8002b48:	6813      	ldr	r3, [r2, #0]
 8002b4a:	b2c1      	uxtb	r1, r0
 8002b4c:	f36f 5355 	bfc	r3, #21, #1
 8002b50:	2901      	cmp	r1, #1
 8002b52:	bf98      	it	ls
 8002b54:	f043 5380 	orrls.w	r3, r3, #268435456	; 0x10000000
 8002b58:	6013      	str	r3, [r2, #0]
 8002b5a:	2000      	movs	r0, #0
 8002b5c:	4770      	bx	lr
 8002b5e:	bf00      	nop

08002b60 <USB_OTG_ReadDevAllOutEp_itr>:
 8002b60:	6903      	ldr	r3, [r0, #16]
 8002b62:	699a      	ldr	r2, [r3, #24]
 8002b64:	69d9      	ldr	r1, [r3, #28]
 8002b66:	ea01 0002 	and.w	r0, r1, r2
 8002b6a:	0c00      	lsrs	r0, r0, #16
 8002b6c:	4770      	bx	lr
 8002b6e:	bf00      	nop

08002b70 <USB_OTG_ReadDevOutEP_itr>:
 8002b70:	eb00 0c81 	add.w	ip, r0, r1, lsl #2
 8002b74:	6902      	ldr	r2, [r0, #16]
 8002b76:	f8dc 1054 	ldr.w	r1, [ip, #84]	; 0x54
 8002b7a:	688b      	ldr	r3, [r1, #8]
 8002b7c:	6950      	ldr	r0, [r2, #20]
 8002b7e:	4018      	ands	r0, r3
 8002b80:	4770      	bx	lr
 8002b82:	bf00      	nop

08002b84 <USB_OTG_ReadDevAllInEPItr>:
 8002b84:	6902      	ldr	r2, [r0, #16]
 8002b86:	6991      	ldr	r1, [r2, #24]
 8002b88:	69d3      	ldr	r3, [r2, #28]
 8002b8a:	ea01 0003 	and.w	r0, r1, r3
 8002b8e:	b280      	uxth	r0, r0
 8002b90:	4770      	bx	lr
 8002b92:	bf00      	nop

08002b94 <USB_OTG_EP0_OutStart>:
 8002b94:	b082      	sub	sp, #8
 8002b96:	2101      	movs	r1, #1
 8002b98:	2200      	movs	r2, #0
 8002b9a:	2300      	movs	r3, #0
 8002b9c:	9200      	str	r2, [sp, #0]
 8002b9e:	f361 03c4 	bfi	r3, r1, #3, #2
 8002ba2:	2218      	movs	r2, #24
 8002ba4:	21c0      	movs	r1, #192	; 0xc0
 8002ba6:	f88d 1003 	strb.w	r1, [sp, #3]
 8002baa:	f88d 3002 	strb.w	r3, [sp, #2]
 8002bae:	f88d 2000 	strb.w	r2, [sp]
 8002bb2:	6d43      	ldr	r3, [r0, #84]	; 0x54
 8002bb4:	9900      	ldr	r1, [sp, #0]
 8002bb6:	6119      	str	r1, [r3, #16]
 8002bb8:	78c2      	ldrb	r2, [r0, #3]
 8002bba:	2a01      	cmp	r2, #1
 8002bbc:	bf01      	itttt	eq
 8002bbe:	f500 60b9 	addeq.w	r0, r0, #1480	; 0x5c8
 8002bc2:	6158      	streq	r0, [r3, #20]
 8002bc4:	681a      	ldreq	r2, [r3, #0]
 8002bc6:	f04f 2280 	moveq.w	r2, #2147516416	; 0x80008000
 8002bca:	bf08      	it	eq
 8002bcc:	601a      	streq	r2, [r3, #0]
 8002bce:	b002      	add	sp, #8
 8002bd0:	4770      	bx	lr
 8002bd2:	bf00      	nop

08002bd4 <USB_OTG_ActiveRemoteWakeup>:
 8002bd4:	f8d0 3114 	ldr.w	r3, [r0, #276]	; 0x114
 8002bd8:	b510      	push	{r4, lr}
 8002bda:	4604      	mov	r4, r0
 8002bdc:	b1d3      	cbz	r3, 8002c14 <USB_OTG_ActiveRemoteWakeup+0x40>
 8002bde:	6903      	ldr	r3, [r0, #16]
 8002be0:	689a      	ldr	r2, [r3, #8]
 8002be2:	07d2      	lsls	r2, r2, #31
 8002be4:	d516      	bpl.n	8002c14 <USB_OTG_ActiveRemoteWakeup+0x40>
 8002be6:	7a81      	ldrb	r1, [r0, #10]
 8002be8:	b141      	cbz	r1, 8002bfc <USB_OTG_ActiveRemoteWakeup+0x28>
 8002bea:	f8d0 210c 	ldr.w	r2, [r0, #268]	; 0x10c
 8002bee:	f8d0 010c 	ldr.w	r0, [r0, #268]	; 0x10c
 8002bf2:	f36f 0241 	bfc	r2, #1, #1
 8002bf6:	f36f 0200 	bfc	r2, #0, #1
 8002bfa:	6002      	str	r2, [r0, #0]
 8002bfc:	6859      	ldr	r1, [r3, #4]
 8002bfe:	f041 0201 	orr.w	r2, r1, #1
 8002c02:	605a      	str	r2, [r3, #4]
 8002c04:	2005      	movs	r0, #5
 8002c06:	f7fd fd45 	bl	8000694 <USB_OTG_BSP_mDelay>
 8002c0a:	6923      	ldr	r3, [r4, #16]
 8002c0c:	6858      	ldr	r0, [r3, #4]
 8002c0e:	f020 0101 	bic.w	r1, r0, #1
 8002c12:	6059      	str	r1, [r3, #4]
 8002c14:	bd10      	pop	{r4, pc}
 8002c16:	bf00      	nop

08002c18 <USB_OTG_UngateClock>:
 8002c18:	7a83      	ldrb	r3, [r0, #10]
 8002c1a:	b16b      	cbz	r3, 8002c38 <USB_OTG_UngateClock+0x20>
 8002c1c:	6901      	ldr	r1, [r0, #16]
 8002c1e:	688b      	ldr	r3, [r1, #8]
 8002c20:	07d9      	lsls	r1, r3, #31
 8002c22:	bf41      	itttt	mi
 8002c24:	f8d0 310c 	ldrmi.w	r3, [r0, #268]	; 0x10c
 8002c28:	f8d0 210c 	ldrmi.w	r2, [r0, #268]	; 0x10c
 8002c2c:	f36f 0341 	bfcmi	r3, #1, #1
 8002c30:	f36f 0300 	bfcmi	r3, #0, #1
 8002c34:	bf48      	it	mi
 8002c36:	6013      	strmi	r3, [r2, #0]
 8002c38:	4770      	bx	lr
 8002c3a:	bf00      	nop

08002c3c <USB_OTG_StopDevice>:
 8002c3c:	b510      	push	{r4, lr}
 8002c3e:	7843      	ldrb	r3, [r0, #1]
 8002c40:	2201      	movs	r2, #1
 8002c42:	4604      	mov	r4, r0
 8002c44:	f880 2112 	strb.w	r2, [r0, #274]	; 0x112
 8002c48:	b163      	cbz	r3, 8002c64 <USB_OTG_StopDevice+0x28>
 8002c4a:	f100 0214 	add.w	r2, r0, #20
 8002c4e:	2300      	movs	r3, #0
 8002c50:	21ff      	movs	r1, #255	; 0xff
 8002c52:	f852 0f04 	ldr.w	r0, [r2, #4]!
 8002c56:	6081      	str	r1, [r0, #8]
 8002c58:	6bd0      	ldr	r0, [r2, #60]	; 0x3c
 8002c5a:	6081      	str	r1, [r0, #8]
 8002c5c:	7860      	ldrb	r0, [r4, #1]
 8002c5e:	3301      	adds	r3, #1
 8002c60:	4298      	cmp	r0, r3
 8002c62:	d8f6      	bhi.n	8002c52 <USB_OTG_StopDevice+0x16>
 8002c64:	6923      	ldr	r3, [r4, #16]
 8002c66:	2200      	movs	r2, #0
 8002c68:	f04f 31ff 	mov.w	r1, #4294967295
 8002c6c:	611a      	str	r2, [r3, #16]
 8002c6e:	4620      	mov	r0, r4
 8002c70:	615a      	str	r2, [r3, #20]
 8002c72:	61da      	str	r2, [r3, #28]
 8002c74:	6199      	str	r1, [r3, #24]
 8002c76:	f7ff fc65 	bl	8002544 <USB_OTG_FlushRxFifo>
 8002c7a:	4620      	mov	r0, r4
 8002c7c:	2110      	movs	r1, #16
 8002c7e:	e8bd 4010 	ldmia.w	sp!, {r4, lr}
 8002c82:	f7ff bc35 	b.w	80024f0 <USB_OTG_FlushTxFifo>
 8002c86:	bf00      	nop

08002c88 <USB_OTG_GetEPStatus>:
 8002c88:	784a      	ldrb	r2, [r1, #1]
 8002c8a:	780b      	ldrb	r3, [r1, #0]
 8002c8c:	2a01      	cmp	r2, #1
 8002c8e:	eb00 0083 	add.w	r0, r0, r3, lsl #2
 8002c92:	d014      	beq.n	8002cbe <USB_OTG_GetEPStatus+0x36>
 8002c94:	6d41      	ldr	r1, [r0, #84]	; 0x54
 8002c96:	6808      	ldr	r0, [r1, #0]
 8002c98:	f3c0 4007 	ubfx	r0, r0, #16, #8
 8002c9c:	f000 0220 	and.w	r2, r0, #32
 8002ca0:	b2d3      	uxtb	r3, r2
 8002ca2:	b94b      	cbnz	r3, 8002cb8 <USB_OTG_GetEPStatus+0x30>
 8002ca4:	f000 0202 	and.w	r2, r0, #2
 8002ca8:	b2d3      	uxtb	r3, r2
 8002caa:	2b00      	cmp	r3, #0
 8002cac:	bf0c      	ite	eq
 8002cae:	f44f 5040 	moveq.w	r0, #12288	; 0x3000
 8002cb2:	f44f 5000 	movne.w	r0, #8192	; 0x2000
 8002cb6:	4770      	bx	lr
 8002cb8:	f44f 5080 	mov.w	r0, #4096	; 0x1000
 8002cbc:	4770      	bx	lr
 8002cbe:	6983      	ldr	r3, [r0, #24]
 8002cc0:	6818      	ldr	r0, [r3, #0]
 8002cc2:	f3c0 4007 	ubfx	r0, r0, #16, #8
 8002cc6:	f000 0c20 	and.w	ip, r0, #32
 8002cca:	fa5f f18c 	uxtb.w	r1, ip
 8002cce:	b939      	cbnz	r1, 8002ce0 <USB_OTG_GetEPStatus+0x58>
 8002cd0:	f000 0102 	and.w	r1, r0, #2
 8002cd4:	b2ca      	uxtb	r2, r1
 8002cd6:	2a00      	cmp	r2, #0
 8002cd8:	bf0c      	ite	eq
 8002cda:	2030      	moveq	r0, #48	; 0x30
 8002cdc:	2020      	movne	r0, #32
 8002cde:	4770      	bx	lr
 8002ce0:	2010      	movs	r0, #16
 8002ce2:	4770      	bx	lr

08002ce4 <USB_OTG_SetEPStatus>:
 8002ce4:	784b      	ldrb	r3, [r1, #1]
 8002ce6:	b470      	push	{r4, r5, r6}
 8002ce8:	780d      	ldrb	r5, [r1, #0]
 8002cea:	2b01      	cmp	r3, #1
 8002cec:	eb00 0485 	add.w	r4, r0, r5, lsl #2
 8002cf0:	d015      	beq.n	8002d1e <USB_OTG_SetEPStatus+0x3a>
 8002cf2:	6d65      	ldr	r5, [r4, #84]	; 0x54
 8002cf4:	682c      	ldr	r4, [r5, #0]
 8002cf6:	f5b2 5f80 	cmp.w	r2, #4096	; 0x1000
 8002cfa:	4626      	mov	r6, r4
 8002cfc:	bf08      	it	eq
 8002cfe:	f444 1400 	orreq.w	r4, r4, #2097152	; 0x200000
 8002d02:	d009      	beq.n	8002d18 <USB_OTG_SetEPStatus+0x34>
 8002d04:	f5b2 5f00 	cmp.w	r2, #8192	; 0x2000
 8002d08:	d010      	beq.n	8002d2c <USB_OTG_SetEPStatus+0x48>
 8002d0a:	f5b2 5f40 	cmp.w	r2, #12288	; 0x3000
 8002d0e:	d012      	beq.n	8002d36 <USB_OTG_SetEPStatus+0x52>
 8002d10:	b912      	cbnz	r2, 8002d18 <USB_OTG_SetEPStatus+0x34>
 8002d12:	f362 36cf 	bfi	r6, r2, #15, #1
 8002d16:	4634      	mov	r4, r6
 8002d18:	602c      	str	r4, [r5, #0]
 8002d1a:	bc70      	pop	{r4, r5, r6}
 8002d1c:	4770      	bx	lr
 8002d1e:	69a5      	ldr	r5, [r4, #24]
 8002d20:	682c      	ldr	r4, [r5, #0]
 8002d22:	2a10      	cmp	r2, #16
 8002d24:	4626      	mov	r6, r4
 8002d26:	d016      	beq.n	8002d56 <USB_OTG_SetEPStatus+0x72>
 8002d28:	2a20      	cmp	r2, #32
 8002d2a:	d102      	bne.n	8002d32 <USB_OTG_SetEPStatus+0x4e>
 8002d2c:	f044 6400 	orr.w	r4, r4, #134217728	; 0x8000000
 8002d30:	e7f2      	b.n	8002d18 <USB_OTG_SetEPStatus+0x34>
 8002d32:	2a30      	cmp	r2, #48	; 0x30
 8002d34:	d1ec      	bne.n	8002d10 <USB_OTG_SetEPStatus+0x2c>
 8002d36:	f3c4 4c07 	ubfx	ip, r4, #16, #8
 8002d3a:	f00c 0320 	and.w	r3, ip, #32
 8002d3e:	b2da      	uxtb	r2, r3
 8002d40:	b922      	cbnz	r2, 8002d4c <USB_OTG_SetEPStatus+0x68>
 8002d42:	f044 6480 	orr.w	r4, r4, #67108864	; 0x4000000
 8002d46:	f044 2480 	orr.w	r4, r4, #2147516416	; 0x80008000
 8002d4a:	e7e5      	b.n	8002d18 <USB_OTG_SetEPStatus+0x34>
 8002d4c:	2200      	movs	r2, #0
 8002d4e:	714a      	strb	r2, [r1, #5]
 8002d50:	bc70      	pop	{r4, r5, r6}
 8002d52:	f7ff beeb 	b.w	8002b2c <USB_OTG_EPClearStall>
 8002d56:	bc70      	pop	{r4, r5, r6}
 8002d58:	f7ff becc 	b.w	8002af4 <USB_OTG_EPSetStall>

08002d5c <DCD_Init>:
 8002d5c:	b570      	push	{r4, r5, r6, lr}
 8002d5e:	4604      	mov	r4, r0
 8002d60:	f7ff fa58 	bl	8002214 <USB_OTG_SelectCore>
 8002d64:	7862      	ldrb	r2, [r4, #1]
 8002d66:	2601      	movs	r6, #1
 8002d68:	2300      	movs	r3, #0
 8002d6a:	f884 6112 	strb.w	r6, [r4, #274]	; 0x112
 8002d6e:	f884 3113 	strb.w	r3, [r4, #275]	; 0x113
 8002d72:	b3b2      	cbz	r2, 8002de2 <DCD_Init+0x86>
 8002d74:	4619      	mov	r1, r3
 8002d76:	2508      	movs	r5, #8
 8002d78:	eb03 0083 	add.w	r0, r3, r3, lsl #2
 8002d7c:	00c2      	lsls	r2, r0, #3
 8002d7e:	f502 708c 	add.w	r0, r2, #280	; 0x118
 8002d82:	eb04 0c00 	add.w	ip, r4, r0
 8002d86:	5423      	strb	r3, [r4, r0]
 8002d88:	f8ac 3006 	strh.w	r3, [ip, #6]
 8002d8c:	f88c 6001 	strb.w	r6, [ip, #1]
 8002d90:	f88c 1003 	strb.w	r1, [ip, #3]
 8002d94:	f8cc 5008 	str.w	r5, [ip, #8]
 8002d98:	f8cc 100c 	str.w	r1, [ip, #12]
 8002d9c:	f8cc 1014 	str.w	r1, [ip, #20]
 8002da0:	7862      	ldrb	r2, [r4, #1]
 8002da2:	3301      	adds	r3, #1
 8002da4:	429a      	cmp	r2, r3
 8002da6:	d8e7      	bhi.n	8002d78 <DCD_Init+0x1c>
 8002da8:	b1da      	cbz	r2, 8002de2 <DCD_Init+0x86>
 8002daa:	2300      	movs	r3, #0
 8002dac:	4619      	mov	r1, r3
 8002dae:	2508      	movs	r5, #8
 8002db0:	eb03 0283 	add.w	r2, r3, r3, lsl #2
 8002db4:	00d0      	lsls	r0, r2, #3
 8002db6:	f500 725c 	add.w	r2, r0, #880	; 0x370
 8002dba:	eb04 0c02 	add.w	ip, r4, r2
 8002dbe:	54a3      	strb	r3, [r4, r2]
 8002dc0:	f8ac 3006 	strh.w	r3, [ip, #6]
 8002dc4:	f88c 1001 	strb.w	r1, [ip, #1]
 8002dc8:	f88c 1003 	strb.w	r1, [ip, #3]
 8002dcc:	f8cc 5008 	str.w	r5, [ip, #8]
 8002dd0:	f8cc 100c 	str.w	r1, [ip, #12]
 8002dd4:	f8cc 1014 	str.w	r1, [ip, #20]
 8002dd8:	f894 e001 	ldrb.w	lr, [r4, #1]
 8002ddc:	3301      	adds	r3, #1
 8002dde:	459e      	cmp	lr, r3
 8002de0:	d8e6      	bhi.n	8002db0 <DCD_Init+0x54>
 8002de2:	4620      	mov	r0, r4
 8002de4:	f7ff fb7c 	bl	80024e0 <USB_OTG_DisableGlobalInt>
 8002de8:	4620      	mov	r0, r4
 8002dea:	f7ff faf7 	bl	80023dc <USB_OTG_CoreInit>
 8002dee:	2100      	movs	r1, #0
 8002df0:	4620      	mov	r0, r4
 8002df2:	f7ff fbcd 	bl	8002590 <USB_OTG_SetCurrentMode>
 8002df6:	4620      	mov	r0, r4
 8002df8:	f7ff fc28 	bl	800264c <USB_OTG_CoreInitDev>
 8002dfc:	4620      	mov	r0, r4
 8002dfe:	e8bd 4070 	ldmia.w	sp!, {r4, r5, r6, lr}
 8002e02:	f7ff bb65 	b.w	80024d0 <USB_OTG_EnableGlobalInt>
 8002e06:	bf00      	nop

08002e08 <DCD_EP_Open>:
 8002e08:	b538      	push	{r3, r4, r5, lr}
 8002e0a:	f001 057f 	and.w	r5, r1, #127	; 0x7f
 8002e0e:	b2cc      	uxtb	r4, r1
 8002e10:	eb05 0185 	add.w	r1, r5, r5, lsl #2
 8002e14:	eb00 01c1 	add.w	r1, r0, r1, lsl #3
 8002e18:	f014 0f80 	tst.w	r4, #128	; 0x80
 8002e1c:	bf14      	ite	ne
 8002e1e:	f501 718c 	addne.w	r1, r1, #280	; 0x118
 8002e22:	f501 715c 	addeq.w	r1, r1, #880	; 0x370
 8002e26:	b2ed      	uxtb	r5, r5
 8002e28:	09e4      	lsrs	r4, r4, #7
 8002e2a:	700d      	strb	r5, [r1, #0]
 8002e2c:	704c      	strb	r4, [r1, #1]
 8002e2e:	608a      	str	r2, [r1, #8]
 8002e30:	70cb      	strb	r3, [r1, #3]
 8002e32:	b104      	cbz	r4, 8002e36 <DCD_EP_Open+0x2e>
 8002e34:	80cd      	strh	r5, [r1, #6]
 8002e36:	2b02      	cmp	r3, #2
 8002e38:	d101      	bne.n	8002e3e <DCD_EP_Open+0x36>
 8002e3a:	2300      	movs	r3, #0
 8002e3c:	710b      	strb	r3, [r1, #4]
 8002e3e:	f7ff fcb5 	bl	80027ac <USB_OTG_EPActivate>
 8002e42:	2000      	movs	r0, #0
 8002e44:	bd38      	pop	{r3, r4, r5, pc}
 8002e46:	bf00      	nop

08002e48 <DCD_EP_Close>:
 8002e48:	f001 027f 	and.w	r2, r1, #127	; 0x7f
 8002e4c:	b508      	push	{r3, lr}
 8002e4e:	b2cb      	uxtb	r3, r1
 8002e50:	eb02 0182 	add.w	r1, r2, r2, lsl #2
 8002e54:	eb00 01c1 	add.w	r1, r0, r1, lsl #3
 8002e58:	f013 0f80 	tst.w	r3, #128	; 0x80
 8002e5c:	bf14      	ite	ne
 8002e5e:	f501 718c 	addne.w	r1, r1, #280	; 0x118
 8002e62:	f501 715c 	addeq.w	r1, r1, #880	; 0x370
 8002e66:	09db      	lsrs	r3, r3, #7
 8002e68:	700a      	strb	r2, [r1, #0]
 8002e6a:	704b      	strb	r3, [r1, #1]
 8002e6c:	f7ff fcd4 	bl	8002818 <USB_OTG_EPDeactivate>
 8002e70:	2000      	movs	r0, #0
 8002e72:	bd08      	pop	{r3, pc}

08002e74 <DCD_EP_PrepareRx>:
 8002e74:	b570      	push	{r4, r5, r6, lr}
 8002e76:	f001 047f 	and.w	r4, r1, #127	; 0x7f
 8002e7a:	eb04 0584 	add.w	r5, r4, r4, lsl #2
 8002e7e:	00e9      	lsls	r1, r5, #3
 8002e80:	f501 765c 	add.w	r6, r1, #880	; 0x370
 8002e84:	1981      	adds	r1, r0, r6
 8002e86:	b2e4      	uxtb	r4, r4
 8002e88:	2500      	movs	r5, #0
 8002e8a:	5584      	strb	r4, [r0, r6]
 8002e8c:	60ca      	str	r2, [r1, #12]
 8002e8e:	614b      	str	r3, [r1, #20]
 8002e90:	618d      	str	r5, [r1, #24]
 8002e92:	704d      	strb	r5, [r1, #1]
 8002e94:	78c3      	ldrb	r3, [r0, #3]
 8002e96:	2b01      	cmp	r3, #1
 8002e98:	bf08      	it	eq
 8002e9a:	610a      	streq	r2, [r1, #16]
 8002e9c:	b11c      	cbz	r4, 8002ea6 <DCD_EP_PrepareRx+0x32>
 8002e9e:	f7ff fcdf 	bl	8002860 <USB_OTG_EPStartXfer>
 8002ea2:	2000      	movs	r0, #0
 8002ea4:	bd70      	pop	{r4, r5, r6, pc}
 8002ea6:	f7ff fd9d 	bl	80029e4 <USB_OTG_EP0StartXfer>
 8002eaa:	2000      	movs	r0, #0
 8002eac:	bd70      	pop	{r4, r5, r6, pc}
 8002eae:	bf00      	nop

08002eb0 <DCD_EP_Tx>:
 8002eb0:	b5f8      	push	{r3, r4, r5, r6, r7, lr}
 8002eb2:	f001 047f 	and.w	r4, r1, #127	; 0x7f
 8002eb6:	eb04 0184 	add.w	r1, r4, r4, lsl #2
 8002eba:	00cd      	lsls	r5, r1, #3
 8002ebc:	f505 758c 	add.w	r5, r5, #280	; 0x118
 8002ec0:	1941      	adds	r1, r0, r5
 8002ec2:	b2e4      	uxtb	r4, r4
 8002ec4:	2701      	movs	r7, #1
 8002ec6:	60ca      	str	r2, [r1, #12]
 8002ec8:	610a      	str	r2, [r1, #16]
 8002eca:	2200      	movs	r2, #0
 8002ecc:	704f      	strb	r7, [r1, #1]
 8002ece:	5544      	strb	r4, [r0, r5]
 8002ed0:	618a      	str	r2, [r1, #24]
 8002ed2:	614b      	str	r3, [r1, #20]
 8002ed4:	b11c      	cbz	r4, 8002ede <DCD_EP_Tx+0x2e>
 8002ed6:	f7ff fcc3 	bl	8002860 <USB_OTG_EPStartXfer>
 8002eda:	2000      	movs	r0, #0
 8002edc:	bdf8      	pop	{r3, r4, r5, r6, r7, pc}
 8002ede:	f7ff fd81 	bl	80029e4 <USB_OTG_EP0StartXfer>
 8002ee2:	2000      	movs	r0, #0
 8002ee4:	bdf8      	pop	{r3, r4, r5, r6, r7, pc}
 8002ee6:	bf00      	nop

08002ee8 <DCD_EP_Stall>:
 8002ee8:	b510      	push	{r4, lr}
 8002eea:	b2cc      	uxtb	r4, r1
 8002eec:	0623      	lsls	r3, r4, #24
 8002eee:	bf49      	itett	mi
 8002ef0:	f001 017f 	andmi.w	r1, r1, #127	; 0x7f
 8002ef4:	eb01 0381 	addpl.w	r3, r1, r1, lsl #2
 8002ef8:	eb01 0381 	addmi.w	r3, r1, r1, lsl #2
 8002efc:	eb00 03c3 	addmi.w	r3, r0, r3, lsl #3
 8002f00:	bf57      	itett	pl
 8002f02:	eb00 03c3 	addpl.w	r3, r0, r3, lsl #3
 8002f06:	f503 738c 	addmi.w	r3, r3, #280	; 0x118
 8002f0a:	f503 735c 	addpl.w	r3, r3, #880	; 0x370
 8002f0e:	f001 017f 	andpl.w	r1, r1, #127	; 0x7f
 8002f12:	09e2      	lsrs	r2, r4, #7
 8002f14:	2401      	movs	r4, #1
 8002f16:	7019      	strb	r1, [r3, #0]
 8002f18:	709c      	strb	r4, [r3, #2]
 8002f1a:	705a      	strb	r2, [r3, #1]
 8002f1c:	4619      	mov	r1, r3
 8002f1e:	f7ff fde9 	bl	8002af4 <USB_OTG_EPSetStall>
 8002f22:	2000      	movs	r0, #0
 8002f24:	bd10      	pop	{r4, pc}
 8002f26:	bf00      	nop

08002f28 <DCD_EP_ClrStall>:
 8002f28:	b2ca      	uxtb	r2, r1
 8002f2a:	b510      	push	{r4, lr}
 8002f2c:	0614      	lsls	r4, r2, #24
 8002f2e:	bf49      	itett	mi
 8002f30:	f001 017f 	andmi.w	r1, r1, #127	; 0x7f
 8002f34:	eb01 0381 	addpl.w	r3, r1, r1, lsl #2
 8002f38:	eb01 0381 	addmi.w	r3, r1, r1, lsl #2
 8002f3c:	eb00 03c3 	addmi.w	r3, r0, r3, lsl #3
 8002f40:	bf57      	itett	pl
 8002f42:	eb00 03c3 	addpl.w	r3, r0, r3, lsl #3
 8002f46:	f503 738c 	addmi.w	r3, r3, #280	; 0x118
 8002f4a:	f503 735c 	addpl.w	r3, r3, #880	; 0x370
 8002f4e:	f001 017f 	andpl.w	r1, r1, #127	; 0x7f
 8002f52:	2400      	movs	r4, #0
 8002f54:	09d2      	lsrs	r2, r2, #7
 8002f56:	7019      	strb	r1, [r3, #0]
 8002f58:	709c      	strb	r4, [r3, #2]
 8002f5a:	705a      	strb	r2, [r3, #1]
 8002f5c:	4619      	mov	r1, r3
 8002f5e:	f7ff fde5 	bl	8002b2c <USB_OTG_EPClearStall>
 8002f62:	4620      	mov	r0, r4
 8002f64:	bd10      	pop	{r4, pc}
 8002f66:	bf00      	nop

08002f68 <DCD_EP_Flush>:
 8002f68:	b508      	push	{r3, lr}
 8002f6a:	060b      	lsls	r3, r1, #24
 8002f6c:	d403      	bmi.n	8002f76 <DCD_EP_Flush+0xe>
 8002f6e:	f7ff fae9 	bl	8002544 <USB_OTG_FlushRxFifo>
 8002f72:	2000      	movs	r0, #0
 8002f74:	bd08      	pop	{r3, pc}
 8002f76:	f001 017f 	and.w	r1, r1, #127	; 0x7f
 8002f7a:	f7ff fab9 	bl	80024f0 <USB_OTG_FlushTxFifo>
 8002f7e:	2000      	movs	r0, #0
 8002f80:	bd08      	pop	{r3, pc}
 8002f82:	bf00      	nop

08002f84 <DCD_EP_SetAddress>:
 8002f84:	6903      	ldr	r3, [r0, #16]
 8002f86:	2200      	movs	r2, #0
 8002f88:	6818      	ldr	r0, [r3, #0]
 8002f8a:	f361 120a 	bfi	r2, r1, #4, #7
 8002f8e:	4302      	orrs	r2, r0
 8002f90:	601a      	str	r2, [r3, #0]
 8002f92:	4770      	bx	lr

08002f94 <DCD_DevConnect>:
 8002f94:	6903      	ldr	r3, [r0, #16]
 8002f96:	685a      	ldr	r2, [r3, #4]
 8002f98:	2003      	movs	r0, #3
 8002f9a:	f36f 0241 	bfc	r2, #1, #1
 8002f9e:	605a      	str	r2, [r3, #4]
 8002fa0:	f7fd bb78 	b.w	8000694 <USB_OTG_BSP_mDelay>

08002fa4 <DCD_DevDisconnect>:
 8002fa4:	6903      	ldr	r3, [r0, #16]
 8002fa6:	6858      	ldr	r0, [r3, #4]
 8002fa8:	f040 0202 	orr.w	r2, r0, #2
 8002fac:	2003      	movs	r0, #3
 8002fae:	605a      	str	r2, [r3, #4]
 8002fb0:	f7fd bb70 	b.w	8000694 <USB_OTG_BSP_mDelay>

08002fb4 <DCD_GetEPStatus>:
 8002fb4:	060a      	lsls	r2, r1, #24
 8002fb6:	bf45      	ittet	mi
 8002fb8:	f001 017f 	andmi.w	r1, r1, #127	; 0x7f
 8002fbc:	eb01 0181 	addmi.w	r1, r1, r1, lsl #2
 8002fc0:	eb01 0181 	addpl.w	r1, r1, r1, lsl #2
 8002fc4:	eb00 01c1 	addmi.w	r1, r0, r1, lsl #3
 8002fc8:	bf56      	itet	pl
 8002fca:	eb00 01c1 	addpl.w	r1, r0, r1, lsl #3
 8002fce:	f501 718c 	addmi.w	r1, r1, #280	; 0x118
 8002fd2:	f501 715c 	addpl.w	r1, r1, #880	; 0x370
 8002fd6:	f7ff be57 	b.w	8002c88 <USB_OTG_GetEPStatus>
 8002fda:	bf00      	nop

08002fdc <DCD_SetEPStatus>:
 8002fdc:	060b      	lsls	r3, r1, #24
 8002fde:	bf45      	ittet	mi
 8002fe0:	f001 017f 	andmi.w	r1, r1, #127	; 0x7f
 8002fe4:	eb01 0181 	addmi.w	r1, r1, r1, lsl #2
 8002fe8:	eb01 0181 	addpl.w	r1, r1, r1, lsl #2
 8002fec:	eb00 01c1 	addmi.w	r1, r0, r1, lsl #3
 8002ff0:	bf56      	itet	pl
 8002ff2:	eb00 01c1 	addpl.w	r1, r0, r1, lsl #3
 8002ff6:	f501 718c 	addmi.w	r1, r1, #280	; 0x118
 8002ffa:	f501 715c 	addpl.w	r1, r1, #880	; 0x370
 8002ffe:	f7ff be71 	b.w	8002ce4 <USB_OTG_SetEPStatus>
 8003002:	bf00      	nop

08003004 <USBD_OTG_ISR_Handler>:
 8003004:	e92d 4ff0 	stmdb	sp!, {r4, r5, r6, r7, r8, r9, sl, fp, lr}
 8003008:	b083      	sub	sp, #12
 800300a:	4605      	mov	r5, r0
 800300c:	f7ff fadc 	bl	80025c8 <USB_OTG_IsDeviceMode>
 8003010:	b910      	cbnz	r0, 8003018 <USBD_OTG_ISR_Handler+0x14>
 8003012:	b003      	add	sp, #12
 8003014:	e8bd 8ff0 	ldmia.w	sp!, {r4, r5, r6, r7, r8, r9, sl, fp, pc}
 8003018:	4628      	mov	r0, r5
 800301a:	f7ff fae3 	bl	80025e4 <USB_OTG_ReadCoreItr>
 800301e:	4680      	mov	r8, r0
 8003020:	2800      	cmp	r0, #0
 8003022:	d0f6      	beq.n	8003012 <USBD_OTG_ISR_Handler+0xe>
 8003024:	f3c0 4107 	ubfx	r1, r0, #16, #8
 8003028:	f001 0008 	and.w	r0, r1, #8
 800302c:	b2c0      	uxtb	r0, r0
 800302e:	2800      	cmp	r0, #0
 8003030:	f040 80ee 	bne.w	8003210 <USBD_OTG_ISR_Handler+0x20c>
 8003034:	f3c8 4107 	ubfx	r1, r8, #16, #8
 8003038:	f001 0204 	and.w	r2, r1, #4
 800303c:	b2d3      	uxtb	r3, r2
 800303e:	2b00      	cmp	r3, #0
 8003040:	d166      	bne.n	8003110 <USBD_OTG_ISR_Handler+0x10c>
 8003042:	f008 0102 	and.w	r1, r8, #2
 8003046:	b2ca      	uxtb	r2, r1
 8003048:	b112      	cbz	r2, 8003050 <USBD_OTG_ISR_Handler+0x4c>
 800304a:	68eb      	ldr	r3, [r5, #12]
 800304c:	2202      	movs	r2, #2
 800304e:	615a      	str	r2, [r3, #20]
 8003050:	f3c8 6e07 	ubfx	lr, r8, #24, #8
 8003054:	f00e 0280 	and.w	r2, lr, #128	; 0x80
 8003058:	b2d1      	uxtb	r1, r2
 800305a:	b1b1      	cbz	r1, 800308a <USBD_OTG_ISR_Handler+0x86>
 800305c:	7aa8      	ldrb	r0, [r5, #10]
 800305e:	2800      	cmp	r0, #0
 8003060:	f040 81f7 	bne.w	8003452 <USBD_OTG_ISR_Handler+0x44e>
 8003064:	692a      	ldr	r2, [r5, #16]
 8003066:	f240 1c24 	movw	ip, #292	; 0x124
 800306a:	f2c2 0c00 	movt	ip, #8192	; 0x2000
 800306e:	6851      	ldr	r1, [r2, #4]
 8003070:	f8dc 3000 	ldr.w	r3, [ip]
 8003074:	f021 0001 	bic.w	r0, r1, #1
 8003078:	6050      	str	r0, [r2, #4]
 800307a:	6999      	ldr	r1, [r3, #24]
 800307c:	4628      	mov	r0, r5
 800307e:	4788      	blx	r1
 8003080:	68e8      	ldr	r0, [r5, #12]
 8003082:	f04f 4200 	mov.w	r2, #2147483648	; 0x80000000
 8003086:	6142      	str	r2, [r0, #20]
 8003088:	2001      	movs	r0, #1
 800308a:	f3c8 2107 	ubfx	r1, r8, #8, #8
 800308e:	f001 0208 	and.w	r2, r1, #8
 8003092:	b2d3      	uxtb	r3, r2
 8003094:	2b00      	cmp	r3, #0
 8003096:	f040 814c 	bne.w	8003332 <USBD_OTG_ISR_Handler+0x32e>
 800309a:	f008 0108 	and.w	r1, r8, #8
 800309e:	b2cb      	uxtb	r3, r1
 80030a0:	2b00      	cmp	r3, #0
 80030a2:	f040 8138 	bne.w	8003316 <USBD_OTG_ISR_Handler+0x312>
 80030a6:	f008 0c10 	and.w	ip, r8, #16
 80030aa:	fa5f f28c 	uxtb.w	r2, ip
 80030ae:	2a00      	cmp	r2, #0
 80030b0:	f040 810a 	bne.w	80032c8 <USBD_OTG_ISR_Handler+0x2c4>
 80030b4:	f3c8 2207 	ubfx	r2, r8, #8, #8
 80030b8:	f002 0110 	and.w	r1, r2, #16
 80030bc:	b2cb      	uxtb	r3, r1
 80030be:	2b00      	cmp	r3, #0
 80030c0:	f040 8163 	bne.w	800338a <USBD_OTG_ISR_Handler+0x386>
 80030c4:	f3c8 2207 	ubfx	r2, r8, #8, #8
 80030c8:	f002 0120 	and.w	r1, r2, #32
 80030cc:	b2cb      	uxtb	r3, r1
 80030ce:	2b00      	cmp	r3, #0
 80030d0:	f040 81a7 	bne.w	8003422 <USBD_OTG_ISR_Handler+0x41e>
 80030d4:	f3c8 4207 	ubfx	r2, r8, #16, #8
 80030d8:	f002 0110 	and.w	r1, r2, #16
 80030dc:	b2cb      	uxtb	r3, r1
 80030de:	2b00      	cmp	r3, #0
 80030e0:	f040 8190 	bne.w	8003404 <USBD_OTG_ISR_Handler+0x400>
 80030e4:	f3c8 4207 	ubfx	r2, r8, #16, #8
 80030e8:	f002 0120 	and.w	r1, r2, #32
 80030ec:	b2cb      	uxtb	r3, r1
 80030ee:	2b00      	cmp	r3, #0
 80030f0:	d08f      	beq.n	8003012 <USBD_OTG_ISR_Handler+0xe>
 80030f2:	f240 1c24 	movw	ip, #292	; 0x124
 80030f6:	f2c2 0c00 	movt	ip, #8192	; 0x2000
 80030fa:	4628      	mov	r0, r5
 80030fc:	f8dc 2000 	ldr.w	r2, [ip]
 8003100:	6a11      	ldr	r1, [r2, #32]
 8003102:	4788      	blx	r1
 8003104:	68eb      	ldr	r3, [r5, #12]
 8003106:	f44f 1000 	mov.w	r0, #2097152	; 0x200000
 800310a:	6158      	str	r0, [r3, #20]
 800310c:	2001      	movs	r0, #1
 800310e:	e780      	b.n	8003012 <USBD_OTG_ISR_Handler+0xe>
 8003110:	4628      	mov	r0, r5
 8003112:	f7ff fd37 	bl	8002b84 <USB_OTG_ReadDevAllInEPItr>
 8003116:	4682      	mov	sl, r0
 8003118:	2800      	cmp	r0, #0
 800311a:	f000 81c7 	beq.w	80034ac <USBD_OTG_ISR_Handler+0x4a8>
 800311e:	f240 1024 	movw	r0, #292	; 0x124
 8003122:	f2c2 0000 	movt	r0, #8192	; 0x2000
 8003126:	462f      	mov	r7, r5
 8003128:	f04f 0b00 	mov.w	fp, #0
 800312c:	e88d 0101 	stmia.w	sp, {r0, r8}
 8003130:	e038      	b.n	80031a4 <USBD_OTG_ISR_Handler+0x1a0>
 8003132:	f004 0104 	and.w	r1, r4, #4
 8003136:	b2cb      	uxtb	r3, r1
 8003138:	b113      	cbz	r3, 8003140 <USBD_OTG_ISR_Handler+0x13c>
 800313a:	69b8      	ldr	r0, [r7, #24]
 800313c:	2404      	movs	r4, #4
 800313e:	6084      	str	r4, [r0, #8]
 8003140:	f004 0e08 	and.w	lr, r4, #8
 8003144:	fa5f f28e 	uxtb.w	r2, lr
 8003148:	b112      	cbz	r2, 8003150 <USBD_OTG_ISR_Handler+0x14c>
 800314a:	69bb      	ldr	r3, [r7, #24]
 800314c:	2408      	movs	r4, #8
 800314e:	609c      	str	r4, [r3, #8]
 8003150:	f004 0010 	and.w	r0, r4, #16
 8003154:	b2c1      	uxtb	r1, r0
 8003156:	b111      	cbz	r1, 800315e <USBD_OTG_ISR_Handler+0x15a>
 8003158:	69ba      	ldr	r2, [r7, #24]
 800315a:	2410      	movs	r4, #16
 800315c:	6094      	str	r4, [r2, #8]
 800315e:	f004 0120 	and.w	r1, r4, #32
 8003162:	b2cb      	uxtb	r3, r1
 8003164:	b113      	cbz	r3, 800316c <USBD_OTG_ISR_Handler+0x168>
 8003166:	69b8      	ldr	r0, [r7, #24]
 8003168:	2420      	movs	r4, #32
 800316a:	6084      	str	r4, [r0, #8]
 800316c:	f004 0c40 	and.w	ip, r4, #64	; 0x40
 8003170:	fa5f f28c 	uxtb.w	r2, ip
 8003174:	b112      	cbz	r2, 800317c <USBD_OTG_ISR_Handler+0x178>
 8003176:	69bb      	ldr	r3, [r7, #24]
 8003178:	2440      	movs	r4, #64	; 0x40
 800317a:	609c      	str	r4, [r3, #8]
 800317c:	f004 0002 	and.w	r0, r4, #2
 8003180:	b2c1      	uxtb	r1, r0
 8003182:	b111      	cbz	r1, 800318a <USBD_OTG_ISR_Handler+0x186>
 8003184:	69ba      	ldr	r2, [r7, #24]
 8003186:	2402      	movs	r4, #2
 8003188:	6094      	str	r4, [r2, #8]
 800318a:	f004 0480 	and.w	r4, r4, #128	; 0x80
 800318e:	b2e4      	uxtb	r4, r4
 8003190:	2c00      	cmp	r4, #0
 8003192:	f040 8192 	bne.w	80034ba <USBD_OTG_ISR_Handler+0x4b6>
 8003196:	3704      	adds	r7, #4
 8003198:	ea5f 0a5a 	movs.w	sl, sl, lsr #1
 800319c:	f10b 0b01 	add.w	fp, fp, #1
 80031a0:	f000 81c6 	beq.w	8003530 <USBD_OTG_ISR_Handler+0x52c>
 80031a4:	f01a 0f01 	tst.w	sl, #1
 80031a8:	d0f5      	beq.n	8003196 <USBD_OTG_ISR_Handler+0x192>
 80031aa:	692b      	ldr	r3, [r5, #16]
 80031ac:	fa5f f88b 	uxtb.w	r8, fp
 80031b0:	6919      	ldr	r1, [r3, #16]
 80031b2:	6b5a      	ldr	r2, [r3, #52]	; 0x34
 80031b4:	eb05 0e88 	add.w	lr, r5, r8, lsl #2
 80031b8:	fa22 f408 	lsr.w	r4, r2, r8
 80031bc:	f8de 0018 	ldr.w	r0, [lr, #24]
 80031c0:	01e4      	lsls	r4, r4, #7
 80031c2:	6882      	ldr	r2, [r0, #8]
 80031c4:	fa5f fc84 	uxtb.w	ip, r4
 80031c8:	ea4c 0001 	orr.w	r0, ip, r1
 80031cc:	ea00 0402 	and.w	r4, r0, r2
 80031d0:	b2e4      	uxtb	r4, r4
 80031d2:	07e2      	lsls	r2, r4, #31
 80031d4:	d5ad      	bpl.n	8003132 <USBD_OTG_ISR_Handler+0x12e>
 80031d6:	9c00      	ldr	r4, [sp, #0]
 80031d8:	6b5a      	ldr	r2, [r3, #52]	; 0x34
 80031da:	6821      	ldr	r1, [r4, #0]
 80031dc:	2401      	movs	r4, #1
 80031de:	fa04 f60b 	lsl.w	r6, r4, fp
 80031e2:	ea22 0006 	bic.w	r0, r2, r6
 80031e6:	6358      	str	r0, [r3, #52]	; 0x34
 80031e8:	69bb      	ldr	r3, [r7, #24]
 80031ea:	684e      	ldr	r6, [r1, #4]
 80031ec:	609c      	str	r4, [r3, #8]
 80031ee:	4628      	mov	r0, r5
 80031f0:	4641      	mov	r1, r8
 80031f2:	47b0      	blx	r6
 80031f4:	78ee      	ldrb	r6, [r5, #3]
 80031f6:	42a6      	cmp	r6, r4
 80031f8:	d19b      	bne.n	8003132 <USBD_OTG_ISR_Handler+0x12e>
 80031fa:	f1bb 0f00 	cmp.w	fp, #0
 80031fe:	d105      	bne.n	800320c <USBD_OTG_ISR_Handler+0x208>
 8003200:	f895 c111 	ldrb.w	ip, [r5, #273]	; 0x111
 8003204:	f1bc 0f04 	cmp.w	ip, #4
 8003208:	f000 8152 	beq.w	80034b0 <USBD_OTG_ISR_Handler+0x4ac>
 800320c:	4634      	mov	r4, r6
 800320e:	e790      	b.n	8003132 <USBD_OTG_ISR_Handler+0x12e>
 8003210:	4628      	mov	r0, r5
 8003212:	f7ff fca5 	bl	8002b60 <USB_OTG_ReadDevAllOutEp_itr>
 8003216:	4604      	mov	r4, r0
 8003218:	2800      	cmp	r0, #0
 800321a:	f000 8145 	beq.w	80034a8 <USBD_OTG_ISR_Handler+0x4a4>
 800321e:	f240 1b24 	movw	fp, #292	; 0x124
 8003222:	462e      	mov	r6, r5
 8003224:	46a9      	mov	r9, r5
 8003226:	2700      	movs	r7, #0
 8003228:	f2c2 0b00 	movt	fp, #8192	; 0x2000
 800322c:	46c2      	mov	sl, r8
 800322e:	e006      	b.n	800323e <USBD_OTG_ISR_Handler+0x23a>
 8003230:	3701      	adds	r7, #1
 8003232:	3604      	adds	r6, #4
 8003234:	0864      	lsrs	r4, r4, #1
 8003236:	f109 0928 	add.w	r9, r9, #40	; 0x28
 800323a:	f000 817d 	beq.w	8003538 <USBD_OTG_ISR_Handler+0x534>
 800323e:	07e0      	lsls	r0, r4, #31
 8003240:	d5f6      	bpl.n	8003230 <USBD_OTG_ISR_Handler+0x22c>
 8003242:	fa5f f887 	uxtb.w	r8, r7
 8003246:	4641      	mov	r1, r8
 8003248:	4628      	mov	r0, r5
 800324a:	f7ff fc91 	bl	8002b70 <USB_OTG_ReadDevOutEP_itr>
 800324e:	b2c0      	uxtb	r0, r0
 8003250:	07c1      	lsls	r1, r0, #31
 8003252:	d51c      	bpl.n	800328e <USBD_OTG_ISR_Handler+0x28a>
 8003254:	6d70      	ldr	r0, [r6, #84]	; 0x54
 8003256:	f8db 2000 	ldr.w	r2, [fp]
 800325a:	2301      	movs	r3, #1
 800325c:	6083      	str	r3, [r0, #8]
 800325e:	78e9      	ldrb	r1, [r5, #3]
 8003260:	2901      	cmp	r1, #1
 8003262:	bf01      	itttt	eq
 8003264:	6900      	ldreq	r0, [r0, #16]
 8003266:	f8d9 1378 	ldreq.w	r1, [r9, #888]	; 0x378
 800326a:	f3c0 0012 	ubfxeq	r0, r0, #0, #19
 800326e:	ebc0 0001 	rsbeq	r0, r0, r1
 8003272:	bf08      	it	eq
 8003274:	f8c9 0388 	streq.w	r0, [r9, #904]	; 0x388
 8003278:	4641      	mov	r1, r8
 800327a:	4628      	mov	r0, r5
 800327c:	6813      	ldr	r3, [r2, #0]
 800327e:	4798      	blx	r3
 8003280:	f895 8003 	ldrb.w	r8, [r5, #3]
 8003284:	2001      	movs	r0, #1
 8003286:	f1b8 0f01 	cmp.w	r8, #1
 800328a:	f000 8158 	beq.w	800353e <USBD_OTG_ISR_Handler+0x53a>
 800328e:	f000 0802 	and.w	r8, r0, #2
 8003292:	fa5f f188 	uxtb.w	r1, r8
 8003296:	b111      	cbz	r1, 800329e <USBD_OTG_ISR_Handler+0x29a>
 8003298:	6d73      	ldr	r3, [r6, #84]	; 0x54
 800329a:	2002      	movs	r0, #2
 800329c:	6098      	str	r0, [r3, #8]
 800329e:	f000 0104 	and.w	r1, r0, #4
 80032a2:	b2ca      	uxtb	r2, r1
 80032a4:	b112      	cbz	r2, 80032ac <USBD_OTG_ISR_Handler+0x2a8>
 80032a6:	6d73      	ldr	r3, [r6, #84]	; 0x54
 80032a8:	2004      	movs	r0, #4
 80032aa:	6098      	str	r0, [r3, #8]
 80032ac:	f000 0208 	and.w	r2, r0, #8
 80032b0:	b2d0      	uxtb	r0, r2
 80032b2:	2800      	cmp	r0, #0
 80032b4:	d0bc      	beq.n	8003230 <USBD_OTG_ISR_Handler+0x22c>
 80032b6:	f8db 1000 	ldr.w	r1, [fp]
 80032ba:	4628      	mov	r0, r5
 80032bc:	688a      	ldr	r2, [r1, #8]
 80032be:	4790      	blx	r2
 80032c0:	6d73      	ldr	r3, [r6, #84]	; 0x54
 80032c2:	2108      	movs	r1, #8
 80032c4:	6099      	str	r1, [r3, #8]
 80032c6:	e7b3      	b.n	8003230 <USBD_OTG_ISR_Handler+0x22c>
 80032c8:	68eb      	ldr	r3, [r5, #12]
 80032ca:	699a      	ldr	r2, [r3, #24]
 80032cc:	f022 0410 	bic.w	r4, r2, #16
 80032d0:	619c      	str	r4, [r3, #24]
 80032d2:	6a1c      	ldr	r4, [r3, #32]
 80032d4:	f004 010f 	and.w	r1, r4, #15
 80032d8:	eb01 0081 	add.w	r0, r1, r1, lsl #2
 80032dc:	f3c4 4243 	ubfx	r2, r4, #17, #4
 80032e0:	eb05 06c0 	add.w	r6, r5, r0, lsl #3
 80032e4:	2a02      	cmp	r2, #2
 80032e6:	f506 765c 	add.w	r6, r6, #880	; 0x370
 80032ea:	f000 80be 	beq.w	800346a <USBD_OTG_ISR_Handler+0x466>
 80032ee:	2a06      	cmp	r2, #6
 80032f0:	d10b      	bne.n	800330a <USBD_OTG_ISR_Handler+0x306>
 80032f2:	2208      	movs	r2, #8
 80032f4:	4628      	mov	r0, r5
 80032f6:	f505 61b9 	add.w	r1, r5, #1480	; 0x5c8
 80032fa:	f7fe ff67 	bl	80021cc <USB_OTG_ReadPacket>
 80032fe:	69b0      	ldr	r0, [r6, #24]
 8003300:	68eb      	ldr	r3, [r5, #12]
 8003302:	f3c4 140a 	ubfx	r4, r4, #4, #11
 8003306:	1902      	adds	r2, r0, r4
 8003308:	61b2      	str	r2, [r6, #24]
 800330a:	699a      	ldr	r2, [r3, #24]
 800330c:	f042 0110 	orr.w	r1, r2, #16
 8003310:	6199      	str	r1, [r3, #24]
 8003312:	2001      	movs	r0, #1
 8003314:	e6ce      	b.n	80030b4 <USBD_OTG_ISR_Handler+0xb0>
 8003316:	f240 1e24 	movw	lr, #292	; 0x124
 800331a:	f2c2 0e00 	movt	lr, #8192	; 0x2000
 800331e:	4628      	mov	r0, r5
 8003320:	f8de 1000 	ldr.w	r1, [lr]
 8003324:	68cb      	ldr	r3, [r1, #12]
 8003326:	4798      	blx	r3
 8003328:	68ea      	ldr	r2, [r5, #12]
 800332a:	2008      	movs	r0, #8
 800332c:	6150      	str	r0, [r2, #20]
 800332e:	2001      	movs	r0, #1
 8003330:	e6b9      	b.n	80030a6 <USBD_OTG_ISR_Handler+0xa2>
 8003332:	f240 1e24 	movw	lr, #292	; 0x124
 8003336:	f2c2 0e00 	movt	lr, #8192	; 0x2000
 800333a:	4628      	mov	r0, r5
 800333c:	f8de 3000 	ldr.w	r3, [lr]
 8003340:	695a      	ldr	r2, [r3, #20]
 8003342:	4790      	blx	r2
 8003344:	6929      	ldr	r1, [r5, #16]
 8003346:	68eb      	ldr	r3, [r5, #12]
 8003348:	6889      	ldr	r1, [r1, #8]
 800334a:	f44f 6200 	mov.w	r2, #2048	; 0x800
 800334e:	615a      	str	r2, [r3, #20]
 8003350:	7aa8      	ldrb	r0, [r5, #10]
 8003352:	2800      	cmp	r0, #0
 8003354:	f000 8087 	beq.w	8003466 <USBD_OTG_ISR_Handler+0x462>
 8003358:	07cb      	lsls	r3, r1, #31
 800335a:	f140 8084 	bpl.w	8003466 <USBD_OTG_ISR_Handler+0x462>
 800335e:	f8d5 310c 	ldr.w	r3, [r5, #268]	; 0x10c
 8003362:	681a      	ldr	r2, [r3, #0]
 8003364:	f042 0101 	orr.w	r1, r2, #1
 8003368:	6019      	str	r1, [r3, #0]
 800336a:	6818      	ldr	r0, [r3, #0]
 800336c:	f44f 4c6d 	mov.w	ip, #60672	; 0xed00
 8003370:	f2ce 0c00 	movt	ip, #57344	; 0xe000
 8003374:	f040 0203 	orr.w	r2, r0, #3
 8003378:	601a      	str	r2, [r3, #0]
 800337a:	f8dc 1010 	ldr.w	r1, [ip, #16]
 800337e:	f041 0006 	orr.w	r0, r1, #6
 8003382:	f8cc 0010 	str.w	r0, [ip, #16]
 8003386:	2001      	movs	r0, #1
 8003388:	e687      	b.n	800309a <USBD_OTG_ISR_Handler+0x96>
 800338a:	692b      	ldr	r3, [r5, #16]
 800338c:	6859      	ldr	r1, [r3, #4]
 800338e:	2400      	movs	r4, #0
 8003390:	f021 0001 	bic.w	r0, r1, #1
 8003394:	6058      	str	r0, [r3, #4]
 8003396:	4621      	mov	r1, r4
 8003398:	4628      	mov	r0, r5
 800339a:	f7ff f8a9 	bl	80024f0 <USB_OTG_FlushTxFifo>
 800339e:	786e      	ldrb	r6, [r5, #1]
 80033a0:	b166      	cbz	r6, 80033bc <USBD_OTG_ISR_Handler+0x3b8>
 80033a2:	f105 0214 	add.w	r2, r5, #20
 80033a6:	4623      	mov	r3, r4
 80033a8:	21ff      	movs	r1, #255	; 0xff
 80033aa:	f852 6f04 	ldr.w	r6, [r2, #4]!
 80033ae:	60b1      	str	r1, [r6, #8]
 80033b0:	6bd0      	ldr	r0, [r2, #60]	; 0x3c
 80033b2:	6081      	str	r1, [r0, #8]
 80033b4:	786e      	ldrb	r6, [r5, #1]
 80033b6:	3301      	adds	r3, #1
 80033b8:	42b3      	cmp	r3, r6
 80033ba:	d3f6      	bcc.n	80033aa <USBD_OTG_ISR_Handler+0x3a6>
 80033bc:	2601      	movs	r6, #1
 80033be:	692b      	ldr	r3, [r5, #16]
 80033c0:	f366 040f 	bfi	r4, r6, #0, #16
 80033c4:	212f      	movs	r1, #47	; 0x2f
 80033c6:	f04f 32ff 	mov.w	r2, #4294967295
 80033ca:	200f      	movs	r0, #15
 80033cc:	f366 441f 	bfi	r4, r6, #16, #16
 80033d0:	619a      	str	r2, [r3, #24]
 80033d2:	61dc      	str	r4, [r3, #28]
 80033d4:	6158      	str	r0, [r3, #20]
 80033d6:	6119      	str	r1, [r3, #16]
 80033d8:	681a      	ldr	r2, [r3, #0]
 80033da:	f36f 120a 	bfc	r2, #4, #7
 80033de:	601a      	str	r2, [r3, #0]
 80033e0:	4628      	mov	r0, r5
 80033e2:	f7ff fbd7 	bl	8002b94 <USB_OTG_EP0_OutStart>
 80033e6:	f240 1c24 	movw	ip, #292	; 0x124
 80033ea:	f2c2 0c00 	movt	ip, #8192	; 0x2000
 80033ee:	68e8      	ldr	r0, [r5, #12]
 80033f0:	f8dc 3000 	ldr.w	r3, [ip]
 80033f4:	f44f 5180 	mov.w	r1, #4096	; 0x1000
 80033f8:	6141      	str	r1, [r0, #20]
 80033fa:	691a      	ldr	r2, [r3, #16]
 80033fc:	4628      	mov	r0, r5
 80033fe:	4790      	blx	r2
 8003400:	4630      	mov	r0, r6
 8003402:	e65f      	b.n	80030c4 <USBD_OTG_ISR_Handler+0xc0>
 8003404:	f240 1e24 	movw	lr, #292	; 0x124
 8003408:	f2c2 0e00 	movt	lr, #8192	; 0x2000
 800340c:	4628      	mov	r0, r5
 800340e:	f8de 2000 	ldr.w	r2, [lr]
 8003412:	69d1      	ldr	r1, [r2, #28]
 8003414:	4788      	blx	r1
 8003416:	68eb      	ldr	r3, [r5, #12]
 8003418:	f44f 1080 	mov.w	r0, #1048576	; 0x100000
 800341c:	6158      	str	r0, [r3, #20]
 800341e:	2001      	movs	r0, #1
 8003420:	e660      	b.n	80030e4 <USBD_OTG_ISR_Handler+0xe0>
 8003422:	4628      	mov	r0, r5
 8003424:	f7ff f9ac 	bl	8002780 <USB_OTG_EP0Activate>
 8003428:	68ec      	ldr	r4, [r5, #12]
 800342a:	4628      	mov	r0, r5
 800342c:	68e4      	ldr	r4, [r4, #12]
 800342e:	f7ff f999 	bl	8002764 <USB_OTG_GetDeviceSpeed>
 8003432:	2803      	cmp	r0, #3
 8003434:	d02f      	beq.n	8003496 <USBD_OTG_ISR_Handler+0x492>
 8003436:	2301      	movs	r3, #1
 8003438:	2040      	movs	r0, #64	; 0x40
 800343a:	2205      	movs	r2, #5
 800343c:	70ab      	strb	r3, [r5, #2]
 800343e:	80a8      	strh	r0, [r5, #4]
 8003440:	f362 248d 	bfi	r4, r2, #10, #4
 8003444:	68ea      	ldr	r2, [r5, #12]
 8003446:	f44f 5100 	mov.w	r1, #8192	; 0x2000
 800344a:	60d4      	str	r4, [r2, #12]
 800344c:	2001      	movs	r0, #1
 800344e:	6151      	str	r1, [r2, #20]
 8003450:	e640      	b.n	80030d4 <USBD_OTG_ISR_Handler+0xd0>
 8003452:	f8d5 310c 	ldr.w	r3, [r5, #268]	; 0x10c
 8003456:	f8d5 110c 	ldr.w	r1, [r5, #268]	; 0x10c
 800345a:	f36f 0341 	bfc	r3, #1, #1
 800345e:	f36f 0300 	bfc	r3, #0, #1
 8003462:	600b      	str	r3, [r1, #0]
 8003464:	e5fe      	b.n	8003064 <USBD_OTG_ISR_Handler+0x60>
 8003466:	2001      	movs	r0, #1
 8003468:	e617      	b.n	800309a <USBD_OTG_ISR_Handler+0x96>
 800346a:	f647 71f0 	movw	r1, #32752	; 0x7ff0
 800346e:	ea04 0001 	and.w	r0, r4, r1
 8003472:	2800      	cmp	r0, #0
 8003474:	f43f af49 	beq.w	800330a <USBD_OTG_ISR_Handler+0x306>
 8003478:	f3c4 140a 	ubfx	r4, r4, #4, #11
 800347c:	4622      	mov	r2, r4
 800347e:	68f1      	ldr	r1, [r6, #12]
 8003480:	4628      	mov	r0, r5
 8003482:	f7fe fea3 	bl	80021cc <USB_OTG_ReadPacket>
 8003486:	68f1      	ldr	r1, [r6, #12]
 8003488:	69b0      	ldr	r0, [r6, #24]
 800348a:	68eb      	ldr	r3, [r5, #12]
 800348c:	190a      	adds	r2, r1, r4
 800348e:	1904      	adds	r4, r0, r4
 8003490:	60f2      	str	r2, [r6, #12]
 8003492:	61b4      	str	r4, [r6, #24]
 8003494:	e739      	b.n	800330a <USBD_OTG_ISR_Handler+0x306>
 8003496:	2100      	movs	r1, #0
 8003498:	f44f 7300 	mov.w	r3, #512	; 0x200
 800349c:	2009      	movs	r0, #9
 800349e:	70a9      	strb	r1, [r5, #2]
 80034a0:	80ab      	strh	r3, [r5, #4]
 80034a2:	f360 248d 	bfi	r4, r0, #10, #4
 80034a6:	e7cd      	b.n	8003444 <USBD_OTG_ISR_Handler+0x440>
 80034a8:	2001      	movs	r0, #1
 80034aa:	e5c3      	b.n	8003034 <USBD_OTG_ISR_Handler+0x30>
 80034ac:	2001      	movs	r0, #1
 80034ae:	e5c8      	b.n	8003042 <USBD_OTG_ISR_Handler+0x3e>
 80034b0:	4628      	mov	r0, r5
 80034b2:	f7ff fb6f 	bl	8002b94 <USB_OTG_EP0_OutStart>
 80034b6:	4634      	mov	r4, r6
 80034b8:	e63b      	b.n	8003132 <USBD_OTG_ISR_Handler+0x12e>
 80034ba:	eb0b 038b 	add.w	r3, fp, fp, lsl #2
 80034be:	eb05 06c3 	add.w	r6, r5, r3, lsl #3
 80034c2:	f506 748c 	add.w	r4, r6, #280	; 0x118
 80034c6:	69b9      	ldr	r1, [r7, #24]
 80034c8:	6962      	ldr	r2, [r4, #20]
 80034ca:	69a0      	ldr	r0, [r4, #24]
 80034cc:	68a3      	ldr	r3, [r4, #8]
 80034ce:	f8d1 9018 	ldr.w	r9, [r1, #24]
 80034d2:	1a16      	subs	r6, r2, r0
 80034d4:	429e      	cmp	r6, r3
 80034d6:	bf34      	ite	cc
 80034d8:	46b4      	movcc	ip, r6
 80034da:	469c      	movcs	ip, r3
 80034dc:	f10c 0e03 	add.w	lr, ip, #3
 80034e0:	fa1f f989 	uxth.w	r9, r9
 80034e4:	ebb9 0f9e 	cmp.w	r9, lr, lsr #2
 80034e8:	d91f      	bls.n	800352a <USBD_OTG_ISR_Handler+0x526>
 80034ea:	4282      	cmp	r2, r0
 80034ec:	d91d      	bls.n	800352a <USBD_OTG_ISR_Handler+0x526>
 80034ee:	b1e2      	cbz	r2, 800352a <USBD_OTG_ISR_Handler+0x526>
 80034f0:	68e1      	ldr	r1, [r4, #12]
 80034f2:	e004      	b.n	80034fe <USBD_OTG_ISR_Handler+0x4fa>
 80034f4:	6966      	ldr	r6, [r4, #20]
 80034f6:	42b3      	cmp	r3, r6
 80034f8:	d216      	bcs.n	8003528 <USBD_OTG_ISR_Handler+0x524>
 80034fa:	1af6      	subs	r6, r6, r3
 80034fc:	68a3      	ldr	r3, [r4, #8]
 80034fe:	429e      	cmp	r6, r3
 8003500:	bf28      	it	cs
 8003502:	461e      	movcs	r6, r3
 8003504:	b2b3      	uxth	r3, r6
 8003506:	4642      	mov	r2, r8
 8003508:	4628      	mov	r0, r5
 800350a:	f7fe fe39 	bl	8002180 <USB_OTG_WritePacket>
 800350e:	69a2      	ldr	r2, [r4, #24]
 8003510:	68e1      	ldr	r1, [r4, #12]
 8003512:	18b3      	adds	r3, r6, r2
 8003514:	1989      	adds	r1, r1, r6
 8003516:	60e1      	str	r1, [r4, #12]
 8003518:	61a3      	str	r3, [r4, #24]
 800351a:	69ba      	ldr	r2, [r7, #24]
 800351c:	6990      	ldr	r0, [r2, #24]
 800351e:	3603      	adds	r6, #3
 8003520:	b280      	uxth	r0, r0
 8003522:	ebb0 0f96 	cmp.w	r0, r6, lsr #2
 8003526:	d8e5      	bhi.n	80034f4 <USBD_OTG_ISR_Handler+0x4f0>
 8003528:	4611      	mov	r1, r2
 800352a:	2380      	movs	r3, #128	; 0x80
 800352c:	608b      	str	r3, [r1, #8]
 800352e:	e632      	b.n	8003196 <USBD_OTG_ISR_Handler+0x192>
 8003530:	f8dd 8004 	ldr.w	r8, [sp, #4]
 8003534:	2001      	movs	r0, #1
 8003536:	e584      	b.n	8003042 <USBD_OTG_ISR_Handler+0x3e>
 8003538:	46d0      	mov	r8, sl
 800353a:	2001      	movs	r0, #1
 800353c:	e57a      	b.n	8003034 <USBD_OTG_ISR_Handler+0x30>
 800353e:	b91f      	cbnz	r7, 8003548 <USBD_OTG_ISR_Handler+0x544>
 8003540:	f895 2111 	ldrb.w	r2, [r5, #273]	; 0x111
 8003544:	2a05      	cmp	r2, #5
 8003546:	d001      	beq.n	800354c <USBD_OTG_ISR_Handler+0x548>
 8003548:	4640      	mov	r0, r8
 800354a:	e6a0      	b.n	800328e <USBD_OTG_ISR_Handler+0x28a>
 800354c:	4628      	mov	r0, r5
 800354e:	f7ff fb21 	bl	8002b94 <USB_OTG_EP0_OutStart>
 8003552:	4640      	mov	r0, r8
 8003554:	e69b      	b.n	800328e <USBD_OTG_ISR_Handler+0x28a>
 8003556:	bf00      	nop
 8003558:	08003774 	stmdaeq	r0, {r2, r4, r5, r6, r8, r9, sl, ip, sp}
 800355c:	20000000 	andcs	r0, r0, r0
 8003560:	20000154 	andcs	r0, r0, r4, asr r1
 8003564:	20000154 	andcs	r0, r0, r4, asr r1
 8003568:	20001038 	andcs	r1, r0, r8, lsr r0

0800356c <main>:
 800356c:	b570      	push	{r4, r5, r6, lr}
 800356e:	f240 0614 	movw	r6, #20
 8003572:	f2c2 0600 	movt	r6, #8192	; 0x2000
 8003576:	edd6 6a00 	vldr	s13, [r6]
 800357a:	eeb0 0a0e 	vmov.f32	s0, #14
 800357e:	ee36 7a80 	vadd.f32	s14, s13, s0
 8003582:	edd6 7a01 	vldr	s15, [r6, #4]
 8003586:	f240 1354 	movw	r3, #340	; 0x154
 800358a:	ee67 7a27 	vmul.f32	s15, s14, s15
 800358e:	f2c2 0300 	movt	r3, #8192	; 0x2000
 8003592:	b082      	sub	sp, #8
 8003594:	edc3 7a00 	vstr	s15, [r3]
 8003598:	2001      	movs	r0, #1
 800359a:	f7fc ff4d 	bl	8000438 <STM32F4_Discovery_LEDInit>
 800359e:	2000      	movs	r0, #0
 80035a0:	f7fc ff4a 	bl	8000438 <STM32F4_Discovery_LEDInit>
 80035a4:	2002      	movs	r0, #2
 80035a6:	f7fc ff47 	bl	8000438 <STM32F4_Discovery_LEDInit>
 80035aa:	2003      	movs	r0, #3
 80035ac:	f7fc ff44 	bl	8000438 <STM32F4_Discovery_LEDInit>
 80035b0:	f64f 74fe 	movw	r4, #65534	; 0xfffe
 80035b4:	2500      	movs	r5, #0
 80035b6:	f2c0 040f 	movt	r4, #15
 80035ba:	ed96 1a00 	vldr	s2, [r6]
 80035be:	edd6 0a01 	vldr	s1, [r6, #4]
 80035c2:	ee61 0a20 	vmul.f32	s1, s2, s1
 80035c6:	edc6 0a00 	vstr	s1, [r6]
 80035ca:	9501      	str	r5, [sp, #4]
 80035cc:	9801      	ldr	r0, [sp, #4]
 80035ce:	42a0      	cmp	r0, r4
 80035d0:	d805      	bhi.n	80035de <main+0x72>
 80035d2:	9b01      	ldr	r3, [sp, #4]
 80035d4:	1c5a      	adds	r2, r3, #1
 80035d6:	9201      	str	r2, [sp, #4]
 80035d8:	9901      	ldr	r1, [sp, #4]
 80035da:	42a1      	cmp	r1, r4
 80035dc:	d9f9      	bls.n	80035d2 <main+0x66>
 80035de:	2001      	movs	r0, #1
 80035e0:	f7fc ff50 	bl	8000484 <STM32F4_Discovery_LEDOn>
 80035e4:	2000      	movs	r0, #0
 80035e6:	f7fc ff5d 	bl	80004a4 <STM32F4_Discovery_LEDOff>
 80035ea:	9501      	str	r5, [sp, #4]
 80035ec:	9801      	ldr	r0, [sp, #4]
 80035ee:	42a0      	cmp	r0, r4
 80035f0:	d805      	bhi.n	80035fe <main+0x92>
 80035f2:	9b01      	ldr	r3, [sp, #4]
 80035f4:	1c5a      	adds	r2, r3, #1
 80035f6:	9201      	str	r2, [sp, #4]
 80035f8:	9901      	ldr	r1, [sp, #4]
 80035fa:	42a1      	cmp	r1, r4
 80035fc:	d9f9      	bls.n	80035f2 <main+0x86>
 80035fe:	2002      	movs	r0, #2
 8003600:	f7fc ff40 	bl	8000484 <STM32F4_Discovery_LEDOn>
 8003604:	2001      	movs	r0, #1
 8003606:	f7fc ff4d 	bl	80004a4 <STM32F4_Discovery_LEDOff>
 800360a:	9501      	str	r5, [sp, #4]
 800360c:	9801      	ldr	r0, [sp, #4]
 800360e:	42a0      	cmp	r0, r4
 8003610:	d805      	bhi.n	800361e <main+0xb2>
 8003612:	9b01      	ldr	r3, [sp, #4]
 8003614:	1c5a      	adds	r2, r3, #1
 8003616:	9201      	str	r2, [sp, #4]
 8003618:	9901      	ldr	r1, [sp, #4]
 800361a:	42a1      	cmp	r1, r4
 800361c:	d9f9      	bls.n	8003612 <main+0xa6>
 800361e:	2003      	movs	r0, #3
 8003620:	f7fc ff30 	bl	8000484 <STM32F4_Discovery_LEDOn>
 8003624:	2002      	movs	r0, #2
 8003626:	f7fc ff3d 	bl	80004a4 <STM32F4_Discovery_LEDOff>
 800362a:	9501      	str	r5, [sp, #4]
 800362c:	9801      	ldr	r0, [sp, #4]
 800362e:	42a0      	cmp	r0, r4
 8003630:	d805      	bhi.n	800363e <main+0xd2>
 8003632:	9b01      	ldr	r3, [sp, #4]
 8003634:	1c5a      	adds	r2, r3, #1
 8003636:	9201      	str	r2, [sp, #4]
 8003638:	9901      	ldr	r1, [sp, #4]
 800363a:	42a1      	cmp	r1, r4
 800363c:	d9f9      	bls.n	8003632 <main+0xc6>
 800363e:	2000      	movs	r0, #0
 8003640:	f7fc ff20 	bl	8000484 <STM32F4_Discovery_LEDOn>
 8003644:	2003      	movs	r0, #3
 8003646:	f7fc ff2d 	bl	80004a4 <STM32F4_Discovery_LEDOff>
 800364a:	e7b6      	b.n	80035ba <main+0x4e>

0800364c <Reset_Handler>:
 800364c:	2100      	movs	r1, #0
 800364e:	f000 b804 	b.w	800365a <LoopCopyDataInit>

08003652 <CopyDataInit>:
 8003652:	4b0f      	ldr	r3, [pc, #60]	; (8003690 <LoopFillZerobss+0x1e>)
 8003654:	585b      	ldr	r3, [r3, r1]
 8003656:	5043      	str	r3, [r0, r1]
 8003658:	3104      	adds	r1, #4

0800365a <LoopCopyDataInit>:
 800365a:	480e      	ldr	r0, [pc, #56]	; (8003694 <LoopFillZerobss+0x22>)
 800365c:	4b0e      	ldr	r3, [pc, #56]	; (8003698 <LoopFillZerobss+0x26>)
 800365e:	1842      	adds	r2, r0, r1
 8003660:	429a      	cmp	r2, r3
 8003662:	f4ff aff6 	bcc.w	8003652 <CopyDataInit>
 8003666:	4a0d      	ldr	r2, [pc, #52]	; (800369c <LoopFillZerobss+0x2a>)
 8003668:	f000 b803 	b.w	8003672 <LoopFillZerobss>

0800366c <FillZerobss>:
 800366c:	2300      	movs	r3, #0
 800366e:	f842 3b04 	str.w	r3, [r2], #4

08003672 <LoopFillZerobss>:
 8003672:	4b0b      	ldr	r3, [pc, #44]	; (80036a0 <LoopFillZerobss+0x2e>)
 8003674:	429a      	cmp	r2, r3
 8003676:	f4ff aff9 	bcc.w	800366c <FillZerobss>
 800367a:	480a      	ldr	r0, [pc, #40]	; (80036a4 <LoopFillZerobss+0x32>)
 800367c:	6801      	ldr	r1, [r0, #0]
 800367e:	f441 0170 	orr.w	r1, r1, #15728640	; 0xf00000
 8003682:	6001      	str	r1, [r0, #0]
 8003684:	f7fc fdba 	bl	80001fc <SystemInit>
 8003688:	f7ff ff70 	bl	800356c <main>
 800368c:	4770      	bx	lr
 800368e:	37740000 	ldrbcc	r0, [r4, -r0]!
 8003692:	00000800 	andeq	r0, r0, r0, lsl #16
 8003696:	01542000 	cmpeq	r4, r0
 800369a:	01542000 	cmpeq	r4, r0
 800369e:	10382000 	eorsne	r2, r8, r0
 80036a2:	ed882000 	stc	0, cr2, [r8]
 80036a6:	f7ffe000 			; <UNDEFINED> instruction: 0xf7ffe000

080036a8 <ADC_IRQHandler>:
 80036a8:	f7ff bffe 	b.w	80036a8 <ADC_IRQHandler>

080036ac <GPIO_CLK>:
 80036ac:	00000008 	andeq	r0, r0, r8
 80036b0:	00000008 	andeq	r0, r0, r8
 80036b4:	00000008 	andeq	r0, r0, r8
 80036b8:	00000008 	andeq	r0, r0, r8

080036bc <GPIO_PIN>:
 80036bc:	20001000 	andcs	r1, r0, r0
 80036c0:	80004000 	andhi	r4, r0, r0

080036c4 <BUTTON_IRQn>:
 80036c4:	00000006 	andeq	r0, r0, r6

080036c8 <BUTTON_PIN_SOURCE>:
 80036c8:	00000000 	andeq	r0, r0, r0

080036cc <BUTTON_PORT_SOURCE>:
 80036cc:	00000000 	andeq	r0, r0, r0

080036d0 <BUTTON_EXTI_LINE>:
 80036d0:	00000001 	andeq	r0, r0, r1

080036d4 <BUTTON_CLK>:
 80036d4:	00000001 	andeq	r0, r0, r1

080036d8 <BUTTON_PIN>:
 80036d8:	00000001 	andeq	r0, r0, r1

080036dc <CSWTCH.4>:
 80036dc:	00020102 	andeq	r0, r2, r2, lsl #2
 80036e0:	76726574 			; <UNDEFINED> instruction: 0x76726574
 80036e4:	00000065 	andeq	r0, r0, r5, rrx
 80036e8:	706f6f52 	rsbvc	r6, pc, r2, asr pc	; <UNPREDICTABLE>
 80036ec:	6f4b2065 	svcvs	0x004b2065
 80036f0:	6e6f6b6b 	vnmulvs.f64	d22, d15, d27
 80036f4:	696d6569 	stmdbvs	sp!, {r0, r3, r5, r6, r8, sl, sp, lr}^
 80036f8:	00000000 	andeq	r0, r0, r0
 80036fc:	2d627375 	stclcs	3, cr7, [r2, #-468]!	; 0xfffffe2c
 8003700:	2d636463 	cfstrdcs	mvd6, [r3, #-396]!	; 0xfffffe74
 8003704:	6d617865 	stclvs	8, cr7, [r1, #-404]!	; 0xfffffe6c
 8003708:	20656c70 	rsbcs	r6, r5, r0, ror ip
 800370c:	65746e49 	ldrbvs	r6, [r4, #-3657]!	; 0xfffff1b7
 8003710:	63616672 	cmnvs	r1, #119537664	; 0x7200000
 8003714:	00000065 	andeq	r0, r0, r5, rrx
 8003718:	2d627375 	stclcs	3, cr7, [r2, #-468]!	; 0xfffffe2c
 800371c:	2d636463 	cfstrdcs	mvd6, [r3, #-396]!	; 0xfffffe74
 8003720:	6d617865 	stclvs	8, cr7, [r1, #-404]!	; 0xfffffe6c
 8003724:	20656c70 	rsbcs	r6, r5, r0, ror ip
 8003728:	666e6f63 	strbtvs	r6, [lr], -r3, ror #30
 800372c:	00006769 	andeq	r6, r0, r9, ror #14
 8003730:	30303030 	eorscc	r3, r0, r0, lsr r0
 8003734:	30303030 	eorscc	r3, r0, r0, lsr r0
 8003738:	42303530 	eorsmi	r3, r0, #48, 10	; 0xc000000
 800373c:	00000000 	andeq	r0, r0, r0
 8003740:	30303030 	eorscc	r3, r0, r0, lsr r0
 8003744:	30303030 	eorscc	r3, r0, r0, lsr r0
 8003748:	43303530 	teqmi	r0, #48, 10	; 0xc000000
 800374c:	00000000 	andeq	r0, r0, r0
 8003750:	336d7473 	cmncc	sp, #1929379840	; 0x73000000
 8003754:	2d346632 	ldccs	6, cr6, [r4, #-200]!	; 0xffffff38
 8003758:	63736964 	cmnvs	r3, #100, 18	; 0x190000
 800375c:	7265766f 	rsbvc	r7, r5, #116391936	; 0x6f00000
 8003760:	73752d79 	cmnvc	r5, #7744	; 0x1e40
 8003764:	64632d62 	strbtvs	r2, [r3], #-3426	; 0xfffff29e
 8003768:	78652d63 	stmdavc	r5!, {r0, r1, r5, r6, r8, sl, fp, sp}^
 800376c:	6c706d61 	ldclvs	13, cr6, [r0], #-388	; 0xfffffe7c
 8003770:	00000065 	andeq	r0, r0, r5, rrx
